

Microchip MPLAB XC8 Assembler V2.36 build 20220127204148 
                                                                                               Thu Oct 20 02:42:59 2022

Microchip MPLAB XC8 C Compiler v2.36 (Free license) build 20220127204148 Og1 
     1                           	processor	16F1455
     2                           	pagewidth 120
     3                           	opt	flic
     4                           	psect	idataBANK2,global,class=CODE,delta=2,noexec
     5                           	psect	stringtext1,global,class=STRCODE,delta=2,noexec
     6                           	psect	stringtext2,global,class=STRCODE,delta=2,noexec
     7                           	psect	stringtext3,global,class=STRCODE,delta=2,noexec
     8                           	psect	stringtext4,global,class=STRCODE,delta=2,noexec
     9                           	psect	stringtext5,global,class=STRCODE,delta=2,noexec
    10                           	psect	stringtext6,global,class=STRCODE,delta=2,noexec
    11                           	psect	stringtext7,global,class=STRCODE,delta=2,noexec
    12                           	psect	stringtext8,global,class=STRCODE,delta=2,noexec
    13                           	psect	stringtext9,global,class=STRCODE,delta=2,noexec
    14                           	psect	stringtext10,global,class=STRCODE,delta=2,noexec
    15                           	psect	cinit,global,class=CODE,merge=1,delta=2
    16                           	psect	bssBANK1,global,class=BANK1,space=1,delta=1,noexec
    17                           	psect	bssBANK2,global,class=BANK2,space=1,delta=1,noexec
    18                           	psect	dataBANK2,global,class=BANK2,space=1,delta=1,noexec
    19                           	psect	clrtext,global,class=CODE,delta=2
    20                           	psect	cstackBANK1,global,class=BANK1,space=1,delta=1,noexec
    21                           	psect	cstackCOMMON,global,class=COMMON,space=1,delta=1,noexec
    22                           	psect	maintext,global,class=CODE,merge=1,split=1,delta=2
    23                           	psect	text1,local,class=CODE,merge=1,delta=2
    24                           	psect	text2,local,class=CODE,merge=1,delta=2
    25                           	psect	text3,local,class=CODE,merge=1,delta=2
    26                           	psect	text4,local,class=CODE,merge=1,delta=2
    27                           	psect	text5,local,class=CODE,merge=1,delta=2
    28                           	psect	text6,local,class=CODE,merge=1,delta=2
    29                           	psect	text7,local,class=CODE,merge=1,delta=2
    30                           	psect	text8,local,class=CODE,merge=1,delta=2
    31                           	psect	text9,local,class=CODE,merge=1,delta=2,group=2
    32                           	psect	text10,local,class=CODE,merge=1,delta=2
    33                           	psect	text11,local,class=CODE,merge=1,delta=2
    34                           	psect	text12,local,class=CODE,merge=1,delta=2
    35                           	psect	text13,local,class=CODE,merge=1,delta=2
    36                           	psect	text14,local,class=CODE,merge=1,delta=2
    37                           	psect	text15,local,class=CODE,merge=1,delta=2,group=2
    38                           	psect	text16,local,class=CODE,merge=1,delta=2
    39                           	psect	text17,local,class=CODE,merge=1,delta=2
    40                           	psect	text18,local,class=CODE,merge=1,delta=2
    41                           	psect	text19,local,class=CODE,merge=1,delta=2
    42                           	psect	text20,local,class=CODE,merge=1,delta=2
    43                           	psect	text21,local,class=CODE,merge=1,delta=2
    44                           	psect	text22,local,class=CODE,merge=1,delta=2
    45                           	psect	text23,local,class=CODE,merge=1,delta=2
    46                           	psect	text24,local,class=CODE,merge=1,delta=2
    47                           	psect	text25,local,class=CODE,merge=1,delta=2
    48                           	psect	text26,local,class=CODE,merge=1,delta=2
    49                           	psect	text27,local,class=CODE,merge=1,delta=2
    50                           	psect	text28,local,class=CODE,merge=1,delta=2
    51                           	psect	text29,local,class=CODE,merge=1,delta=2
    52                           	psect	text30,local,class=CODE,merge=1,delta=2
    53                           	psect	text31,local,class=CODE,merge=1,delta=2
    54                           	psect	text32,local,class=CODE,merge=1,delta=2
    55                           	psect	text33,local,class=CODE,merge=1,delta=2
    56                           	psect	text34,local,class=CODE,merge=1,delta=2
    57                           	psect	text35,local,class=CODE,merge=1,delta=2
    58                           	psect	text36,local,class=CODE,merge=1,delta=2
    59                           	psect	text37,local,class=CODE,merge=1,delta=2
    60                           	psect	intentry,global,class=CODE,delta=2
    61                           	psect	idloc,global,abs,ovrld,class=IDLOC,space=5,delta=2,noexec
    62                           	psect	config,global,abs,ovrld,class=CONFIG,space=4,delta=2,noexec
    63                           	dabs	1,0x320,48
    64                           	dabs	1,0x2E0,16
    65                           	dabs	1,0x1A0,32
    66                           	dabs	1,0x150,32
    67                           	dabs	1,0x20,64,_BDT
    68                           	dabs	1,0x68,8,_CtrlTrfData
    69                           	dabs	1,0x60,8,_SetupPkt
    70                           	dabs	1,0xA0,16,_haptic_in
    71                           	dabs	1,0x230,49,_leds_output
    72                           	dabs	1,0x7E,2
    73  0000                     
    74                           ; Version 2.40
    75                           ; Generated 17/11/2021 GMT
    76                           ; 
    77                           ; Copyright © 2021, Microchip Technology Inc. and its subsidiaries ("Microchip")
    78                           ; All rights reserved.
    79                           ; 
    80                           ; This software is developed by Microchip Technology Inc. and its subsidiaries ("Microch
      +                          ip").
    81                           ; 
    82                           ; Redistribution and use in source and binary forms, with or without modification, are
    83                           ; permitted provided that the following conditions are met:
    84                           ; 
    85                           ;     1. Redistributions of source code must retain the above copyright notice, this lis
      +                          t of
    86                           ;        conditions and the following disclaimer.
    87                           ; 
    88                           ;     2. Redistributions in binary form must reproduce the above copyright notice, this 
      +                          list
    89                           ;        of conditions and the following disclaimer in the documentation and/or other
    90                           ;        materials provided with the distribution. Publication is not required when
    91                           ;        this file is used in an embedded application.
    92                           ; 
    93                           ;     3. Microchip's name may not be used to endorse or promote products derived from th
      +                          is
    94                           ;        software without specific prior written permission.
    95                           ; 
    96                           ; THIS SOFTWARE IS PROVIDED BY MICROCHIP "AS IS" AND ANY EXPRESS OR IMPLIED WARRANTIES,
    97                           ; INCLUDING, BUT NOT LIMITED TO, THE IMPLIED WARRANTIES OF MERCHANTABILITY AND FITNESS F
      +                          OR
    98                           ; PURPOSE ARE DISCLAIMED.  IN NO EVENT SHALL MICROCHIP BE LIABLE FOR ANY DIRECT, INDIREC
      +                          T,
    99                           ; INCIDENTAL, SPECIAL, EXEMPLARY, OR CONSEQUENTIAL DAMAGES (INCLUDING BUT NOT LIMITED TO
   100                           ; PROCUREMENT OF SUBSTITUTE GOODS OR SERVICES; LOSS OF USE, DATA OR PROFITS; OR BUSINESS
   101                           ; INTERRUPTION) HOWSOEVER CAUSED AND ON ANY THEORY OF LIABILITY, WHETHER IN CONTRACT, ST
      +                          RICT
   102                           ; LIABILITY, OR TORT (INCLUDING NEGLIGENCE OR OTHERWISE) ARISING IN ANY WAY OUT OF THE U
      +                          SE OF
   103                           ; THIS SOFTWARE, EVEN IF ADVISED OF THE POSSIBILITY OF SUCH DAMAGE.
   104                           ; 
   105                           ; 
   106                           ; Code-generator required, PIC16F1455 Definitions
   107                           ; 
   108                           ; SFR Addresses
   109  0000                     	;# 
   110  0001                     	;# 
   111  0002                     	;# 
   112  0003                     	;# 
   113  0004                     	;# 
   114  0005                     	;# 
   115  0006                     	;# 
   116  0007                     	;# 
   117  0008                     	;# 
   118  0009                     	;# 
   119  000A                     	;# 
   120  000B                     	;# 
   121  000C                     	;# 
   122  000E                     	;# 
   123  0011                     	;# 
   124  0012                     	;# 
   125  0015                     	;# 
   126  0016                     	;# 
   127  0016                     	;# 
   128  0017                     	;# 
   129  0018                     	;# 
   130  0019                     	;# 
   131  001A                     	;# 
   132  001B                     	;# 
   133  001C                     	;# 
   134  008C                     	;# 
   135  008E                     	;# 
   136  0091                     	;# 
   137  0092                     	;# 
   138  0095                     	;# 
   139  0096                     	;# 
   140  0097                     	;# 
   141  0098                     	;# 
   142  0099                     	;# 
   143  009A                     	;# 
   144  009B                     	;# 
   145  009B                     	;# 
   146  009C                     	;# 
   147  009D                     	;# 
   148  009E                     	;# 
   149  009F                     	;# 
   150  010C                     	;# 
   151  010E                     	;# 
   152  0111                     	;# 
   153  0112                     	;# 
   154  0113                     	;# 
   155  0114                     	;# 
   156  0115                     	;# 
   157  0116                     	;# 
   158  0117                     	;# 
   159  0118                     	;# 
   160  0119                     	;# 
   161  011D                     	;# 
   162  018C                     	;# 
   163  018E                     	;# 
   164  0191                     	;# 
   165  0191                     	;# 
   166  0192                     	;# 
   167  0193                     	;# 
   168  0193                     	;# 
   169  0194                     	;# 
   170  0195                     	;# 
   171  0196                     	;# 
   172  0197                     	;# 
   173  0199                     	;# 
   174  019A                     	;# 
   175  019B                     	;# 
   176  019B                     	;# 
   177  019C                     	;# 
   178  019D                     	;# 
   179  019E                     	;# 
   180  019F                     	;# 
   181  020C                     	;# 
   182  0211                     	;# 
   183  0211                     	;# 
   184  0212                     	;# 
   185  0212                     	;# 
   186  0213                     	;# 
   187  0213                     	;# 
   188  0214                     	;# 
   189  0214                     	;# 
   190  0215                     	;# 
   191  0215                     	;# 
   192  0215                     	;# 
   193  0216                     	;# 
   194  0216                     	;# 
   195  0217                     	;# 
   196  0217                     	;# 
   197  0391                     	;# 
   198  0392                     	;# 
   199  0393                     	;# 
   200  039A                     	;# 
   201  039B                     	;# 
   202  0611                     	;# 
   203  0612                     	;# 
   204  0613                     	;# 
   205  0613                     	;# 
   206  0614                     	;# 
   207  0615                     	;# 
   208  0616                     	;# 
   209  0616                     	;# 
   210  0691                     	;# 
   211  0692                     	;# 
   212  0693                     	;# 
   213  0694                     	;# 
   214  0695                     	;# 
   215  0E8E                     	;# 
   216  0E8F                     	;# 
   217  0E90                     	;# 
   218  0E91                     	;# 
   219  0E92                     	;# 
   220  0E93                     	;# 
   221  0E94                     	;# 
   222  0E94                     	;# 
   223  0E95                     	;# 
   224  0E96                     	;# 
   225  0E97                     	;# 
   226  0E98                     	;# 
   227  0E99                     	;# 
   228  0E9A                     	;# 
   229  0E9B                     	;# 
   230  0E9C                     	;# 
   231  0E9D                     	;# 
   232  0E9E                     	;# 
   233  0E9F                     	;# 
   234  0FE4                     	;# 
   235  0FE5                     	;# 
   236  0FE6                     	;# 
   237  0FE7                     	;# 
   238  0FE8                     	;# 
   239  0FE9                     	;# 
   240  0FEA                     	;# 
   241  0FEB                     	;# 
   242  0FED                     	;# 
   243  0FEE                     	;# 
   244  0FEF                     	;# 
   245  0000                     	;# 
   246  0001                     	;# 
   247  0002                     	;# 
   248  0003                     	;# 
   249  0004                     	;# 
   250  0005                     	;# 
   251  0006                     	;# 
   252  0007                     	;# 
   253  0008                     	;# 
   254  0009                     	;# 
   255  000A                     	;# 
   256  000B                     	;# 
   257  000C                     	;# 
   258  000E                     	;# 
   259  0011                     	;# 
   260  0012                     	;# 
   261  0015                     	;# 
   262  0016                     	;# 
   263  0016                     	;# 
   264  0017                     	;# 
   265  0018                     	;# 
   266  0019                     	;# 
   267  001A                     	;# 
   268  001B                     	;# 
   269  001C                     	;# 
   270  008C                     	;# 
   271  008E                     	;# 
   272  0091                     	;# 
   273  0092                     	;# 
   274  0095                     	;# 
   275  0096                     	;# 
   276  0097                     	;# 
   277  0098                     	;# 
   278  0099                     	;# 
   279  009A                     	;# 
   280  009B                     	;# 
   281  009B                     	;# 
   282  009C                     	;# 
   283  009D                     	;# 
   284  009E                     	;# 
   285  009F                     	;# 
   286  010C                     	;# 
   287  010E                     	;# 
   288  0111                     	;# 
   289  0112                     	;# 
   290  0113                     	;# 
   291  0114                     	;# 
   292  0115                     	;# 
   293  0116                     	;# 
   294  0117                     	;# 
   295  0118                     	;# 
   296  0119                     	;# 
   297  011D                     	;# 
   298  018C                     	;# 
   299  018E                     	;# 
   300  0191                     	;# 
   301  0191                     	;# 
   302  0192                     	;# 
   303  0193                     	;# 
   304  0193                     	;# 
   305  0194                     	;# 
   306  0195                     	;# 
   307  0196                     	;# 
   308  0197                     	;# 
   309  0199                     	;# 
   310  019A                     	;# 
   311  019B                     	;# 
   312  019B                     	;# 
   313  019C                     	;# 
   314  019D                     	;# 
   315  019E                     	;# 
   316  019F                     	;# 
   317  020C                     	;# 
   318  0211                     	;# 
   319  0211                     	;# 
   320  0212                     	;# 
   321  0212                     	;# 
   322  0213                     	;# 
   323  0213                     	;# 
   324  0214                     	;# 
   325  0214                     	;# 
   326  0215                     	;# 
   327  0215                     	;# 
   328  0215                     	;# 
   329  0216                     	;# 
   330  0216                     	;# 
   331  0217                     	;# 
   332  0217                     	;# 
   333  0391                     	;# 
   334  0392                     	;# 
   335  0393                     	;# 
   336  039A                     	;# 
   337  039B                     	;# 
   338  0611                     	;# 
   339  0612                     	;# 
   340  0613                     	;# 
   341  0613                     	;# 
   342  0614                     	;# 
   343  0615                     	;# 
   344  0616                     	;# 
   345  0616                     	;# 
   346  0691                     	;# 
   347  0692                     	;# 
   348  0693                     	;# 
   349  0694                     	;# 
   350  0695                     	;# 
   351  0E8E                     	;# 
   352  0E8F                     	;# 
   353  0E90                     	;# 
   354  0E91                     	;# 
   355  0E92                     	;# 
   356  0E93                     	;# 
   357  0E94                     	;# 
   358  0E94                     	;# 
   359  0E95                     	;# 
   360  0E96                     	;# 
   361  0E97                     	;# 
   362  0E98                     	;# 
   363  0E99                     	;# 
   364  0E9A                     	;# 
   365  0E9B                     	;# 
   366  0E9C                     	;# 
   367  0E9D                     	;# 
   368  0E9E                     	;# 
   369  0E9F                     	;# 
   370  0FE4                     	;# 
   371  0FE5                     	;# 
   372  0FE6                     	;# 
   373  0FE7                     	;# 
   374  0FE8                     	;# 
   375  0FE9                     	;# 
   376  0FEA                     	;# 
   377  0FEB                     	;# 
   378  0FED                     	;# 
   379  0FEE                     	;# 
   380  0FEF                     	;# 
   381  0000                     	;# 
   382  0001                     	;# 
   383  0002                     	;# 
   384  0003                     	;# 
   385  0004                     	;# 
   386  0005                     	;# 
   387  0006                     	;# 
   388  0007                     	;# 
   389  0008                     	;# 
   390  0009                     	;# 
   391  000A                     	;# 
   392  000B                     	;# 
   393  000C                     	;# 
   394  000E                     	;# 
   395  0011                     	;# 
   396  0012                     	;# 
   397  0015                     	;# 
   398  0016                     	;# 
   399  0016                     	;# 
   400  0017                     	;# 
   401  0018                     	;# 
   402  0019                     	;# 
   403  001A                     	;# 
   404  001B                     	;# 
   405  001C                     	;# 
   406  008C                     	;# 
   407  008E                     	;# 
   408  0091                     	;# 
   409  0092                     	;# 
   410  0095                     	;# 
   411  0096                     	;# 
   412  0097                     	;# 
   413  0098                     	;# 
   414  0099                     	;# 
   415  009A                     	;# 
   416  009B                     	;# 
   417  009B                     	;# 
   418  009C                     	;# 
   419  009D                     	;# 
   420  009E                     	;# 
   421  009F                     	;# 
   422  010C                     	;# 
   423  010E                     	;# 
   424  0111                     	;# 
   425  0112                     	;# 
   426  0113                     	;# 
   427  0114                     	;# 
   428  0115                     	;# 
   429  0116                     	;# 
   430  0117                     	;# 
   431  0118                     	;# 
   432  0119                     	;# 
   433  011D                     	;# 
   434  018C                     	;# 
   435  018E                     	;# 
   436  0191                     	;# 
   437  0191                     	;# 
   438  0192                     	;# 
   439  0193                     	;# 
   440  0193                     	;# 
   441  0194                     	;# 
   442  0195                     	;# 
   443  0196                     	;# 
   444  0197                     	;# 
   445  0199                     	;# 
   446  019A                     	;# 
   447  019B                     	;# 
   448  019B                     	;# 
   449  019C                     	;# 
   450  019D                     	;# 
   451  019E                     	;# 
   452  019F                     	;# 
   453  020C                     	;# 
   454  0211                     	;# 
   455  0211                     	;# 
   456  0212                     	;# 
   457  0212                     	;# 
   458  0213                     	;# 
   459  0213                     	;# 
   460  0214                     	;# 
   461  0214                     	;# 
   462  0215                     	;# 
   463  0215                     	;# 
   464  0215                     	;# 
   465  0216                     	;# 
   466  0216                     	;# 
   467  0217                     	;# 
   468  0217                     	;# 
   469  0391                     	;# 
   470  0392                     	;# 
   471  0393                     	;# 
   472  039A                     	;# 
   473  039B                     	;# 
   474  0611                     	;# 
   475  0612                     	;# 
   476  0613                     	;# 
   477  0613                     	;# 
   478  0614                     	;# 
   479  0615                     	;# 
   480  0616                     	;# 
   481  0616                     	;# 
   482  0691                     	;# 
   483  0692                     	;# 
   484  0693                     	;# 
   485  0694                     	;# 
   486  0695                     	;# 
   487  0E8E                     	;# 
   488  0E8F                     	;# 
   489  0E90                     	;# 
   490  0E91                     	;# 
   491  0E92                     	;# 
   492  0E93                     	;# 
   493  0E94                     	;# 
   494  0E94                     	;# 
   495  0E95                     	;# 
   496  0E96                     	;# 
   497  0E97                     	;# 
   498  0E98                     	;# 
   499  0E99                     	;# 
   500  0E9A                     	;# 
   501  0E9B                     	;# 
   502  0E9C                     	;# 
   503  0E9D                     	;# 
   504  0E9E                     	;# 
   505  0E9F                     	;# 
   506  0FE4                     	;# 
   507  0FE5                     	;# 
   508  0FE6                     	;# 
   509  0FE7                     	;# 
   510  0FE8                     	;# 
   511  0FE9                     	;# 
   512  0FEA                     	;# 
   513  0FEB                     	;# 
   514  0FED                     	;# 
   515  0FEE                     	;# 
   516  0FEF                     	;# 
   517  0000                     	;# 
   518  0001                     	;# 
   519  0002                     	;# 
   520  0003                     	;# 
   521  0004                     	;# 
   522  0005                     	;# 
   523  0006                     	;# 
   524  0007                     	;# 
   525  0008                     	;# 
   526  0009                     	;# 
   527  000A                     	;# 
   528  000B                     	;# 
   529  000C                     	;# 
   530  000E                     	;# 
   531  0011                     	;# 
   532  0012                     	;# 
   533  0015                     	;# 
   534  0016                     	;# 
   535  0016                     	;# 
   536  0017                     	;# 
   537  0018                     	;# 
   538  0019                     	;# 
   539  001A                     	;# 
   540  001B                     	;# 
   541  001C                     	;# 
   542  008C                     	;# 
   543  008E                     	;# 
   544  0091                     	;# 
   545  0092                     	;# 
   546  0095                     	;# 
   547  0096                     	;# 
   548  0097                     	;# 
   549  0098                     	;# 
   550  0099                     	;# 
   551  009A                     	;# 
   552  009B                     	;# 
   553  009B                     	;# 
   554  009C                     	;# 
   555  009D                     	;# 
   556  009E                     	;# 
   557  009F                     	;# 
   558  010C                     	;# 
   559  010E                     	;# 
   560  0111                     	;# 
   561  0112                     	;# 
   562  0113                     	;# 
   563  0114                     	;# 
   564  0115                     	;# 
   565  0116                     	;# 
   566  0117                     	;# 
   567  0118                     	;# 
   568  0119                     	;# 
   569  011D                     	;# 
   570  018C                     	;# 
   571  018E                     	;# 
   572  0191                     	;# 
   573  0191                     	;# 
   574  0192                     	;# 
   575  0193                     	;# 
   576  0193                     	;# 
   577  0194                     	;# 
   578  0195                     	;# 
   579  0196                     	;# 
   580  0197                     	;# 
   581  0199                     	;# 
   582  019A                     	;# 
   583  019B                     	;# 
   584  019B                     	;# 
   585  019C                     	;# 
   586  019D                     	;# 
   587  019E                     	;# 
   588  019F                     	;# 
   589  020C                     	;# 
   590  0211                     	;# 
   591  0211                     	;# 
   592  0212                     	;# 
   593  0212                     	;# 
   594  0213                     	;# 
   595  0213                     	;# 
   596  0214                     	;# 
   597  0214                     	;# 
   598  0215                     	;# 
   599  0215                     	;# 
   600  0215                     	;# 
   601  0216                     	;# 
   602  0216                     	;# 
   603  0217                     	;# 
   604  0217                     	;# 
   605  0391                     	;# 
   606  0392                     	;# 
   607  0393                     	;# 
   608  039A                     	;# 
   609  039B                     	;# 
   610  0611                     	;# 
   611  0612                     	;# 
   612  0613                     	;# 
   613  0613                     	;# 
   614  0614                     	;# 
   615  0615                     	;# 
   616  0616                     	;# 
   617  0616                     	;# 
   618  0691                     	;# 
   619  0692                     	;# 
   620  0693                     	;# 
   621  0694                     	;# 
   622  0695                     	;# 
   623  0E8E                     	;# 
   624  0E8F                     	;# 
   625  0E90                     	;# 
   626  0E91                     	;# 
   627  0E92                     	;# 
   628  0E93                     	;# 
   629  0E94                     	;# 
   630  0E94                     	;# 
   631  0E95                     	;# 
   632  0E96                     	;# 
   633  0E97                     	;# 
   634  0E98                     	;# 
   635  0E99                     	;# 
   636  0E9A                     	;# 
   637  0E9B                     	;# 
   638  0E9C                     	;# 
   639  0E9D                     	;# 
   640  0E9E                     	;# 
   641  0E9F                     	;# 
   642  0FE4                     	;# 
   643  0FE5                     	;# 
   644  0FE6                     	;# 
   645  0FE7                     	;# 
   646  0FE8                     	;# 
   647  0FE9                     	;# 
   648  0FEA                     	;# 
   649  0FEB                     	;# 
   650  0FED                     	;# 
   651  0FEE                     	;# 
   652  0FEF                     	;# 
   653  0000                     	;# 
   654  0001                     	;# 
   655  0002                     	;# 
   656  0003                     	;# 
   657  0004                     	;# 
   658  0005                     	;# 
   659  0006                     	;# 
   660  0007                     	;# 
   661  0008                     	;# 
   662  0009                     	;# 
   663  000A                     	;# 
   664  000B                     	;# 
   665  000C                     	;# 
   666  000E                     	;# 
   667  0011                     	;# 
   668  0012                     	;# 
   669  0015                     	;# 
   670  0016                     	;# 
   671  0016                     	;# 
   672  0017                     	;# 
   673  0018                     	;# 
   674  0019                     	;# 
   675  001A                     	;# 
   676  001B                     	;# 
   677  001C                     	;# 
   678  008C                     	;# 
   679  008E                     	;# 
   680  0091                     	;# 
   681  0092                     	;# 
   682  0095                     	;# 
   683  0096                     	;# 
   684  0097                     	;# 
   685  0098                     	;# 
   686  0099                     	;# 
   687  009A                     	;# 
   688  009B                     	;# 
   689  009B                     	;# 
   690  009C                     	;# 
   691  009D                     	;# 
   692  009E                     	;# 
   693  009F                     	;# 
   694  010C                     	;# 
   695  010E                     	;# 
   696  0111                     	;# 
   697  0112                     	;# 
   698  0113                     	;# 
   699  0114                     	;# 
   700  0115                     	;# 
   701  0116                     	;# 
   702  0117                     	;# 
   703  0118                     	;# 
   704  0119                     	;# 
   705  011D                     	;# 
   706  018C                     	;# 
   707  018E                     	;# 
   708  0191                     	;# 
   709  0191                     	;# 
   710  0192                     	;# 
   711  0193                     	;# 
   712  0193                     	;# 
   713  0194                     	;# 
   714  0195                     	;# 
   715  0196                     	;# 
   716  0197                     	;# 
   717  0199                     	;# 
   718  019A                     	;# 
   719  019B                     	;# 
   720  019B                     	;# 
   721  019C                     	;# 
   722  019D                     	;# 
   723  019E                     	;# 
   724  019F                     	;# 
   725  020C                     	;# 
   726  0211                     	;# 
   727  0211                     	;# 
   728  0212                     	;# 
   729  0212                     	;# 
   730  0213                     	;# 
   731  0213                     	;# 
   732  0214                     	;# 
   733  0214                     	;# 
   734  0215                     	;# 
   735  0215                     	;# 
   736  0215                     	;# 
   737  0216                     	;# 
   738  0216                     	;# 
   739  0217                     	;# 
   740  0217                     	;# 
   741  0391                     	;# 
   742  0392                     	;# 
   743  0393                     	;# 
   744  039A                     	;# 
   745  039B                     	;# 
   746  0611                     	;# 
   747  0612                     	;# 
   748  0613                     	;# 
   749  0613                     	;# 
   750  0614                     	;# 
   751  0615                     	;# 
   752  0616                     	;# 
   753  0616                     	;# 
   754  0691                     	;# 
   755  0692                     	;# 
   756  0693                     	;# 
   757  0694                     	;# 
   758  0695                     	;# 
   759  0E8E                     	;# 
   760  0E8F                     	;# 
   761  0E90                     	;# 
   762  0E91                     	;# 
   763  0E92                     	;# 
   764  0E93                     	;# 
   765  0E94                     	;# 
   766  0E94                     	;# 
   767  0E95                     	;# 
   768  0E96                     	;# 
   769  0E97                     	;# 
   770  0E98                     	;# 
   771  0E99                     	;# 
   772  0E9A                     	;# 
   773  0E9B                     	;# 
   774  0E9C                     	;# 
   775  0E9D                     	;# 
   776  0E9E                     	;# 
   777  0E9F                     	;# 
   778  0FE4                     	;# 
   779  0FE5                     	;# 
   780  0FE6                     	;# 
   781  0FE7                     	;# 
   782  0FE8                     	;# 
   783  0FE9                     	;# 
   784  0FEA                     	;# 
   785  0FEB                     	;# 
   786  0FED                     	;# 
   787  0FEE                     	;# 
   788  0FEF                     	;# 
   789  0000                     	;# 
   790  0001                     	;# 
   791  0002                     	;# 
   792  0003                     	;# 
   793  0004                     	;# 
   794  0005                     	;# 
   795  0006                     	;# 
   796  0007                     	;# 
   797  0008                     	;# 
   798  0009                     	;# 
   799  000A                     	;# 
   800  000B                     	;# 
   801  000C                     	;# 
   802  000E                     	;# 
   803  0011                     	;# 
   804  0012                     	;# 
   805  0015                     	;# 
   806  0016                     	;# 
   807  0016                     	;# 
   808  0017                     	;# 
   809  0018                     	;# 
   810  0019                     	;# 
   811  001A                     	;# 
   812  001B                     	;# 
   813  001C                     	;# 
   814  008C                     	;# 
   815  008E                     	;# 
   816  0091                     	;# 
   817  0092                     	;# 
   818  0095                     	;# 
   819  0096                     	;# 
   820  0097                     	;# 
   821  0098                     	;# 
   822  0099                     	;# 
   823  009A                     	;# 
   824  009B                     	;# 
   825  009B                     	;# 
   826  009C                     	;# 
   827  009D                     	;# 
   828  009E                     	;# 
   829  009F                     	;# 
   830  010C                     	;# 
   831  010E                     	;# 
   832  0111                     	;# 
   833  0112                     	;# 
   834  0113                     	;# 
   835  0114                     	;# 
   836  0115                     	;# 
   837  0116                     	;# 
   838  0117                     	;# 
   839  0118                     	;# 
   840  0119                     	;# 
   841  011D                     	;# 
   842  018C                     	;# 
   843  018E                     	;# 
   844  0191                     	;# 
   845  0191                     	;# 
   846  0192                     	;# 
   847  0193                     	;# 
   848  0193                     	;# 
   849  0194                     	;# 
   850  0195                     	;# 
   851  0196                     	;# 
   852  0197                     	;# 
   853  0199                     	;# 
   854  019A                     	;# 
   855  019B                     	;# 
   856  019B                     	;# 
   857  019C                     	;# 
   858  019D                     	;# 
   859  019E                     	;# 
   860  019F                     	;# 
   861  020C                     	;# 
   862  0211                     	;# 
   863  0211                     	;# 
   864  0212                     	;# 
   865  0212                     	;# 
   866  0213                     	;# 
   867  0213                     	;# 
   868  0214                     	;# 
   869  0214                     	;# 
   870  0215                     	;# 
   871  0215                     	;# 
   872  0215                     	;# 
   873  0216                     	;# 
   874  0216                     	;# 
   875  0217                     	;# 
   876  0217                     	;# 
   877  0391                     	;# 
   878  0392                     	;# 
   879  0393                     	;# 
   880  039A                     	;# 
   881  039B                     	;# 
   882  0611                     	;# 
   883  0612                     	;# 
   884  0613                     	;# 
   885  0613                     	;# 
   886  0614                     	;# 
   887  0615                     	;# 
   888  0616                     	;# 
   889  0616                     	;# 
   890  0691                     	;# 
   891  0692                     	;# 
   892  0693                     	;# 
   893  0694                     	;# 
   894  0695                     	;# 
   895  0E8E                     	;# 
   896  0E8F                     	;# 
   897  0E90                     	;# 
   898  0E91                     	;# 
   899  0E92                     	;# 
   900  0E93                     	;# 
   901  0E94                     	;# 
   902  0E94                     	;# 
   903  0E95                     	;# 
   904  0E96                     	;# 
   905  0E97                     	;# 
   906  0E98                     	;# 
   907  0E99                     	;# 
   908  0E9A                     	;# 
   909  0E9B                     	;# 
   910  0E9C                     	;# 
   911  0E9D                     	;# 
   912  0E9E                     	;# 
   913  0E9F                     	;# 
   914  0FE4                     	;# 
   915  0FE5                     	;# 
   916  0FE6                     	;# 
   917  0FE7                     	;# 
   918  0FE8                     	;# 
   919  0FE9                     	;# 
   920  0FEA                     	;# 
   921  0FEB                     	;# 
   922  0FED                     	;# 
   923  0FEE                     	;# 
   924  0FEF                     	;# 
   925  0000                     	;# 
   926  0001                     	;# 
   927  0002                     	;# 
   928  0003                     	;# 
   929  0004                     	;# 
   930  0005                     	;# 
   931  0006                     	;# 
   932  0007                     	;# 
   933  0008                     	;# 
   934  0009                     	;# 
   935  000A                     	;# 
   936  000B                     	;# 
   937  000C                     	;# 
   938  000E                     	;# 
   939  0011                     	;# 
   940  0012                     	;# 
   941  0015                     	;# 
   942  0016                     	;# 
   943  0016                     	;# 
   944  0017                     	;# 
   945  0018                     	;# 
   946  0019                     	;# 
   947  001A                     	;# 
   948  001B                     	;# 
   949  001C                     	;# 
   950  008C                     	;# 
   951  008E                     	;# 
   952  0091                     	;# 
   953  0092                     	;# 
   954  0095                     	;# 
   955  0096                     	;# 
   956  0097                     	;# 
   957  0098                     	;# 
   958  0099                     	;# 
   959  009A                     	;# 
   960  009B                     	;# 
   961  009B                     	;# 
   962  009C                     	;# 
   963  009D                     	;# 
   964  009E                     	;# 
   965  009F                     	;# 
   966  010C                     	;# 
   967  010E                     	;# 
   968  0111                     	;# 
   969  0112                     	;# 
   970  0113                     	;# 
   971  0114                     	;# 
   972  0115                     	;# 
   973  0116                     	;# 
   974  0117                     	;# 
   975  0118                     	;# 
   976  0119                     	;# 
   977  011D                     	;# 
   978  018C                     	;# 
   979  018E                     	;# 
   980  0191                     	;# 
   981  0191                     	;# 
   982  0192                     	;# 
   983  0193                     	;# 
   984  0193                     	;# 
   985  0194                     	;# 
   986  0195                     	;# 
   987  0196                     	;# 
   988  0197                     	;# 
   989  0199                     	;# 
   990  019A                     	;# 
   991  019B                     	;# 
   992  019B                     	;# 
   993  019C                     	;# 
   994  019D                     	;# 
   995  019E                     	;# 
   996  019F                     	;# 
   997  020C                     	;# 
   998  0211                     	;# 
   999  0211                     	;# 
  1000  0212                     	;# 
  1001  0212                     	;# 
  1002  0213                     	;# 
  1003  0213                     	;# 
  1004  0214                     	;# 
  1005  0214                     	;# 
  1006  0215                     	;# 
  1007  0215                     	;# 
  1008  0215                     	;# 
  1009  0216                     	;# 
  1010  0216                     	;# 
  1011  0217                     	;# 
  1012  0217                     	;# 
  1013  0391                     	;# 
  1014  0392                     	;# 
  1015  0393                     	;# 
  1016  039A                     	;# 
  1017  039B                     	;# 
  1018  0611                     	;# 
  1019  0612                     	;# 
  1020  0613                     	;# 
  1021  0613                     	;# 
  1022  0614                     	;# 
  1023  0615                     	;# 
  1024  0616                     	;# 
  1025  0616                     	;# 
  1026  0691                     	;# 
  1027  0692                     	;# 
  1028  0693                     	;# 
  1029  0694                     	;# 
  1030  0695                     	;# 
  1031  0E8E                     	;# 
  1032  0E8F                     	;# 
  1033  0E90                     	;# 
  1034  0E91                     	;# 
  1035  0E92                     	;# 
  1036  0E93                     	;# 
  1037  0E94                     	;# 
  1038  0E94                     	;# 
  1039  0E95                     	;# 
  1040  0E96                     	;# 
  1041  0E97                     	;# 
  1042  0E98                     	;# 
  1043  0E99                     	;# 
  1044  0E9A                     	;# 
  1045  0E9B                     	;# 
  1046  0E9C                     	;# 
  1047  0E9D                     	;# 
  1048  0E9E                     	;# 
  1049  0E9F                     	;# 
  1050  0FE4                     	;# 
  1051  0FE5                     	;# 
  1052  0FE6                     	;# 
  1053  0FE7                     	;# 
  1054  0FE8                     	;# 
  1055  0FE9                     	;# 
  1056  0FEA                     	;# 
  1057  0FEB                     	;# 
  1058  0FED                     	;# 
  1059  0FEE                     	;# 
  1060  0FEF                     	;# 
  1061  0000                     	;# 
  1062  0001                     	;# 
  1063  0002                     	;# 
  1064  0003                     	;# 
  1065  0004                     	;# 
  1066  0005                     	;# 
  1067  0006                     	;# 
  1068  0007                     	;# 
  1069  0008                     	;# 
  1070  0009                     	;# 
  1071  000A                     	;# 
  1072  000B                     	;# 
  1073  000C                     	;# 
  1074  000E                     	;# 
  1075  0011                     	;# 
  1076  0012                     	;# 
  1077  0015                     	;# 
  1078  0016                     	;# 
  1079  0016                     	;# 
  1080  0017                     	;# 
  1081  0018                     	;# 
  1082  0019                     	;# 
  1083  001A                     	;# 
  1084  001B                     	;# 
  1085  001C                     	;# 
  1086  008C                     	;# 
  1087  008E                     	;# 
  1088  0091                     	;# 
  1089  0092                     	;# 
  1090  0095                     	;# 
  1091  0096                     	;# 
  1092  0097                     	;# 
  1093  0098                     	;# 
  1094  0099                     	;# 
  1095  009A                     	;# 
  1096  009B                     	;# 
  1097  009B                     	;# 
  1098  009C                     	;# 
  1099  009D                     	;# 
  1100  009E                     	;# 
  1101  009F                     	;# 
  1102  010C                     	;# 
  1103  010E                     	;# 
  1104  0111                     	;# 
  1105  0112                     	;# 
  1106  0113                     	;# 
  1107  0114                     	;# 
  1108  0115                     	;# 
  1109  0116                     	;# 
  1110  0117                     	;# 
  1111  0118                     	;# 
  1112  0119                     	;# 
  1113  011D                     	;# 
  1114  018C                     	;# 
  1115  018E                     	;# 
  1116  0191                     	;# 
  1117  0191                     	;# 
  1118  0192                     	;# 
  1119  0193                     	;# 
  1120  0193                     	;# 
  1121  0194                     	;# 
  1122  0195                     	;# 
  1123  0196                     	;# 
  1124  0197                     	;# 
  1125  0199                     	;# 
  1126  019A                     	;# 
  1127  019B                     	;# 
  1128  019B                     	;# 
  1129  019C                     	;# 
  1130  019D                     	;# 
  1131  019E                     	;# 
  1132  019F                     	;# 
  1133  020C                     	;# 
  1134  0211                     	;# 
  1135  0211                     	;# 
  1136  0212                     	;# 
  1137  0212                     	;# 
  1138  0213                     	;# 
  1139  0213                     	;# 
  1140  0214                     	;# 
  1141  0214                     	;# 
  1142  0215                     	;# 
  1143  0215                     	;# 
  1144  0215                     	;# 
  1145  0216                     	;# 
  1146  0216                     	;# 
  1147  0217                     	;# 
  1148  0217                     	;# 
  1149  0391                     	;# 
  1150  0392                     	;# 
  1151  0393                     	;# 
  1152  039A                     	;# 
  1153  039B                     	;# 
  1154  0611                     	;# 
  1155  0612                     	;# 
  1156  0613                     	;# 
  1157  0613                     	;# 
  1158  0614                     	;# 
  1159  0615                     	;# 
  1160  0616                     	;# 
  1161  0616                     	;# 
  1162  0691                     	;# 
  1163  0692                     	;# 
  1164  0693                     	;# 
  1165  0694                     	;# 
  1166  0695                     	;# 
  1167  0E8E                     	;# 
  1168  0E8F                     	;# 
  1169  0E90                     	;# 
  1170  0E91                     	;# 
  1171  0E92                     	;# 
  1172  0E93                     	;# 
  1173  0E94                     	;# 
  1174  0E94                     	;# 
  1175  0E95                     	;# 
  1176  0E96                     	;# 
  1177  0E97                     	;# 
  1178  0E98                     	;# 
  1179  0E99                     	;# 
  1180  0E9A                     	;# 
  1181  0E9B                     	;# 
  1182  0E9C                     	;# 
  1183  0E9D                     	;# 
  1184  0E9E                     	;# 
  1185  0E9F                     	;# 
  1186  0FE4                     	;# 
  1187  0FE5                     	;# 
  1188  0FE6                     	;# 
  1189  0FE7                     	;# 
  1190  0FE8                     	;# 
  1191  0FE9                     	;# 
  1192  0FEA                     	;# 
  1193  0FEB                     	;# 
  1194  0FED                     	;# 
  1195  0FEE                     	;# 
  1196  0FEF                     	;# 
  1197  0000                     	;# 
  1198  0001                     	;# 
  1199  0002                     	;# 
  1200  0003                     	;# 
  1201  0004                     	;# 
  1202  0005                     	;# 
  1203  0006                     	;# 
  1204  0007                     	;# 
  1205  0008                     	;# 
  1206  0009                     	;# 
  1207  000A                     	;# 
  1208  000B                     	;# 
  1209  000C                     	;# 
  1210  000E                     	;# 
  1211  0011                     	;# 
  1212  0012                     	;# 
  1213  0015                     	;# 
  1214  0016                     	;# 
  1215  0016                     	;# 
  1216  0017                     	;# 
  1217  0018                     	;# 
  1218  0019                     	;# 
  1219  001A                     	;# 
  1220  001B                     	;# 
  1221  001C                     	;# 
  1222  008C                     	;# 
  1223  008E                     	;# 
  1224  0091                     	;# 
  1225  0092                     	;# 
  1226  0095                     	;# 
  1227  0096                     	;# 
  1228  0097                     	;# 
  1229  0098                     	;# 
  1230  0099                     	;# 
  1231  009A                     	;# 
  1232  009B                     	;# 
  1233  009B                     	;# 
  1234  009C                     	;# 
  1235  009D                     	;# 
  1236  009E                     	;# 
  1237  009F                     	;# 
  1238  010C                     	;# 
  1239  010E                     	;# 
  1240  0111                     	;# 
  1241  0112                     	;# 
  1242  0113                     	;# 
  1243  0114                     	;# 
  1244  0115                     	;# 
  1245  0116                     	;# 
  1246  0117                     	;# 
  1247  0118                     	;# 
  1248  0119                     	;# 
  1249  011D                     	;# 
  1250  018C                     	;# 
  1251  018E                     	;# 
  1252  0191                     	;# 
  1253  0191                     	;# 
  1254  0192                     	;# 
  1255  0193                     	;# 
  1256  0193                     	;# 
  1257  0194                     	;# 
  1258  0195                     	;# 
  1259  0196                     	;# 
  1260  0197                     	;# 
  1261  0199                     	;# 
  1262  019A                     	;# 
  1263  019B                     	;# 
  1264  019B                     	;# 
  1265  019C                     	;# 
  1266  019D                     	;# 
  1267  019E                     	;# 
  1268  019F                     	;# 
  1269  020C                     	;# 
  1270  0211                     	;# 
  1271  0211                     	;# 
  1272  0212                     	;# 
  1273  0212                     	;# 
  1274  0213                     	;# 
  1275  0213                     	;# 
  1276  0214                     	;# 
  1277  0214                     	;# 
  1278  0215                     	;# 
  1279  0215                     	;# 
  1280  0215                     	;# 
  1281  0216                     	;# 
  1282  0216                     	;# 
  1283  0217                     	;# 
  1284  0217                     	;# 
  1285  0391                     	;# 
  1286  0392                     	;# 
  1287  0393                     	;# 
  1288  039A                     	;# 
  1289  039B                     	;# 
  1290  0611                     	;# 
  1291  0612                     	;# 
  1292  0613                     	;# 
  1293  0613                     	;# 
  1294  0614                     	;# 
  1295  0615                     	;# 
  1296  0616                     	;# 
  1297  0616                     	;# 
  1298  0691                     	;# 
  1299  0692                     	;# 
  1300  0693                     	;# 
  1301  0694                     	;# 
  1302  0695                     	;# 
  1303  0E8E                     	;# 
  1304  0E8F                     	;# 
  1305  0E90                     	;# 
  1306  0E91                     	;# 
  1307  0E92                     	;# 
  1308  0E93                     	;# 
  1309  0E94                     	;# 
  1310  0E94                     	;# 
  1311  0E95                     	;# 
  1312  0E96                     	;# 
  1313  0E97                     	;# 
  1314  0E98                     	;# 
  1315  0E99                     	;# 
  1316  0E9A                     	;# 
  1317  0E9B                     	;# 
  1318  0E9C                     	;# 
  1319  0E9D                     	;# 
  1320  0E9E                     	;# 
  1321  0E9F                     	;# 
  1322  0FE4                     	;# 
  1323  0FE5                     	;# 
  1324  0FE6                     	;# 
  1325  0FE7                     	;# 
  1326  0FE8                     	;# 
  1327  0FE9                     	;# 
  1328  0FEA                     	;# 
  1329  0FEB                     	;# 
  1330  0FED                     	;# 
  1331  0FEE                     	;# 
  1332  0FEF                     	;# 
  1333  0000                     	;# 
  1334  0001                     	;# 
  1335  0002                     	;# 
  1336  0003                     	;# 
  1337  0004                     	;# 
  1338  0005                     	;# 
  1339  0006                     	;# 
  1340  0007                     	;# 
  1341  0008                     	;# 
  1342  0009                     	;# 
  1343  000A                     	;# 
  1344  000B                     	;# 
  1345  000C                     	;# 
  1346  000E                     	;# 
  1347  0011                     	;# 
  1348  0012                     	;# 
  1349  0015                     	;# 
  1350  0016                     	;# 
  1351  0016                     	;# 
  1352  0017                     	;# 
  1353  0018                     	;# 
  1354  0019                     	;# 
  1355  001A                     	;# 
  1356  001B                     	;# 
  1357  001C                     	;# 
  1358  008C                     	;# 
  1359  008E                     	;# 
  1360  0091                     	;# 
  1361  0092                     	;# 
  1362  0095                     	;# 
  1363  0096                     	;# 
  1364  0097                     	;# 
  1365  0098                     	;# 
  1366  0099                     	;# 
  1367  009A                     	;# 
  1368  009B                     	;# 
  1369  009B                     	;# 
  1370  009C                     	;# 
  1371  009D                     	;# 
  1372  009E                     	;# 
  1373  009F                     	;# 
  1374  010C                     	;# 
  1375  010E                     	;# 
  1376  0111                     	;# 
  1377  0112                     	;# 
  1378  0113                     	;# 
  1379  0114                     	;# 
  1380  0115                     	;# 
  1381  0116                     	;# 
  1382  0117                     	;# 
  1383  0118                     	;# 
  1384  0119                     	;# 
  1385  011D                     	;# 
  1386  018C                     	;# 
  1387  018E                     	;# 
  1388  0191                     	;# 
  1389  0191                     	;# 
  1390  0192                     	;# 
  1391  0193                     	;# 
  1392  0193                     	;# 
  1393  0194                     	;# 
  1394  0195                     	;# 
  1395  0196                     	;# 
  1396  0197                     	;# 
  1397  0199                     	;# 
  1398  019A                     	;# 
  1399  019B                     	;# 
  1400  019B                     	;# 
  1401  019C                     	;# 
  1402  019D                     	;# 
  1403  019E                     	;# 
  1404  019F                     	;# 
  1405  020C                     	;# 
  1406  0211                     	;# 
  1407  0211                     	;# 
  1408  0212                     	;# 
  1409  0212                     	;# 
  1410  0213                     	;# 
  1411  0213                     	;# 
  1412  0214                     	;# 
  1413  0214                     	;# 
  1414  0215                     	;# 
  1415  0215                     	;# 
  1416  0215                     	;# 
  1417  0216                     	;# 
  1418  0216                     	;# 
  1419  0217                     	;# 
  1420  0217                     	;# 
  1421  0391                     	;# 
  1422  0392                     	;# 
  1423  0393                     	;# 
  1424  039A                     	;# 
  1425  039B                     	;# 
  1426  0611                     	;# 
  1427  0612                     	;# 
  1428  0613                     	;# 
  1429  0613                     	;# 
  1430  0614                     	;# 
  1431  0615                     	;# 
  1432  0616                     	;# 
  1433  0616                     	;# 
  1434  0691                     	;# 
  1435  0692                     	;# 
  1436  0693                     	;# 
  1437  0694                     	;# 
  1438  0695                     	;# 
  1439  0E8E                     	;# 
  1440  0E8F                     	;# 
  1441  0E90                     	;# 
  1442  0E91                     	;# 
  1443  0E92                     	;# 
  1444  0E93                     	;# 
  1445  0E94                     	;# 
  1446  0E94                     	;# 
  1447  0E95                     	;# 
  1448  0E96                     	;# 
  1449  0E97                     	;# 
  1450  0E98                     	;# 
  1451  0E99                     	;# 
  1452  0E9A                     	;# 
  1453  0E9B                     	;# 
  1454  0E9C                     	;# 
  1455  0E9D                     	;# 
  1456  0E9E                     	;# 
  1457  0E9F                     	;# 
  1458  0FE4                     	;# 
  1459  0FE5                     	;# 
  1460  0FE6                     	;# 
  1461  0FE7                     	;# 
  1462  0FE8                     	;# 
  1463  0FE9                     	;# 
  1464  0FEA                     	;# 
  1465  0FEB                     	;# 
  1466  0FED                     	;# 
  1467  0FEE                     	;# 
  1468  0FEF                     	;# 
  1469  0000                     	;# 
  1470  0001                     	;# 
  1471  0002                     	;# 
  1472  0003                     	;# 
  1473  0004                     	;# 
  1474  0005                     	;# 
  1475  0006                     	;# 
  1476  0007                     	;# 
  1477  0008                     	;# 
  1478  0009                     	;# 
  1479  000A                     	;# 
  1480  000B                     	;# 
  1481  000C                     	;# 
  1482  000E                     	;# 
  1483  0011                     	;# 
  1484  0012                     	;# 
  1485  0015                     	;# 
  1486  0016                     	;# 
  1487  0016                     	;# 
  1488  0017                     	;# 
  1489  0018                     	;# 
  1490  0019                     	;# 
  1491  001A                     	;# 
  1492  001B                     	;# 
  1493  001C                     	;# 
  1494  008C                     	;# 
  1495  008E                     	;# 
  1496  0091                     	;# 
  1497  0092                     	;# 
  1498  0095                     	;# 
  1499  0096                     	;# 
  1500  0097                     	;# 
  1501  0098                     	;# 
  1502  0099                     	;# 
  1503  009A                     	;# 
  1504  009B                     	;# 
  1505  009B                     	;# 
  1506  009C                     	;# 
  1507  009D                     	;# 
  1508  009E                     	;# 
  1509  009F                     	;# 
  1510  010C                     	;# 
  1511  010E                     	;# 
  1512  0111                     	;# 
  1513  0112                     	;# 
  1514  0113                     	;# 
  1515  0114                     	;# 
  1516  0115                     	;# 
  1517  0116                     	;# 
  1518  0117                     	;# 
  1519  0118                     	;# 
  1520  0119                     	;# 
  1521  011D                     	;# 
  1522  018C                     	;# 
  1523  018E                     	;# 
  1524  0191                     	;# 
  1525  0191                     	;# 
  1526  0192                     	;# 
  1527  0193                     	;# 
  1528  0193                     	;# 
  1529  0194                     	;# 
  1530  0195                     	;# 
  1531  0196                     	;# 
  1532  0197                     	;# 
  1533  0199                     	;# 
  1534  019A                     	;# 
  1535  019B                     	;# 
  1536  019B                     	;# 
  1537  019C                     	;# 
  1538  019D                     	;# 
  1539  019E                     	;# 
  1540  019F                     	;# 
  1541  020C                     	;# 
  1542  0211                     	;# 
  1543  0211                     	;# 
  1544  0212                     	;# 
  1545  0212                     	;# 
  1546  0213                     	;# 
  1547  0213                     	;# 
  1548  0214                     	;# 
  1549  0214                     	;# 
  1550  0215                     	;# 
  1551  0215                     	;# 
  1552  0215                     	;# 
  1553  0216                     	;# 
  1554  0216                     	;# 
  1555  0217                     	;# 
  1556  0217                     	;# 
  1557  0391                     	;# 
  1558  0392                     	;# 
  1559  0393                     	;# 
  1560  039A                     	;# 
  1561  039B                     	;# 
  1562  0611                     	;# 
  1563  0612                     	;# 
  1564  0613                     	;# 
  1565  0613                     	;# 
  1566  0614                     	;# 
  1567  0615                     	;# 
  1568  0616                     	;# 
  1569  0616                     	;# 
  1570  0691                     	;# 
  1571  0692                     	;# 
  1572  0693                     	;# 
  1573  0694                     	;# 
  1574  0695                     	;# 
  1575  0E8E                     	;# 
  1576  0E8F                     	;# 
  1577  0E90                     	;# 
  1578  0E91                     	;# 
  1579  0E92                     	;# 
  1580  0E93                     	;# 
  1581  0E94                     	;# 
  1582  0E94                     	;# 
  1583  0E95                     	;# 
  1584  0E96                     	;# 
  1585  0E97                     	;# 
  1586  0E98                     	;# 
  1587  0E99                     	;# 
  1588  0E9A                     	;# 
  1589  0E9B                     	;# 
  1590  0E9C                     	;# 
  1591  0E9D                     	;# 
  1592  0E9E                     	;# 
  1593  0E9F                     	;# 
  1594  0FE4                     	;# 
  1595  0FE5                     	;# 
  1596  0FE6                     	;# 
  1597  0FE7                     	;# 
  1598  0FE8                     	;# 
  1599  0FE9                     	;# 
  1600  0FEA                     	;# 
  1601  0FEB                     	;# 
  1602  0FED                     	;# 
  1603  0FEE                     	;# 
  1604  0FEF                     	;_haptic_out
  1605                           
  1606                           	psect	idataBANK2
  1607  08A7                     __pidataBANK2:
  1608                           
  1609                           ;initializer for _v
  1610  08A7  3441               	retlw	65
  1611  08A8  3442               	retlw	66
  1612  08A9  3443               	retlw	67
  1613  08AA  3444               	retlw	68
  1614  08AB  3445               	retlw	69
  1615  08AC  3446               	retlw	70
  1616  08AD  3447               	retlw	71
  1617  08AE  3448               	retlw	72
  1618                           
  1619                           	psect	stringtext1
  1620  1154                     __pstringtext1:
  1621  1154                     _USB_SD_Ptr:
  1622  1154  345A               	retlw	low (_sd000| (0+32768))
  1623  1155  3491               	retlw	high (_sd000| (0+32768))
  1624  1156  34C0               	retlw	low (_sd001| (0+32768))
  1625  1157  3490               	retlw	high (_sd001| (0+32768))
  1626  1158  3410               	retlw	low (_sd002| (0+32768))
  1627  1159  3491               	retlw	high (_sd002| (0+32768))
  1628  115A                     __end_of_USB_SD_Ptr:
  1629                           
  1630                           	psect	stringtext2
  1631  115E                     __pstringtext2:
  1632  115E                     _USB_CD_Ptr:
  1633  115E  3400               	retlw	low (_configDescriptor1| (0+32768))
  1634  115F  3490               	retlw	high (_configDescriptor1| (0+32768))
  1635  1160                     __end_of_USB_CD_Ptr:
  1636                           
  1637                           	psect	stringtext3
  1638  1000                     __pstringtext3:
  1639  1000                     _configDescriptor1:
  1640  1000  3409               	retlw	9
  1641  1001  3402               	retlw	2
  1642  1002  3469               	retlw	105
  1643  1003  3400               	retlw	0
  1644  1004  3403               	retlw	3
  1645  1005  3401               	retlw	1
  1646  1006  3400               	retlw	0
  1647  1007  34C0               	retlw	192
  1648  1008  34FA               	retlw	250
  1649  1009  3409               	retlw	9
  1650  100A  3404               	retlw	4
  1651  100B  3400               	retlw	0
  1652  100C  3400               	retlw	0
  1653  100D  3402               	retlw	2
  1654  100E  3403               	retlw	3
  1655  100F  3400               	retlw	0
  1656  1010  3400               	retlw	0
  1657  1011  3400               	retlw	0
  1658  1012  3409               	retlw	9
  1659  1013  3421               	retlw	33
  1660  1014  3411               	retlw	17
  1661  1015  3401               	retlw	1
  1662  1016  3400               	retlw	0
  1663  1017  3401               	retlw	1
  1664  1018  3422               	retlw	34
  1665  1019  3457               	retlw	87
  1666  101A  3400               	retlw	0
  1667  101B  3407               	retlw	7
  1668  101C  3405               	retlw	5
  1669  101D  3481               	retlw	129
  1670  101E  3403               	retlw	3
  1671  101F  3440               	retlw	64
  1672  1020  3400               	retlw	0
  1673  1021  3403               	retlw	3
  1674  1022  3407               	retlw	7
  1675  1023  3405               	retlw	5
  1676  1024  3401               	retlw	1
  1677  1025  3403               	retlw	3
  1678  1026  3440               	retlw	64
  1679  1027  3400               	retlw	0
  1680  1028  3403               	retlw	3
  1681  1029  3409               	retlw	9
  1682  102A  3404               	retlw	4
  1683  102B  3401               	retlw	1
  1684  102C  3400               	retlw	0
  1685  102D  3402               	retlw	2
  1686  102E  3403               	retlw	3
  1687  102F  3400               	retlw	0
  1688  1030  3400               	retlw	0
  1689  1031  3400               	retlw	0
  1690  1032  3409               	retlw	9
  1691  1033  3421               	retlw	33
  1692  1034  3411               	retlw	17
  1693  1035  3401               	retlw	1
  1694  1036  3400               	retlw	0
  1695  1037  3401               	retlw	1
  1696  1038  3422               	retlw	34
  1697  1039  341C               	retlw	28
  1698  103A  3400               	retlw	0
  1699  103B  3407               	retlw	7
  1700  103C  3405               	retlw	5
  1701  103D  3482               	retlw	130
  1702  103E  3403               	retlw	3
  1703  103F  3440               	retlw	64
  1704  1040  3400               	retlw	0
  1705  1041  3464               	retlw	100
  1706  1042  3407               	retlw	7
  1707  1043  3405               	retlw	5
  1708  1044  3402               	retlw	2
  1709  1045  3403               	retlw	3
  1710  1046  3440               	retlw	64
  1711  1047  3400               	retlw	0
  1712  1048  3405               	retlw	5
  1713  1049  3409               	retlw	9
  1714  104A  3404               	retlw	4
  1715  104B  3402               	retlw	2
  1716  104C  3400               	retlw	0
  1717  104D  3402               	retlw	2
  1718  104E  3403               	retlw	3
  1719  104F  3400               	retlw	0
  1720  1050  3400               	retlw	0
  1721  1051  3400               	retlw	0
  1722  1052  3409               	retlw	9
  1723  1053  3421               	retlw	33
  1724  1054  3411               	retlw	17
  1725  1055  3401               	retlw	1
  1726  1056  3400               	retlw	0
  1727  1057  3401               	retlw	1
  1728  1058  3422               	retlw	34
  1729  1059  3416               	retlw	22
  1730  105A  3400               	retlw	0
  1731  105B  3407               	retlw	7
  1732  105C  3405               	retlw	5
  1733  105D  3483               	retlw	131
  1734  105E  3403               	retlw	3
  1735  105F  3440               	retlw	64
  1736  1060  3400               	retlw	0
  1737  1061  3464               	retlw	100
  1738  1062  3407               	retlw	7
  1739  1063  3405               	retlw	5
  1740  1064  3403               	retlw	3
  1741  1065  3403               	retlw	3
  1742  1066  3440               	retlw	64
  1743  1067  3400               	retlw	0
  1744  1068  3401               	retlw	1
  1745  1069                     __end_of_configDescriptor1:
  1746                           
  1747                           	psect	stringtext4
  1748  1069                     __pstringtext4:
  1749  1069                     _HAPTIC_rpt:
  1750  1069  3405               	retlw	5
  1751  106A  3401               	retlw	1
  1752  106B  3409               	retlw	9
  1753  106C  3404               	retlw	4
  1754  106D  34A1               	retlw	161
  1755  106E  3401               	retlw	1
  1756  106F  3417               	retlw	23
  1757  1070  3401               	retlw	1
  1758  1071  3400               	retlw	0
  1759  1072  3400               	retlw	0
  1760  1073  3480               	retlw	128
  1761  1074  3427               	retlw	39
  1762  1075  34FF               	retlw	255
  1763  1076  34FF               	retlw	255
  1764  1077  34FF               	retlw	255
  1765  1078  347F               	retlw	127
  1766  1079  3475               	retlw	117
  1767  107A  3420               	retlw	32
  1768  107B  3495               	retlw	149
  1769  107C  3401               	retlw	1
  1770  107D  3405               	retlw	5
  1771  107E  3401               	retlw	1
  1772  107F  3409               	retlw	9
  1773  1080  3438               	retlw	56
  1774  1081  3481               	retlw	129
  1775  1082  3402               	retlw	2
  1776  1083  3415               	retlw	21
  1777  1084  3400               	retlw	0
  1778  1085  3426               	retlw	38
  1779  1086  34FF               	retlw	255
  1780  1087  3400               	retlw	0
  1781  1088  3435               	retlw	53
  1782  1089  3400               	retlw	0
  1783  108A  3446               	retlw	70
  1784  108B  34FF               	retlw	255
  1785  108C  3400               	retlw	0
  1786  108D  3475               	retlw	117
  1787  108E  3408               	retlw	8
  1788  108F  3495               	retlw	149
  1789  1090  3402               	retlw	2
  1790  1091  3405               	retlw	5
  1791  1092  3401               	retlw	1
  1792  1093  3409               	retlw	9
  1793  1094  3430               	retlw	48
  1794  1095  3409               	retlw	9
  1795  1096  3431               	retlw	49
  1796  1097  3481               	retlw	129
  1797  1098  3402               	retlw	2
  1798  1099  3405               	retlw	5
  1799  109A  3409               	retlw	9
  1800  109B  3409               	retlw	9
  1801  109C  3401               	retlw	1
  1802  109D  3495               	retlw	149
  1803  109E  3401               	retlw	1
  1804  109F  3475               	retlw	117
  1805  10A0  3408               	retlw	8
  1806  10A1  3426               	retlw	38
  1807  10A2  34FF               	retlw	255
  1808  10A3  3400               	retlw	0
  1809  10A4  3415               	retlw	21
  1810  10A5  3400               	retlw	0
  1811  10A6  3481               	retlw	129
  1812  10A7  3402               	retlw	2
  1813  10A8  3495               	retlw	149
  1814  10A9  3409               	retlw	9
  1815  10AA  3475               	retlw	117
  1816  10AB  3408               	retlw	8
  1817  10AC  3409               	retlw	9
  1818  10AD  34F0               	retlw	240
  1819  10AE  3481               	retlw	129
  1820  10AF  3402               	retlw	2
  1821  10B0  3415               	retlw	21
  1822  10B1  3400               	retlw	0
  1823  10B2  3426               	retlw	38
  1824  10B3  34FF               	retlw	255
  1825  10B4  3400               	retlw	0
  1826  10B5  3475               	retlw	117
  1827  10B6  3401               	retlw	1
  1828  10B7  3495               	retlw	149
  1829  10B8  3440               	retlw	64
  1830  10B9  3405               	retlw	5
  1831  10BA  3401               	retlw	1
  1832  10BB  3409               	retlw	9
  1833  10BC  344B               	retlw	75
  1834  10BD  3491               	retlw	145
  1835  10BE  3402               	retlw	2
  1836  10BF  34C0               	retlw	192
  1837  10C0                     __end_of_HAPTIC_rpt:
  1838                           
  1839                           	psect	stringtext5
  1840  10C0                     __pstringtext5:
  1841  10C0                     _sd001:
  1842  10C0  3434               	retlw	52
  1843  10C1  3403               	retlw	3
  1844  10C2  344D               	retlw	77
  1845  10C3  3400               	retlw	0
  1846  10C4  3469               	retlw	105
  1847  10C5  3400               	retlw	0
  1848  10C6  3463               	retlw	99
  1849  10C7  3400               	retlw	0
  1850  10C8  3472               	retlw	114
  1851  10C9  3400               	retlw	0
  1852  10CA  346F               	retlw	111
  1853  10CB  3400               	retlw	0
  1854  10CC  3463               	retlw	99
  1855  10CD  3400               	retlw	0
  1856  10CE  3468               	retlw	104
  1857  10CF  3400               	retlw	0
  1858  10D0  3469               	retlw	105
  1859  10D1  3400               	retlw	0
  1860  10D2  3470               	retlw	112
  1861  10D3  3400               	retlw	0
  1862  10D4  3420               	retlw	32
  1863  10D5  3400               	retlw	0
  1864  10D6  3454               	retlw	84
  1865  10D7  3400               	retlw	0
  1866  10D8  3465               	retlw	101
  1867  10D9  3400               	retlw	0
  1868  10DA  3463               	retlw	99
  1869  10DB  3400               	retlw	0
  1870  10DC  3468               	retlw	104
  1871  10DD  3400               	retlw	0
  1872  10DE  346E               	retlw	110
  1873  10DF  3400               	retlw	0
  1874  10E0  346F               	retlw	111
  1875  10E1  3400               	retlw	0
  1876  10E2  346C               	retlw	108
  1877  10E3  3400               	retlw	0
  1878  10E4  346F               	retlw	111
  1879  10E5  3400               	retlw	0
  1880  10E6  3467               	retlw	103
  1881  10E7  3400               	retlw	0
  1882  10E8  3479               	retlw	121
  1883  10E9  3400               	retlw	0
  1884  10EA  3420               	retlw	32
  1885  10EB  3400               	retlw	0
  1886  10EC  3449               	retlw	73
  1887  10ED  3400               	retlw	0
  1888  10EE  346E               	retlw	110
  1889  10EF  3400               	retlw	0
  1890  10F0  3463               	retlw	99
  1891  10F1  3400               	retlw	0
  1892  10F2  342E               	retlw	46
  1893  10F3  3400               	retlw	0
  1894  10F4                     __end_of_sd001:
  1895                           
  1896                           	psect	stringtext6
  1897  10F4                     __pstringtext6:
  1898  10F4                     _LED_rpt:
  1899  10F4  3405               	retlw	5
  1900  10F5  3408               	retlw	8
  1901  10F6  3409               	retlw	9
  1902  10F7  3452               	retlw	82
  1903  10F8  34A1               	retlw	161
  1904  10F9  3402               	retlw	2
  1905  10FA  3415               	retlw	21
  1906  10FB  3400               	retlw	0
  1907  10FC  3426               	retlw	38
  1908  10FD  3400               	retlw	0
  1909  10FE  3401               	retlw	1
  1910  10FF  3475               	retlw	117
  1911  1100  3408               	retlw	8
  1912  1101  3495               	retlw	149
  1913  1102  3431               	retlw	49
  1914  1103  3405               	retlw	5
  1915  1104  3408               	retlw	8
  1916  1105  3409               	retlw	9
  1917  1106  344B               	retlw	75
  1918  1107  3409               	retlw	9
  1919  1108  3453               	retlw	83
  1920  1109  3409               	retlw	9
  1921  110A  3455               	retlw	85
  1922  110B  3409               	retlw	9
  1923  110C  3454               	retlw	84
  1924  110D  3491               	retlw	145
  1925  110E  3402               	retlw	2
  1926  110F  34C0               	retlw	192
  1927  1110                     __end_of_LED_rpt:
  1928                           
  1929                           	psect	stringtext7
  1930  1110                     __pstringtext7:
  1931  1110                     _sd002:
  1932  1110  341C               	retlw	28
  1933  1111  3403               	retlw	3
  1934  1112  344A               	retlw	74
  1935  1113  3400               	retlw	0
  1936  1114  346F               	retlw	111
  1937  1115  3400               	retlw	0
  1938  1116  3479               	retlw	121
  1939  1117  3400               	retlw	0
  1940  1118  3473               	retlw	115
  1941  1119  3400               	retlw	0
  1942  111A  3474               	retlw	116
  1943  111B  3400               	retlw	0
  1944  111C  3469               	retlw	105
  1945  111D  3400               	retlw	0
  1946  111E  3463               	retlw	99
  1947  111F  3400               	retlw	0
  1948  1120  346B               	retlw	107
  1949  1121  3400               	retlw	0
  1950  1122  3420               	retlw	32
  1951  1123  3400               	retlw	0
  1952  1124  3444               	retlw	68
  1953  1125  3400               	retlw	0
  1954  1126  3465               	retlw	101
  1955  1127  3400               	retlw	0
  1956  1128  346D               	retlw	109
  1957  1129  3400               	retlw	0
  1958  112A  346F               	retlw	111
  1959  112B  3400               	retlw	0
  1960  112C                     __end_of_sd002:
  1961                           
  1962                           	psect	stringtext8
  1963  112C                     __pstringtext8:
  1964  112C                     _DISPLAY_rpt:
  1965  112C  3405               	retlw	5
  1966  112D  3414               	retlw	20
  1967  112E  3409               	retlw	9
  1968  112F  3402               	retlw	2
  1969  1130  34A1               	retlw	161
  1970  1131  3402               	retlw	2
  1971  1132  3415               	retlw	21
  1972  1133  3400               	retlw	0
  1973  1134  3426               	retlw	38
  1974  1135  3400               	retlw	0
  1975  1136  3401               	retlw	1
  1976  1137  3475               	retlw	117
  1977  1138  3408               	retlw	8
  1978  1139  3495               	retlw	149
  1979  113A  3440               	retlw	64
  1980  113B  3405               	retlw	5
  1981  113C  3414               	retlw	20
  1982  113D  3409               	retlw	9
  1983  113E  3402               	retlw	2
  1984  113F  3491               	retlw	145
  1985  1140  3402               	retlw	2
  1986  1141  34C0               	retlw	192
  1987  1142                     __end_of_DISPLAY_rpt:
  1988                           
  1989                           	psect	stringtext9
  1990  1142                     __pstringtext9:
  1991  1142                     _device_dsc:
  1992  1142  3412               	retlw	18
  1993  1143  3401               	retlw	1
  1994  1144  3400               	retlw	0
  1995  1145  3402               	retlw	2
  1996  1146  3400               	retlw	0
  1997  1147  3400               	retlw	0
  1998  1148  3400               	retlw	0
  1999  1149  3408               	retlw	8
  2000  114A  34D8               	retlw	216
  2001  114B  3404               	retlw	4
  2002  114C  345E               	retlw	94
  2003  114D  3400               	retlw	0
  2004  114E  3401               	retlw	1
  2005  114F  3400               	retlw	0
  2006  1150  3401               	retlw	1
  2007  1151  3402               	retlw	2
  2008  1152  3400               	retlw	0
  2009  1153  3401               	retlw	1
  2010  1154                     __end_of_device_dsc:
  2011                           
  2012                           	psect	stringtext10
  2013  115A                     __pstringtext10:
  2014  115A                     _sd000:
  2015  115A  3404               	retlw	4
  2016  115B  3403               	retlw	3
  2017  115C  3409               	retlw	9
  2018  115D  3404               	retlw	4
  2019  115E                     __end_of_sd000:
  2020  21D0                     _display_output	set	8656
  2021  20D0                     _haptic_out	set	8400
  2022  000E                     _PORTCbits	set	14
  2023  0012                     _PIR2bits	set	18
  2024  008E                     _TRISCbits	set	142
  2025  0092                     _PIE2bits	set	146
  2026  0470                     _TRISC0	set	1136
  2027  0473                     _TRISC3	set	1139
  2028  0472                     _TRISC2	set	1138
  2029  0471                     _TRISC1	set	1137
  2030  010E                     _LATCbits	set	270
  2031  018E                     _ANSELC	set	398
  2032  0215                     _SSPCON	set	533
  2033  0212                     _SSPADD	set	530
  2034  0211                     _SSPBUF	set	529
  2035  0214                     _SSPSTAT	set	532
  2036  0215                     _SSPCON1	set	533
  2037  10AE                     _SSPOV	set	4270
  2038  10AF                     _WCOL	set	4271
  2039  10A0                     _BF	set	4256
  2040  0E98                     _UEP0bits	set	3736
  2041  0E8F                     _USTAT	set	3727
  2042  0E92                     _UIEbits	set	3730
  2043  0E8E                     _UCON	set	3726
  2044  0E90                     _UIRbits	set	3728
  2045  0E96                     _UADDR	set	3734
  2046  0E8E                     _UCONbits	set	3726
  2047  0E92                     _UIE	set	3730
  2048  0E97                     _UEIE	set	3735
  2049  0E91                     _UCFG	set	3729
  2050  0E90                     _UIR	set	3728
  2051  0E93                     _UEIR	set	3731
  2052  0E99                     _UEP1	set	3737
  2053  0E98                     _UEP0	set	3736
  2054                           
  2055                           	psect	cinit
  2056  000A                     start_initialization:	
  2057                           ; #config settings
  2058                           
  2059  000A                     __initialization:
  2060                           
  2061                           ; Initialize objects allocated to BANK2
  2062  000A  30A7               	movlw	low __pidataBANK2
  2063  000B  0084               	movwf	4
  2064  000C  3088               	movlw	(high __pidataBANK2)| (0+128)
  2065  000D  0085               	movwf	5
  2066  000E  0022               	movlb	2	; select bank2
  2067  000F  0012               	moviw fsr0++
  2068  0010  00C8               	movwf	__pdataBANK2& (0+127)
  2069  0011  0012               	moviw fsr0++
  2070  0012  00C9               	movwf	(__pdataBANK2+1)& (0+127)
  2071  0013  0012               	moviw fsr0++
  2072  0014  00CA               	movwf	(__pdataBANK2+2)& (0+127)
  2073  0015  0012               	moviw fsr0++
  2074  0016  00CB               	movwf	(__pdataBANK2+3)& (0+127)
  2075  0017  0012               	moviw fsr0++
  2076  0018  00CC               	movwf	(__pdataBANK2+4)& (0+127)
  2077  0019  0012               	moviw fsr0++
  2078  001A  00CD               	movwf	(__pdataBANK2+5)& (0+127)
  2079  001B  0012               	moviw fsr0++
  2080  001C  00CE               	movwf	(__pdataBANK2+6)& (0+127)
  2081  001D  0012               	moviw fsr0++
  2082  001E  00CF               	movwf	(__pdataBANK2+7)& (0+127)
  2083                           
  2084                           ; Clear objects allocated to BANK1
  2085  001F  30B0               	movlw	low __pbssBANK1
  2086  0020  0084               	movwf	4
  2087  0021  3000               	movlw	high __pbssBANK1
  2088  0022  0085               	movwf	5
  2089  0023  3028               	movlw	40
  2090  0024  00FE               	movwf	btemp
  2091  0025  3000               	movlw	0
  2092  0026  00FF               	movwf	btemp+1
  2093  0027  3188  20BA  3180   	fcall	clear_ram0
  2094                           
  2095                           ; Clear objects allocated to BANK2
  2096  002A  3020               	movlw	low __pbssBANK2
  2097  002B  0084               	movwf	4
  2098  002C  3001               	movlw	high __pbssBANK2
  2099  002D  0085               	movwf	5
  2100  002E  3028               	movlw	40
  2101  002F  00FE               	movwf	btemp
  2102  0030  3000               	movlw	0
  2103  0031  00FF               	movwf	btemp+1
  2104  0032  3188  20BA  3180   	fcall	clear_ram0
  2105  0035                     end_of_initialization:	
  2106                           ;End of C runtime variable initialization code
  2107                           
  2108  0035                     __end_of__initialization:
  2109  0035  107E               	bcf	int$flags,0	;clear compiler interrupt flag (level 1)
  2110  0036  0020               	movlb	0
  2111  0037  318A  2A5A         	ljmp	_main	;jump to C main() function
  2112                           
  2113                           	psect	bssBANK1
  2114  00B0                     __pbssBANK1:
  2115  00B0                     _pBDTEntryIn:
  2116  00B0                     	ds	8
  2117  00B8                     _inPipes:
  2118  00B8                     	ds	5
  2119  00BD                     APP_LEDUpdateUSBStatus@ledCount:
  2120  00BD                     	ds	2
  2121  00BF                     _pBDTEntryEP0OutNext:
  2122  00BF                     	ds	2
  2123  00C1                     _cntr:
  2124  00C1                     	ds	1
  2125  00C2                     _REGT:
  2126  00C2                     	ds	1
  2127  00C3                     _TESTB:
  2128  00C3                     	ds	1
  2129  00C4                     _USBTicksSinceSuspendEnd:
  2130  00C4                     	ds	1
  2131  00C5                     _USBDeferOUTDataStagePackets:
  2132  00C5                     	ds	1
  2133  00C6                     _USBDeferINDataStagePackets:
  2134  00C6                     	ds	1
  2135  00C7                     _USBStatusStageEnabledFlag2:
  2136  00C7                     	ds	1
  2137  00C8                     _USBStatusStageEnabledFlag1:
  2138  00C8                     	ds	1
  2139  00C9                     _USBDeferStatusStagePacket:
  2140  00C9                     	ds	1
  2141  00CA                     _USBStatusStageTimeoutCounter:
  2142  00CA                     	ds	1
  2143  00CB                     _BothEP0OutUOWNsSet:
  2144  00CB                     	ds	1
  2145  00CC                     _endpoint_number:
  2146  00CC                     	ds	1
  2147  00CD                     _USBBusIsSuspended:
  2148  00CD                     	ds	1
  2149  00CE                     _RemoteWakeup:
  2150  00CE                     	ds	1
  2151  00CF                     _pDst:
  2152  00CF                     	ds	1
  2153  00D0                     _controlTransferState:
  2154  00D0                     	ds	1
  2155  00D1                     _shortPacketStatus:
  2156  00D1                     	ds	1
  2157  00D2                     _pBDTEntryEP0OutCurrent:
  2158  00D2                     	ds	1
  2159  00D3                     _USBDeviceState:
  2160  00D3                     	ds	1
  2161  00D4                     _active_protocol:
  2162  00D4                     	ds	1
  2163  00D5                     _idle_rate:
  2164  00D5                     	ds	1
  2165  00D6                     _USTATcopy:
  2166  00D6                     	ds	1
  2167  00D7                     _USBActiveConfiguration:
  2168  00D7                     	ds	1
  2169                           
  2170                           	psect	bssBANK2
  2171  0120                     __pbssBANK2:
  2172  0120                     _pBDTEntryOut:
  2173  0120                     	ds	8
  2174  0128                     _outPipes:
  2175  0128                     	ds	7
  2176  012F                     _USB1msTickCount:
  2177  012F                     	ds	4
  2178  0133                     _ep_data_out:
  2179  0133                     	ds	4
  2180  0137                     _ep_data_in:
  2181  0137                     	ds	4
  2182  013B                     _cnt_tr:
  2183  013B                     	ds	2
  2184  013D                     _last_DSP_OUT:
  2185  013D                     	ds	2
  2186  013F                     _last_LED_OUT:
  2187  013F                     	ds	2
  2188  0141                     _last_HAP_OUT:
  2189  0141                     	ds	2
  2190  0143                     _last_HAP_IN:
  2191  0143                     	ds	2
  2192  0145                     _USBAlternateInterface:
  2193  0145                     	ds	3
  2194                           
  2195                           	psect	dataBANK2
  2196  0148                     __pdataBANK2:
  2197  0148                     _v:
  2198  0148                     	ds	8
  2199                           
  2200                           	psect	clrtext
  2201  08BA                     clear_ram0:	
  2202                           ;	Called with FSR0 containing the base address, and
  2203                           ;	btemp/btemp+1 has the size to clear
  2204                           
  2205  08BA  0064               	clrwdt	;clear the watchdog before getting into this loop
  2206  08BB                     clrloop0:
  2207  08BB  0180               	clrf	0	;clear RAM location pointed to by FSR
  2208  08BC  3101               	addfsr 0,1
  2209  08BD  3001               	movlw	1
  2210  08BE  02FE               	subwf	btemp,f
  2211  08BF  3000               	movlw	0
  2212  08C0  3BFF               	subwfb	btemp+1,f
  2213  08C1  087F               	movf	btemp+1,w
  2214  08C2  047E               	iorwf	btemp,w
  2215  08C3  1D03               	skipz
  2216  08C4  28BB               	goto	clrloop0	;have we reached the end yet?
  2217  08C5  3400               	retlw	0	;all done for this memory range, return
  2218                           
  2219                           	psect	cstackBANK1
  2220  00D8                     __pcstackBANK1:
  2221  00D8                     ?_USER_USB_CALLBACK_EVENT_HANDLER:
  2222  00D8                     USER_USB_CALLBACK_EVENT_HANDLER@event:	
  2223                           ; 1 bytes @ 0x0
  2224                           
  2225                           
  2226                           ; 2 bytes @ 0x0
  2227  00D8                     	ds	2
  2228  00DA                     USER_USB_CALLBACK_EVENT_HANDLER@pdata:
  2229                           
  2230                           ; 2 bytes @ 0x2
  2231  00DA                     	ds	2
  2232  00DC                     USER_USB_CALLBACK_EVENT_HANDLER@size:
  2233                           
  2234                           ; 2 bytes @ 0x4
  2235  00DC                     	ds	2
  2236  00DE                     ??_USBWakeFromSuspend:
  2237  00DE                     ??_USBSuspend:	
  2238                           ; 1 bytes @ 0x6
  2239                           
  2240  00DE                     ??_USBStdFeatureReqHandler:	
  2241                           ; 1 bytes @ 0x6
  2242                           
  2243  00DE                     ??_USBStdSetCfgHandler:	
  2244                           ; 1 bytes @ 0x6
  2245                           
  2246                           
  2247                           ; 1 bytes @ 0x6
  2248  00DE                     	ds	1
  2249  00DF                     USBStdSetCfgHandler@p:
  2250                           
  2251                           ; 2 bytes @ 0x7
  2252  00DF                     	ds	1
  2253  00E0                     USBStdFeatureReqHandler@pUEP:
  2254                           
  2255                           ; 2 bytes @ 0x8
  2256  00E0                     	ds	1
  2257  00E1                     USBStdSetCfgHandler@i_1457:
  2258                           
  2259                           ; 1 bytes @ 0x9
  2260  00E1                     	ds	1
  2261  00E2                     USBStdSetCfgHandler@i:
  2262  00E2                     USBStdFeatureReqHandler@current_ep_data:	
  2263                           ; 1 bytes @ 0xA
  2264                           
  2265                           
  2266                           ; 1 bytes @ 0xA
  2267  00E2                     	ds	1
  2268  00E3                     USBStdFeatureReqHandler@p:
  2269                           
  2270                           ; 2 bytes @ 0xB
  2271  00E3                     	ds	2
  2272  00E5                     ??_USBCheckStdRequest:
  2273                           
  2274                           ; 1 bytes @ 0xD
  2275  00E5                     	ds	2
  2276  00E7                     ??_USBCtrlTrfSetupHandler:
  2277                           
  2278                           ; 1 bytes @ 0xF
  2279  00E7                     	ds	1
  2280  00E8                     ??_USBCtrlEPService:
  2281                           
  2282                           ; 1 bytes @ 0x10
  2283  00E8                     	ds	2
  2284  00EA                     ??_USBDeviceTasks:
  2285                           
  2286                           ; 1 bytes @ 0x12
  2287  00EA                     	ds	2
  2288  00EC                     USBDeviceTasks@i:
  2289                           
  2290                           ; 1 bytes @ 0x14
  2291  00EC                     	ds	1
  2292  00ED                     ??_main:
  2293                           
  2294                           ; 1 bytes @ 0x15
  2295  00ED                     	ds	2
  2296                           
  2297                           	psect	cstackCOMMON
  2298  0070                     __pcstackCOMMON:
  2299  0070                     ?_USBWakeFromSuspend:
  2300  0070                     ?_USBSuspend:	
  2301                           ; 1 bytes @ 0x0
  2302                           
  2303  0070                     ?_USBIncrement1msInternalTimers:	
  2304                           ; 1 bytes @ 0x0
  2305                           
  2306  0070                     ??_USBIncrement1msInternalTimers:	
  2307                           ; 1 bytes @ 0x0
  2308                           
  2309  0070                     ?_USBCtrlEPAllowStatusStage:	
  2310                           ; 1 bytes @ 0x0
  2311                           
  2312  0070                     ??_USBCtrlEPAllowStatusStage:	
  2313                           ; 1 bytes @ 0x0
  2314                           
  2315  0070                     ?_USBStallHandler:	
  2316                           ; 1 bytes @ 0x0
  2317                           
  2318  0070                     ??_USBStallHandler:	
  2319                           ; 1 bytes @ 0x0
  2320                           
  2321  0070                     ?_USBCtrlEPService:	
  2322                           ; 1 bytes @ 0x0
  2323                           
  2324  0070                     ?_USBConfigureEndpoint:	
  2325                           ; 1 bytes @ 0x0
  2326                           
  2327  0070                     ?_USBCtrlTrfTxService:	
  2328                           ; 1 bytes @ 0x0
  2329                           
  2330  0070                     ??_USBCtrlTrfTxService:	
  2331                           ; 1 bytes @ 0x0
  2332                           
  2333  0070                     ?_memcpy:	
  2334                           ; 1 bytes @ 0x0
  2335                           
  2336  0070                     ?_USBCtrlTrfSetupHandler:	
  2337                           ; 1 bytes @ 0x0
  2338                           
  2339  0070                     ?_USBCtrlTrfOutHandler:	
  2340                           ; 1 bytes @ 0x0
  2341                           
  2342  0070                     ?_USBCtrlTrfInHandler:	
  2343                           ; 1 bytes @ 0x0
  2344                           
  2345  0070                     ?_USBCheckStdRequest:	
  2346                           ; 1 bytes @ 0x0
  2347                           
  2348  0070                     ?_USBStdFeatureReqHandler:	
  2349                           ; 1 bytes @ 0x0
  2350                           
  2351  0070                     ?_APP_LEDUpdateUSBStatus:	
  2352                           ; 1 bytes @ 0x0
  2353                           
  2354  0070                     ?_SYSTEM_Initialize:	
  2355                           ; 1 bytes @ 0x0
  2356                           
  2357  0070                     ?_APP_DeviceJoystickInitialize:	
  2358                           ; 1 bytes @ 0x0
  2359                           
  2360  0070                     ?_MasterinitSPI:	
  2361                           ; 1 bytes @ 0x0
  2362                           
  2363  0070                     ??_MasterinitSPI:	
  2364                           ; 1 bytes @ 0x0
  2365                           
  2366  0070                     ?_spiWrite:	
  2367                           ; 1 bytes @ 0x0
  2368                           
  2369  0070                     ??_spiWrite:	
  2370                           ; 1 bytes @ 0x0
  2371                           
  2372  0070                     ?_APP_DeviceJoystickTasks:	
  2373                           ; 1 bytes @ 0x0
  2374                           
  2375  0070                     ?_LED_Off:	
  2376                           ; 1 bytes @ 0x0
  2377                           
  2378  0070                     ??_LED_Off:	
  2379                           ; 1 bytes @ 0x0
  2380                           
  2381  0070                     ?_LED_On:	
  2382                           ; 1 bytes @ 0x0
  2383                           
  2384  0070                     ??_LED_On:	
  2385                           ; 1 bytes @ 0x0
  2386                           
  2387  0070                     ?_USBDeviceInit:	
  2388                           ; 1 bytes @ 0x0
  2389                           
  2390  0070                     ??_USBDeviceInit:	
  2391                           ; 1 bytes @ 0x0
  2392                           
  2393  0070                     ?_USBDeviceTasks:	
  2394                           ; 1 bytes @ 0x0
  2395                           
  2396  0070                     ?_USBCtrlEPAllowDataStage:	
  2397                           ; 1 bytes @ 0x0
  2398                           
  2399  0070                     ?_USBCtrlEPServiceComplete:	
  2400                           ; 1 bytes @ 0x0
  2401                           
  2402  0070                     ?_USBCtrlTrfRxService:	
  2403                           ; 1 bytes @ 0x0
  2404                           
  2405  0070                     ?_USBStdSetCfgHandler:	
  2406                           ; 1 bytes @ 0x0
  2407                           
  2408  0070                     ?_USBStdGetDscHandler:	
  2409                           ; 1 bytes @ 0x0
  2410                           
  2411  0070                     ??_USBStdGetDscHandler:	
  2412                           ; 1 bytes @ 0x0
  2413                           
  2414  0070                     ?_USBStdGetStatusHandler:	
  2415                           ; 1 bytes @ 0x0
  2416                           
  2417  0070                     ??_USBStdGetStatusHandler:	
  2418                           ; 1 bytes @ 0x0
  2419                           
  2420  0070                     ?_USBCheckHIDRequest:	
  2421                           ; 1 bytes @ 0x0
  2422                           
  2423  0070                     ??_USBCheckHIDRequest:	
  2424                           ; 1 bytes @ 0x0
  2425                           
  2426  0070                     ?_main:	
  2427                           ; 1 bytes @ 0x0
  2428                           
  2429  0070                     ?_BUTTON_Enable:	
  2430                           ; 1 bytes @ 0x0
  2431                           
  2432  0070                     ??_BUTTON_Enable:	
  2433                           ; 1 bytes @ 0x0
  2434                           
  2435  0070                     ?_LED_Enable:	
  2436                           ; 1 bytes @ 0x0
  2437                           
  2438  0070                     ??_LED_Enable:	
  2439                           ; 1 bytes @ 0x0
  2440                           
  2441  0070                     ?_SYS_InterruptHigh:	
  2442                           ; 1 bytes @ 0x0
  2443                           
  2444  0070                     ??_SYS_InterruptHigh:	
  2445                           ; 1 bytes @ 0x0
  2446                           
  2447  0070                     ?_memset:	
  2448                           ; 1 bytes @ 0x0
  2449                           
  2450  0070                     ?_USBTransferOnePacket:	
  2451                           ; 2 bytes @ 0x0
  2452                           
  2453  0070                     USBTransferOnePacket@dir:	
  2454                           ; 2 bytes @ 0x0
  2455                           
  2456  0070                     USBConfigureEndpoint@direction:	
  2457                           ; 1 bytes @ 0x0
  2458                           
  2459  0070                     memcpy@s1:	
  2460                           ; 1 bytes @ 0x0
  2461                           
  2462  0070                     memset@dest:	
  2463                           ; 2 bytes @ 0x0
  2464                           
  2465                           
  2466                           ; 2 bytes @ 0x0
  2467  0070                     	ds	1
  2468  0071                     ??_USBConfigureEndpoint:
  2469  0071                     USBDeviceInit@p:	
  2470                           ; 1 bytes @ 0x1
  2471                           
  2472  0071                     USBTransferOnePacket@data:	
  2473                           ; 2 bytes @ 0x1
  2474                           
  2475                           
  2476                           ; 2 bytes @ 0x1
  2477  0071                     	ds	1
  2478  0072                     ??_USBCtrlTrfRxService:
  2479  0072                     USBCtrlTrfTxService@byteToSend:	
  2480                           ; 1 bytes @ 0x2
  2481                           
  2482  0072                     BUTTON_Enable@button:	
  2483                           ; 1 bytes @ 0x2
  2484                           
  2485  0072                     LED_On@led:	
  2486                           ; 1 bytes @ 0x2
  2487                           
  2488  0072                     LED_Off@led:	
  2489                           ; 1 bytes @ 0x2
  2490                           
  2491  0072                     LED_Enable@led:	
  2492                           ; 1 bytes @ 0x2
  2493                           
  2494  0072                     USBStdGetStatusHandler@p:	
  2495                           ; 1 bytes @ 0x2
  2496                           
  2497  0072                     memcpy@n:	
  2498                           ; 2 bytes @ 0x2
  2499                           
  2500  0072                     memset@c:	
  2501                           ; 2 bytes @ 0x2
  2502                           
  2503                           
  2504                           ; 2 bytes @ 0x2
  2505  0072                     	ds	1
  2506  0073                     ??_USBCtrlTrfInHandler:
  2507  0073                     ??_APP_LEDUpdateUSBStatus:	
  2508                           ; 1 bytes @ 0x3
  2509                           
  2510  0073                     ??_SYSTEM_Initialize:	
  2511                           ; 1 bytes @ 0x3
  2512                           
  2513  0073                     ??_USBCtrlEPAllowDataStage:	
  2514                           ; 1 bytes @ 0x3
  2515                           
  2516  0073                     USBDeviceInit@i_722:	
  2517                           ; 1 bytes @ 0x3
  2518                           
  2519  0073                     USBTransferOnePacket@len:	
  2520                           ; 1 bytes @ 0x3
  2521                           
  2522                           
  2523                           ; 1 bytes @ 0x3
  2524  0073                     	ds	1
  2525  0074                     ??_memcpy:
  2526  0074                     ??_USBTransferOnePacket:	
  2527                           ; 1 bytes @ 0x4
  2528                           
  2529  0074                     USBDeviceInit@i:	
  2530                           ; 1 bytes @ 0x4
  2531                           
  2532  0074                     USBCtrlTrfRxService@i:	
  2533                           ; 1 bytes @ 0x4
  2534                           
  2535  0074                     memset@n:	
  2536                           ; 1 bytes @ 0x4
  2537                           
  2538                           
  2539                           ; 2 bytes @ 0x4
  2540  0074                     	ds	1
  2541  0075                     ??_USBCtrlEPServiceComplete:
  2542  0075                     USBConfigureEndpoint@EPNum:	
  2543                           ; 1 bytes @ 0x5
  2544                           
  2545  0075                     USBCtrlTrfRxService@byteToRead:	
  2546                           ; 1 bytes @ 0x5
  2547                           
  2548  0075                     USBCtrlTrfInHandler@lastDTS:	
  2549                           ; 1 bytes @ 0x5
  2550                           
  2551  0075                     SYSTEM_Initialize@state:	
  2552                           ; 1 bytes @ 0x5
  2553                           
  2554  0075                     memcpy@s:	
  2555                           ; 1 bytes @ 0x5
  2556                           
  2557                           
  2558                           ; 2 bytes @ 0x5
  2559  0075                     	ds	1
  2560  0076                     ??_memset:
  2561  0076                     ??_USBCtrlTrfOutHandler:	
  2562                           ; 1 bytes @ 0x6
  2563                           
  2564  0076                     USBConfigureEndpoint@handle:	
  2565                           ; 1 bytes @ 0x6
  2566                           
  2567                           
  2568                           ; 1 bytes @ 0x6
  2569  0076                     	ds	1
  2570  0077                     ?_USBEnableEndpoint:
  2571  0077                     USBEnableEndpoint@options:	
  2572                           ; 1 bytes @ 0x7
  2573                           
  2574  0077                     memcpy@tmp:	
  2575                           ; 1 bytes @ 0x7
  2576                           
  2577                           
  2578                           ; 1 bytes @ 0x7
  2579  0077                     	ds	1
  2580  0078                     ??_USBEnableEndpoint:
  2581  0078                     USBTransferOnePacket@ep:	
  2582                           ; 1 bytes @ 0x8
  2583                           
  2584  0078                     memcpy@d1:	
  2585                           ; 1 bytes @ 0x8
  2586                           
  2587                           
  2588                           ; 1 bytes @ 0x8
  2589  0078                     	ds	1
  2590  0079                     memcpy@d:
  2591  0079                     USBTransferOnePacket@handle:	
  2592                           ; 1 bytes @ 0x9
  2593                           
  2594                           
  2595                           ; 2 bytes @ 0x9
  2596  0079                     	ds	1
  2597  007A                     USBEnableEndpoint@p:
  2598  007A                     memset@k:	
  2599                           ; 2 bytes @ 0xA
  2600                           
  2601                           
  2602                           ; 2 bytes @ 0xA
  2603  007A                     	ds	1
  2604  007B                     ??_APP_DeviceJoystickTasks:
  2605                           
  2606                           ; 1 bytes @ 0xB
  2607  007B                     	ds	1
  2608  007C                     USBEnableEndpoint@ep:
  2609  007C                     memset@s:	
  2610                           ; 1 bytes @ 0xC
  2611                           
  2612                           
  2613                           ; 2 bytes @ 0xC
  2614  007C                     	ds	1
  2615  007D                     ??_APP_DeviceJoystickInitialize:
  2616                           
  2617                           ; 1 bytes @ 0xD
  2618  007D                     	ds	1
  2619  007E                     ??_USER_USB_CALLBACK_EVENT_HANDLER:
  2620                           
  2621                           	psect	maintext
  2622  0A5A                     __pmaintext:	
  2623                           ; 1 bytes @ 0xE
  2624 ;;
  2625 ;;Main: autosize = 0, tempsize = 2, incstack = 0, save=0
  2626 ;;
  2627 ;; *************** function _main *****************
  2628 ;; Defined at:
  2629 ;;		line 32 in file "main.c"
  2630 ;; Parameters:    Size  Location     Type
  2631 ;;		None
  2632 ;; Auto vars:     Size  Location     Type
  2633 ;;		None
  2634 ;; Return value:  Size  Location     Type
  2635 ;;                  1    wreg      void 
  2636 ;; Registers used:
  2637 ;;		wreg, fsr0l, fsr0h, fsr1l, fsr1h, status,2, status,0, pclath, cstack
  2638 ;; Tracked objects:
  2639 ;;		On entry : B1F/0
  2640 ;;		On exit  : 0/0
  2641 ;;		Unchanged: 0/0
  2642 ;; Data sizes:     COMMON   BANK1   BANK2   BANK3  BANK4h  BANK4l   BANK5   BANK6   BANK7   BANK8   BANK9  BANK10  BANK1
      +1  BANK12
  2643 ;;      Params:         0       0       0       0       0       0       0       0       0       0       0       0       
      +0       0
  2644 ;;      Locals:         0       0       0       0       0       0       0       0       0       0       0       0       
      +0       0
  2645 ;;      Temps:          0       2       0       0       0       0       0       0       0       0       0       0       
      +0       0
  2646 ;;      Totals:         0       2       0       0       0       0       0       0       0       0       0       0       
      +0       0
  2647 ;;Total ram usage:        2 bytes
  2648 ;; Hardware stack levels required when called: 10
  2649 ;; This function calls:
  2650 ;;		_APP_DeviceJoystickTasks
  2651 ;;		_MasterinitSPI
  2652 ;;		_SYSTEM_Initialize
  2653 ;;		_USBDeviceInit
  2654 ;;		_USBDeviceTasks
  2655 ;;		_spiWrite
  2656 ;; This function is called by:
  2657 ;;		Startup code after reset
  2658 ;; This function uses a non-reentrant model
  2659 ;;
  2660                           
  2661  0A5A                     _main:	
  2662                           ;psect for function _main
  2663                           
  2664  0A5A                     l4813:	
  2665                           ;incstack = 0
  2666                           ; Regs used in _main: [wreg-fsr1h+status,2+status,0+pclath+cstack]
  2667                           
  2668                           
  2669                           ;main.c: 35:     TRISC1 = 1;TRISC2 = 0;
  2670  0A5A  0021               	movlb	1	; select bank1
  2671  0A5B  148E               	bsf	14,1	;volatile
  2672  0A5C  110E               	bcf	14,2	;volatile
  2673  0A5D                     l4815:
  2674                           
  2675                           ;main.c: 36:     SYSTEM_Initialize(SYSTEM_STATE_USB_START);
  2676  0A5D  3000               	movlw	0
  2677  0A5E  3189  2111  318A   	fcall	_SYSTEM_Initialize
  2678  0A61                     l4817:
  2679                           
  2680                           ;main.c: 37:     _delay((unsigned long)((200)*(48000000/4000.0)));
  2681  0A61  300D               	movlw	13
  2682  0A62  0021               	movlb	1	; select bank1
  2683  0A63  00EE               	movwf	(??_main^(0+128)+1)
  2684  0A64  302D               	movlw	45
  2685  0A65  00ED               	movwf	??_main^(0+128)
  2686  0A66  30D7               	movlw	215
  2687  0A67                     u3717:
  2688  0A67  0B89               	decfsz	9,f
  2689  0A68  2A67               	goto	u3717
  2690  0A69  0BED               	decfsz	??_main^(0+128),f
  2691  0A6A  2A67               	goto	u3717
  2692  0A6B  0BEE               	decfsz	(??_main^(0+128)+1),f
  2693  0A6C  2A67               	goto	u3717
  2694  0A6D  3200               	nop2
  2695  0A6E                     l4819:
  2696                           
  2697                           ;main.c: 39:     MasterinitSPI();
  2698  0A6E  3188  20AF  318A   	fcall	_MasterinitSPI
  2699  0A71                     l4821:
  2700                           
  2701                           ;main.c: 41:     USBDeviceInit();
  2702  0A71  3185  2567  318A   	fcall	_USBDeviceInit
  2703  0A74                     l4823:
  2704                           
  2705                           ;main.c: 46:     {;main.c: 47:         spiWrite();
  2706  0A74  3189  21B9  318A   	fcall	_spiWrite
  2707  0A77                     l4825:
  2708                           
  2709                           ;main.c: 63:             USBDeviceTasks();
  2710  0A77  3181  21A0  318A   	fcall	_USBDeviceTasks
  2711  0A7A                     l4827:
  2712                           
  2713                           ;main.c: 69:         if( USBDeviceState < CONFIGURED_STATE )
  2714  0A7A  3020               	movlw	32
  2715  0A7B  0021               	movlb	1	; select bank1
  2716  0A7C  0253               	subwf	_USBDeviceState^(0+128),w
  2717  0A7D  1803               	skipnc
  2718  0A7E  2A80               	goto	u3691
  2719  0A7F  2A81               	goto	u3690
  2720  0A80                     u3691:
  2721  0A80  2A82               	goto	l526
  2722  0A81                     u3690:
  2723  0A81  2A74               	goto	l4823
  2724  0A82                     l526:	
  2725                           ;main.c: 73:         }
  2726                           
  2727                           
  2728                           ;main.c: 79:         if( UCONbits.SUSPND == 1 )
  2729  0A82  003D               	movlb	29	; select bank29
  2730  0A83  1C8E               	btfss	14,1	;volatile
  2731  0A84  2A86               	goto	u3701
  2732  0A85  2A87               	goto	u3700
  2733  0A86                     u3701:
  2734  0A86  2A88               	goto	l4833
  2735  0A87                     u3700:
  2736  0A87  2A74               	goto	l4823
  2737  0A88                     l4833:
  2738                           
  2739                           ;main.c: 86:         APP_DeviceJoystickTasks();
  2740  0A88  3184  24B0  318A   	fcall	_APP_DeviceJoystickTasks
  2741  0A8B  2A74               	goto	l4823
  2742  0A8C  3180  2808         	ljmp	start
  2743  0A8E                     __end_of_main:
  2744                           
  2745                           	psect	text1
  2746  09B9                     __ptext1:	
  2747 ;; *************** function _spiWrite *****************
  2748 ;; Defined at:
  2749 ;;		line 100 in file "lib/spi.c"
  2750 ;; Parameters:    Size  Location     Type
  2751 ;;		None
  2752 ;; Auto vars:     Size  Location     Type
  2753 ;;		None
  2754 ;; Return value:  Size  Location     Type
  2755 ;;                  1    wreg      void 
  2756 ;; Registers used:
  2757 ;;		wreg, status,2
  2758 ;; Tracked objects:
  2759 ;;		On entry : 0/0
  2760 ;;		On exit  : 0/0
  2761 ;;		Unchanged: 0/0
  2762 ;; Data sizes:     COMMON   BANK1   BANK2   BANK3  BANK4h  BANK4l   BANK5   BANK6   BANK7   BANK8   BANK9  BANK10  BANK1
      +1  BANK12
  2763 ;;      Params:         0       0       0       0       0       0       0       0       0       0       0       0       
      +0       0
  2764 ;;      Locals:         0       0       0       0       0       0       0       0       0       0       0       0       
      +0       0
  2765 ;;      Temps:          1       0       0       0       0       0       0       0       0       0       0       0       
      +0       0
  2766 ;;      Totals:         1       0       0       0       0       0       0       0       0       0       0       0       
      +0       0
  2767 ;;Total ram usage:        1 bytes
  2768 ;; Hardware stack levels used: 1
  2769 ;; Hardware stack levels required when called: 1
  2770 ;; This function calls:
  2771 ;;		Nothing
  2772 ;; This function is called by:
  2773 ;;		_main
  2774 ;; This function uses a non-reentrant model
  2775 ;;
  2776                           
  2777  09B9                     _spiWrite:	
  2778                           ;psect for function _spiWrite
  2779                           
  2780  09B9                     l4079:	
  2781                           ;incstack = 0
  2782                           ; Regs used in _spiWrite: [wreg+status,2]
  2783                           
  2784                           
  2785                           ;lib/spi.c: 101:     if(cnt_tr<10000){
  2786  09B9  0022               	movlb	2	; select bank2
  2787  09BA  083C               	movf	(_cnt_tr+1)^(0+256),w
  2788  09BB  3A80               	xorlw	128
  2789  09BC  00F0               	movwf	??_spiWrite
  2790  09BD  30A7               	movlw	167
  2791  09BE  0270               	subwf	??_spiWrite,w
  2792  09BF  1D03               	skipz
  2793  09C0  29C3               	goto	u3055
  2794  09C1  3010               	movlw	16
  2795  09C2  023B               	subwf	_cnt_tr^(0+256),w
  2796  09C3                     u3055:
  2797  09C3  1803               	skipnc
  2798  09C4  29C6               	goto	u3051
  2799  09C5  29C7               	goto	u3050
  2800  09C6                     u3051:
  2801  09C6  29CD               	goto	l4085
  2802  09C7                     u3050:
  2803  09C7                     l4081:
  2804                           
  2805                           ;lib/spi.c: 102:         cnt_tr++;
  2806  09C7  3001               	movlw	1
  2807  09C8  0022               	movlb	2	; select bank2
  2808  09C9  07BB               	addwf	_cnt_tr^(0+256),f
  2809  09CA  3000               	movlw	0
  2810  09CB  3DBC               	addwfc	(_cnt_tr+1)^(0+256),f
  2811  09CC  29DB               	goto	l760
  2812  09CD                     l4085:
  2813                           
  2814                           ;lib/spi.c: 105:     cnt_tr=0;
  2815  09CD  0022               	movlb	2	; select bank2
  2816  09CE  01BB               	clrf	_cnt_tr^(0+256)
  2817  09CF  01BC               	clrf	(_cnt_tr+1)^(0+256)
  2818  09D0                     l4087:
  2819                           
  2820                           ;lib/spi.c: 106:     PORTCbits.RC3 = 0;
  2821  09D0  0020               	movlb	0	; select bank0
  2822  09D1  118E               	bcf	14,3	;volatile
  2823  09D2                     l4089:
  2824                           
  2825                           ;lib/spi.c: 119:     SSPBUF = ' ';while(!BF);
  2826  09D2  3020               	movlw	32
  2827  09D3  0024               	movlb	4	; select bank4
  2828  09D4  0091               	movwf	17	;volatile
  2829  09D5                     l761:
  2830  09D5  1C14               	btfss	20,0	;volatile
  2831  09D6  29D8               	goto	u3061
  2832  09D7  29D9               	goto	u3060
  2833  09D8                     u3061:
  2834  09D8  29D5               	goto	l761
  2835  09D9                     u3060:
  2836  09D9                     l763:
  2837                           
  2838                           ;lib/spi.c: 120:     PORTCbits.RC3 = 1;
  2839  09D9  0020               	movlb	0	; select bank0
  2840  09DA  158E               	bsf	14,3	;volatile
  2841  09DB                     l760:
  2842  09DB  0008               	return
  2843  09DC                     __end_of_spiWrite:
  2844                           
  2845                           	psect	text2
  2846  01A0                     __ptext2:	
  2847 ;; *************** function _USBDeviceTasks *****************
  2848 ;; Defined at:
  2849 ;;		line 481 in file "lib/usb/usb_device.c"
  2850 ;; Parameters:    Size  Location     Type
  2851 ;;		None
  2852 ;; Auto vars:     Size  Location     Type
  2853 ;;  i               1   20[BANK1 ] unsigned char 
  2854 ;; Return value:  Size  Location     Type
  2855 ;;                  1    wreg      void 
  2856 ;; Registers used:
  2857 ;;		wreg, fsr0l, fsr0h, fsr1l, fsr1h, status,2, status,0, pclath, cstack
  2858 ;; Tracked objects:
  2859 ;;		On entry : 0/0
  2860 ;;		On exit  : 0/0
  2861 ;;		Unchanged: 0/0
  2862 ;; Data sizes:     COMMON   BANK1   BANK2   BANK3  BANK4h  BANK4l   BANK5   BANK6   BANK7   BANK8   BANK9  BANK10  BANK1
      +1  BANK12
  2863 ;;      Params:         0       0       0       0       0       0       0       0       0       0       0       0       
      +0       0
  2864 ;;      Locals:         0       1       0       0       0       0       0       0       0       0       0       0       
      +0       0
  2865 ;;      Temps:          0       2       0       0       0       0       0       0       0       0       0       0       
      +0       0
  2866 ;;      Totals:         0       3       0       0       0       0       0       0       0       0       0       0       
      +0       0
  2867 ;;Total ram usage:        3 bytes
  2868 ;; Hardware stack levels used: 1
  2869 ;; Hardware stack levels required when called: 9
  2870 ;; This function calls:
  2871 ;;		_USBCtrlEPAllowStatusStage
  2872 ;;		_USBCtrlEPService
  2873 ;;		_USBDeviceInit
  2874 ;;		_USBIncrement1msInternalTimers
  2875 ;;		_USBStallHandler
  2876 ;;		_USBSuspend
  2877 ;;		_USBWakeFromSuspend
  2878 ;;		_USER_USB_CALLBACK_EVENT_HANDLER
  2879 ;; This function is called by:
  2880 ;;		_main
  2881 ;; This function uses a non-reentrant model
  2882 ;;
  2883                           
  2884  01A0                     _USBDeviceTasks:	
  2885                           ;psect for function _USBDeviceTasks
  2886                           
  2887  01A0                     l4695:	
  2888                           ;incstack = 0
  2889                           ; Regs used in _USBDeviceTasks: [wreg-fsr1h+status,2+status,0+pclath+cstack]
  2890                           
  2891  01A0                     l4703:	
  2892                           ;lib/usb/usb_device.c: 483:     uint8_t i;;lib/usb/usb_device.c: 509:     if (1 != 1)
  2893                           
  2894                           
  2895                           ;lib/usb/usb_device.c: 570:     if(USBDeviceState == DETACHED_STATE)
  2896  01A0  0021               	movlb	1	; select bank1
  2897  01A1  0853               	movf	_USBDeviceState^(0+128),w
  2898  01A2  1D03               	btfss	3,2
  2899  01A3  29A5               	goto	u3441
  2900  01A4  29A6               	goto	u3440
  2901  01A5                     u3441:
  2902  01A5  29B8               	goto	l4713
  2903  01A6                     u3440:
  2904  01A6                     l4705:
  2905                           
  2906                           ;lib/usb/usb_device.c: 571:     {;lib/usb/usb_device.c: 573:         UCON = 0;
  2907  01A6  003D               	movlb	29	; select bank29
  2908  01A7  018E               	clrf	14	;volatile
  2909                           
  2910                           ;lib/usb/usb_device.c: 576:         UIE = 0;
  2911  01A8  0192               	clrf	18	;volatile
  2912  01A9                     l4707:
  2913                           
  2914                           ;lib/usb/usb_device.c: 580:         { UCFG = 0x10 | 0x00 | 0x04 | 0x02; UEIE = 0x9F; UIE
      +                           = 0x39 | 0x40 | 0x02; };
  2915  01A9  3016               	movlw	22
  2916  01AA  0091               	movwf	17	;volatile
  2917  01AB                     l4709:
  2918  01AB  309F               	movlw	159
  2919  01AC  0097               	movwf	23	;volatile
  2920  01AD                     l4711:
  2921  01AD  307B               	movlw	123
  2922  01AE  0092               	movwf	18	;volatile
  2923                           
  2924                           ;lib/usb/usb_device.c: 583:         while(!UCONbits.USBEN){UCONbits.USBEN = 1;}
  2925  01AF  29B1               	goto	l167
  2926  01B0                     l168:
  2927  01B0  158E               	bsf	14,3	;volatile
  2928  01B1                     l167:
  2929  01B1  1D8E               	btfss	14,3	;volatile
  2930  01B2  29B4               	goto	u3451
  2931  01B3  29B5               	goto	u3450
  2932  01B4                     u3451:
  2933  01B4  29B0               	goto	l168
  2934  01B5                     u3450:
  2935  01B5                     l169:
  2936                           
  2937                           ;lib/usb/usb_device.c: 586:         USBDeviceState = ATTACHED_STATE;
  2938  01B5  0021               	movlb	1	; select bank1
  2939  01B6  01D3               	clrf	_USBDeviceState^(0+128)
  2940  01B7  0AD3               	incf	_USBDeviceState^(0+128),f
  2941  01B8                     l4713:
  2942                           
  2943                           ;lib/usb/usb_device.c: 594:     if(USBDeviceState == ATTACHED_STATE)
  2944  01B8  0353               	decf	_USBDeviceState^(0+128),w
  2945  01B9  1D03               	btfss	3,2
  2946  01BA  29BC               	goto	u3461
  2947  01BB  29BD               	goto	u3460
  2948  01BC                     u3461:
  2949  01BC  29CB               	goto	l4725
  2950  01BD                     u3460:
  2951  01BD                     l4715:
  2952                           
  2953                           ;lib/usb/usb_device.c: 595:     {;lib/usb/usb_device.c: 605:         if(!UCONbits.SE0)
  2954  01BD  003D               	movlb	29	; select bank29
  2955  01BE  1A8E               	btfsc	14,5	;volatile
  2956  01BF  29C1               	goto	u3471
  2957  01C0  29C2               	goto	u3470
  2958  01C1                     u3471:
  2959  01C1  29CB               	goto	l4725
  2960  01C2                     u3470:
  2961  01C2                     l4717:
  2962                           
  2963                           ;lib/usb/usb_device.c: 606:         {;lib/usb/usb_device.c: 612:                 {UIR = 
      +                          0;};
  2964  01C2  0190               	clrf	16	;volatile
  2965                           
  2966                           ;lib/usb/usb_device.c: 616:                 UIE=0;
  2967  01C3  0192               	clrf	18	;volatile
  2968  01C4                     l4719:
  2969                           
  2970                           ;lib/usb/usb_device.c: 618:             UIEbits.URSTIE = 1;
  2971  01C4  1412               	bsf	18,0	;volatile
  2972  01C5                     l4721:
  2973                           
  2974                           ;lib/usb/usb_device.c: 619:             UIEbits.IDLEIE = 1;
  2975  01C5  1612               	bsf	18,4	;volatile
  2976  01C6                     l4723:
  2977                           
  2978                           ;lib/usb/usb_device.c: 620:             USBDeviceState = POWERED_STATE;
  2979  01C6  3002               	movlw	2
  2980  01C7  0021               	movlb	1	; select bank1
  2981  01C8  00EA               	movwf	??_USBDeviceTasks^(0+128)
  2982  01C9  086A               	movf	??_USBDeviceTasks^(0+128),w
  2983  01CA  00D3               	movwf	_USBDeviceState^(0+128)
  2984  01CB                     l4725:
  2985                           
  2986                           ;lib/usb/usb_device.c: 638:     if(UIRbits.ACTVIF && UIEbits.ACTVIE)
  2987  01CB  003D               	movlb	29	; select bank29
  2988  01CC  1D10               	btfss	16,2	;volatile
  2989  01CD  29CF               	goto	u3481
  2990  01CE  29D0               	goto	u3480
  2991  01CF                     u3481:
  2992  01CF  29DD               	goto	l4733
  2993  01D0                     u3480:
  2994  01D0                     l4727:
  2995  01D0  1D12               	btfss	18,2	;volatile
  2996  01D1  29D3               	goto	u3491
  2997  01D2  29D4               	goto	u3490
  2998  01D3                     u3491:
  2999  01D3  29DD               	goto	l4733
  3000  01D4                     u3490:
  3001  01D4                     l4729:
  3002                           
  3003                           ;lib/usb/usb_device.c: 639:     {;lib/usb/usb_device.c: 640:         (UIR &= 0xFB);
  3004  01D4  30FB               	movlw	251
  3005  01D5  0021               	movlb	1	; select bank1
  3006  01D6  00EA               	movwf	??_USBDeviceTasks^(0+128)
  3007  01D7  086A               	movf	??_USBDeviceTasks^(0+128),w
  3008  01D8  003D               	movlb	29	; select bank29
  3009  01D9  0590               	andwf	16,f	;volatile
  3010  01DA                     l4731:
  3011                           
  3012                           ;lib/usb/usb_device.c: 644:             USBWakeFromSuspend();
  3013  01DA  3189  2132  3181   	fcall	_USBWakeFromSuspend
  3014  01DD                     l4733:
  3015                           
  3016                           ;lib/usb/usb_device.c: 651:     if(UCONbits.SUSPND==1)
  3017  01DD  003D               	movlb	29	; select bank29
  3018  01DE  1C8E               	btfss	14,1	;volatile
  3019  01DF  29E1               	goto	u3501
  3020  01E0  29E2               	goto	u3500
  3021  01E1                     u3501:
  3022  01E1  29E5               	goto	l173
  3023  01E2                     u3500:
  3024  01E2                     l4735:
  3025                           
  3026                           ;lib/usb/usb_device.c: 652:     {;lib/usb/usb_device.c: 653:         PIR2bits.USBIF = 0;
      +                          ;
  3027  01E2  0020               	movlb	0	; select bank0
  3028  01E3  1112               	bcf	18,2	;volatile
  3029                           
  3030                           ;lib/usb/usb_device.c: 654:         return;
  3031  01E4  2ACE               	goto	l165
  3032  01E5                     l173:	
  3033                           ;lib/usb/usb_device.c: 655:     }
  3034                           
  3035                           
  3036                           ;lib/usb/usb_device.c: 667:     if(UIRbits.URSTIF && UIEbits.URSTIE)
  3037  01E5  1C10               	btfss	16,0	;volatile
  3038  01E6  29E8               	goto	u3511
  3039  01E7  29E9               	goto	u3510
  3040  01E8                     u3511:
  3041  01E8  29FA               	goto	l4745
  3042  01E9                     u3510:
  3043  01E9                     l4737:
  3044  01E9  1C12               	btfss	18,0	;volatile
  3045  01EA  29EC               	goto	u3521
  3046  01EB  29ED               	goto	u3520
  3047  01EC                     u3521:
  3048  01EC  29FA               	goto	l4745
  3049  01ED                     u3520:
  3050  01ED                     l4739:
  3051                           
  3052                           ;lib/usb/usb_device.c: 668:     {;lib/usb/usb_device.c: 669:         USBDeviceInit();
  3053  01ED  3185  2567  3181   	fcall	_USBDeviceInit
  3054  01F0                     l4741:
  3055                           
  3056                           ;lib/usb/usb_device.c: 675:         USBDeviceState = DEFAULT_STATE;
  3057  01F0  3004               	movlw	4
  3058  01F1  0021               	movlb	1	; select bank1
  3059  01F2  00EA               	movwf	??_USBDeviceTasks^(0+128)
  3060  01F3  086A               	movf	??_USBDeviceTasks^(0+128),w
  3061  01F4  00D3               	movwf	_USBDeviceState^(0+128)
  3062  01F5                     l4743:
  3063                           
  3064                           ;lib/usb/usb_device.c: 685:         (UIR &= 0xFE);
  3065  01F5  30FE               	movlw	254
  3066  01F6  00EA               	movwf	??_USBDeviceTasks^(0+128)
  3067  01F7  086A               	movf	??_USBDeviceTasks^(0+128),w
  3068  01F8  003D               	movlb	29	; select bank29
  3069  01F9  0590               	andwf	16,f	;volatile
  3070  01FA                     l4745:
  3071                           
  3072                           ;lib/usb/usb_device.c: 691:     if(UIRbits.IDLEIF && UIEbits.IDLEIE)
  3073  01FA  1E10               	btfss	16,4	;volatile
  3074  01FB  29FD               	goto	u3531
  3075  01FC  29FE               	goto	u3530
  3076  01FD                     u3531:
  3077  01FD  2A05               	goto	l4751
  3078  01FE                     u3530:
  3079  01FE                     l4747:
  3080  01FE  1E12               	btfss	18,4	;volatile
  3081  01FF  2A01               	goto	u3541
  3082  0200  2A02               	goto	u3540
  3083  0201                     u3541:
  3084  0201  2A05               	goto	l4751
  3085  0202                     u3540:
  3086  0202                     l4749:
  3087                           
  3088                           ;lib/usb/usb_device.c: 692:     {;lib/usb/usb_device.c: 698:             USBSuspend();
  3089  0202  3188  20D8  3181   	fcall	_USBSuspend
  3090  0205                     l4751:
  3091                           
  3092                           ;lib/usb/usb_device.c: 712:     if(UIRbits.SOFIF)
  3093  0205  003D               	movlb	29	; select bank29
  3094  0206  1F10               	btfss	16,6	;volatile
  3095  0207  2A09               	goto	u3551
  3096  0208  2A0A               	goto	u3550
  3097  0209                     u3551:
  3098  0209  2A37               	goto	l4767
  3099  020A                     u3550:
  3100  020A                     l4753:
  3101                           
  3102                           ;lib/usb/usb_device.c: 713:     {;lib/usb/usb_device.c: 715:         if(UIEbits.SOFIE)
  3103  020A  1F12               	btfss	18,6	;volatile
  3104  020B  2A0D               	goto	u3561
  3105  020C  2A0E               	goto	u3560
  3106  020D                     u3561:
  3107  020D  2A1E               	goto	l4757
  3108  020E                     u3560:
  3109  020E                     l4755:
  3110                           
  3111                           ;lib/usb/usb_device.c: 716:         {;lib/usb/usb_device.c: 717:             USER_USB_CA
      +                          LLBACK_EVENT_HANDLER((USB_EVENT)EVENT_SOF,0,1);
  3112  020E  3073               	movlw	115
  3113  020F  0021               	movlb	1	; select bank1
  3114  0210  00D8               	movwf	USER_USB_CALLBACK_EVENT_HANDLER@event^(0+128)
  3115  0211  3000               	movlw	0
  3116  0212  00D9               	movwf	(USER_USB_CALLBACK_EVENT_HANDLER@event^(0+128)+1)
  3117  0213  3000               	movlw	0
  3118  0214  00DA               	movwf	USER_USB_CALLBACK_EVENT_HANDLER@pdata^(0+128)
  3119  0215  3000               	movlw	0
  3120  0216  00DB               	movwf	(USER_USB_CALLBACK_EVENT_HANDLER@pdata+1)^(0+128)
  3121  0217  3001               	movlw	1
  3122  0218  00DC               	movwf	USER_USB_CALLBACK_EVENT_HANDLER@size^(0+128)
  3123  0219  3000               	movlw	0
  3124  021A  00DD               	movwf	(USER_USB_CALLBACK_EVENT_HANDLER@size^(0+128)+1)
  3125  021B  318B  2309  3181   	fcall	_USER_USB_CALLBACK_EVENT_HANDLER
  3126  021E                     l4757:
  3127                           
  3128                           ;lib/usb/usb_device.c: 719:         (UIR &= 0xBF);
  3129  021E  30BF               	movlw	191
  3130  021F  0021               	movlb	1	; select bank1
  3131  0220  00EA               	movwf	??_USBDeviceTasks^(0+128)
  3132  0221  086A               	movf	??_USBDeviceTasks^(0+128),w
  3133  0222  003D               	movlb	29	; select bank29
  3134  0223  0590               	andwf	16,f	;volatile
  3135  0224                     l4759:
  3136                           
  3137                           ;lib/usb/usb_device.c: 722:             USBIncrement1msInternalTimers();
  3138  0224  3188  20F4  3181   	fcall	_USBIncrement1msInternalTimers
  3139  0227                     l4761:
  3140                           
  3141                           ;lib/usb/usb_device.c: 739:             if(USBStatusStageTimeoutCounter != 0u)
  3142  0227  0021               	movlb	1	; select bank1
  3143  0228  084A               	movf	_USBStatusStageTimeoutCounter^(0+128),w
  3144  0229  1903               	btfsc	3,2
  3145  022A  2A2C               	goto	u3571
  3146  022B  2A2D               	goto	u3570
  3147  022C                     u3571:
  3148  022C  2A2F               	goto	l178
  3149  022D                     u3570:
  3150  022D                     l4763:
  3151                           
  3152                           ;lib/usb/usb_device.c: 740:             {;lib/usb/usb_device.c: 741:                 USB
      +                          StatusStageTimeoutCounter--;
  3153  022D  3001               	movlw	1
  3154  022E  02CA               	subwf	_USBStatusStageTimeoutCounter^(0+128),f
  3155  022F                     l178:	
  3156                           ;lib/usb/usb_device.c: 742:             }
  3157                           
  3158                           
  3159                           ;lib/usb/usb_device.c: 748:             if(USBStatusStageTimeoutCounter == 0)
  3160  022F  084A               	movf	_USBStatusStageTimeoutCounter^(0+128),w
  3161  0230  1D03               	btfss	3,2
  3162  0231  2A33               	goto	u3581
  3163  0232  2A34               	goto	u3580
  3164  0233                     u3581:
  3165  0233  2A37               	goto	l4767
  3166  0234                     u3580:
  3167  0234                     l4765:
  3168                           
  3169                           ;lib/usb/usb_device.c: 749:             {;lib/usb/usb_device.c: 750:                 USB
      +                          CtrlEPAllowStatusStage();
  3170  0234  318D  251A  3181   	fcall	_USBCtrlEPAllowStatusStage
  3171  0237                     l4767:
  3172                           
  3173                           ;lib/usb/usb_device.c: 755:     if(UIRbits.STALLIF && UIEbits.STALLIE)
  3174  0237  003D               	movlb	29	; select bank29
  3175  0238  1E90               	btfss	16,5	;volatile
  3176  0239  2A3B               	goto	u3591
  3177  023A  2A3C               	goto	u3590
  3178  023B                     u3591:
  3179  023B  2A43               	goto	l4773
  3180  023C                     u3590:
  3181  023C                     l4769:
  3182  023C  1E92               	btfss	18,5	;volatile
  3183  023D  2A3F               	goto	u3601
  3184  023E  2A40               	goto	u3600
  3185  023F                     u3601:
  3186  023F  2A43               	goto	l4773
  3187  0240                     u3600:
  3188  0240                     l4771:
  3189                           
  3190                           ;lib/usb/usb_device.c: 756:     {;lib/usb/usb_device.c: 757:         USBStallHandler();
  3191  0240  318A  2201  3181   	fcall	_USBStallHandler
  3192  0243                     l4773:
  3193                           
  3194                           ;lib/usb/usb_device.c: 760:     if(UIRbits.UERRIF && UIEbits.UERRIE)
  3195  0243  003D               	movlb	29	; select bank29
  3196  0244  1C90               	btfss	16,1	;volatile
  3197  0245  2A47               	goto	u3611
  3198  0246  2A48               	goto	u3610
  3199  0247                     u3611:
  3200  0247  2A5E               	goto	l4781
  3201  0248                     u3610:
  3202  0248                     l4775:
  3203  0248  1C92               	btfss	18,1	;volatile
  3204  0249  2A4B               	goto	u3621
  3205  024A  2A4C               	goto	u3620
  3206  024B                     u3621:
  3207  024B  2A5E               	goto	l4781
  3208  024C                     u3620:
  3209  024C                     l4777:
  3210                           
  3211                           ;lib/usb/usb_device.c: 761:     {;lib/usb/usb_device.c: 762:         USER_USB_CALLBACK_E
      +                          VENT_HANDLER((USB_EVENT)EVENT_BUS_ERROR,0,1);
  3212  024C  30FF               	movlw	255
  3213  024D  0021               	movlb	1	; select bank1
  3214  024E  00D8               	movwf	USER_USB_CALLBACK_EVENT_HANDLER@event^(0+128)
  3215  024F  307F               	movlw	127
  3216  0250  00D9               	movwf	(USER_USB_CALLBACK_EVENT_HANDLER@event^(0+128)+1)
  3217  0251  3000               	movlw	0
  3218  0252  00DA               	movwf	USER_USB_CALLBACK_EVENT_HANDLER@pdata^(0+128)
  3219  0253  3000               	movlw	0
  3220  0254  00DB               	movwf	(USER_USB_CALLBACK_EVENT_HANDLER@pdata+1)^(0+128)
  3221  0255  3001               	movlw	1
  3222  0256  00DC               	movwf	USER_USB_CALLBACK_EVENT_HANDLER@size^(0+128)
  3223  0257  3000               	movlw	0
  3224  0258  00DD               	movwf	(USER_USB_CALLBACK_EVENT_HANDLER@size^(0+128)+1)
  3225  0259  318B  2309  3181   	fcall	_USER_USB_CALLBACK_EVENT_HANDLER
  3226  025C                     l4779:
  3227                           
  3228                           ;lib/usb/usb_device.c: 763:         {UEIR = 0;};
  3229  025C  003D               	movlb	29	; select bank29
  3230  025D  0193               	clrf	19	;volatile
  3231  025E                     l4781:
  3232                           
  3233                           ;lib/usb/usb_device.c: 778:     if(USBDeviceState < DEFAULT_STATE)
  3234  025E  3004               	movlw	4
  3235  025F  0021               	movlb	1	; select bank1
  3236  0260  0253               	subwf	_USBDeviceState^(0+128),w
  3237  0261  1803               	skipnc
  3238  0262  2A64               	goto	u3631
  3239  0263  2A65               	goto	u3630
  3240  0264                     u3631:
  3241  0264  2A68               	goto	l182
  3242  0265                     u3630:
  3243  0265                     l4783:
  3244                           
  3245                           ;lib/usb/usb_device.c: 779:     {;lib/usb/usb_device.c: 780:         PIR2bits.USBIF = 0;
      +                          ;
  3246  0265  0020               	movlb	0	; select bank0
  3247  0266  1112               	bcf	18,2	;volatile
  3248                           
  3249                           ;lib/usb/usb_device.c: 781:         return;
  3250  0267  2ACE               	goto	l165
  3251  0268                     l182:	
  3252                           ;lib/usb/usb_device.c: 782:     }
  3253                           
  3254                           
  3255                           ;lib/usb/usb_device.c: 787:     if(UIEbits.TRNIE)
  3256  0268  003D               	movlb	29	; select bank29
  3257  0269  1D92               	btfss	18,3	;volatile
  3258  026A  2A6C               	goto	u3641
  3259  026B  2A6D               	goto	u3640
  3260  026C                     u3641:
  3261  026C  2ACC               	goto	l183
  3262  026D                     u3640:
  3263  026D                     l4785:
  3264                           
  3265                           ;lib/usb/usb_device.c: 788:     {;lib/usb/usb_device.c: 789:         for(i = 0; i < 4u; 
      +                          i++)
  3266  026D  0021               	movlb	1	; select bank1
  3267  026E  01EC               	clrf	USBDeviceTasks@i^(0+128)
  3268  026F                     l184:
  3269                           
  3270                           ;lib/usb/usb_device.c: 790:         {;lib/usb/usb_device.c: 791:             if(UIRbits.
      +                          TRNIF)
  3271  026F  003D               	movlb	29	; select bank29
  3272  0270  1D90               	btfss	16,3	;volatile
  3273  0271  2A73               	goto	u3651
  3274  0272  2A74               	goto	u3650
  3275  0273                     u3651:
  3276  0273  2ACC               	goto	l183
  3277  0274                     u3650:
  3278  0274                     l4791:
  3279                           
  3280                           ;lib/usb/usb_device.c: 792:             {;lib/usb/usb_device.c: 794:                 UST
      +                          ATcopy.Val = USTAT;
  3281  0274  080F               	movf	15,w	;volatile
  3282  0275  0021               	movlb	1	; select bank1
  3283  0276  00EA               	movwf	??_USBDeviceTasks^(0+128)
  3284  0277  086A               	movf	??_USBDeviceTasks^(0+128),w
  3285  0278  00D6               	movwf	_USTATcopy^(0+128)
  3286  0279                     l4793:
  3287                           
  3288                           ;lib/usb/usb_device.c: 795:                 endpoint_number = USTATcopy.endpoint_number;
  3289  0279  0C56               	rrf	_USTATcopy^(0+128),w
  3290  027A  00EA               	movwf	??_USBDeviceTasks^(0+128)
  3291  027B  0CEA               	rrf	??_USBDeviceTasks^(0+128),f
  3292  027C  0C6A               	rrf	??_USBDeviceTasks^(0+128),w
  3293  027D  390F               	andlw	15
  3294  027E  00EB               	movwf	(??_USBDeviceTasks+1)^(0+128)
  3295  027F  086B               	movf	(??_USBDeviceTasks+1)^(0+128),w
  3296  0280  00CC               	movwf	_endpoint_number^(0+128)
  3297  0281                     l4795:
  3298                           
  3299                           ;lib/usb/usb_device.c: 797:                 (UIR &= 0xF7);
  3300  0281  30F7               	movlw	247
  3301  0282  00EA               	movwf	??_USBDeviceTasks^(0+128)
  3302  0283  086A               	movf	??_USBDeviceTasks^(0+128),w
  3303  0284  003D               	movlb	29	; select bank29
  3304  0285  0590               	andwf	16,f	;volatile
  3305  0286                     l4797:
  3306                           
  3307                           ;lib/usb/usb_device.c: 802:                 if(USTATcopy.direction == 0)
  3308  0286  0021               	movlb	1	; select bank1
  3309  0287  1956               	btfsc	_USTATcopy^(0+128),2
  3310  0288  2A8A               	goto	u3661
  3311  0289  2A8B               	goto	u3660
  3312  028A                     u3661:
  3313  028A  2A9B               	goto	l4801
  3314  028B                     u3660:
  3315  028B                     l4799:
  3316                           
  3317                           ;lib/usb/usb_device.c: 803:                 {;lib/usb/usb_device.c: 804:                
      +                               ep_data_out[endpoint_number].bits.ping_pong_state ^= 1;
  3318  028B  084C               	movf	_endpoint_number^(0+128),w
  3319  028C  3E33               	addlw	(low (_ep_data_out| (0+256)))& (0+255)
  3320  028D  0086               	movwf	6
  3321  028E  3001               	movlw	1	; select bank2/3
  3322  028F  0087               	movwf	7
  3323  0290  0801               	movf	1,w
  3324  0291  3901               	andlw	1
  3325  0292  00EA               	movwf	??_USBDeviceTasks^(0+128)
  3326  0293  3001               	movlw	1
  3327  0294  06EA               	xorwf	??_USBDeviceTasks^(0+128),f
  3328  0295  0801               	movf	1,w
  3329  0296  066A               	xorwf	??_USBDeviceTasks^(0+128),w
  3330  0297  39FE               	andlw	-2
  3331  0298  066A               	xorwf	??_USBDeviceTasks^(0+128),w
  3332  0299  0081               	movwf	1
  3333                           
  3334                           ;lib/usb/usb_device.c: 805:                 }
  3335  029A  2AAA               	goto	l4803
  3336  029B                     l4801:
  3337                           
  3338                           ;lib/usb/usb_device.c: 807:                 {;lib/usb/usb_device.c: 808:                
      +                               ep_data_in[endpoint_number].bits.ping_pong_state ^= 1;
  3339  029B  084C               	movf	_endpoint_number^(0+128),w
  3340  029C  3E37               	addlw	(low (_ep_data_in| (0+256)))& (0+255)
  3341  029D  0086               	movwf	6
  3342  029E  3001               	movlw	1	; select bank2/3
  3343  029F  0087               	movwf	7
  3344  02A0  0801               	movf	1,w
  3345  02A1  3901               	andlw	1
  3346  02A2  00EA               	movwf	??_USBDeviceTasks^(0+128)
  3347  02A3  3001               	movlw	1
  3348  02A4  06EA               	xorwf	??_USBDeviceTasks^(0+128),f
  3349  02A5  0801               	movf	1,w
  3350  02A6  066A               	xorwf	??_USBDeviceTasks^(0+128),w
  3351  02A7  39FE               	andlw	-2
  3352  02A8  066A               	xorwf	??_USBDeviceTasks^(0+128),w
  3353  02A9  0081               	movwf	1
  3354  02AA                     l4803:
  3355                           
  3356                           ;lib/usb/usb_device.c: 814:                 if(endpoint_number == 0)
  3357  02AA  084C               	movf	_endpoint_number^(0+128),w
  3358  02AB  1D03               	btfss	3,2
  3359  02AC  2AAE               	goto	u3671
  3360  02AD  2AAF               	goto	u3670
  3361  02AE                     u3671:
  3362  02AE  2AB3               	goto	l4807
  3363  02AF                     u3670:
  3364  02AF                     l4805:
  3365                           
  3366                           ;lib/usb/usb_device.c: 815:                 {;lib/usb/usb_device.c: 816:                
      +                               USBCtrlEPService();
  3367  02AF  318B  2397  3181   	fcall	_USBCtrlEPService
  3368                           
  3369                           ;lib/usb/usb_device.c: 817:                 }
  3370  02B2  2AC1               	goto	l4809
  3371  02B3                     l4807:
  3372                           
  3373                           ;lib/usb/usb_device.c: 819:                 {;lib/usb/usb_device.c: 820:                
      +                               USER_USB_CALLBACK_EVENT_HANDLER((USB_EVENT)EVENT_TRANSFER,(uint8_t*)&USTATcopy.Val,
      +                          0);
  3374  02B3  3072               	movlw	114
  3375  02B4  00D8               	movwf	USER_USB_CALLBACK_EVENT_HANDLER@event^(0+128)
  3376  02B5  3000               	movlw	0
  3377  02B6  00D9               	movwf	(USER_USB_CALLBACK_EVENT_HANDLER@event^(0+128)+1)
  3378  02B7  30D6               	movlw	low _USTATcopy
  3379  02B8  00DA               	movwf	USER_USB_CALLBACK_EVENT_HANDLER@pdata^(0+128)
  3380  02B9  3000               	movlw	high _USTATcopy
  3381  02BA  00DB               	movwf	(USER_USB_CALLBACK_EVENT_HANDLER@pdata+1)^(0+128)
  3382  02BB  3000               	movlw	0
  3383  02BC  00DC               	movwf	USER_USB_CALLBACK_EVENT_HANDLER@size^(0+128)
  3384  02BD  00DD               	movwf	(USER_USB_CALLBACK_EVENT_HANDLER@size+1)^(0+128)
  3385  02BE  318B  2309  3181   	fcall	_USER_USB_CALLBACK_EVENT_HANDLER
  3386  02C1                     l4809:
  3387                           
  3388                           ;lib/usb/usb_device.c: 827:         }
  3389  02C1  3001               	movlw	1
  3390  02C2  0021               	movlb	1	; select bank1
  3391  02C3  00EA               	movwf	??_USBDeviceTasks^(0+128)
  3392  02C4  086A               	movf	??_USBDeviceTasks^(0+128),w
  3393  02C5  07EC               	addwf	USBDeviceTasks@i^(0+128),f
  3394  02C6                     l4811:
  3395  02C6  3004               	movlw	4
  3396  02C7  026C               	subwf	USBDeviceTasks@i^(0+128),w
  3397  02C8  1C03               	skipc
  3398  02C9  2ACB               	goto	u3681
  3399  02CA  2ACC               	goto	u3680
  3400  02CB                     u3681:
  3401  02CB  2A6F               	goto	l184
  3402  02CC                     u3680:
  3403  02CC                     l183:	
  3404                           ;lib/usb/usb_device.c: 828:     }
  3405                           
  3406                           
  3407                           ;lib/usb/usb_device.c: 830:     PIR2bits.USBIF = 0;;
  3408  02CC  0020               	movlb	0	; select bank0
  3409  02CD  1112               	bcf	18,2	;volatile
  3410  02CE                     l165:
  3411  02CE  0008               	return
  3412  02CF                     __end_of_USBDeviceTasks:
  3413                           
  3414                           	psect	text3
  3415  0932                     __ptext3:	
  3416 ;; *************** function _USBWakeFromSuspend *****************
  3417 ;; Defined at:
  3418 ;;		line 2310 in file "lib/usb/usb_device.c"
  3419 ;; Parameters:    Size  Location     Type
  3420 ;;		None
  3421 ;; Auto vars:     Size  Location     Type
  3422 ;;		None
  3423 ;; Return value:  Size  Location     Type
  3424 ;;                  1    wreg      void 
  3425 ;; Registers used:
  3426 ;;		wreg, fsr0l, fsr0h, fsr1l, fsr1h, status,2, status,0, pclath, cstack
  3427 ;; Tracked objects:
  3428 ;;		On entry : 0/0
  3429 ;;		On exit  : 0/0
  3430 ;;		Unchanged: 0/0
  3431 ;; Data sizes:     COMMON   BANK1   BANK2   BANK3  BANK4h  BANK4l   BANK5   BANK6   BANK7   BANK8   BANK9  BANK10  BANK1
      +1  BANK12
  3432 ;;      Params:         0       0       0       0       0       0       0       0       0       0       0       0       
      +0       0
  3433 ;;      Locals:         0       0       0       0       0       0       0       0       0       0       0       0       
      +0       0
  3434 ;;      Temps:          0       1       0       0       0       0       0       0       0       0       0       0       
      +0       0
  3435 ;;      Totals:         0       1       0       0       0       0       0       0       0       0       0       0       
      +0       0
  3436 ;;Total ram usage:        1 bytes
  3437 ;; Hardware stack levels used: 1
  3438 ;; Hardware stack levels required when called: 5
  3439 ;; This function calls:
  3440 ;;		_USER_USB_CALLBACK_EVENT_HANDLER
  3441 ;; This function is called by:
  3442 ;;		_USBDeviceTasks
  3443 ;; This function uses a non-reentrant model
  3444 ;;
  3445                           
  3446  0932                     _USBWakeFromSuspend:	
  3447                           ;psect for function _USBWakeFromSuspend
  3448                           
  3449  0932                     l3861:	
  3450                           ;incstack = 0
  3451                           ; Regs used in _USBWakeFromSuspend: [wreg-fsr1h+status,2+status,0+pclath+cstack]
  3452                           
  3453                           
  3454                           ;lib/usb/usb_device.c: 2312:     USBBusIsSuspended = 0;
  3455  0932  0021               	movlb	1	; select bank1
  3456  0933  01CD               	clrf	_USBBusIsSuspended^(0+128)
  3457  0934                     l3863:
  3458                           
  3459                           ;lib/usb/usb_device.c: 2318:     USER_USB_CALLBACK_EVENT_HANDLER((USB_EVENT)EVENT_RESUME
      +                          ,0,0);
  3460  0934  3074               	movlw	116
  3461  0935  00D8               	movwf	USER_USB_CALLBACK_EVENT_HANDLER@event^(0+128)
  3462  0936  3000               	movlw	0
  3463  0937  00D9               	movwf	(USER_USB_CALLBACK_EVENT_HANDLER@event^(0+128)+1)
  3464  0938  3000               	movlw	0
  3465  0939  00DA               	movwf	USER_USB_CALLBACK_EVENT_HANDLER@pdata^(0+128)
  3466  093A  3000               	movlw	0
  3467  093B  00DB               	movwf	(USER_USB_CALLBACK_EVENT_HANDLER@pdata+1)^(0+128)
  3468  093C  3000               	movlw	0
  3469  093D  00DC               	movwf	USER_USB_CALLBACK_EVENT_HANDLER@size^(0+128)
  3470  093E  00DD               	movwf	(USER_USB_CALLBACK_EVENT_HANDLER@size+1)^(0+128)
  3471  093F  318B  2309  3189   	fcall	_USER_USB_CALLBACK_EVENT_HANDLER
  3472  0942                     l3865:
  3473                           
  3474                           ;lib/usb/usb_device.c: 2325:         UCONbits.SUSPND = 0;
  3475  0942  003D               	movlb	29	; select bank29
  3476  0943  108E               	bcf	14,1	;volatile
  3477  0944                     l3867:
  3478                           
  3479                           ;lib/usb/usb_device.c: 2330:     UIEbits.ACTVIE = 0;
  3480  0944  1112               	bcf	18,2	;volatile
  3481                           
  3482                           ;lib/usb/usb_device.c: 2348:     while(UIRbits.ACTVIF)
  3483  0945  294C               	goto	l3871
  3484  0946                     l3869:
  3485                           
  3486                           ;lib/usb/usb_device.c: 2350:     {;lib/usb/usb_device.c: 2351:         (UIR &= 0xFB);
  3487  0946  30FB               	movlw	251
  3488  0947  0021               	movlb	1	; select bank1
  3489  0948  00DE               	movwf	??_USBWakeFromSuspend^(0+128)
  3490  0949  085E               	movf	??_USBWakeFromSuspend^(0+128),w
  3491  094A  003D               	movlb	29	; select bank29
  3492  094B  0590               	andwf	16,f	;volatile
  3493  094C                     l3871:
  3494                           
  3495                           ;lib/usb/usb_device.c: 2348:     while(UIRbits.ACTVIF)
  3496  094C  1910               	btfsc	16,2	;volatile
  3497  094D  294F               	goto	u2671
  3498  094E  2950               	goto	u2670
  3499  094F                     u2671:
  3500  094F  2946               	goto	l3869
  3501  0950                     u2670:
  3502  0950                     l3873:
  3503                           
  3504                           ;lib/usb/usb_device.c: 2354:     USBTicksSinceSuspendEnd = 0;
  3505  0950  0021               	movlb	1	; select bank1
  3506  0951  01C4               	clrf	_USBTicksSinceSuspendEnd^(0+128)
  3507  0952                     l325:
  3508  0952  0008               	return
  3509  0953                     __end_of_USBWakeFromSuspend:
  3510                           
  3511                           	psect	text4
  3512  08D8                     __ptext4:	
  3513 ;; *************** function _USBSuspend *****************
  3514 ;; Defined at:
  3515 ;;		line 2252 in file "lib/usb/usb_device.c"
  3516 ;; Parameters:    Size  Location     Type
  3517 ;;		None
  3518 ;; Auto vars:     Size  Location     Type
  3519 ;;		None
  3520 ;; Return value:  Size  Location     Type
  3521 ;;                  1    wreg      void 
  3522 ;; Registers used:
  3523 ;;		wreg, fsr0l, fsr0h, fsr1l, fsr1h, status,2, status,0, pclath, cstack
  3524 ;; Tracked objects:
  3525 ;;		On entry : 0/0
  3526 ;;		On exit  : 0/0
  3527 ;;		Unchanged: 0/0
  3528 ;; Data sizes:     COMMON   BANK1   BANK2   BANK3  BANK4h  BANK4l   BANK5   BANK6   BANK7   BANK8   BANK9  BANK10  BANK1
      +1  BANK12
  3529 ;;      Params:         0       0       0       0       0       0       0       0       0       0       0       0       
      +0       0
  3530 ;;      Locals:         0       0       0       0       0       0       0       0       0       0       0       0       
      +0       0
  3531 ;;      Temps:          0       1       0       0       0       0       0       0       0       0       0       0       
      +0       0
  3532 ;;      Totals:         0       1       0       0       0       0       0       0       0       0       0       0       
      +0       0
  3533 ;;Total ram usage:        1 bytes
  3534 ;; Hardware stack levels used: 1
  3535 ;; Hardware stack levels required when called: 5
  3536 ;; This function calls:
  3537 ;;		_USER_USB_CALLBACK_EVENT_HANDLER
  3538 ;; This function is called by:
  3539 ;;		_USBDeviceTasks
  3540 ;; This function uses a non-reentrant model
  3541 ;;
  3542                           
  3543  08D8                     _USBSuspend:	
  3544                           ;psect for function _USBSuspend
  3545                           
  3546  08D8                     l3875:	
  3547                           ;incstack = 0
  3548                           ; Regs used in _USBSuspend: [wreg-fsr1h+status,2+status,0+pclath+cstack]
  3549                           
  3550                           
  3551                           ;lib/usb/usb_device.c: 2277:     UIEbits.ACTVIE = 1;
  3552  08D8  003D               	movlb	29	; select bank29
  3553  08D9  1512               	bsf	18,2	;volatile
  3554  08DA                     l3877:
  3555                           
  3556                           ;lib/usb/usb_device.c: 2278:     (UIR &= 0xEF);
  3557  08DA  30EF               	movlw	239
  3558  08DB  0021               	movlb	1	; select bank1
  3559  08DC  00DE               	movwf	??_USBSuspend^(0+128)
  3560  08DD  085E               	movf	??_USBSuspend^(0+128),w
  3561  08DE  003D               	movlb	29	; select bank29
  3562  08DF  0590               	andwf	16,f	;volatile
  3563  08E0                     l3879:
  3564                           
  3565                           ;lib/usb/usb_device.c: 2281:         UCONbits.SUSPND = 1;
  3566  08E0  148E               	bsf	14,1	;volatile
  3567  08E1                     l3881:
  3568                           
  3569                           ;lib/usb/usb_device.c: 2284:     USBBusIsSuspended = 1;
  3570  08E1  0021               	movlb	1	; select bank1
  3571  08E2  01CD               	clrf	_USBBusIsSuspended^(0+128)
  3572  08E3  0ACD               	incf	_USBBusIsSuspended^(0+128),f
  3573  08E4                     l3883:
  3574                           
  3575                           ;lib/usb/usb_device.c: 2285:     USBTicksSinceSuspendEnd = 0;
  3576  08E4  01C4               	clrf	_USBTicksSinceSuspendEnd^(0+128)
  3577  08E5                     l3885:
  3578                           
  3579                           ;lib/usb/usb_device.c: 2292:     USER_USB_CALLBACK_EVENT_HANDLER((USB_EVENT)EVENT_SUSPEN
      +                          D,0,0);
  3580  08E5  3075               	movlw	117
  3581  08E6  00D8               	movwf	USER_USB_CALLBACK_EVENT_HANDLER@event^(0+128)
  3582  08E7  3000               	movlw	0
  3583  08E8  00D9               	movwf	(USER_USB_CALLBACK_EVENT_HANDLER@event^(0+128)+1)
  3584  08E9  3000               	movlw	0
  3585  08EA  00DA               	movwf	USER_USB_CALLBACK_EVENT_HANDLER@pdata^(0+128)
  3586  08EB  3000               	movlw	0
  3587  08EC  00DB               	movwf	(USER_USB_CALLBACK_EVENT_HANDLER@pdata+1)^(0+128)
  3588  08ED  3000               	movlw	0
  3589  08EE  00DC               	movwf	USER_USB_CALLBACK_EVENT_HANDLER@size^(0+128)
  3590  08EF  00DD               	movwf	(USER_USB_CALLBACK_EVENT_HANDLER@size+1)^(0+128)
  3591  08F0  318B  2309  3188   	fcall	_USER_USB_CALLBACK_EVENT_HANDLER
  3592  08F3                     l319:
  3593  08F3  0008               	return
  3594  08F4                     __end_of_USBSuspend:
  3595                           
  3596                           	psect	text5
  3597  0A01                     __ptext5:	
  3598 ;; *************** function _USBStallHandler *****************
  3599 ;; Defined at:
  3600 ;;		line 2209 in file "lib/usb/usb_device.c"
  3601 ;; Parameters:    Size  Location     Type
  3602 ;;		None
  3603 ;; Auto vars:     Size  Location     Type
  3604 ;;		None
  3605 ;; Return value:  Size  Location     Type
  3606 ;;                  1    wreg      void 
  3607 ;; Registers used:
  3608 ;;		wreg, fsr1l, fsr1h, status,2, status,0
  3609 ;; Tracked objects:
  3610 ;;		On entry : 0/0
  3611 ;;		On exit  : 0/0
  3612 ;;		Unchanged: 0/0
  3613 ;; Data sizes:     COMMON   BANK1   BANK2   BANK3  BANK4h  BANK4l   BANK5   BANK6   BANK7   BANK8   BANK9  BANK10  BANK1
      +1  BANK12
  3614 ;;      Params:         0       0       0       0       0       0       0       0       0       0       0       0       
      +0       0
  3615 ;;      Locals:         0       0       0       0       0       0       0       0       0       0       0       0       
      +0       0
  3616 ;;      Temps:          1       0       0       0       0       0       0       0       0       0       0       0       
      +0       0
  3617 ;;      Totals:         1       0       0       0       0       0       0       0       0       0       0       0       
      +0       0
  3618 ;;Total ram usage:        1 bytes
  3619 ;; Hardware stack levels used: 1
  3620 ;; Hardware stack levels required when called: 1
  3621 ;; This function calls:
  3622 ;;		Nothing
  3623 ;; This function is called by:
  3624 ;;		_USBDeviceTasks
  3625 ;; This function uses a non-reentrant model
  3626 ;;
  3627                           
  3628  0A01                     _USBStallHandler:	
  3629                           ;psect for function _USBStallHandler
  3630                           
  3631  0A01                     l3895:	
  3632                           ;incstack = 0
  3633                           ; Regs used in _USBStallHandler: [wreg+fsr1l+fsr1h+status,2+status,0]
  3634                           
  3635                           
  3636                           ;lib/usb/usb_device.c: 2221:     if(UEP0bits.EPSTALL == 1)
  3637  0A01  003D               	movlb	29	; select bank29
  3638  0A02  1C18               	btfss	24,0	;volatile
  3639  0A03  2A05               	goto	u2701
  3640  0A04  2A06               	goto	u2700
  3641  0A05                     u2701:
  3642  0A05  2A27               	goto	l3905
  3643  0A06                     u2700:
  3644  0A06                     l3897:
  3645                           
  3646                           ;lib/usb/usb_device.c: 2222:     {;lib/usb/usb_device.c: 2224:         if((pBDTEntryEP0O
      +                          utCurrent->STAT.Val == 0x80) && (pBDTEntryIn[0]->STAT.Val == (0x80|0x04)))
  3647  0A06  0021               	movlb	1	; select bank1
  3648  0A07  0852               	movf	_pBDTEntryEP0OutCurrent^(0+128),w
  3649  0A08  0086               	movwf	6
  3650  0A09  0187               	clrf	7
  3651  0A0A  3080               	movlw	128
  3652  0A0B  0601               	xorwf	1,w
  3653  0A0C  1D03               	btfss	3,2
  3654  0A0D  2A0F               	goto	u2711
  3655  0A0E  2A10               	goto	u2710
  3656  0A0F                     u2711:
  3657  0A0F  2A25               	goto	l3903
  3658  0A10                     u2710:
  3659  0A10                     l3899:
  3660  0A10  0830               	movf	_pBDTEntryIn^(0+128),w
  3661  0A11  0086               	movwf	6
  3662  0A12  0831               	movf	(_pBDTEntryIn+1)^(0+128),w
  3663  0A13  0087               	movwf	7
  3664  0A14  3084               	movlw	132
  3665  0A15  0601               	xorwf	1,w
  3666  0A16  1D03               	btfss	3,2
  3667  0A17  2A19               	goto	u2721
  3668  0A18  2A1A               	goto	u2720
  3669  0A19                     u2721:
  3670  0A19  2A25               	goto	l3903
  3671  0A1A                     u2720:
  3672  0A1A                     l3901:
  3673                           
  3674                           ;lib/usb/usb_device.c: 2225:         {;lib/usb/usb_device.c: 2227:             pBDTEntry
      +                          EP0OutCurrent->STAT.Val = 0x00|(0x08 & 0x08)|0x04;
  3675  0A1A  300C               	movlw	12
  3676  0A1B  00F0               	movwf	??_USBStallHandler
  3677  0A1C  0852               	movf	_pBDTEntryEP0OutCurrent^(0+128),w
  3678  0A1D  0086               	movwf	6
  3679  0A1E  0187               	clrf	7
  3680  0A1F  0870               	movf	??_USBStallHandler,w
  3681  0A20  0081               	movwf	1
  3682                           
  3683                           ;lib/usb/usb_device.c: 2228:             pBDTEntryEP0OutCurrent->STAT.Val |= 0x80;
  3684  0A21  0852               	movf	_pBDTEntryEP0OutCurrent^(0+128),w
  3685  0A22  0086               	movwf	6
  3686  0A23  0187               	clrf	7
  3687  0A24  1781               	bsf	1,7
  3688  0A25                     l3903:
  3689                           
  3690                           ;lib/usb/usb_device.c: 2230:         UEP0bits.EPSTALL = 0;
  3691  0A25  003D               	movlb	29	; select bank29
  3692  0A26  1018               	bcf	24,0	;volatile
  3693  0A27                     l3905:
  3694                           
  3695                           ;lib/usb/usb_device.c: 2233:     (UIR &= 0xDF);
  3696  0A27  30DF               	movlw	223
  3697  0A28  00F0               	movwf	??_USBStallHandler
  3698  0A29  0870               	movf	??_USBStallHandler,w
  3699  0A2A  0590               	andwf	16,f	;volatile
  3700  0A2B                     l316:
  3701  0A2B  0008               	return
  3702  0A2C                     __end_of_USBStallHandler:
  3703                           
  3704                           	psect	text6
  3705  08F4                     __ptext6:	
  3706 ;; *************** function _USBIncrement1msInternalTimers *****************
  3707 ;; Defined at:
  3708 ;;		line 2998 in file "lib/usb/usb_device.c"
  3709 ;; Parameters:    Size  Location     Type
  3710 ;;		None
  3711 ;; Auto vars:     Size  Location     Type
  3712 ;;		None
  3713 ;; Return value:  Size  Location     Type
  3714 ;;                  1    wreg      void 
  3715 ;; Registers used:
  3716 ;;		wreg, status,2, status,0
  3717 ;; Tracked objects:
  3718 ;;		On entry : 0/0
  3719 ;;		On exit  : 0/0
  3720 ;;		Unchanged: 0/0
  3721 ;; Data sizes:     COMMON   BANK1   BANK2   BANK3  BANK4h  BANK4l   BANK5   BANK6   BANK7   BANK8   BANK9  BANK10  BANK1
      +1  BANK12
  3722 ;;      Params:         0       0       0       0       0       0       0       0       0       0       0       0       
      +0       0
  3723 ;;      Locals:         0       0       0       0       0       0       0       0       0       0       0       0       
      +0       0
  3724 ;;      Temps:          1       0       0       0       0       0       0       0       0       0       0       0       
      +0       0
  3725 ;;      Totals:         1       0       0       0       0       0       0       0       0       0       0       0       
      +0       0
  3726 ;;Total ram usage:        1 bytes
  3727 ;; Hardware stack levels used: 1
  3728 ;; Hardware stack levels required when called: 1
  3729 ;; This function calls:
  3730 ;;		Nothing
  3731 ;; This function is called by:
  3732 ;;		_USBDeviceTasks
  3733 ;; This function uses a non-reentrant model
  3734 ;;
  3735                           
  3736  08F4                     _USBIncrement1msInternalTimers:	
  3737                           ;psect for function _USBIncrement1msInternalTimers
  3738                           
  3739  08F4                     l3887:	
  3740                           ;incstack = 0
  3741                           ; Regs used in _USBIncrement1msInternalTimers: [wreg+status,2+status,0]
  3742                           
  3743                           
  3744                           ;lib/usb/usb_device.c: 3006:     USB1msTickCount++;
  3745  08F4  3001               	movlw	1
  3746  08F5  0022               	movlb	2	; select bank2
  3747  08F6  07AF               	addwf	_USB1msTickCount^(0+256),f
  3748  08F7  3000               	movlw	0
  3749  08F8  3DB0               	addwfc	(_USB1msTickCount+1)^(0+256),f
  3750  08F9  3000               	movlw	0
  3751  08FA  3DB1               	addwfc	(_USB1msTickCount+2)^(0+256),f
  3752  08FB  3000               	movlw	0
  3753  08FC  3DB2               	addwfc	(_USB1msTickCount+3)^(0+256),f
  3754  08FD                     l3889:
  3755                           
  3756                           ;lib/usb/usb_device.c: 3007:     if(USBBusIsSuspended == 0)
  3757  08FD  0021               	movlb	1	; select bank1
  3758  08FE  084D               	movf	_USBBusIsSuspended^(0+128),w
  3759  08FF  1D03               	btfss	3,2
  3760  0900  2902               	goto	u2681
  3761  0901  2903               	goto	u2680
  3762  0902                     u2681:
  3763  0902  2910               	goto	l406
  3764  0903                     u2680:
  3765  0903                     l3891:
  3766                           
  3767                           ;lib/usb/usb_device.c: 3008:     {;lib/usb/usb_device.c: 3009:         USBTicksSinceSusp
      +                          endEnd++;
  3768  0903  3001               	movlw	1
  3769  0904  00F0               	movwf	??_USBIncrement1msInternalTimers
  3770  0905  0870               	movf	??_USBIncrement1msInternalTimers,w
  3771  0906  07C4               	addwf	_USBTicksSinceSuspendEnd^(0+128),f
  3772                           
  3773                           ;lib/usb/usb_device.c: 3011:         if(USBTicksSinceSuspendEnd == 0)
  3774  0907  0844               	movf	_USBTicksSinceSuspendEnd^(0+128),w
  3775  0908  1D03               	btfss	3,2
  3776  0909  290B               	goto	u2691
  3777  090A  290C               	goto	u2690
  3778  090B                     u2691:
  3779  090B  2910               	goto	l406
  3780  090C                     u2690:
  3781  090C                     l3893:
  3782                           
  3783                           ;lib/usb/usb_device.c: 3012:         {;lib/usb/usb_device.c: 3013:             USBTicksS
      +                          inceSuspendEnd = 255;
  3784  090C  30FF               	movlw	255
  3785  090D  00F0               	movwf	??_USBIncrement1msInternalTimers
  3786  090E  0870               	movf	??_USBIncrement1msInternalTimers,w
  3787  090F  00C4               	movwf	_USBTicksSinceSuspendEnd^(0+128)
  3788  0910                     l406:
  3789  0910  0008               	return
  3790  0911                     __end_of_USBIncrement1msInternalTimers:
  3791                           
  3792                           	psect	text7
  3793  0567                     __ptext7:	
  3794 ;; *************** function _USBDeviceInit *****************
  3795 ;; Defined at:
  3796 ;;		line 281 in file "lib/usb/usb_device.c"
  3797 ;; Parameters:    Size  Location     Type
  3798 ;;		None
  3799 ;; Auto vars:     Size  Location     Type
  3800 ;;  p               2    1[COMMON] PTR unsigned char 
  3801 ;;		 -> UEP1(1), 
  3802 ;;  i               1    3[COMMON] unsigned char 
  3803 ;;  i               1    4[COMMON] unsigned char 
  3804 ;; Return value:  Size  Location     Type
  3805 ;;                  1    wreg      void 
  3806 ;; Registers used:
  3807 ;;		wreg, fsr1l, fsr1h, status,2, status,0
  3808 ;; Tracked objects:
  3809 ;;		On entry : 0/0
  3810 ;;		On exit  : 0/0
  3811 ;;		Unchanged: 0/0
  3812 ;; Data sizes:     COMMON   BANK1   BANK2   BANK3  BANK4h  BANK4l   BANK5   BANK6   BANK7   BANK8   BANK9  BANK10  BANK1
      +1  BANK12
  3813 ;;      Params:         0       0       0       0       0       0       0       0       0       0       0       0       
      +0       0
  3814 ;;      Locals:         4       0       0       0       0       0       0       0       0       0       0       0       
      +0       0
  3815 ;;      Temps:          1       0       0       0       0       0       0       0       0       0       0       0       
      +0       0
  3816 ;;      Totals:         5       0       0       0       0       0       0       0       0       0       0       0       
      +0       0
  3817 ;;Total ram usage:        5 bytes
  3818 ;; Hardware stack levels used: 1
  3819 ;; Hardware stack levels required when called: 1
  3820 ;; This function calls:
  3821 ;;		Nothing
  3822 ;; This function is called by:
  3823 ;;		_USBDeviceTasks
  3824 ;;		_main
  3825 ;; This function uses a non-reentrant model
  3826 ;;
  3827                           
  3828  0567                     _USBDeviceInit:	
  3829                           ;psect for function _USBDeviceInit
  3830                           
  3831  0567                     l3775:	
  3832                           ;incstack = 0
  3833                           ; Regs used in _USBDeviceInit: [wreg+fsr1l+fsr1h+status,2+status,0]
  3834                           
  3835                           
  3836                           ;lib/usb/usb_device.c: 283:     uint8_t i;;lib/usb/usb_device.c: 285:     {PIE2bits.USBI
      +                          E = 0;};
  3837  0567  0021               	movlb	1	; select bank1
  3838  0568  1112               	bcf	18,2	;volatile
  3839  0569                     l3777:
  3840                           
  3841                           ;lib/usb/usb_device.c: 292:     {UEIR = 0;};
  3842  0569  003D               	movlb	29	; select bank29
  3843  056A  0193               	clrf	19	;volatile
  3844                           
  3845                           ;lib/usb/usb_device.c: 295:     {UIR = 0;};
  3846  056B  0190               	clrf	16	;volatile
  3847                           
  3848                           ;lib/usb/usb_device.c: 298:     UEP0 = 0;
  3849  056C  0198               	clrf	24	;volatile
  3850  056D                     l3779:
  3851                           
  3852                           ;lib/usb/usb_device.c: 300:     { uint8_t i; uint8_t* p = (uint8_t*)&UEP1; for(i=0;i<3;i
      +                          ++) *p++ = 0; };
  3853  056D  300E               	movlw	14
  3854  056E  00F2               	movwf	USBDeviceInit@p+1
  3855  056F  3099               	movlw	153
  3856  0570  00F1               	movwf	USBDeviceInit@p
  3857  0571  01F3               	clrf	USBDeviceInit@i_722
  3858  0572                     l3785:
  3859  0572  0871               	movf	USBDeviceInit@p,w
  3860  0573  0086               	movwf	6
  3861  0574  0872               	movf	USBDeviceInit@p+1,w
  3862  0575  0087               	movwf	7
  3863  0576  0181               	clrf	1
  3864  0577                     l3787:
  3865  0577  3001               	movlw	1
  3866  0578  07F1               	addwf	USBDeviceInit@p,f
  3867  0579  3000               	movlw	0
  3868  057A  3DF2               	addwfc	USBDeviceInit@p+1,f
  3869  057B                     l3789:
  3870  057B  3001               	movlw	1
  3871  057C  00F0               	movwf	??_USBDeviceInit
  3872  057D  0870               	movf	??_USBDeviceInit,w
  3873  057E  07F3               	addwf	USBDeviceInit@i_722,f
  3874  057F                     l3791:
  3875  057F  3003               	movlw	3
  3876  0580  0273               	subwf	USBDeviceInit@i_722,w
  3877  0581  1C03               	skipc
  3878  0582  2D84               	goto	u2621
  3879  0583  2D85               	goto	u2620
  3880  0584                     u2621:
  3881  0584  2D72               	goto	l3785
  3882  0585                     u2620:
  3883  0585                     l3793:
  3884                           
  3885                           ;lib/usb/usb_device.c: 302:     { UCFG = 0x10 | 0x00 | 0x04 | 0x02; UEIE = 0x9F; UIE = 0
      +                          x39 | 0x40 | 0x02; };
  3886  0585  3016               	movlw	22
  3887  0586  003D               	movlb	29	; select bank29
  3888  0587  0091               	movwf	17	;volatile
  3889  0588  309F               	movlw	159
  3890  0589  0097               	movwf	23	;volatile
  3891  058A  307B               	movlw	123
  3892  058B  0092               	movwf	18	;volatile
  3893  058C                     l3795:
  3894                           
  3895                           ;lib/usb/usb_device.c: 311:     for(i = 0; i < (sizeof(BDT)/sizeof(BDT_ENTRY)); i++)
  3896  058C  01F4               	clrf	USBDeviceInit@i
  3897  058D                     l3801:
  3898                           
  3899                           ;lib/usb/usb_device.c: 312:     {;lib/usb/usb_device.c: 313:         BDT[i].Val = 0x00;
  3900  058D  0874               	movf	USBDeviceInit@i,w
  3901  058E  00F0               	movwf	??_USBDeviceInit
  3902  058F  3001               	movlw	1
  3903  0590                     u2635:
  3904  0590  35F0               	lslf	??_USBDeviceInit,f
  3905  0591  3EFF               	addlw	-1
  3906  0592  1D03               	skipz
  3907  0593  2D90               	goto	u2635
  3908  0594  3570               	lslf	??_USBDeviceInit,w
  3909  0595  3E20               	addlw	32
  3910  0596  0086               	movwf	6
  3911  0597  0187               	clrf	7
  3912  0598  3000               	movlw	0
  3913  0599  3FC0               	movwi [0]fsr1
  3914  059A  3000               	movlw	0
  3915  059B  3FC1               	movwi [1]fsr1
  3916  059C  3FC2               	movwi [2]fsr1
  3917  059D  3FC3               	movwi [3]fsr1
  3918  059E                     l3803:
  3919                           
  3920                           ;lib/usb/usb_device.c: 314:     }
  3921  059E  3001               	movlw	1
  3922  059F  00F0               	movwf	??_USBDeviceInit
  3923  05A0  0870               	movf	??_USBDeviceInit,w
  3924  05A1  07F4               	addwf	USBDeviceInit@i,f
  3925  05A2                     l3805:
  3926  05A2  3010               	movlw	16
  3927  05A3  0274               	subwf	USBDeviceInit@i,w
  3928  05A4  1C03               	skipc
  3929  05A5  2DA7               	goto	u2641
  3930  05A6  2DA8               	goto	u2640
  3931  05A7                     u2641:
  3932  05A7  2D8D               	goto	l3801
  3933  05A8                     u2640:
  3934  05A8                     l156:
  3935                           
  3936                           ;lib/usb/usb_device.c: 317:     UCONbits.PPBRST = 1;
  3937  05A8  003D               	movlb	29	; select bank29
  3938  05A9  170E               	bsf	14,6	;volatile
  3939  05AA                     l3807:
  3940                           
  3941                           ;lib/usb/usb_device.c: 320:     UADDR = 0x00;
  3942  05AA  0196               	clrf	22	;volatile
  3943  05AB                     l3809:
  3944                           
  3945                           ;lib/usb/usb_device.c: 323:     UCONbits.PKTDIS = 0;
  3946  05AB  120E               	bcf	14,4	;volatile
  3947  05AC                     l3811:
  3948                           
  3949                           ;lib/usb/usb_device.c: 326:     UCONbits.PPBRST = 0;
  3950  05AC  130E               	bcf	14,6	;volatile
  3951  05AD                     l3813:
  3952                           
  3953                           ;lib/usb/usb_device.c: 330:     {;lib/usb/usb_device.c: 331:         (UIR &= 0xF7);
  3954  05AD  30F7               	movlw	247
  3955  05AE  00F0               	movwf	??_USBDeviceInit
  3956  05AF  0870               	movf	??_USBDeviceInit,w
  3957  05B0  0590               	andwf	16,f	;volatile
  3958  05B1                     l3815:
  3959                           
  3960                           ;lib/usb/usb_device.c: 333:         inPipes[0].info.Val = 0;
  3961  05B1  0021               	movlb	1	; select bank1
  3962  05B2  01BA               	clrf	(_inPipes^(0+128)+2)
  3963  05B3                     l3817:
  3964                           
  3965                           ;lib/usb/usb_device.c: 334:         outPipes[0].info.Val = 0;
  3966  05B3  0022               	movlb	2	; select bank2
  3967  05B4  01AA               	clrf	(_outPipes^(0+256)+2)
  3968  05B5                     l3819:
  3969                           
  3970                           ;lib/usb/usb_device.c: 335:         outPipes[0].wCount.Val = 0;
  3971  05B5  01AB               	clrf	(_outPipes^(0+256)+3)
  3972  05B6  01AC               	clrf	((_outPipes+1)^(0+256)+3)
  3973  05B7                     l3821:
  3974                           
  3975                           ;lib/usb/usb_device.c: 336:     }while(UIRbits.TRNIF == 1);
  3976  05B7  003D               	movlb	29	; select bank29
  3977  05B8  1990               	btfsc	16,3	;volatile
  3978  05B9  2DBB               	goto	u2651
  3979  05BA  2DBC               	goto	u2650
  3980  05BB                     u2651:
  3981  05BB  2DAD               	goto	l3813
  3982  05BC                     u2650:
  3983  05BC                     l3823:
  3984                           
  3985                           ;lib/usb/usb_device.c: 340:     USBStatusStageEnabledFlag1 = 1;
  3986  05BC  3001               	movlw	1
  3987  05BD  00F0               	movwf	??_USBDeviceInit
  3988  05BE  0870               	movf	??_USBDeviceInit,w
  3989  05BF  0021               	movlb	1	; select bank1
  3990  05C0  00C8               	movwf	_USBStatusStageEnabledFlag1^(0+128)	;volatile
  3991                           
  3992                           ;lib/usb/usb_device.c: 341:     USBStatusStageEnabledFlag2 = 1;
  3993  05C1  3001               	movlw	1
  3994  05C2  00F0               	movwf	??_USBDeviceInit
  3995  05C3  0870               	movf	??_USBDeviceInit,w
  3996  05C4  00C7               	movwf	_USBStatusStageEnabledFlag2^(0+128)	;volatile
  3997  05C5                     l3825:
  3998                           
  3999                           ;lib/usb/usb_device.c: 343:     USBDeferINDataStagePackets = 0;
  4000  05C5  01C6               	clrf	_USBDeferINDataStagePackets^(0+128)	;volatile
  4001  05C6                     l3827:
  4002                           
  4003                           ;lib/usb/usb_device.c: 344:     USBDeferOUTDataStagePackets = 0;
  4004  05C6  01C5               	clrf	_USBDeferOUTDataStagePackets^(0+128)	;volatile
  4005  05C7                     l3829:
  4006                           
  4007                           ;lib/usb/usb_device.c: 345:     USBBusIsSuspended = 0;
  4008  05C7  01CD               	clrf	_USBBusIsSuspended^(0+128)
  4009  05C8                     l3831:
  4010                           
  4011                           ;lib/usb/usb_device.c: 349:     for(i = 0; i < (uint8_t)(3 +1u); i++)
  4012  05C8  01F4               	clrf	USBDeviceInit@i
  4013  05C9                     l3835:
  4014                           
  4015                           ;lib/usb/usb_device.c: 350:     {;lib/usb/usb_device.c: 351:         pBDTEntryIn[i] = 0u
      +                          ;
  4016  05C9  3574               	lslf	USBDeviceInit@i,w
  4017  05CA  3EB0               	addlw	(low (_pBDTEntryIn| 0))& (0+255)
  4018  05CB  0086               	movwf	6
  4019  05CC  0187               	clrf	7
  4020  05CD  3000               	movlw	0
  4021  05CE  3FC0               	movwi [0]fsr1
  4022  05CF  3FC1               	movwi [1]fsr1
  4023                           
  4024                           ;lib/usb/usb_device.c: 352:         pBDTEntryOut[i] = 0u;
  4025  05D0  3574               	lslf	USBDeviceInit@i,w
  4026  05D1  3E20               	addlw	(low (_pBDTEntryOut| (0+256)))& (0+255)
  4027  05D2  0086               	movwf	6
  4028  05D3  3001               	movlw	1	; select bank2/3
  4029  05D4  0087               	movwf	7
  4030  05D5  3000               	movlw	0
  4031  05D6  3FC0               	movwi [0]fsr1
  4032  05D7  3FC1               	movwi [1]fsr1
  4033                           
  4034                           ;lib/usb/usb_device.c: 353:         ep_data_in[i].Val = 0u;
  4035  05D8  0874               	movf	USBDeviceInit@i,w
  4036  05D9  3E37               	addlw	(low (_ep_data_in| (0+256)))& (0+255)
  4037  05DA  0086               	movwf	6
  4038  05DB  3001               	movlw	1	; select bank2/3
  4039  05DC  0087               	movwf	7
  4040  05DD  0181               	clrf	1
  4041                           
  4042                           ;lib/usb/usb_device.c: 354:         ep_data_out[i].Val = 0u;
  4043  05DE  0874               	movf	USBDeviceInit@i,w
  4044  05DF  3E33               	addlw	(low (_ep_data_out| (0+256)))& (0+255)
  4045  05E0  0086               	movwf	6
  4046  05E1  3001               	movlw	1	; select bank2/3
  4047  05E2  0087               	movwf	7
  4048  05E3  0181               	clrf	1
  4049  05E4                     l3837:
  4050                           
  4051                           ;lib/usb/usb_device.c: 355:     }
  4052  05E4  3001               	movlw	1
  4053  05E5  00F0               	movwf	??_USBDeviceInit
  4054  05E6  0870               	movf	??_USBDeviceInit,w
  4055  05E7  07F4               	addwf	USBDeviceInit@i,f
  4056  05E8                     l3839:
  4057  05E8  3004               	movlw	4
  4058  05E9  0274               	subwf	USBDeviceInit@i,w
  4059  05EA  1C03               	skipc
  4060  05EB  2DED               	goto	u2661
  4061  05EC  2DEE               	goto	u2660
  4062  05ED                     u2661:
  4063  05ED  2DC9               	goto	l3835
  4064  05EE                     u2660:
  4065  05EE                     l3841:
  4066                           
  4067                           ;lib/usb/usb_device.c: 358:     pBDTEntryIn[0] = (volatile BDT_ENTRY*)&BDT[2];
  4068  05EE  3028               	movlw	40
  4069  05EF  0021               	movlb	1	; select bank1
  4070  05F0  00B0               	movwf	_pBDTEntryIn^(0+128)
  4071  05F1  3000               	movlw	0
  4072  05F2  00B1               	movwf	(_pBDTEntryIn+1)^(0+128)
  4073  05F3                     l3843:
  4074                           
  4075                           ;lib/usb/usb_device.c: 360:     UEP0 = 0x06|0x10;
  4076  05F3  3016               	movlw	22
  4077  05F4  003D               	movlb	29	; select bank29
  4078  05F5  0098               	movwf	24	;volatile
  4079  05F6                     l3845:
  4080                           
  4081                           ;lib/usb/usb_device.c: 362:     BDT[0].ADR = (((uint16_t)(&SetupPkt)) & 0x7FFF);
  4082  05F6  3000               	movlw	0
  4083  05F7  0020               	movlb	0	; select bank0
  4084  05F8  00A3               	movwf	35	;volatile
  4085  05F9  3060               	movlw	96
  4086  05FA  00A2               	movwf	34	;volatile
  4087  05FB                     l3847:
  4088                           
  4089                           ;lib/usb/usb_device.c: 363:     BDT[0].CNT = 8;
  4090  05FB  3008               	movlw	8
  4091  05FC  00A1               	movwf	33	;volatile
  4092  05FD                     l3849:
  4093                           
  4094                           ;lib/usb/usb_device.c: 364:     BDT[0].STAT.Val = 0x00|0x04;
  4095  05FD  3004               	movlw	4
  4096  05FE  00F0               	movwf	??_USBDeviceInit
  4097  05FF  0870               	movf	??_USBDeviceInit,w
  4098  0600  00A0               	movwf	32	;volatile
  4099  0601                     l3851:
  4100                           
  4101                           ;lib/usb/usb_device.c: 365:     BDT[0].STAT.Val |= 0x80;
  4102  0601  17A0               	bsf	32,7	;volatile
  4103  0602                     l3853:
  4104                           
  4105                           ;lib/usb/usb_device.c: 368:     USBActiveConfiguration = 0;
  4106  0602  0021               	movlb	1	; select bank1
  4107  0603  01D7               	clrf	_USBActiveConfiguration^(0+128)
  4108  0604                     l3855:
  4109                           
  4110                           ;lib/usb/usb_device.c: 370:     USB1msTickCount = 0;
  4111  0604  3000               	movlw	0
  4112  0605  0022               	movlb	2	; select bank2
  4113  0606  00B2               	movwf	(_USB1msTickCount+3)^(0+256)
  4114  0607  3000               	movlw	0
  4115  0608  00B1               	movwf	(_USB1msTickCount+2)^(0+256)
  4116  0609  3000               	movlw	0
  4117  060A  00B0               	movwf	(_USB1msTickCount+1)^(0+256)
  4118  060B  3000               	movlw	0
  4119  060C  00AF               	movwf	_USB1msTickCount^(0+256)
  4120  060D                     l3857:
  4121                           
  4122                           ;lib/usb/usb_device.c: 371:     USBTicksSinceSuspendEnd = 0;
  4123  060D  0021               	movlb	1	; select bank1
  4124  060E  01C4               	clrf	_USBTicksSinceSuspendEnd^(0+128)
  4125  060F                     l3859:
  4126                           
  4127                           ;lib/usb/usb_device.c: 374:     USBDeviceState = DETACHED_STATE;
  4128  060F  01D3               	clrf	_USBDeviceState^(0+128)
  4129  0610                     l161:
  4130  0610  0008               	return
  4131  0611                     __end_of_USBDeviceInit:
  4132                           
  4133                           	psect	text8
  4134  0B97                     __ptext8:	
  4135 ;; *************** function _USBCtrlEPService *****************
  4136 ;; Defined at:
  4137 ;;		line 2379 in file "lib/usb/usb_device.c"
  4138 ;; Parameters:    Size  Location     Type
  4139 ;;		None
  4140 ;; Auto vars:     Size  Location     Type
  4141 ;;		None
  4142 ;; Return value:  Size  Location     Type
  4143 ;;                  1    wreg      void 
  4144 ;; Registers used:
  4145 ;;		wreg, fsr0l, fsr0h, fsr1l, fsr1h, status,2, status,0, pclath, cstack
  4146 ;; Tracked objects:
  4147 ;;		On entry : 0/0
  4148 ;;		On exit  : 0/0
  4149 ;;		Unchanged: 0/0
  4150 ;; Data sizes:     COMMON   BANK1   BANK2   BANK3  BANK4h  BANK4l   BANK5   BANK6   BANK7   BANK8   BANK9  BANK10  BANK1
      +1  BANK12
  4151 ;;      Params:         0       0       0       0       0       0       0       0       0       0       0       0       
      +0       0
  4152 ;;      Locals:         0       0       0       0       0       0       0       0       0       0       0       0       
      +0       0
  4153 ;;      Temps:          0       2       0       0       0       0       0       0       0       0       0       0       
      +0       0
  4154 ;;      Totals:         0       2       0       0       0       0       0       0       0       0       0       0       
      +0       0
  4155 ;;Total ram usage:        2 bytes
  4156 ;; Hardware stack levels used: 1
  4157 ;; Hardware stack levels required when called: 8
  4158 ;; This function calls:
  4159 ;;		_USBCtrlTrfInHandler
  4160 ;;		_USBCtrlTrfOutHandler
  4161 ;;		_USBCtrlTrfSetupHandler
  4162 ;;		_memcpy
  4163 ;; This function is called by:
  4164 ;;		_USBDeviceTasks
  4165 ;; This function uses a non-reentrant model
  4166 ;;
  4167                           
  4168  0B97                     _USBCtrlEPService:	
  4169                           ;psect for function _USBCtrlEPService
  4170                           
  4171  0B97                     l4673:	
  4172                           ;incstack = 0
  4173                           ; Regs used in _USBCtrlEPService: [wreg-fsr1h+status,2+status,0+pclath+cstack]
  4174                           
  4175                           
  4176                           ;lib/usb/usb_device.c: 2385:         USBStatusStageTimeoutCounter = (uint8_t)45;
  4177  0B97  302D               	movlw	45
  4178  0B98  0021               	movlb	1	; select bank1
  4179  0B99  00E8               	movwf	??_USBCtrlEPService^(0+128)
  4180  0B9A  0868               	movf	??_USBCtrlEPService^(0+128),w
  4181  0B9B  00CA               	movwf	_USBStatusStageTimeoutCounter^(0+128)
  4182  0B9C                     l4675:
  4183                           
  4184                           ;lib/usb/usb_device.c: 2389:     if((USTATcopy.Val & ~0x02) == 0x00)
  4185  0B9C  0856               	movf	_USTATcopy^(0+128),w
  4186  0B9D  39FD               	andlw	253
  4187  0B9E  1D03               	btfss	3,2
  4188  0B9F  2BA1               	goto	u3401
  4189  0BA0  2BA2               	goto	u3400
  4190  0BA1                     u3401:
  4191  0BA1  2BDE               	goto	l4691
  4192  0BA2                     u3400:
  4193  0BA2                     l4677:
  4194                           
  4195                           ;lib/usb/usb_device.c: 2390:     {;lib/usb/usb_device.c: 2393:             pBDTEntryEP0O
      +                          utCurrent = (volatile BDT_ENTRY*)&BDT[(USTATcopy.Val & 0x7E)>>1];
  4196  0BA2  3656               	lsrf	_USTATcopy^(0+128),w
  4197  0BA3  393F               	andlw	63
  4198  0BA4  00E8               	movwf	??_USBCtrlEPService^(0+128)
  4199  0BA5  3001               	movlw	1
  4200  0BA6                     u3415:
  4201  0BA6  35E8               	lslf	??_USBCtrlEPService^(0+128),f
  4202  0BA7  3EFF               	addlw	-1
  4203  0BA8  1D03               	skipz
  4204  0BA9  2BA6               	goto	u3415
  4205  0BAA  3568               	lslf	??_USBCtrlEPService^(0+128),w
  4206  0BAB  3E20               	addlw	32
  4207  0BAC  00E9               	movwf	(??_USBCtrlEPService+1)^(0+128)
  4208  0BAD  0869               	movf	(??_USBCtrlEPService+1)^(0+128),w
  4209  0BAE  00D2               	movwf	_pBDTEntryEP0OutCurrent^(0+128)
  4210  0BAF                     l4679:
  4211                           
  4212                           ;lib/usb/usb_device.c: 2401:         pBDTEntryEP0OutNext = pBDTEntryEP0OutCurrent;
  4213  0BAF  0852               	movf	_pBDTEntryEP0OutCurrent^(0+128),w
  4214  0BB0  00BF               	movwf	_pBDTEntryEP0OutNext^(0+128)
  4215  0BB1  39FF               	andlw	255
  4216  0BB2  1D03               	skipz
  4217  0BB3  3000               	movlw	0
  4218  0BB4  00C0               	movwf	(_pBDTEntryEP0OutNext+1)^(0+128)
  4219  0BB5                     l4681:
  4220                           
  4221                           ;lib/usb/usb_device.c: 2403:         pBDTEntryEP0OutNext = (volatile BDT_ENTRY*)(((uint1
      +                          6_t)pBDTEntryEP0OutNext) ^ 0x0004);
  4222  0BB5  3004               	movlw	4
  4223  0BB6  063F               	xorwf	_pBDTEntryEP0OutNext^(0+128),w
  4224  0BB7  00BF               	movwf	_pBDTEntryEP0OutNext^(0+128)
  4225  0BB8  3000               	movlw	0
  4226  0BB9  0640               	xorwf	(_pBDTEntryEP0OutNext+1)^(0+128),w
  4227  0BBA  00C0               	movwf	(_pBDTEntryEP0OutNext+1)^(0+128)
  4228  0BBB                     l4683:
  4229                           
  4230                           ;lib/usb/usb_device.c: 2406:         if(pBDTEntryEP0OutCurrent->STAT.PID == 0xD)
  4231  0BBB  0852               	movf	_pBDTEntryEP0OutCurrent^(0+128),w
  4232  0BBC  0086               	movwf	6
  4233  0BBD  0187               	clrf	7
  4234  0BBE  0C01               	rrf	1,w
  4235  0BBF  0C89               	rrf	9,f
  4236  0BC0  390F               	andlw	15
  4237  0BC1  3A0D               	xorlw	13
  4238  0BC2  1D03               	skipz
  4239  0BC3  2BC5               	goto	u3421
  4240  0BC4  2BC6               	goto	u3420
  4241  0BC5                     u3421:
  4242  0BC5  2BDA               	goto	l4689
  4243  0BC6                     u3420:
  4244  0BC6                     l4685:
  4245                           
  4246                           ;lib/usb/usb_device.c: 2407:         {;lib/usb/usb_device.c: 2412:             memcpy((u
      +                          int8_t*)&SetupPkt, (uint8_t*)((void *)(pBDTEntryEP0OutCurrent->ADR)), 8);
  4247  0BC6  0852               	movf	_pBDTEntryEP0OutCurrent^(0+128),w
  4248  0BC7  3E02               	addlw	2
  4249  0BC8  0086               	movwf	6
  4250  0BC9  0187               	clrf	7
  4251  0BCA  3F40               	moviw [0]fsr1
  4252  0BCB  00F0               	movwf	memcpy@s1
  4253  0BCC  3F41               	moviw [1]fsr1
  4254  0BCD  00F1               	movwf	memcpy@s1+1
  4255  0BCE  3008               	movlw	8
  4256  0BCF  00F2               	movwf	memcpy@n
  4257  0BD0  3000               	movlw	0
  4258  0BD1  00F3               	movwf	memcpy@n+1
  4259  0BD2  3060               	movlw	96
  4260  0BD3  318A  222C  318B   	fcall	_memcpy
  4261  0BD6                     l4687:
  4262                           
  4263                           ;lib/usb/usb_device.c: 2415:             USBCtrlTrfSetupHandler();
  4264  0BD6  318B  234F  318B   	fcall	_USBCtrlTrfSetupHandler
  4265                           
  4266                           ;lib/usb/usb_device.c: 2416:         }
  4267  0BD9  2BEA               	goto	l333
  4268  0BDA                     l4689:
  4269                           
  4270                           ;lib/usb/usb_device.c: 2418:         {;lib/usb/usb_device.c: 2420:             USBCtrlTr
      +                          fOutHandler();
  4271  0BDA  318A  228E  318B   	fcall	_USBCtrlTrfOutHandler
  4272  0BDD  2BEA               	goto	l333
  4273  0BDE                     l4691:
  4274  0BDE  30FD               	movlw	253
  4275  0BDF  0556               	andwf	_USTATcopy^(0+128),w
  4276  0BE0  00E8               	movwf	??_USBCtrlEPService^(0+128)
  4277  0BE1  3004               	movlw	4
  4278  0BE2  0668               	xorwf	??_USBCtrlEPService^(0+128),w
  4279  0BE3  1D03               	btfss	3,2
  4280  0BE4  2BE6               	goto	u3431
  4281  0BE5  2BE7               	goto	u3430
  4282  0BE6                     u3431:
  4283  0BE6  2BEA               	goto	l333
  4284  0BE7                     u3430:
  4285  0BE7                     l4693:
  4286                           
  4287                           ;lib/usb/usb_device.c: 2424:     {;lib/usb/usb_device.c: 2427:         USBCtrlTrfInHandl
      +                          er();
  4288  0BE7  318E  2601  318B   	fcall	_USBCtrlTrfInHandler
  4289  0BEA                     l333:
  4290  0BEA  0008               	return
  4291  0BEB                     __end_of_USBCtrlEPService:
  4292                           
  4293                           	psect	text9
  4294  0A2C                     __ptext9:	
  4295 ;; *************** function _memcpy *****************
  4296 ;; Defined at:
  4297 ;;		line 4 in file "E:\Atmel Studio\Comp-istall\pic\sources\c99\common\memcpy.c"
  4298 ;; Parameters:    Size  Location     Type
  4299 ;;  d1              1    wreg     PTR void 
  4300 ;;		 -> SetupPkt(8), 
  4301 ;;  s1              2    0[COMMON] PTR const void 
  4302 ;;		 -> CtrlTrfData(8), RAM(4096), SetupPkt(8), 
  4303 ;;  n               2    2[COMMON] unsigned int 
  4304 ;; Auto vars:     Size  Location     Type
  4305 ;;  d1              1    8[COMMON] PTR void 
  4306 ;;		 -> SetupPkt(8), 
  4307 ;;  s               2    5[COMMON] PTR const unsigned char 
  4308 ;;		 -> CtrlTrfData(8), RAM(4096), SetupPkt(8), 
  4309 ;;  d               1    9[COMMON] PTR unsigned char 
  4310 ;;		 -> SetupPkt(8), 
  4311 ;;  tmp             1    7[COMMON] unsigned char 
  4312 ;; Return value:  Size  Location     Type
  4313 ;;                  1    wreg      PTR void 
  4314 ;; Registers used:
  4315 ;;		wreg, fsr1l, fsr1h, status,2, status,0
  4316 ;; Tracked objects:
  4317 ;;		On entry : 0/0
  4318 ;;		On exit  : 0/0
  4319 ;;		Unchanged: 0/0
  4320 ;; Data sizes:     COMMON   BANK1   BANK2   BANK3  BANK4h  BANK4l   BANK5   BANK6   BANK7   BANK8   BANK9  BANK10  BANK1
      +1  BANK12
  4321 ;;      Params:         4       0       0       0       0       0       0       0       0       0       0       0       
      +0       0
  4322 ;;      Locals:         5       0       0       0       0       0       0       0       0       0       0       0       
      +0       0
  4323 ;;      Temps:          1       0       0       0       0       0       0       0       0       0       0       0       
      +0       0
  4324 ;;      Totals:        10       0       0       0       0       0       0       0       0       0       0       0       
      +0       0
  4325 ;;Total ram usage:       10 bytes
  4326 ;; Hardware stack levels used: 1
  4327 ;; Hardware stack levels required when called: 1
  4328 ;; This function calls:
  4329 ;;		Nothing
  4330 ;; This function is called by:
  4331 ;;		_USBCtrlEPService
  4332 ;; This function uses a non-reentrant model
  4333 ;;
  4334                           
  4335  0A2C                     _memcpy:	
  4336                           ;psect for function _memcpy
  4337                           
  4338                           
  4339                           ;incstack = 0
  4340                           ; Regs used in _memcpy: [wreg+fsr1l+fsr1h+status,2+status,0]
  4341                           ;memcpy@d1 stored from wreg
  4342  0A2C  00F8               	movwf	memcpy@d1
  4343  0A2D                     l3685:
  4344  0A2D  0871               	movf	memcpy@s1+1,w
  4345  0A2E  00F6               	movwf	memcpy@s+1
  4346  0A2F  0870               	movf	memcpy@s1,w
  4347  0A30  00F5               	movwf	memcpy@s
  4348  0A31  0878               	movf	memcpy@d1,w
  4349  0A32  00F4               	movwf	??_memcpy
  4350  0A33  0874               	movf	??_memcpy,w
  4351  0A34  00F9               	movwf	memcpy@d
  4352  0A35  2A4D               	goto	l3695
  4353  0A36                     l3687:
  4354  0A36  0875               	movf	memcpy@s,w
  4355  0A37  0086               	movwf	6
  4356  0A38  0876               	movf	memcpy@s+1,w
  4357  0A39  0087               	movwf	7
  4358  0A3A  0801               	movf	1,w
  4359  0A3B  00F4               	movwf	??_memcpy
  4360  0A3C  0874               	movf	??_memcpy,w
  4361  0A3D  00F7               	movwf	memcpy@tmp
  4362  0A3E                     l3689:
  4363  0A3E  3001               	movlw	1
  4364  0A3F  07F5               	addwf	memcpy@s,f
  4365  0A40  3000               	movlw	0
  4366  0A41  3DF6               	addwfc	memcpy@s+1,f
  4367  0A42                     l3691:
  4368  0A42  0877               	movf	memcpy@tmp,w
  4369  0A43  00F4               	movwf	??_memcpy
  4370  0A44  0879               	movf	memcpy@d,w
  4371  0A45  0086               	movwf	6
  4372  0A46  0187               	clrf	7
  4373  0A47  0874               	movf	??_memcpy,w
  4374  0A48  0081               	movwf	1
  4375  0A49                     l3693:
  4376  0A49  3001               	movlw	1
  4377  0A4A  00F4               	movwf	??_memcpy
  4378  0A4B  0874               	movf	??_memcpy,w
  4379  0A4C  07F9               	addwf	memcpy@d,f
  4380  0A4D                     l3695:
  4381  0A4D  3001               	movlw	1
  4382  0A4E  02F2               	subwf	memcpy@n,f
  4383  0A4F  3000               	movlw	0
  4384  0A50  3BF3               	subwfb	memcpy@n+1,f
  4385  0A51  0A72               	incf	memcpy@n,w
  4386  0A52  1D03               	skipz
  4387  0A53  2A58               	goto	u2531
  4388  0A54  0A73               	incf	memcpy@n+1,w
  4389  0A55  1D03               	btfss	3,2
  4390  0A56  2A58               	goto	u2531
  4391  0A57  2A59               	goto	u2530
  4392  0A58                     u2531:
  4393  0A58  2A36               	goto	l3687
  4394  0A59                     u2530:
  4395  0A59                     l1299:
  4396  0A59  0008               	return
  4397  0A5A                     __end_of_memcpy:
  4398                           
  4399                           	psect	text10
  4400  0B4F                     __ptext10:	
  4401 ;; *************** function _USBCtrlTrfSetupHandler *****************
  4402 ;; Defined at:
  4403 ;;		line 2472 in file "lib/usb/usb_device.c"
  4404 ;; Parameters:    Size  Location     Type
  4405 ;;		None
  4406 ;; Auto vars:     Size  Location     Type
  4407 ;;		None
  4408 ;; Return value:  Size  Location     Type
  4409 ;;                  1    wreg      void 
  4410 ;; Registers used:
  4411 ;;		wreg, fsr0l, fsr0h, fsr1l, fsr1h, status,2, status,0, pclath, cstack
  4412 ;; Tracked objects:
  4413 ;;		On entry : 0/0
  4414 ;;		On exit  : 0/0
  4415 ;;		Unchanged: 0/0
  4416 ;; Data sizes:     COMMON   BANK1   BANK2   BANK3  BANK4h  BANK4l   BANK5   BANK6   BANK7   BANK8   BANK9  BANK10  BANK1
      +1  BANK12
  4417 ;;      Params:         0       0       0       0       0       0       0       0       0       0       0       0       
      +0       0
  4418 ;;      Locals:         0       0       0       0       0       0       0       0       0       0       0       0       
      +0       0
  4419 ;;      Temps:          0       1       0       0       0       0       0       0       0       0       0       0       
      +0       0
  4420 ;;      Totals:         0       1       0       0       0       0       0       0       0       0       0       0       
      +0       0
  4421 ;;Total ram usage:        1 bytes
  4422 ;; Hardware stack levels used: 1
  4423 ;; Hardware stack levels required when called: 7
  4424 ;; This function calls:
  4425 ;;		_USBCheckStdRequest
  4426 ;;		_USBCtrlEPServiceComplete
  4427 ;;		_USER_USB_CALLBACK_EVENT_HANDLER
  4428 ;; This function is called by:
  4429 ;;		_USBCtrlEPService
  4430 ;; This function uses a non-reentrant model
  4431 ;;
  4432                           
  4433  0B4F                     _USBCtrlTrfSetupHandler:	
  4434                           ;psect for function _USBCtrlTrfSetupHandler
  4435                           
  4436  0B4F                     l4647:	
  4437                           ;incstack = 0
  4438                           ; Regs used in _USBCtrlTrfSetupHandler: [wreg-fsr1h+status,2+status,0+pclath+cstack]
  4439                           
  4440                           
  4441                           ;lib/usb/usb_device.c: 2477:     shortPacketStatus = 0;
  4442  0B4F  0021               	movlb	1	; select bank1
  4443  0B50  01D1               	clrf	_shortPacketStatus^(0+128)
  4444                           
  4445                           ;lib/usb/usb_device.c: 2478:     USBDeferStatusStagePacket = 0;
  4446  0B51  01C9               	clrf	_USBDeferStatusStagePacket^(0+128)	;volatile
  4447                           
  4448                           ;lib/usb/usb_device.c: 2479:     USBDeferINDataStagePackets = 0;
  4449  0B52  01C6               	clrf	_USBDeferINDataStagePackets^(0+128)	;volatile
  4450                           
  4451                           ;lib/usb/usb_device.c: 2480:     USBDeferOUTDataStagePackets = 0;
  4452  0B53  01C5               	clrf	_USBDeferOUTDataStagePackets^(0+128)	;volatile
  4453                           
  4454                           ;lib/usb/usb_device.c: 2481:     BothEP0OutUOWNsSet = 0;
  4455  0B54  01CB               	clrf	_BothEP0OutUOWNsSet^(0+128)
  4456                           
  4457                           ;lib/usb/usb_device.c: 2482:     controlTransferState = 0;
  4458  0B55  01D0               	clrf	_controlTransferState^(0+128)
  4459  0B56                     l4649:
  4460                           
  4461                           ;lib/usb/usb_device.c: 2491:     pBDTEntryIn[0]->STAT.Val &= ~(0x80);
  4462  0B56  307F               	movlw	127
  4463  0B57  00E7               	movwf	??_USBCtrlTrfSetupHandler^(0+128)
  4464  0B58  0830               	movf	_pBDTEntryIn^(0+128),w
  4465  0B59  0086               	movwf	6
  4466  0B5A  0831               	movf	(_pBDTEntryIn+1)^(0+128),w
  4467  0B5B  0087               	movwf	7
  4468  0B5C  0867               	movf	??_USBCtrlTrfSetupHandler^(0+128),w
  4469  0B5D  0581               	andwf	1,f
  4470  0B5E                     l4651:
  4471                           
  4472                           ;lib/usb/usb_device.c: 2493:     pBDTEntryIn[0] = (volatile BDT_ENTRY*)(((uint16_t)pBDTE
      +                          ntryIn[0]) ^ 0x0004);
  4473  0B5E  3004               	movlw	4
  4474  0B5F  0630               	xorwf	_pBDTEntryIn^(0+128),w
  4475  0B60  00B0               	movwf	_pBDTEntryIn^(0+128)
  4476  0B61  3000               	movlw	0
  4477  0B62  0631               	xorwf	(_pBDTEntryIn+1)^(0+128),w
  4478  0B63  00B1               	movwf	(_pBDTEntryIn+1)^(0+128)
  4479  0B64                     l4653:
  4480                           
  4481                           ;lib/usb/usb_device.c: 2494:     pBDTEntryIn[0]->STAT.Val &= ~(0x80);
  4482  0B64  307F               	movlw	127
  4483  0B65  00E7               	movwf	??_USBCtrlTrfSetupHandler^(0+128)
  4484  0B66  0830               	movf	_pBDTEntryIn^(0+128),w
  4485  0B67  0086               	movwf	6
  4486  0B68  0831               	movf	(_pBDTEntryIn+1)^(0+128),w
  4487  0B69  0087               	movwf	7
  4488  0B6A  0867               	movf	??_USBCtrlTrfSetupHandler^(0+128),w
  4489  0B6B  0581               	andwf	1,f
  4490  0B6C                     l4655:
  4491                           
  4492                           ;lib/usb/usb_device.c: 2495:     pBDTEntryIn[0] = (volatile BDT_ENTRY*)(((uint16_t)pBDTE
      +                          ntryIn[0]) ^ 0x0004);
  4493  0B6C  3004               	movlw	4
  4494  0B6D  0630               	xorwf	_pBDTEntryIn^(0+128),w
  4495  0B6E  00B0               	movwf	_pBDTEntryIn^(0+128)
  4496  0B6F  3000               	movlw	0
  4497  0B70  0631               	xorwf	(_pBDTEntryIn+1)^(0+128),w
  4498  0B71  00B1               	movwf	(_pBDTEntryIn+1)^(0+128)
  4499  0B72                     l4657:
  4500                           
  4501                           ;lib/usb/usb_device.c: 2496:     pBDTEntryEP0OutNext->STAT.Val &= ~(0x80);
  4502  0B72  307F               	movlw	127
  4503  0B73  00E7               	movwf	??_USBCtrlTrfSetupHandler^(0+128)
  4504  0B74  083F               	movf	_pBDTEntryEP0OutNext^(0+128),w
  4505  0B75  0086               	movwf	6
  4506  0B76  0840               	movf	(_pBDTEntryEP0OutNext+1)^(0+128),w
  4507  0B77  0087               	movwf	7
  4508  0B78  0867               	movf	??_USBCtrlTrfSetupHandler^(0+128),w
  4509  0B79  0581               	andwf	1,f
  4510  0B7A                     l4659:
  4511                           
  4512                           ;lib/usb/usb_device.c: 2498:     inPipes[0].info.Val = 0;
  4513  0B7A  01BA               	clrf	(_inPipes^(0+128)+2)
  4514  0B7B                     l4661:
  4515                           
  4516                           ;lib/usb/usb_device.c: 2499:     inPipes[0].wCount.Val = 0;
  4517  0B7B  01BB               	clrf	(_inPipes^(0+128)+3)
  4518  0B7C  01BC               	clrf	((_inPipes+1)^(0+128)+3)
  4519  0B7D                     l4663:
  4520                           
  4521                           ;lib/usb/usb_device.c: 2500:     outPipes[0].info.Val = 0;
  4522  0B7D  0022               	movlb	2	; select bank2
  4523  0B7E  01AA               	clrf	(_outPipes^(0+256)+2)
  4524  0B7F                     l4665:
  4525                           
  4526                           ;lib/usb/usb_device.c: 2501:     outPipes[0].wCount.Val = 0;
  4527  0B7F  01AB               	clrf	(_outPipes^(0+256)+3)
  4528  0B80  01AC               	clrf	((_outPipes+1)^(0+256)+3)
  4529  0B81                     l4667:
  4530                           
  4531                           ;lib/usb/usb_device.c: 2507:     USBCheckStdRequest();
  4532  0B81  318E  2679  318B   	fcall	_USBCheckStdRequest
  4533  0B84                     l4669:
  4534                           
  4535                           ;lib/usb/usb_device.c: 2508:     USER_USB_CALLBACK_EVENT_HANDLER((USB_EVENT)EVENT_EP0_RE
      +                          QUEST,0,0);
  4536  0B84  3003               	movlw	3
  4537  0B85  0021               	movlb	1	; select bank1
  4538  0B86  00D8               	movwf	USER_USB_CALLBACK_EVENT_HANDLER@event^(0+128)
  4539  0B87  3000               	movlw	0
  4540  0B88  00D9               	movwf	(USER_USB_CALLBACK_EVENT_HANDLER@event^(0+128)+1)
  4541  0B89  3000               	movlw	0
  4542  0B8A  00DA               	movwf	USER_USB_CALLBACK_EVENT_HANDLER@pdata^(0+128)
  4543  0B8B  3000               	movlw	0
  4544  0B8C  00DB               	movwf	(USER_USB_CALLBACK_EVENT_HANDLER@pdata+1)^(0+128)
  4545  0B8D  3000               	movlw	0
  4546  0B8E  00DC               	movwf	USER_USB_CALLBACK_EVENT_HANDLER@size^(0+128)
  4547  0B8F  00DD               	movwf	(USER_USB_CALLBACK_EVENT_HANDLER@size+1)^(0+128)
  4548  0B90  318B  2309  318B   	fcall	_USER_USB_CALLBACK_EVENT_HANDLER
  4549  0B93                     l4671:
  4550                           
  4551                           ;lib/usb/usb_device.c: 2521:     USBCtrlEPServiceComplete();
  4552  0B93  3186  26BB  318B   	fcall	_USBCtrlEPServiceComplete
  4553  0B96                     l336:
  4554  0B96  0008               	return
  4555  0B97                     __end_of_USBCtrlTrfSetupHandler:
  4556                           
  4557                           	psect	text11
  4558  06BB                     __ptext11:	
  4559 ;; *************** function _USBCtrlEPServiceComplete *****************
  4560 ;; Defined at:
  4561 ;;		line 1620 in file "lib/usb/usb_device.c"
  4562 ;; Parameters:    Size  Location     Type
  4563 ;;		None
  4564 ;; Auto vars:     Size  Location     Type
  4565 ;;		None
  4566 ;; Return value:  Size  Location     Type
  4567 ;;                  1    wreg      void 
  4568 ;; Registers used:
  4569 ;;		wreg, fsr0l, fsr0h, fsr1l, fsr1h, status,2, status,0, pclath, cstack
  4570 ;; Tracked objects:
  4571 ;;		On entry : 0/0
  4572 ;;		On exit  : 0/0
  4573 ;;		Unchanged: 0/0
  4574 ;; Data sizes:     COMMON   BANK1   BANK2   BANK3  BANK4h  BANK4l   BANK5   BANK6   BANK7   BANK8   BANK9  BANK10  BANK1
      +1  BANK12
  4575 ;;      Params:         0       0       0       0       0       0       0       0       0       0       0       0       
      +0       0
  4576 ;;      Locals:         0       0       0       0       0       0       0       0       0       0       0       0       
      +0       0
  4577 ;;      Temps:          2       0       0       0       0       0       0       0       0       0       0       0       
      +0       0
  4578 ;;      Totals:         2       0       0       0       0       0       0       0       0       0       0       0       
      +0       0
  4579 ;;Total ram usage:        2 bytes
  4580 ;; Hardware stack levels used: 1
  4581 ;; Hardware stack levels required when called: 3
  4582 ;; This function calls:
  4583 ;;		_USBCtrlEPAllowDataStage
  4584 ;;		_USBCtrlEPAllowStatusStage
  4585 ;; This function is called by:
  4586 ;;		_USBCtrlTrfSetupHandler
  4587 ;; This function uses a non-reentrant model
  4588 ;;
  4589                           
  4590  06BB                     _USBCtrlEPServiceComplete:	
  4591                           ;psect for function _USBCtrlEPServiceComplete
  4592                           
  4593  06BB                     l3543:	
  4594                           ;incstack = 0
  4595                           ; Regs used in _USBCtrlEPServiceComplete: [wreg-fsr1h+status,2+status,0+pclath+cstack]
  4596                           
  4597                           
  4598                           ;lib/usb/usb_device.c: 1626:     UCONbits.PKTDIS = 0;
  4599  06BB  003D               	movlb	29	; select bank29
  4600  06BC  120E               	bcf	14,4	;volatile
  4601                           
  4602                           ;lib/usb/usb_device.c: 1632:     if(inPipes[0].info.bits.busy == 0)
  4603  06BD  0021               	movlb	1	; select bank1
  4604  06BE  1BBA               	btfsc	(_inPipes^(0+128)+2),7
  4605  06BF  2EC1               	goto	u2401
  4606  06C0  2EC2               	goto	u2400
  4607  06C1                     u2401:
  4608  06C1  2F09               	goto	l235
  4609  06C2                     u2400:
  4610  06C2                     l3545:
  4611                           
  4612                           ;lib/usb/usb_device.c: 1633:     {;lib/usb/usb_device.c: 1634:         if(outPipes[0].in
      +                          fo.bits.busy == 1)
  4613  06C2  0022               	movlb	2	; select bank2
  4614  06C3  1FAA               	btfss	(_outPipes^(0+256)+2),7
  4615  06C4  2EC6               	goto	u2411
  4616  06C5  2EC7               	goto	u2410
  4617  06C6                     u2411:
  4618  06C6  2ED8               	goto	l3557
  4619  06C7                     u2410:
  4620  06C7                     l3547:
  4621                           
  4622                           ;lib/usb/usb_device.c: 1635:         {;lib/usb/usb_device.c: 1636:             controlTr
      +                          ansferState = 2;
  4623  06C7  3002               	movlw	2
  4624  06C8  00F5               	movwf	??_USBCtrlEPServiceComplete
  4625  06C9  0875               	movf	??_USBCtrlEPServiceComplete,w
  4626  06CA  0021               	movlb	1	; select bank1
  4627  06CB  00D0               	movwf	_controlTransferState^(0+128)
  4628  06CC                     l3549:
  4629                           
  4630                           ;lib/usb/usb_device.c: 1647:             if(USBDeferOUTDataStagePackets == 0)
  4631  06CC  0845               	movf	_USBDeferOUTDataStagePackets^(0+128),w	;volatile
  4632  06CD  1D03               	btfss	3,2
  4633  06CE  2ED0               	goto	u2421
  4634  06CF  2ED1               	goto	u2420
  4635  06D0                     u2421:
  4636  06D0  2ED4               	goto	l3553
  4637  06D1                     u2420:
  4638  06D1                     l3551:
  4639                           
  4640                           ;lib/usb/usb_device.c: 1648:             {;lib/usb/usb_device.c: 1649:                 U
      +                          SBCtrlEPAllowDataStage();
  4641  06D1  318B  23EB  3186   	fcall	_USBCtrlEPAllowDataStage
  4642  06D4                     l3553:
  4643                           
  4644                           ;lib/usb/usb_device.c: 1654:             USBStatusStageEnabledFlag2 = 0;
  4645  06D4  0021               	movlb	1	; select bank1
  4646  06D5  01C7               	clrf	_USBStatusStageEnabledFlag2^(0+128)	;volatile
  4647  06D6                     l3555:
  4648                           
  4649                           ;lib/usb/usb_device.c: 1655:             USBStatusStageEnabledFlag1 = 0;
  4650  06D6  01C8               	clrf	_USBStatusStageEnabledFlag1^(0+128)	;volatile
  4651                           
  4652                           ;lib/usb/usb_device.c: 1656:         }
  4653  06D7  2F56               	goto	l245
  4654  06D8                     l3557:
  4655                           
  4656                           ;lib/usb/usb_device.c: 1658:         {;lib/usb/usb_device.c: 1663:             pBDTEntry
      +                          EP0OutNext->CNT = 8;
  4657  06D8  0021               	movlb	1	; select bank1
  4658  06D9  083F               	movf	_pBDTEntryEP0OutNext^(0+128),w
  4659  06DA  3E01               	addlw	1
  4660  06DB  00F5               	movwf	??_USBCtrlEPServiceComplete
  4661  06DC  3000               	movlw	0
  4662  06DD  3D40               	addwfc	(_pBDTEntryEP0OutNext+1)^(0+128),w
  4663  06DE  00F6               	movwf	??_USBCtrlEPServiceComplete+1
  4664  06DF  0875               	movf	??_USBCtrlEPServiceComplete,w
  4665  06E0  0086               	movwf	6
  4666  06E1  0876               	movf	??_USBCtrlEPServiceComplete+1,w
  4667  06E2  0087               	movwf	7
  4668  06E3  3008               	movlw	8
  4669  06E4  0081               	movwf	1
  4670  06E5                     l3559:
  4671                           
  4672                           ;lib/usb/usb_device.c: 1664:             pBDTEntryEP0OutNext->ADR = (((uint16_t)(&SetupP
      +                          kt)) & 0x7FFF);
  4673  06E5  3060               	movlw	96
  4674  06E6  00F5               	movwf	??_USBCtrlEPServiceComplete
  4675  06E7  3000               	movlw	0
  4676  06E8  00F6               	movwf	??_USBCtrlEPServiceComplete+1
  4677  06E9  083F               	movf	_pBDTEntryEP0OutNext^(0+128),w
  4678  06EA  0086               	movwf	6
  4679  06EB  0840               	movf	(_pBDTEntryEP0OutNext+1)^(0+128),w
  4680  06EC  0087               	movwf	7
  4681  06ED  3142               	addfsr 1,2
  4682  06EE  0875               	movf	??_USBCtrlEPServiceComplete,w
  4683  06EF  3FC0               	movwi [0]fsr1
  4684  06F0  0876               	movf	??_USBCtrlEPServiceComplete+1,w
  4685  06F1  3FC1               	movwi [1]fsr1
  4686  06F2                     l3561:
  4687                           
  4688                           ;lib/usb/usb_device.c: 1665:             pBDTEntryEP0OutNext->STAT.Val = 0x00|(0x08 & 0x
      +                          08)|0x04;
  4689  06F2  083F               	movf	_pBDTEntryEP0OutNext^(0+128),w
  4690  06F3  0086               	movwf	6
  4691  06F4  0840               	movf	(_pBDTEntryEP0OutNext+1)^(0+128),w
  4692  06F5  0087               	movwf	7
  4693  06F6  300C               	movlw	12
  4694  06F7  0081               	movwf	1
  4695  06F8                     l3563:
  4696                           
  4697                           ;lib/usb/usb_device.c: 1666:             pBDTEntryEP0OutNext->STAT.Val |= 0x80;
  4698  06F8  083F               	movf	_pBDTEntryEP0OutNext^(0+128),w
  4699  06F9  0086               	movwf	6
  4700  06FA  0840               	movf	(_pBDTEntryEP0OutNext+1)^(0+128),w
  4701  06FB  0087               	movwf	7
  4702  06FC  1781               	bsf	1,7
  4703  06FD                     l3565:
  4704                           
  4705                           ;lib/usb/usb_device.c: 1667:             pBDTEntryIn[0]->STAT.Val = 0x04;
  4706  06FD  0830               	movf	_pBDTEntryIn^(0+128),w
  4707  06FE  0086               	movwf	6
  4708  06FF  0831               	movf	(_pBDTEntryIn+1)^(0+128),w
  4709  0700  0087               	movwf	7
  4710  0701  3004               	movlw	4
  4711  0702  0081               	movwf	1
  4712  0703                     l3567:
  4713                           
  4714                           ;lib/usb/usb_device.c: 1668:             pBDTEntryIn[0]->STAT.Val |= 0x80;
  4715  0703  0830               	movf	_pBDTEntryIn^(0+128),w
  4716  0704  0086               	movwf	6
  4717  0705  0831               	movf	(_pBDTEntryIn+1)^(0+128),w
  4718  0706  0087               	movwf	7
  4719  0707  1781               	bsf	1,7
  4720  0708  2F56               	goto	l245
  4721  0709                     l235:	
  4722                           ;lib/usb/usb_device.c: 1671:     else
  4723                           
  4724                           
  4725                           ;lib/usb/usb_device.c: 1672:     {;lib/usb/usb_device.c: 1673:   if(SetupPkt.DataDir == 
      +                          (0x80>>7))
  4726  0709  0020               	movlb	0	; select bank0
  4727  070A  1FE0               	btfss	96,7	;volatile
  4728  070B  2F0D               	goto	u2431
  4729  070C  2F0E               	goto	u2430
  4730  070D                     u2431:
  4731  070D  2F25               	goto	l3583
  4732  070E                     u2430:
  4733  070E                     l3569:
  4734                           
  4735                           ;lib/usb/usb_device.c: 1674:   {;lib/usb/usb_device.c: 1675:    controlTransferState = 1
      +                          ;
  4736  070E  0021               	movlb	1	; select bank1
  4737  070F  01D0               	clrf	_controlTransferState^(0+128)
  4738  0710  0AD0               	incf	_controlTransferState^(0+128),f
  4739  0711                     l3571:
  4740                           
  4741                           ;lib/usb/usb_device.c: 1689:    if(USBDeferINDataStagePackets == 0)
  4742  0711  0846               	movf	_USBDeferINDataStagePackets^(0+128),w	;volatile
  4743  0712  1D03               	btfss	3,2
  4744  0713  2F15               	goto	u2441
  4745  0714  2F16               	goto	u2440
  4746  0715                     u2441:
  4747  0715  2F19               	goto	l3575
  4748  0716                     u2440:
  4749  0716                     l3573:
  4750                           
  4751                           ;lib/usb/usb_device.c: 1690:             {;lib/usb/usb_device.c: 1691:                 U
      +                          SBCtrlEPAllowDataStage();
  4752  0716  318B  23EB  3186   	fcall	_USBCtrlEPAllowDataStage
  4753  0719                     l3575:
  4754                           
  4755                           ;lib/usb/usb_device.c: 1714:             USBStatusStageEnabledFlag2 = 0;
  4756  0719  0021               	movlb	1	; select bank1
  4757  071A  01C7               	clrf	_USBStatusStageEnabledFlag2^(0+128)	;volatile
  4758  071B                     l3577:
  4759                           
  4760                           ;lib/usb/usb_device.c: 1715:             USBStatusStageEnabledFlag1 = 0;
  4761  071B  01C8               	clrf	_USBStatusStageEnabledFlag1^(0+128)	;volatile
  4762  071C                     l3579:
  4763                           
  4764                           ;lib/usb/usb_device.c: 1716:             if(USBDeferStatusStagePacket == 0)
  4765  071C  0849               	movf	_USBDeferStatusStagePacket^(0+128),w	;volatile
  4766  071D  1D03               	btfss	3,2
  4767  071E  2F20               	goto	u2451
  4768  071F  2F21               	goto	u2450
  4769  0720                     u2451:
  4770  0720  2F56               	goto	l245
  4771  0721                     u2450:
  4772  0721                     l3581:
  4773                           
  4774                           ;lib/usb/usb_device.c: 1717:             {;lib/usb/usb_device.c: 1718:                 U
      +                          SBCtrlEPAllowStatusStage();
  4775  0721  318D  251A  3186   	fcall	_USBCtrlEPAllowStatusStage
  4776  0724  2F56               	goto	l245
  4777  0725                     l3583:
  4778                           
  4779                           ;lib/usb/usb_device.c: 1722:   {;lib/usb/usb_device.c: 1733:    controlTransferState = 2
      +                          ;
  4780  0725  3002               	movlw	2
  4781  0726  00F5               	movwf	??_USBCtrlEPServiceComplete
  4782  0727  0875               	movf	??_USBCtrlEPServiceComplete,w
  4783  0728  0021               	movlb	1	; select bank1
  4784  0729  00D0               	movwf	_controlTransferState^(0+128)
  4785  072A                     l3585:
  4786                           
  4787                           ;lib/usb/usb_device.c: 1736:    pBDTEntryEP0OutNext->CNT = 8;
  4788  072A  083F               	movf	_pBDTEntryEP0OutNext^(0+128),w
  4789  072B  3E01               	addlw	1
  4790  072C  00F5               	movwf	??_USBCtrlEPServiceComplete
  4791  072D  3000               	movlw	0
  4792  072E  3D40               	addwfc	(_pBDTEntryEP0OutNext+1)^(0+128),w
  4793  072F  00F6               	movwf	??_USBCtrlEPServiceComplete+1
  4794  0730  0875               	movf	??_USBCtrlEPServiceComplete,w
  4795  0731  0086               	movwf	6
  4796  0732  0876               	movf	??_USBCtrlEPServiceComplete+1,w
  4797  0733  0087               	movwf	7
  4798  0734  3008               	movlw	8
  4799  0735  0081               	movwf	1
  4800  0736                     l3587:
  4801                           
  4802                           ;lib/usb/usb_device.c: 1737:    pBDTEntryEP0OutNext->ADR = (((uint16_t)(&SetupPkt)) & 0x
      +                          7FFF);
  4803  0736  3060               	movlw	96
  4804  0737  00F5               	movwf	??_USBCtrlEPServiceComplete
  4805  0738  3000               	movlw	0
  4806  0739  00F6               	movwf	??_USBCtrlEPServiceComplete+1
  4807  073A  083F               	movf	_pBDTEntryEP0OutNext^(0+128),w
  4808  073B  0086               	movwf	6
  4809  073C  0840               	movf	(_pBDTEntryEP0OutNext+1)^(0+128),w
  4810  073D  0087               	movwf	7
  4811  073E  3142               	addfsr 1,2
  4812  073F  0875               	movf	??_USBCtrlEPServiceComplete,w
  4813  0740  3FC0               	movwi [0]fsr1
  4814  0741  0876               	movf	??_USBCtrlEPServiceComplete+1,w
  4815  0742  3FC1               	movwi [1]fsr1
  4816  0743                     l3589:
  4817                           
  4818                           ;lib/usb/usb_device.c: 1738:    pBDTEntryEP0OutNext->STAT.Val = 0x04;
  4819  0743  083F               	movf	_pBDTEntryEP0OutNext^(0+128),w
  4820  0744  0086               	movwf	6
  4821  0745  0840               	movf	(_pBDTEntryEP0OutNext+1)^(0+128),w
  4822  0746  0087               	movwf	7
  4823  0747  3004               	movlw	4
  4824  0748  0081               	movwf	1
  4825  0749                     l3591:
  4826                           
  4827                           ;lib/usb/usb_device.c: 1739:             pBDTEntryEP0OutNext->STAT.Val |= 0x80;
  4828  0749  083F               	movf	_pBDTEntryEP0OutNext^(0+128),w
  4829  074A  0086               	movwf	6
  4830  074B  0840               	movf	(_pBDTEntryEP0OutNext+1)^(0+128),w
  4831  074C  0087               	movwf	7
  4832  074D  1781               	bsf	1,7
  4833  074E                     l3593:
  4834                           
  4835                           ;lib/usb/usb_device.c: 1742:             USBStatusStageEnabledFlag2 = 0;
  4836  074E  01C7               	clrf	_USBStatusStageEnabledFlag2^(0+128)	;volatile
  4837  074F                     l3595:
  4838                           
  4839                           ;lib/usb/usb_device.c: 1743:             USBStatusStageEnabledFlag1 = 0;
  4840  074F  01C8               	clrf	_USBStatusStageEnabledFlag1^(0+128)	;volatile
  4841                           
  4842                           ;lib/usb/usb_device.c: 1744:    if(USBDeferStatusStagePacket == 0)
  4843  0750  0849               	movf	_USBDeferStatusStagePacket^(0+128),w	;volatile
  4844  0751  1D03               	btfss	3,2
  4845  0752  2F54               	goto	u2461
  4846  0753  2F55               	goto	u2460
  4847  0754                     u2461:
  4848  0754  2F56               	goto	l245
  4849  0755                     u2460:
  4850  0755  2F21               	goto	l3581
  4851  0756                     l245:
  4852  0756  0008               	return
  4853  0757                     __end_of_USBCtrlEPServiceComplete:
  4854                           
  4855                           	psect	text12
  4856  0BEB                     __ptext12:	
  4857 ;; *************** function _USBCtrlEPAllowDataStage *****************
  4858 ;; Defined at:
  4859 ;;		line 1492 in file "lib/usb/usb_device.c"
  4860 ;; Parameters:    Size  Location     Type
  4861 ;;		None
  4862 ;; Auto vars:     Size  Location     Type
  4863 ;;		None
  4864 ;; Return value:  Size  Location     Type
  4865 ;;                  1    wreg      void 
  4866 ;; Registers used:
  4867 ;;		wreg, fsr0l, fsr0h, fsr1l, fsr1h, status,2, status,0, pclath, cstack
  4868 ;; Tracked objects:
  4869 ;;		On entry : 0/0
  4870 ;;		On exit  : 0/0
  4871 ;;		Unchanged: 0/0
  4872 ;; Data sizes:     COMMON   BANK1   BANK2   BANK3  BANK4h  BANK4l   BANK5   BANK6   BANK7   BANK8   BANK9  BANK10  BANK1
      +1  BANK12
  4873 ;;      Params:         0       0       0       0       0       0       0       0       0       0       0       0       
      +0       0
  4874 ;;      Locals:         0       0       0       0       0       0       0       0       0       0       0       0       
      +0       0
  4875 ;;      Temps:          2       0       0       0       0       0       0       0       0       0       0       0       
      +0       0
  4876 ;;      Totals:         2       0       0       0       0       0       0       0       0       0       0       0       
      +0       0
  4877 ;;Total ram usage:        2 bytes
  4878 ;; Hardware stack levels used: 1
  4879 ;; Hardware stack levels required when called: 2
  4880 ;; This function calls:
  4881 ;;		_USBCtrlTrfTxService
  4882 ;; This function is called by:
  4883 ;;		_USBCtrlEPServiceComplete
  4884 ;; This function uses a non-reentrant model
  4885 ;;
  4886                           
  4887  0BEB                     _USBCtrlEPAllowDataStage:	
  4888                           ;psect for function _USBCtrlEPAllowDataStage
  4889                           
  4890  0BEB                     l3313:	
  4891                           ;incstack = 0
  4892                           ; Regs used in _USBCtrlEPAllowDataStage: [wreg-fsr1h+status,2+status,0+pclath+cstack]
  4893                           
  4894                           
  4895                           ;lib/usb/usb_device.c: 1494:     USBDeferINDataStagePackets = 0;
  4896  0BEB  0021               	movlb	1	; select bank1
  4897  0BEC  01C6               	clrf	_USBDeferINDataStagePackets^(0+128)	;volatile
  4898                           
  4899                           ;lib/usb/usb_device.c: 1495:     USBDeferOUTDataStagePackets = 0;
  4900  0BED  01C5               	clrf	_USBDeferOUTDataStagePackets^(0+128)	;volatile
  4901  0BEE                     l3315:
  4902                           
  4903                           ;lib/usb/usb_device.c: 1497:     if(controlTransferState == 2)
  4904  0BEE  3002               	movlw	2
  4905  0BEF  0650               	xorwf	_controlTransferState^(0+128),w
  4906  0BF0  1D03               	btfss	3,2
  4907  0BF1  2BF3               	goto	u2081
  4908  0BF2  2BF4               	goto	u2080
  4909  0BF3                     u2081:
  4910  0BF3  2C19               	goto	l3325
  4911  0BF4                     u2080:
  4912  0BF4                     l3317:
  4913                           
  4914                           ;lib/usb/usb_device.c: 1498:     {;lib/usb/usb_device.c: 1500:         pBDTEntryEP0OutNe
      +                          xt->CNT = 8;
  4915  0BF4  083F               	movf	_pBDTEntryEP0OutNext^(0+128),w
  4916  0BF5  3E01               	addlw	1
  4917  0BF6  00F3               	movwf	??_USBCtrlEPAllowDataStage
  4918  0BF7  3000               	movlw	0
  4919  0BF8  3D40               	addwfc	(_pBDTEntryEP0OutNext+1)^(0+128),w
  4920  0BF9  00F4               	movwf	??_USBCtrlEPAllowDataStage+1
  4921  0BFA  0873               	movf	??_USBCtrlEPAllowDataStage,w
  4922  0BFB  0086               	movwf	6
  4923  0BFC  0874               	movf	??_USBCtrlEPAllowDataStage+1,w
  4924  0BFD  0087               	movwf	7
  4925  0BFE  3008               	movlw	8
  4926  0BFF  0081               	movwf	1
  4927  0C00                     l3319:
  4928                           
  4929                           ;lib/usb/usb_device.c: 1501:         pBDTEntryEP0OutNext->ADR = (((uint16_t)(&CtrlTrfDat
      +                          a)) & 0x7FFF);
  4930  0C00  3068               	movlw	104
  4931  0C01  00F3               	movwf	??_USBCtrlEPAllowDataStage
  4932  0C02  3000               	movlw	0
  4933  0C03  00F4               	movwf	??_USBCtrlEPAllowDataStage+1
  4934  0C04  083F               	movf	_pBDTEntryEP0OutNext^(0+128),w
  4935  0C05  0086               	movwf	6
  4936  0C06  0840               	movf	(_pBDTEntryEP0OutNext+1)^(0+128),w
  4937  0C07  0087               	movwf	7
  4938  0C08  3142               	addfsr 1,2
  4939  0C09  0873               	movf	??_USBCtrlEPAllowDataStage,w
  4940  0C0A  3FC0               	movwi [0]fsr1
  4941  0C0B  0874               	movf	??_USBCtrlEPAllowDataStage+1,w
  4942  0C0C  3FC1               	movwi [1]fsr1
  4943  0C0D                     l3321:
  4944                           
  4945                           ;lib/usb/usb_device.c: 1502:         pBDTEntryEP0OutNext->STAT.Val = 0x40|(0x08 & 0x08);
  4946  0C0D  083F               	movf	_pBDTEntryEP0OutNext^(0+128),w
  4947  0C0E  0086               	movwf	6
  4948  0C0F  0840               	movf	(_pBDTEntryEP0OutNext+1)^(0+128),w
  4949  0C10  0087               	movwf	7
  4950  0C11  3048               	movlw	72
  4951  0C12  0081               	movwf	1
  4952  0C13                     l3323:
  4953                           
  4954                           ;lib/usb/usb_device.c: 1503:         pBDTEntryEP0OutNext->STAT.Val |= 0x80;
  4955  0C13  083F               	movf	_pBDTEntryEP0OutNext^(0+128),w
  4956  0C14  0086               	movwf	6
  4957  0C15  0840               	movf	(_pBDTEntryEP0OutNext+1)^(0+128),w
  4958  0C16  0087               	movwf	7
  4959  0C17  1781               	bsf	1,7
  4960                           
  4961                           ;lib/usb/usb_device.c: 1504:     }
  4962  0C18  2C49               	goto	l227
  4963  0C19                     l3325:
  4964                           
  4965                           ;lib/usb/usb_device.c: 1506:     {;lib/usb/usb_device.c: 1509:   if(SetupPkt.wLength < i
      +                          nPipes[0].wCount.Val)
  4966  0C19  083C               	movf	((_inPipes+1)^(0+128)+3),w
  4967  0C1A  0020               	movlb	0	; select bank0
  4968  0C1B  0267               	subwf	103,w	;volatile
  4969  0C1C  1D03               	skipz
  4970  0C1D  2C22               	goto	u2095
  4971  0C1E  0021               	movlb	1	; select bank1
  4972  0C1F  083B               	movf	(_inPipes^(0+128)+3),w
  4973  0C20  0020               	movlb	0	; select bank0
  4974  0C21  0266               	subwf	102,w	;volatile
  4975  0C22                     u2095:
  4976  0C22  1803               	skipnc
  4977  0C23  2C25               	goto	u2091
  4978  0C24  2C26               	goto	u2090
  4979  0C25                     u2091:
  4980  0C25  2C2D               	goto	l3329
  4981  0C26                     u2090:
  4982  0C26                     l3327:
  4983                           
  4984                           ;lib/usb/usb_device.c: 1510:   {;lib/usb/usb_device.c: 1511:    inPipes[0].wCount.Val = 
      +                          SetupPkt.wLength;
  4985  0C26  0867               	movf	103,w	;volatile
  4986  0C27  0021               	movlb	1	; select bank1
  4987  0C28  00BC               	movwf	((_inPipes+1)^(0+128)+3)
  4988  0C29  0020               	movlb	0	; select bank0
  4989  0C2A  0866               	movf	102,w	;volatile
  4990  0C2B  0021               	movlb	1	; select bank1
  4991  0C2C  00BB               	movwf	(_inPipes^(0+128)+3)
  4992  0C2D                     l3329:
  4993                           
  4994                           ;lib/usb/usb_device.c: 1513:   USBCtrlTrfTxService();
  4995  0C2D  318D  258C  318B   	fcall	_USBCtrlTrfTxService
  4996  0C30                     l3331:
  4997                           
  4998                           ;lib/usb/usb_device.c: 1518:   pBDTEntryIn[0]->ADR = (((uint16_t)(&CtrlTrfData)) & 0x7FF
      +                          F);
  4999  0C30  3068               	movlw	104
  5000  0C31  00F3               	movwf	??_USBCtrlEPAllowDataStage
  5001  0C32  3000               	movlw	0
  5002  0C33  00F4               	movwf	??_USBCtrlEPAllowDataStage+1
  5003  0C34  0021               	movlb	1	; select bank1
  5004  0C35  0830               	movf	_pBDTEntryIn^(0+128),w
  5005  0C36  0086               	movwf	6
  5006  0C37  0831               	movf	(_pBDTEntryIn+1)^(0+128),w
  5007  0C38  0087               	movwf	7
  5008  0C39  3142               	addfsr 1,2
  5009  0C3A  0873               	movf	??_USBCtrlEPAllowDataStage,w
  5010  0C3B  3FC0               	movwi [0]fsr1
  5011  0C3C  0874               	movf	??_USBCtrlEPAllowDataStage+1,w
  5012  0C3D  3FC1               	movwi [1]fsr1
  5013  0C3E                     l3333:
  5014                           
  5015                           ;lib/usb/usb_device.c: 1519:   pBDTEntryIn[0]->STAT.Val = 0x40|(0x08 & 0x08);
  5016  0C3E  0830               	movf	_pBDTEntryIn^(0+128),w
  5017  0C3F  0086               	movwf	6
  5018  0C40  0831               	movf	(_pBDTEntryIn+1)^(0+128),w
  5019  0C41  0087               	movwf	7
  5020  0C42  3048               	movlw	72
  5021  0C43  0081               	movwf	1
  5022  0C44                     l3335:
  5023                           
  5024                           ;lib/usb/usb_device.c: 1520:         pBDTEntryIn[0]->STAT.Val |= 0x80;
  5025  0C44  0830               	movf	_pBDTEntryIn^(0+128),w
  5026  0C45  0086               	movwf	6
  5027  0C46  0831               	movf	(_pBDTEntryIn+1)^(0+128),w
  5028  0C47  0087               	movwf	7
  5029  0C48  1781               	bsf	1,7
  5030  0C49                     l227:
  5031  0C49  0008               	return
  5032  0C4A                     __end_of_USBCtrlEPAllowDataStage:
  5033                           
  5034                           	psect	text13
  5035  0E79                     __ptext13:	
  5036 ;; *************** function _USBCheckStdRequest *****************
  5037 ;; Defined at:
  5038 ;;		line 2693 in file "lib/usb/usb_device.c"
  5039 ;; Parameters:    Size  Location     Type
  5040 ;;		None
  5041 ;; Auto vars:     Size  Location     Type
  5042 ;;		None
  5043 ;; Return value:  Size  Location     Type
  5044 ;;                  1    wreg      void 
  5045 ;; Registers used:
  5046 ;;		wreg, fsr0l, fsr0h, fsr1l, fsr1h, status,2, status,0, pclath, cstack
  5047 ;; Tracked objects:
  5048 ;;		On entry : 0/0
  5049 ;;		On exit  : 0/0
  5050 ;;		Unchanged: 0/0
  5051 ;; Data sizes:     COMMON   BANK1   BANK2   BANK3  BANK4h  BANK4l   BANK5   BANK6   BANK7   BANK8   BANK9  BANK10  BANK1
      +1  BANK12
  5052 ;;      Params:         0       0       0       0       0       0       0       0       0       0       0       0       
      +0       0
  5053 ;;      Locals:         0       0       0       0       0       0       0       0       0       0       0       0       
      +0       0
  5054 ;;      Temps:          0       2       0       0       0       0       0       0       0       0       0       0       
      +0       0
  5055 ;;      Totals:         0       2       0       0       0       0       0       0       0       0       0       0       
      +0       0
  5056 ;;Total ram usage:        2 bytes
  5057 ;; Hardware stack levels used: 1
  5058 ;; Hardware stack levels required when called: 6
  5059 ;; This function calls:
  5060 ;;		_USBStdFeatureReqHandler
  5061 ;;		_USBStdGetDscHandler
  5062 ;;		_USBStdGetStatusHandler
  5063 ;;		_USBStdSetCfgHandler
  5064 ;;		_USER_USB_CALLBACK_EVENT_HANDLER
  5065 ;; This function is called by:
  5066 ;;		_USBCtrlTrfSetupHandler
  5067 ;; This function uses a non-reentrant model
  5068 ;;
  5069                           
  5070  0E79                     _USBCheckStdRequest:	
  5071                           ;psect for function _USBCheckStdRequest
  5072                           
  5073  0E79                     l4603:	
  5074                           ;incstack = 0
  5075                           ; Regs used in _USBCheckStdRequest: [wreg-fsr1h+status,2+status,0+pclath+cstack]
  5076                           
  5077                           
  5078                           ;lib/usb/usb_device.c: 2695:     if(SetupPkt.RequestType != (0x00>>5)) return;
  5079  0E79  0020               	movlb	0	; select bank0
  5080  0E7A  0E60               	swapf	96,w	;volatile
  5081  0E7B  0C89               	rrf	9,f
  5082  0E7C  3903               	andlw	3
  5083  0E7D  3A00               	xorlw	0
  5084  0E7E  1903               	skipnz
  5085  0E7F  2E81               	goto	u3391
  5086  0E80  2E82               	goto	u3390
  5087  0E81                     u3391:
  5088  0E81  2EC8               	goto	l4639
  5089  0E82                     u3390:
  5090  0E82  2EF4               	goto	l361
  5091  0E83                     l363:	
  5092                           ;lib/usb/usb_device.c: 2698:     {;lib/usb/usb_device.c: 2699:         case 5:
  5093                           
  5094                           
  5095                           ;lib/usb/usb_device.c: 2700:             inPipes[0].info.bits.busy = 1;
  5096  0E83  17BA               	bsf	(_inPipes^(0+128)+2),7
  5097  0E84                     l4607:
  5098                           
  5099                           ;lib/usb/usb_device.c: 2701:             USBDeviceState = ADR_PENDING_STATE;
  5100  0E84  3008               	movlw	8
  5101  0E85  00E5               	movwf	??_USBCheckStdRequest^(0+128)
  5102  0E86  0865               	movf	??_USBCheckStdRequest^(0+128),w
  5103  0E87  00D3               	movwf	_USBDeviceState^(0+128)
  5104                           
  5105                           ;lib/usb/usb_device.c: 2703:             break;
  5106  0E88  2EF4               	goto	l361
  5107  0E89                     l4609:
  5108                           
  5109                           ;lib/usb/usb_device.c: 2705:             USBStdGetDscHandler();
  5110  0E89  318E  26F5  318E   	fcall	_USBStdGetDscHandler
  5111                           
  5112                           ;lib/usb/usb_device.c: 2706:             break;
  5113  0E8C  2EF4               	goto	l361
  5114  0E8D                     l4611:
  5115                           
  5116                           ;lib/usb/usb_device.c: 2708:             USBStdSetCfgHandler();
  5117  0E8D  318F  277A  318E   	fcall	_USBStdSetCfgHandler
  5118                           
  5119                           ;lib/usb/usb_device.c: 2709:             break;
  5120  0E90  2EF4               	goto	l361
  5121  0E91                     l4613:
  5122                           
  5123                           ;lib/usb/usb_device.c: 2711:             inPipes[0].pSrc.bRam = (uint8_t*)&USBActiveConf
      +                          iguration;
  5124  0E91  30D7               	movlw	low _USBActiveConfiguration
  5125  0E92  00B8               	movwf	_inPipes^(0+128)
  5126  0E93  3000               	movlw	high _USBActiveConfiguration
  5127  0E94  00B9               	movwf	(_inPipes+1)^(0+128)
  5128  0E95                     l4615:
  5129                           
  5130                           ;lib/usb/usb_device.c: 2712:             inPipes[0].info.bits.ctrl_trf_mem = 0x01;
  5131  0E95  143A               	bsf	(_inPipes^(0+128)+2),0
  5132  0E96                     l4617:
  5133                           
  5134                           ;lib/usb/usb_device.c: 2713:             inPipes[0].wCount.v[0] = 1;
  5135  0E96  01BB               	clrf	(_inPipes^(0+128)+3)
  5136  0E97  0ABB               	incf	(_inPipes^(0+128)+3),f
  5137  0E98                     l4619:
  5138                           
  5139                           ;lib/usb/usb_device.c: 2714:             inPipes[0].info.bits.busy = 1;
  5140  0E98  17BA               	bsf	(_inPipes^(0+128)+2),7
  5141                           
  5142                           ;lib/usb/usb_device.c: 2715:             break;
  5143  0E99  2EF4               	goto	l361
  5144  0E9A                     l4621:
  5145                           
  5146                           ;lib/usb/usb_device.c: 2717:             USBStdGetStatusHandler();
  5147  0E9A  318C  24AD  318E   	fcall	_USBStdGetStatusHandler
  5148                           
  5149                           ;lib/usb/usb_device.c: 2718:             break;
  5150  0E9D  2EF4               	goto	l361
  5151  0E9E                     l4623:
  5152                           
  5153                           ;lib/usb/usb_device.c: 2721:             USBStdFeatureReqHandler();
  5154  0E9E  3180  2039  318E   	fcall	_USBStdFeatureReqHandler
  5155                           
  5156                           ;lib/usb/usb_device.c: 2722:             break;
  5157  0EA1  2EF4               	goto	l361
  5158  0EA2                     l4625:
  5159                           
  5160                           ;lib/usb/usb_device.c: 2724:             inPipes[0].pSrc.bRam = (uint8_t*)&USBAlternateI
      +                          nterface[SetupPkt.bIntfID];
  5161  0EA2  0020               	movlb	0	; select bank0
  5162  0EA3  0864               	movf	100,w	;volatile
  5163  0EA4  3E45               	addlw	(low (_USBAlternateInterface| (0+256)))& (0+255)
  5164  0EA5  0021               	movlb	1	; select bank1
  5165  0EA6  00B8               	movwf	_inPipes^(0+128)
  5166  0EA7  3001               	movlw	1
  5167  0EA8  00B9               	movwf	(_inPipes+1)^(0+128)
  5168  0EA9  2E95               	goto	l4615
  5169  0EAA                     l372:	
  5170                           ;lib/usb/usb_device.c: 2729:         case 11:
  5171                           
  5172                           
  5173                           ;lib/usb/usb_device.c: 2730:             inPipes[0].info.bits.busy = 1;
  5174  0EAA  17BA               	bsf	(_inPipes^(0+128)+2),7
  5175  0EAB                     l4633:
  5176                           
  5177                           ;lib/usb/usb_device.c: 2731:             USBAlternateInterface[SetupPkt.bIntfID] = Setup
      +                          Pkt.bAltID;
  5178  0EAB  0020               	movlb	0	; select bank0
  5179  0EAC  0862               	movf	98,w	;volatile
  5180  0EAD  0021               	movlb	1	; select bank1
  5181  0EAE  00E5               	movwf	??_USBCheckStdRequest^(0+128)
  5182  0EAF  0020               	movlb	0	; select bank0
  5183  0EB0  0864               	movf	100,w	;volatile
  5184  0EB1  3E45               	addlw	(low (_USBAlternateInterface| (0+256)))& (0+255)
  5185  0EB2  0086               	movwf	6
  5186  0EB3  3001               	movlw	1	; select bank2/3
  5187  0EB4  0087               	movwf	7
  5188  0EB5  0021               	movlb	1	; select bank1
  5189  0EB6  0865               	movf	??_USBCheckStdRequest^(0+128),w
  5190  0EB7  0081               	movwf	1
  5191                           
  5192                           ;lib/usb/usb_device.c: 2732:             break;
  5193  0EB8  2EF4               	goto	l361
  5194  0EB9                     l4635:
  5195                           
  5196                           ;lib/usb/usb_device.c: 2734:             USER_USB_CALLBACK_EVENT_HANDLER((USB_EVENT)EVEN
      +                          T_SET_DESCRIPTOR,0,0);
  5197  0EB9  3002               	movlw	2
  5198  0EBA  00D8               	movwf	USER_USB_CALLBACK_EVENT_HANDLER@event^(0+128)
  5199  0EBB  3000               	movlw	0
  5200  0EBC  00D9               	movwf	(USER_USB_CALLBACK_EVENT_HANDLER@event^(0+128)+1)
  5201  0EBD  3000               	movlw	0
  5202  0EBE  00DA               	movwf	USER_USB_CALLBACK_EVENT_HANDLER@pdata^(0+128)
  5203  0EBF  3000               	movlw	0
  5204  0EC0  00DB               	movwf	(USER_USB_CALLBACK_EVENT_HANDLER@pdata+1)^(0+128)
  5205  0EC1  3000               	movlw	0
  5206  0EC2  00DC               	movwf	USER_USB_CALLBACK_EVENT_HANDLER@size^(0+128)
  5207  0EC3  00DD               	movwf	(USER_USB_CALLBACK_EVENT_HANDLER@size+1)^(0+128)
  5208  0EC4  318B  2309  318E   	fcall	_USER_USB_CALLBACK_EVENT_HANDLER
  5209                           
  5210                           ;lib/usb/usb_device.c: 2735:             break;
  5211  0EC7  2EF4               	goto	l361
  5212  0EC8                     l4639:
  5213  0EC8  0861               	movf	97,w	;volatile
  5214  0EC9  0021               	movlb	1	; select bank1
  5215  0ECA  00E5               	movwf	??_USBCheckStdRequest^(0+128)
  5216  0ECB  01E6               	clrf	(??_USBCheckStdRequest^(0+128)+1)
  5217                           
  5218                           ; Switch on 2 bytes has been partitioned into a top level switch of size 1, and 1 sub-sw
      +                          itches
  5219                           ; Switch size 1, requested type "simple"
  5220                           ; Number of cases is 1, Range of values is 0 to 0
  5221                           ; switch strategies available:
  5222                           ; Name         Instructions Cycles
  5223                           ; simple_byte            4     3 (average)
  5224                           ; direct_byte            8     6 (fixed)
  5225                           ; jumptable            260     6 (fixed)
  5226                           ;	Chosen strategy is simple_byte
  5227  0ECC  0866               	movf	(??_USBCheckStdRequest+1)^(0+128),w
  5228  0ECD  3A00               	xorlw	0	; case 0
  5229  0ECE  1903               	skipnz
  5230  0ECF  2ED1               	goto	l5135
  5231  0ED0  2EF4               	goto	l361
  5232  0ED1                     l5135:
  5233                           
  5234                           ; Switch size 1, requested type "simple"
  5235                           ; Number of cases is 11, Range of values is 0 to 12
  5236                           ; switch strategies available:
  5237                           ; Name         Instructions Cycles
  5238                           ; direct_byte           32     6 (fixed)
  5239                           ; simple_byte           34    18 (average)
  5240                           ; jumptable            260     6 (fixed)
  5241                           ;	Chosen strategy is simple_byte
  5242  0ED1  0865               	movf	??_USBCheckStdRequest^(0+128),w
  5243  0ED2  3A00               	xorlw	0	; case 0
  5244  0ED3  1903               	skipnz
  5245  0ED4  2E9A               	goto	l4621
  5246  0ED5  3A01               	xorlw	1	; case 1
  5247  0ED6  1903               	skipnz
  5248  0ED7  2E9E               	goto	l4623
  5249  0ED8  3A02               	xorlw	2	; case 3
  5250  0ED9  1903               	skipnz
  5251  0EDA  2E9E               	goto	l4623
  5252  0EDB  3A06               	xorlw	6	; case 5
  5253  0EDC  1903               	skipnz
  5254  0EDD  2E83               	goto	l363
  5255  0EDE  3A03               	xorlw	3	; case 6
  5256  0EDF  1903               	skipnz
  5257  0EE0  2E89               	goto	l4609
  5258  0EE1  3A01               	xorlw	1	; case 7
  5259  0EE2  1903               	skipnz
  5260  0EE3  2EB9               	goto	l4635
  5261  0EE4  3A0F               	xorlw	15	; case 8
  5262  0EE5  1903               	skipnz
  5263  0EE6  2E91               	goto	l4613
  5264  0EE7  3A01               	xorlw	1	; case 9
  5265  0EE8  1903               	skipnz
  5266  0EE9  2E8D               	goto	l4611
  5267  0EEA  3A03               	xorlw	3	; case 10
  5268  0EEB  1903               	skipnz
  5269  0EEC  2EA2               	goto	l4625
  5270  0EED  3A01               	xorlw	1	; case 11
  5271  0EEE  1903               	skipnz
  5272  0EEF  2EAA               	goto	l372
  5273  0EF0  3A07               	xorlw	7	; case 12
  5274  0EF1  1903               	skipnz
  5275  0EF2  2EF4               	goto	l361
  5276  0EF3  2EF4               	goto	l361
  5277  0EF4                     l361:
  5278  0EF4  0008               	return
  5279  0EF5                     __end_of_USBCheckStdRequest:
  5280                           
  5281                           	psect	text14
  5282  0F7A                     __ptext14:	
  5283 ;; *************** function _USBStdSetCfgHandler *****************
  5284 ;; Defined at:
  5285 ;;		line 1972 in file "lib/usb/usb_device.c"
  5286 ;; Parameters:    Size  Location     Type
  5287 ;;		None
  5288 ;; Auto vars:     Size  Location     Type
  5289 ;;  p               2    7[BANK1 ] PTR unsigned char 
  5290 ;;		 -> UEP1(1), 
  5291 ;;  i               1    9[BANK1 ] unsigned char 
  5292 ;;  i               1   10[BANK1 ] unsigned char 
  5293 ;; Return value:  Size  Location     Type
  5294 ;;                  1    wreg      void 
  5295 ;; Registers used:
  5296 ;;		wreg, fsr0l, fsr0h, fsr1l, fsr1h, status,2, status,0, pclath, cstack
  5297 ;; Tracked objects:
  5298 ;;		On entry : 0/0
  5299 ;;		On exit  : 0/0
  5300 ;;		Unchanged: 0/0
  5301 ;; Data sizes:     COMMON   BANK1   BANK2   BANK3  BANK4h  BANK4l   BANK5   BANK6   BANK7   BANK8   BANK9  BANK10  BANK1
      +1  BANK12
  5302 ;;      Params:         0       0       0       0       0       0       0       0       0       0       0       0       
      +0       0
  5303 ;;      Locals:         0       4       0       0       0       0       0       0       0       0       0       0       
      +0       0
  5304 ;;      Temps:          0       1       0       0       0       0       0       0       0       0       0       0       
      +0       0
  5305 ;;      Totals:         0       5       0       0       0       0       0       0       0       0       0       0       
      +0       0
  5306 ;;Total ram usage:        5 bytes
  5307 ;; Hardware stack levels used: 1
  5308 ;; Hardware stack levels required when called: 5
  5309 ;; This function calls:
  5310 ;;		_USER_USB_CALLBACK_EVENT_HANDLER
  5311 ;;		_memset
  5312 ;; This function is called by:
  5313 ;;		_USBCheckStdRequest
  5314 ;; This function uses a non-reentrant model
  5315 ;;
  5316                           
  5317  0F7A                     _USBStdSetCfgHandler:	
  5318                           ;psect for function _USBStdSetCfgHandler
  5319                           
  5320  0F7A                     l4551:	
  5321                           ;incstack = 0
  5322                           ; Regs used in _USBStdSetCfgHandler: [wreg-fsr1h+status,2+status,0+pclath+cstack]
  5323                           
  5324                           
  5325                           ;lib/usb/usb_device.c: 1974:     uint8_t i;;lib/usb/usb_device.c: 1977:     inPipes[0].i
      +                          nfo.bits.busy = 1;
  5326  0F7A  0021               	movlb	1	; select bank1
  5327  0F7B  17BA               	bsf	(_inPipes^(0+128)+2),7
  5328                           
  5329                           ;lib/usb/usb_device.c: 1980:     { uint8_t i; uint8_t* p = (uint8_t*)&UEP1; for(i=0;i<3;
      +                          i++) *p++ = 0; };
  5330  0F7C  300E               	movlw	14
  5331  0F7D  00E0               	movwf	(USBStdSetCfgHandler@p+1)^(0+128)
  5332  0F7E  3099               	movlw	153
  5333  0F7F  00DF               	movwf	USBStdSetCfgHandler@p^(0+128)
  5334  0F80                     l4553:
  5335  0F80  01E1               	clrf	USBStdSetCfgHandler@i_1457^(0+128)
  5336  0F81                     l4559:
  5337  0F81  085F               	movf	USBStdSetCfgHandler@p^(0+128),w
  5338  0F82  0086               	movwf	6
  5339  0F83  0860               	movf	(USBStdSetCfgHandler@p+1)^(0+128),w
  5340  0F84  0087               	movwf	7
  5341  0F85  0181               	clrf	1
  5342  0F86                     l4561:
  5343  0F86  3001               	movlw	1
  5344  0F87  07DF               	addwf	USBStdSetCfgHandler@p^(0+128),f
  5345  0F88  3000               	movlw	0
  5346  0F89  3DE0               	addwfc	(USBStdSetCfgHandler@p+1)^(0+128),f
  5347  0F8A                     l4563:
  5348  0F8A  3001               	movlw	1
  5349  0F8B  00DE               	movwf	??_USBStdSetCfgHandler^(0+128)
  5350  0F8C  085E               	movf	??_USBStdSetCfgHandler^(0+128),w
  5351  0F8D  07E1               	addwf	USBStdSetCfgHandler@i_1457^(0+128),f
  5352  0F8E                     l4565:
  5353  0F8E  3003               	movlw	3
  5354  0F8F  0261               	subwf	USBStdSetCfgHandler@i_1457^(0+128),w
  5355  0F90  1C03               	skipc
  5356  0F91  2F93               	goto	u3361
  5357  0F92  2F94               	goto	u3360
  5358  0F93                     u3361:
  5359  0F93  2F81               	goto	l4559
  5360  0F94                     u3360:
  5361  0F94                     l4567:
  5362                           
  5363                           ;lib/usb/usb_device.c: 1983:     memset((void*)&BDT[0], 0x00, sizeof(BDT));
  5364  0F94  3020               	movlw	32
  5365  0F95  00F0               	movwf	memset@dest
  5366  0F96  3000               	movlw	0
  5367  0F97  00F1               	movwf	memset@dest+1
  5368  0F98  3000               	movlw	0
  5369  0F99  00F2               	movwf	memset@c
  5370  0F9A  00F3               	movwf	memset@c+1
  5371  0F9B  3040               	movlw	64
  5372  0F9C  00F4               	movwf	memset@n
  5373  0F9D  3000               	movlw	0
  5374  0F9E  00F5               	movwf	memset@n+1
  5375  0F9F  3183  23E6  318F   	fcall	_memset
  5376  0FA2                     l4569:
  5377                           
  5378                           ;lib/usb/usb_device.c: 1986:     UCONbits.PPBRST = 1;
  5379  0FA2  003D               	movlb	29	; select bank29
  5380  0FA3  170E               	bsf	14,6	;volatile
  5381  0FA4                     l4571:
  5382                           
  5383                           ;lib/usb/usb_device.c: 1991:  for(i = 0; i < (uint8_t)(3 +1u); i++)
  5384  0FA4  0021               	movlb	1	; select bank1
  5385  0FA5  01E2               	clrf	USBStdSetCfgHandler@i^(0+128)
  5386  0FA6                     l4577:
  5387                           
  5388                           ;lib/usb/usb_device.c: 1992:  {;lib/usb/usb_device.c: 1993:   ep_data_in[i].Val = 0u;
  5389  0FA6  0862               	movf	USBStdSetCfgHandler@i^(0+128),w
  5390  0FA7  3E37               	addlw	(low (_ep_data_in| (0+256)))& (0+255)
  5391  0FA8  0086               	movwf	6
  5392  0FA9  3001               	movlw	1	; select bank2/3
  5393  0FAA  0087               	movwf	7
  5394  0FAB  0181               	clrf	1
  5395                           
  5396                           ;lib/usb/usb_device.c: 1994:         ep_data_out[i].Val = 0u;
  5397  0FAC  0862               	movf	USBStdSetCfgHandler@i^(0+128),w
  5398  0FAD  3E33               	addlw	(low (_ep_data_out| (0+256)))& (0+255)
  5399  0FAE  0086               	movwf	6
  5400  0FAF  3001               	movlw	1	; select bank2/3
  5401  0FB0  0087               	movwf	7
  5402  0FB1  0181               	clrf	1
  5403  0FB2                     l4579:
  5404                           
  5405                           ;lib/usb/usb_device.c: 1995:  }
  5406  0FB2  3001               	movlw	1
  5407  0FB3  00DE               	movwf	??_USBStdSetCfgHandler^(0+128)
  5408  0FB4  085E               	movf	??_USBStdSetCfgHandler^(0+128),w
  5409  0FB5  07E2               	addwf	USBStdSetCfgHandler@i^(0+128),f
  5410  0FB6                     l4581:
  5411  0FB6  3004               	movlw	4
  5412  0FB7  0262               	subwf	USBStdSetCfgHandler@i^(0+128),w
  5413  0FB8  1C03               	skipc
  5414  0FB9  2FBB               	goto	u3371
  5415  0FBA  2FBC               	goto	u3370
  5416  0FBB                     u3371:
  5417  0FBB  2FA6               	goto	l4577
  5418  0FBC                     u3370:
  5419  0FBC                     l4583:
  5420                           
  5421                           ;lib/usb/usb_device.c: 1998:     memset((void*)&USBAlternateInterface,0x00,3);
  5422  0FBC  3045               	movlw	low _USBAlternateInterface
  5423  0FBD  00F0               	movwf	memset@dest
  5424  0FBE  3001               	movlw	high _USBAlternateInterface
  5425  0FBF  00F1               	movwf	memset@dest+1
  5426  0FC0  3000               	movlw	0
  5427  0FC1  00F2               	movwf	memset@c
  5428  0FC2  00F3               	movwf	memset@c+1
  5429  0FC3  3003               	movlw	3
  5430  0FC4  00F4               	movwf	memset@n
  5431  0FC5  3000               	movlw	0
  5432  0FC6  00F5               	movwf	memset@n+1
  5433  0FC7  3183  23E6  318F   	fcall	_memset
  5434  0FCA                     l4585:
  5435                           
  5436                           ;lib/usb/usb_device.c: 2001:     UCONbits.PPBRST = 0;
  5437  0FCA  003D               	movlb	29	; select bank29
  5438  0FCB  130E               	bcf	14,6	;volatile
  5439  0FCC                     l4587:
  5440                           
  5441                           ;lib/usb/usb_device.c: 2003:     pBDTEntryIn[0] = (volatile BDT_ENTRY*)&BDT[2];
  5442  0FCC  3028               	movlw	40
  5443  0FCD  0021               	movlb	1	; select bank1
  5444  0FCE  00B0               	movwf	_pBDTEntryIn^(0+128)
  5445  0FCF  3000               	movlw	0
  5446  0FD0  00B1               	movwf	(_pBDTEntryIn+1)^(0+128)
  5447  0FD1                     l4589:
  5448                           
  5449                           ;lib/usb/usb_device.c: 2006:     pBDTEntryEP0OutCurrent = (volatile BDT_ENTRY*)&BDT[0];
  5450  0FD1  3020               	movlw	32
  5451  0FD2  00DE               	movwf	??_USBStdSetCfgHandler^(0+128)
  5452  0FD3  085E               	movf	??_USBStdSetCfgHandler^(0+128),w
  5453  0FD4  00D2               	movwf	_pBDTEntryEP0OutCurrent^(0+128)
  5454  0FD5                     l4591:
  5455                           
  5456                           ;lib/usb/usb_device.c: 2007:     pBDTEntryEP0OutNext = pBDTEntryEP0OutCurrent;
  5457  0FD5  0852               	movf	_pBDTEntryEP0OutCurrent^(0+128),w
  5458  0FD6  00BF               	movwf	_pBDTEntryEP0OutNext^(0+128)
  5459  0FD7  39FF               	andlw	255
  5460  0FD8  1D03               	skipz
  5461  0FD9  3000               	movlw	0
  5462  0FDA  00C0               	movwf	(_pBDTEntryEP0OutNext+1)^(0+128)
  5463  0FDB                     l4593:
  5464                           
  5465                           ;lib/usb/usb_device.c: 2010:     USBActiveConfiguration = SetupPkt.bConfigurationValue;
  5466  0FDB  0020               	movlb	0	; select bank0
  5467  0FDC  0862               	movf	98,w	;volatile
  5468  0FDD  0021               	movlb	1	; select bank1
  5469  0FDE  00DE               	movwf	??_USBStdSetCfgHandler^(0+128)
  5470  0FDF  085E               	movf	??_USBStdSetCfgHandler^(0+128),w
  5471  0FE0  00D7               	movwf	_USBActiveConfiguration^(0+128)
  5472  0FE1                     l4595:
  5473                           
  5474                           ;lib/usb/usb_device.c: 2013:     if(USBActiveConfiguration == 0)
  5475  0FE1  0857               	movf	_USBActiveConfiguration^(0+128),w
  5476  0FE2  1D03               	btfss	3,2
  5477  0FE3  2FE5               	goto	u3381
  5478  0FE4  2FE6               	goto	u3380
  5479  0FE5                     u3381:
  5480  0FE5  2FEB               	goto	l4599
  5481  0FE6                     u3380:
  5482  0FE6                     l4597:
  5483                           
  5484                           ;lib/usb/usb_device.c: 2014:     {;lib/usb/usb_device.c: 2016:         USBDeviceState = 
      +                          ADDRESS_STATE;
  5485  0FE6  3010               	movlw	16
  5486  0FE7  00DE               	movwf	??_USBStdSetCfgHandler^(0+128)
  5487  0FE8  085E               	movf	??_USBStdSetCfgHandler^(0+128),w
  5488  0FE9  00D3               	movwf	_USBDeviceState^(0+128)
  5489                           
  5490                           ;lib/usb/usb_device.c: 2017:     }
  5491  0FEA  2FFF               	goto	l282
  5492  0FEB                     l4599:
  5493                           
  5494                           ;lib/usb/usb_device.c: 2019:     {;lib/usb/usb_device.c: 2021:         USER_USB_CALLBACK
      +                          _EVENT_HANDLER((USB_EVENT)EVENT_CONFIGURED,(void*)&USBActiveConfiguration,1);
  5495  0FEB  3001               	movlw	1
  5496  0FEC  00D8               	movwf	USER_USB_CALLBACK_EVENT_HANDLER@event^(0+128)
  5497  0FED  3000               	movlw	0
  5498  0FEE  00D9               	movwf	(USER_USB_CALLBACK_EVENT_HANDLER@event^(0+128)+1)
  5499  0FEF  30D7               	movlw	low _USBActiveConfiguration
  5500  0FF0  00DA               	movwf	USER_USB_CALLBACK_EVENT_HANDLER@pdata^(0+128)
  5501  0FF1  3000               	movlw	high _USBActiveConfiguration
  5502  0FF2  00DB               	movwf	(USER_USB_CALLBACK_EVENT_HANDLER@pdata+1)^(0+128)
  5503  0FF3  3001               	movlw	1
  5504  0FF4  00DC               	movwf	USER_USB_CALLBACK_EVENT_HANDLER@size^(0+128)
  5505  0FF5  3000               	movlw	0
  5506  0FF6  00DD               	movwf	(USER_USB_CALLBACK_EVENT_HANDLER@size^(0+128)+1)
  5507  0FF7  318B  2309  318F   	fcall	_USER_USB_CALLBACK_EVENT_HANDLER
  5508  0FFA                     l4601:
  5509                           
  5510                           ;lib/usb/usb_device.c: 2026:         USBDeviceState = CONFIGURED_STATE;
  5511  0FFA  3020               	movlw	32
  5512  0FFB  0021               	movlb	1	; select bank1
  5513  0FFC  00DE               	movwf	??_USBStdSetCfgHandler^(0+128)
  5514  0FFD  085E               	movf	??_USBStdSetCfgHandler^(0+128),w
  5515  0FFE  00D3               	movwf	_USBDeviceState^(0+128)
  5516  0FFF                     l282:
  5517  0FFF  0008               	return
  5518  1000                     __end_of_USBStdSetCfgHandler:
  5519                           
  5520                           	psect	text15
  5521  03E6                     __ptext15:	
  5522 ;; *************** function _memset *****************
  5523 ;; Defined at:
  5524 ;;		line 4 in file "E:\Atmel Studio\Comp-istall\pic\sources\c99\common\memset.c"
  5525 ;; Parameters:    Size  Location     Type
  5526 ;;  dest            2    0[COMMON] PTR void 
  5527 ;;		 -> USBAlternateInterface(3), BDT(64), 
  5528 ;;  c               2    2[COMMON] int 
  5529 ;;  n               2    4[COMMON] unsigned int 
  5530 ;; Auto vars:     Size  Location     Type
  5531 ;;  s               2   12[COMMON] PTR unsigned char 
  5532 ;;		 -> USBAlternateInterface(3), BDT(64), 
  5533 ;;  k               2   10[COMMON] unsigned int 
  5534 ;; Return value:  Size  Location     Type
  5535 ;;                  2    0[COMMON] PTR void 
  5536 ;; Registers used:
  5537 ;;		wreg, fsr1l, fsr1h, status,2, status,0
  5538 ;; Tracked objects:
  5539 ;;		On entry : 0/0
  5540 ;;		On exit  : 0/0
  5541 ;;		Unchanged: 0/0
  5542 ;; Data sizes:     COMMON   BANK1   BANK2   BANK3  BANK4h  BANK4l   BANK5   BANK6   BANK7   BANK8   BANK9  BANK10  BANK1
      +1  BANK12
  5543 ;;      Params:         6       0       0       0       0       0       0       0       0       0       0       0       
      +0       0
  5544 ;;      Locals:         4       0       0       0       0       0       0       0       0       0       0       0       
      +0       0
  5545 ;;      Temps:          4       0       0       0       0       0       0       0       0       0       0       0       
      +0       0
  5546 ;;      Totals:        14       0       0       0       0       0       0       0       0       0       0       0       
      +0       0
  5547 ;;Total ram usage:       14 bytes
  5548 ;; Hardware stack levels used: 1
  5549 ;; Hardware stack levels required when called: 1
  5550 ;; This function calls:
  5551 ;;		Nothing
  5552 ;; This function is called by:
  5553 ;;		_USBStdSetCfgHandler
  5554 ;; This function uses a non-reentrant model
  5555 ;;
  5556                           
  5557  03E6                     _memset:	
  5558                           ;psect for function _memset
  5559                           
  5560  03E6                     l4509:	
  5561                           ;incstack = 0
  5562                           ; Regs used in _memset: [wreg+fsr1l+fsr1h+status,2+status,0]
  5563                           
  5564  03E6  0871               	movf	memset@dest+1,w
  5565  03E7  00FD               	movwf	memset@s+1
  5566  03E8  0870               	movf	memset@dest,w
  5567  03E9  00FC               	movwf	memset@s
  5568  03EA                     l4511:
  5569  03EA  0874               	movf	memset@n,w
  5570  03EB  0475               	iorwf	memset@n+1,w
  5571  03EC  1D03               	btfss	3,2
  5572  03ED  2BEF               	goto	u3311
  5573  03EE  2BF0               	goto	u3310
  5574  03EF                     u3311:
  5575  03EF  2BF1               	goto	l4515
  5576  03F0                     u3310:
  5577  03F0  2CAF               	goto	l1303
  5578  03F1                     l4515:
  5579  03F1  087C               	movf	memset@s,w
  5580  03F2  0086               	movwf	6
  5581  03F3  087D               	movf	memset@s+1,w
  5582  03F4  0087               	movwf	7
  5583  03F5  0872               	movf	memset@c,w
  5584  03F6  0081               	movwf	1
  5585  03F7                     l4517:
  5586  03F7  0874               	movf	memset@n,w
  5587  03F8  077C               	addwf	memset@s,w
  5588  03F9  00F6               	movwf	??_memset
  5589  03FA  0875               	movf	memset@n+1,w
  5590  03FB  3D7D               	addwfc	memset@s+1,w
  5591  03FC  00F7               	movwf	??_memset+1
  5592  03FD  0876               	movf	??_memset,w
  5593  03FE  3EFF               	addlw	255
  5594  03FF  00F8               	movwf	??_memset+2
  5595  0400  30FF               	movlw	255
  5596  0401  3D77               	addwfc	??_memset+1,w
  5597  0402  00F9               	movwf	??_memset+3
  5598  0403  0878               	movf	??_memset+2,w
  5599  0404  0086               	movwf	6
  5600  0405  0879               	movf	??_memset+3,w
  5601  0406  0087               	movwf	7
  5602  0407  0872               	movf	memset@c,w
  5603  0408  0081               	movwf	1
  5604  0409                     l4519:
  5605  0409  3000               	movlw	0
  5606  040A  0275               	subwf	memset@n+1,w
  5607  040B  3003               	movlw	3
  5608  040C  1903               	skipnz
  5609  040D  0274               	subwf	memset@n,w
  5610  040E  1803               	skipnc
  5611  040F  2C11               	goto	u3321
  5612  0410  2C12               	goto	u3320
  5613  0411                     u3321:
  5614  0411  2C13               	goto	l4523
  5615  0412                     u3320:
  5616  0412  2CAF               	goto	l1303
  5617  0413                     l4523:
  5618  0413  087C               	movf	memset@s,w
  5619  0414  3E01               	addlw	1
  5620  0415  00F6               	movwf	??_memset
  5621  0416  3000               	movlw	0
  5622  0417  3D7D               	addwfc	memset@s+1,w
  5623  0418  00F7               	movwf	??_memset+1
  5624  0419  0876               	movf	??_memset,w
  5625  041A  0086               	movwf	6
  5626  041B  0877               	movf	??_memset+1,w
  5627  041C  0087               	movwf	7
  5628  041D  0872               	movf	memset@c,w
  5629  041E  0081               	movwf	1
  5630  041F  087C               	movf	memset@s,w
  5631  0420  3E02               	addlw	2
  5632  0421  00F6               	movwf	??_memset
  5633  0422  3000               	movlw	0
  5634  0423  3D7D               	addwfc	memset@s+1,w
  5635  0424  00F7               	movwf	??_memset+1
  5636  0425  0876               	movf	??_memset,w
  5637  0426  0086               	movwf	6
  5638  0427  0877               	movf	??_memset+1,w
  5639  0428  0087               	movwf	7
  5640  0429  0872               	movf	memset@c,w
  5641  042A  0081               	movwf	1
  5642  042B  0874               	movf	memset@n,w
  5643  042C  077C               	addwf	memset@s,w
  5644  042D  00F6               	movwf	??_memset
  5645  042E  0875               	movf	memset@n+1,w
  5646  042F  3D7D               	addwfc	memset@s+1,w
  5647  0430  00F7               	movwf	??_memset+1
  5648  0431  0876               	movf	??_memset,w
  5649  0432  3EFE               	addlw	254
  5650  0433  00F8               	movwf	??_memset+2
  5651  0434  30FF               	movlw	255
  5652  0435  3D77               	addwfc	??_memset+1,w
  5653  0436  00F9               	movwf	??_memset+3
  5654  0437  0878               	movf	??_memset+2,w
  5655  0438  0086               	movwf	6
  5656  0439  0879               	movf	??_memset+3,w
  5657  043A  0087               	movwf	7
  5658  043B  0872               	movf	memset@c,w
  5659  043C  0081               	movwf	1
  5660  043D  0874               	movf	memset@n,w
  5661  043E  077C               	addwf	memset@s,w
  5662  043F  00F6               	movwf	??_memset
  5663  0440  0875               	movf	memset@n+1,w
  5664  0441  3D7D               	addwfc	memset@s+1,w
  5665  0442  00F7               	movwf	??_memset+1
  5666  0443  0876               	movf	??_memset,w
  5667  0444  3EFD               	addlw	253
  5668  0445  00F8               	movwf	??_memset+2
  5669  0446  30FF               	movlw	255
  5670  0447  3D77               	addwfc	??_memset+1,w
  5671  0448  00F9               	movwf	??_memset+3
  5672  0449  0878               	movf	??_memset+2,w
  5673  044A  0086               	movwf	6
  5674  044B  0879               	movf	??_memset+3,w
  5675  044C  0087               	movwf	7
  5676  044D  0872               	movf	memset@c,w
  5677  044E  0081               	movwf	1
  5678  044F                     l4525:
  5679  044F  3000               	movlw	0
  5680  0450  0275               	subwf	memset@n+1,w
  5681  0451  3007               	movlw	7
  5682  0452  1903               	skipnz
  5683  0453  0274               	subwf	memset@n,w
  5684  0454  1803               	skipnc
  5685  0455  2C57               	goto	u3331
  5686  0456  2C58               	goto	u3330
  5687  0457                     u3331:
  5688  0457  2C59               	goto	l4529
  5689  0458                     u3330:
  5690  0458  2CAF               	goto	l1303
  5691  0459                     l4529:
  5692  0459  087C               	movf	memset@s,w
  5693  045A  3E03               	addlw	3
  5694  045B  00F6               	movwf	??_memset
  5695  045C  3000               	movlw	0
  5696  045D  3D7D               	addwfc	memset@s+1,w
  5697  045E  00F7               	movwf	??_memset+1
  5698  045F  0876               	movf	??_memset,w
  5699  0460  0086               	movwf	6
  5700  0461  0877               	movf	??_memset+1,w
  5701  0462  0087               	movwf	7
  5702  0463  0872               	movf	memset@c,w
  5703  0464  0081               	movwf	1
  5704  0465  0874               	movf	memset@n,w
  5705  0466  077C               	addwf	memset@s,w
  5706  0467  00F6               	movwf	??_memset
  5707  0468  0875               	movf	memset@n+1,w
  5708  0469  3D7D               	addwfc	memset@s+1,w
  5709  046A  00F7               	movwf	??_memset+1
  5710  046B  0876               	movf	??_memset,w
  5711  046C  3EFC               	addlw	252
  5712  046D  00F8               	movwf	??_memset+2
  5713  046E  30FF               	movlw	255
  5714  046F  3D77               	addwfc	??_memset+1,w
  5715  0470  00F9               	movwf	??_memset+3
  5716  0471  0878               	movf	??_memset+2,w
  5717  0472  0086               	movwf	6
  5718  0473  0879               	movf	??_memset+3,w
  5719  0474  0087               	movwf	7
  5720  0475  0872               	movf	memset@c,w
  5721  0476  0081               	movwf	1
  5722  0477                     l4531:
  5723  0477  3000               	movlw	0
  5724  0478  0275               	subwf	memset@n+1,w
  5725  0479  3009               	movlw	9
  5726  047A  1903               	skipnz
  5727  047B  0274               	subwf	memset@n,w
  5728  047C  1803               	skipnc
  5729  047D  2C7F               	goto	u3341
  5730  047E  2C80               	goto	u3340
  5731  047F                     u3341:
  5732  047F  2C81               	goto	l4535
  5733  0480                     u3340:
  5734  0480  2CAF               	goto	l1303
  5735  0481                     l4535:
  5736  0481  097C               	comf	memset@s,w
  5737  0482  00F6               	movwf	??_memset
  5738  0483  097D               	comf	memset@s+1,w
  5739  0484  00F7               	movwf	??_memset+1
  5740  0485  0AF6               	incf	??_memset,f
  5741  0486  1903               	skipnz
  5742  0487  0AF7               	incf	??_memset+1,f
  5743  0488  3003               	movlw	3
  5744  0489  0576               	andwf	??_memset,w
  5745  048A  00FA               	movwf	memset@k
  5746  048B  3000               	movlw	0
  5747  048C  0577               	andwf	??_memset+1,w
  5748  048D  00FB               	movwf	memset@k+1
  5749  048E                     l4537:
  5750  048E  087A               	movf	memset@k,w
  5751  048F  07FC               	addwf	memset@s,f
  5752  0490  087B               	movf	memset@k+1,w
  5753  0491  3DFD               	addwfc	memset@s+1,f
  5754  0492                     l4539:
  5755  0492  087A               	movf	memset@k,w
  5756  0493  02F4               	subwf	memset@n,f
  5757  0494  087B               	movf	memset@k+1,w
  5758  0495  3BF5               	subwfb	memset@n+1,f
  5759  0496                     l4541:
  5760  0496  30FC               	movlw	252
  5761  0497  05F4               	andwf	memset@n,f
  5762  0498  30FF               	movlw	255
  5763  0499  05F5               	andwf	memset@n+1,f
  5764  049A  2CA9               	goto	l4549
  5765  049B                     l4543:
  5766  049B  087C               	movf	memset@s,w
  5767  049C  0086               	movwf	6
  5768  049D  087D               	movf	memset@s+1,w
  5769  049E  0087               	movwf	7
  5770  049F  0872               	movf	memset@c,w
  5771  04A0  0081               	movwf	1
  5772  04A1                     l4545:
  5773  04A1  3001               	movlw	1
  5774  04A2  02F4               	subwf	memset@n,f
  5775  04A3  3000               	movlw	0
  5776  04A4  3BF5               	subwfb	memset@n+1,f
  5777  04A5                     l4547:
  5778  04A5  3001               	movlw	1
  5779  04A6  07FC               	addwf	memset@s,f
  5780  04A7  3000               	movlw	0
  5781  04A8  3DFD               	addwfc	memset@s+1,f
  5782  04A9                     l4549:
  5783  04A9  0874               	movf	memset@n,w
  5784  04AA  0475               	iorwf	memset@n+1,w
  5785  04AB  1D03               	btfss	3,2
  5786  04AC  2CAE               	goto	u3351
  5787  04AD  2CAF               	goto	u3350
  5788  04AE                     u3351:
  5789  04AE  2C9B               	goto	l4543
  5790  04AF                     u3350:
  5791  04AF                     l1303:
  5792  04AF  0008               	return
  5793  04B0                     __end_of_memset:
  5794                           
  5795                           	psect	text16
  5796  0CAD                     __ptext16:	
  5797 ;; *************** function _USBStdGetStatusHandler *****************
  5798 ;; Defined at:
  5799 ;;		line 2133 in file "lib/usb/usb_device.c"
  5800 ;; Parameters:    Size  Location     Type
  5801 ;;		None
  5802 ;; Auto vars:     Size  Location     Type
  5803 ;;  p               2    2[COMMON] PTR struct __BDT
  5804 ;;		 -> RAM(4096), NULL(0), BDT(64), 
  5805 ;; Return value:  Size  Location     Type
  5806 ;;                  1    wreg      void 
  5807 ;; Registers used:
  5808 ;;		wreg, fsr0l, fsr0h, fsr1l, fsr1h, status,2, status,0
  5809 ;; Tracked objects:
  5810 ;;		On entry : 0/0
  5811 ;;		On exit  : 0/0
  5812 ;;		Unchanged: 0/0
  5813 ;; Data sizes:     COMMON   BANK1   BANK2   BANK3  BANK4h  BANK4l   BANK5   BANK6   BANK7   BANK8   BANK9  BANK10  BANK1
      +1  BANK12
  5814 ;;      Params:         0       0       0       0       0       0       0       0       0       0       0       0       
      +0       0
  5815 ;;      Locals:         2       0       0       0       0       0       0       0       0       0       0       0       
      +0       0
  5816 ;;      Temps:          2       0       0       0       0       0       0       0       0       0       0       0       
      +0       0
  5817 ;;      Totals:         4       0       0       0       0       0       0       0       0       0       0       0       
      +0       0
  5818 ;;Total ram usage:        4 bytes
  5819 ;; Hardware stack levels used: 1
  5820 ;; Hardware stack levels required when called: 1
  5821 ;; This function calls:
  5822 ;;		Nothing
  5823 ;; This function is called by:
  5824 ;;		_USBCheckStdRequest
  5825 ;; This function uses a non-reentrant model
  5826 ;;
  5827                           
  5828  0CAD                     _USBStdGetStatusHandler:	
  5829                           ;psect for function _USBStdGetStatusHandler
  5830                           
  5831  0CAD                     l3423:	
  5832                           ;incstack = 0
  5833                           ; Regs used in _USBStdGetStatusHandler: [wreg-fsr1h+status,2+status,0]
  5834                           
  5835                           
  5836                           ;lib/usb/usb_device.c: 2135:     CtrlTrfData[0] = 0;
  5837  0CAD  0020               	movlb	0	; select bank0
  5838  0CAE  01E8               	clrf	104	;volatile
  5839                           
  5840                           ;lib/usb/usb_device.c: 2136:     CtrlTrfData[1] = 0;
  5841  0CAF  01E9               	clrf	105	;volatile
  5842                           
  5843                           ;lib/usb/usb_device.c: 2138:     switch(SetupPkt.Recipient)
  5844  0CB0  2CF7               	goto	l3447
  5845  0CB1                     l300:	
  5846                           ;lib/usb/usb_device.c: 2139:     {;lib/usb/usb_device.c: 2140:         case (0x00):
  5847                           
  5848                           
  5849                           ;lib/usb/usb_device.c: 2141:             inPipes[0].info.bits.busy = 1;
  5850  0CB1  0021               	movlb	1	; select bank1
  5851  0CB2  17BA               	bsf	(_inPipes^(0+128)+2),7
  5852  0CB3                     l3427:	
  5853                           ;lib/usb/usb_device.c: 2146:             if(0 == 1)
  5854                           
  5855                           
  5856                           ;lib/usb/usb_device.c: 2151:             if(RemoteWakeup == 1)
  5857  0CB3  034E               	decf	_RemoteWakeup^(0+128),w
  5858  0CB4  1D03               	btfss	3,2
  5859  0CB5  2CB7               	goto	u2161
  5860  0CB6  2CB8               	goto	u2160
  5861  0CB7                     u2161:
  5862  0CB7  2D0B               	goto	l303
  5863  0CB8                     u2160:
  5864  0CB8                     l3429:
  5865                           
  5866                           ;lib/usb/usb_device.c: 2152:             {;lib/usb/usb_device.c: 2153:                 C
      +                          trlTrfData[0]|=0x02;
  5867  0CB8  0020               	movlb	0	; select bank0
  5868  0CB9  14E8               	bsf	104,1	;volatile
  5869  0CBA  2D0B               	goto	l303
  5870  0CBB                     l304:	
  5871                           ;lib/usb/usb_device.c: 2156:         case (0x01):
  5872                           
  5873                           
  5874                           ;lib/usb/usb_device.c: 2157:             inPipes[0].info.bits.busy = 1;
  5875  0CBB  0021               	movlb	1	; select bank1
  5876  0CBC  17BA               	bsf	(_inPipes^(0+128)+2),7
  5877                           
  5878                           ;lib/usb/usb_device.c: 2158:             break;
  5879  0CBD  2D0B               	goto	l303
  5880  0CBE                     l305:	
  5881                           ;lib/usb/usb_device.c: 2159:         case (0x02):
  5882                           
  5883                           
  5884                           ;lib/usb/usb_device.c: 2160:             inPipes[0].info.bits.busy = 1;
  5885  0CBE  0021               	movlb	1	; select bank1
  5886  0CBF  17BA               	bsf	(_inPipes^(0+128)+2),7
  5887  0CC0                     l3431:
  5888                           
  5889                           ;lib/usb/usb_device.c: 2164:             if(SetupPkt.EPNum != 0)
  5890  0CC0  0020               	movlb	0	; select bank0
  5891  0CC1  0864               	movf	100,w	;volatile
  5892  0CC2  390F               	andlw	15
  5893  0CC3  3A00               	xorlw	0
  5894  0CC4  1903               	skipnz
  5895  0CC5  2CC7               	goto	u2171
  5896  0CC6  2CC8               	goto	u2170
  5897  0CC7                     u2171:
  5898  0CC7  2D0B               	goto	l303
  5899  0CC8                     u2170:
  5900  0CC8                     l3433:
  5901                           
  5902                           ;lib/usb/usb_device.c: 2165:             {;lib/usb/usb_device.c: 2166:                 B
      +                          DT_ENTRY *p;;lib/usb/usb_device.c: 2168:                 if(SetupPkt.EPDir == 0)
  5903  0CC8  1BE4               	btfsc	100,7	;volatile
  5904  0CC9  2CCB               	goto	u2181
  5905  0CCA  2CCC               	goto	u2180
  5906  0CCB                     u2181:
  5907  0CCB  2CD8               	goto	l3437
  5908  0CCC                     u2180:
  5909  0CCC                     l3435:
  5910                           
  5911                           ;lib/usb/usb_device.c: 2169:                 {;lib/usb/usb_device.c: 2170:              
      +                                 p = (BDT_ENTRY*)pBDTEntryOut[SetupPkt.EPNum];
  5912  0CCC  0864               	movf	100,w	;volatile
  5913  0CCD  390F               	andlw	15
  5914  0CCE  0709               	addwf	9,w
  5915  0CCF  3E20               	addlw	(low (_pBDTEntryOut| (0+256)))& (0+255)
  5916  0CD0  0086               	movwf	6
  5917  0CD1  3001               	movlw	1	; select bank2/3
  5918  0CD2  0087               	movwf	7
  5919  0CD3  3F40               	moviw [0]fsr1
  5920  0CD4  00F2               	movwf	USBStdGetStatusHandler@p
  5921  0CD5  3F41               	moviw [1]fsr1
  5922  0CD6  00F3               	movwf	USBStdGetStatusHandler@p+1
  5923                           
  5924                           ;lib/usb/usb_device.c: 2171:                 }
  5925  0CD7  2CE2               	goto	l3439
  5926  0CD8                     l3437:
  5927                           
  5928                           ;lib/usb/usb_device.c: 2173:                 {;lib/usb/usb_device.c: 2174:              
      +                                 p = (BDT_ENTRY*)pBDTEntryIn[SetupPkt.EPNum];
  5929  0CD8  0864               	movf	100,w	;volatile
  5930  0CD9  390F               	andlw	15
  5931  0CDA  0709               	addwf	9,w
  5932  0CDB  3EB0               	addlw	(low (_pBDTEntryIn| 0))& (0+255)
  5933  0CDC  0086               	movwf	6
  5934  0CDD  0187               	clrf	7
  5935  0CDE  3F40               	moviw [0]fsr1
  5936  0CDF  00F2               	movwf	USBStdGetStatusHandler@p
  5937  0CE0  3F41               	moviw [1]fsr1
  5938  0CE1  00F3               	movwf	USBStdGetStatusHandler@p+1
  5939  0CE2                     l3439:
  5940                           
  5941                           ;lib/usb/usb_device.c: 2177:                 if((p->STAT.UOWN == 1) && (p->STAT.BSTALL =
      +                          = 1))
  5942  0CE2  0872               	movf	USBStdGetStatusHandler@p,w
  5943  0CE3  0086               	movwf	6
  5944  0CE4  0873               	movf	USBStdGetStatusHandler@p+1,w
  5945  0CE5  0087               	movwf	7
  5946  0CE6  1F81               	btfss	1,7
  5947  0CE7  2CE9               	goto	u2191
  5948  0CE8  2CEA               	goto	u2190
  5949  0CE9                     u2191:
  5950  0CE9  2D0B               	goto	l303
  5951  0CEA                     u2190:
  5952  0CEA                     l3441:
  5953  0CEA  0872               	movf	USBStdGetStatusHandler@p,w
  5954  0CEB  0086               	movwf	6
  5955  0CEC  0873               	movf	USBStdGetStatusHandler@p+1,w
  5956  0CED  0087               	movwf	7
  5957  0CEE  1D01               	btfss	1,2
  5958  0CEF  2CF1               	goto	u2201
  5959  0CF0  2CF2               	goto	u2200
  5960  0CF1                     u2201:
  5961  0CF1  2D0B               	goto	l303
  5962  0CF2                     u2200:
  5963  0CF2                     l3443:
  5964                           
  5965                           ;lib/usb/usb_device.c: 2178:                 {;lib/usb/usb_device.c: 2179:              
      +                                 CtrlTrfData[0]=0x01;
  5966  0CF2  3001               	movlw	1
  5967  0CF3  00F0               	movwf	??_USBStdGetStatusHandler
  5968  0CF4  0870               	movf	??_USBStdGetStatusHandler,w
  5969  0CF5  00E8               	movwf	104	;volatile
  5970  0CF6  2D0B               	goto	l303
  5971  0CF7                     l3447:
  5972  0CF7  0860               	movf	96,w	;volatile
  5973  0CF8  391F               	andlw	31
  5974  0CF9  00F0               	movwf	??_USBStdGetStatusHandler
  5975  0CFA  01F1               	clrf	??_USBStdGetStatusHandler+1
  5976                           
  5977                           ; Switch on 2 bytes has been partitioned into a top level switch of size 1, and 1 sub-sw
      +                          itches
  5978                           ; Switch size 1, requested type "simple"
  5979                           ; Number of cases is 1, Range of values is 0 to 0
  5980                           ; switch strategies available:
  5981                           ; Name         Instructions Cycles
  5982                           ; simple_byte            4     3 (average)
  5983                           ; direct_byte            8     6 (fixed)
  5984                           ; jumptable            260     6 (fixed)
  5985                           ;	Chosen strategy is simple_byte
  5986  0CFB  0871               	movf	??_USBStdGetStatusHandler+1,w
  5987  0CFC  3A00               	xorlw	0	; case 0
  5988  0CFD  1903               	skipnz
  5989  0CFE  2D00               	goto	l5137
  5990  0CFF  2D0B               	goto	l303
  5991  0D00                     l5137:
  5992                           
  5993                           ; Switch size 1, requested type "simple"
  5994                           ; Number of cases is 3, Range of values is 0 to 2
  5995                           ; switch strategies available:
  5996                           ; Name         Instructions Cycles
  5997                           ; simple_byte           10     6 (average)
  5998                           ; direct_byte           12     6 (fixed)
  5999                           ; jumptable            260     6 (fixed)
  6000                           ;	Chosen strategy is simple_byte
  6001  0D00  0870               	movf	??_USBStdGetStatusHandler,w
  6002  0D01  3A00               	xorlw	0	; case 0
  6003  0D02  1903               	skipnz
  6004  0D03  2CB1               	goto	l300
  6005  0D04  3A01               	xorlw	1	; case 1
  6006  0D05  1903               	skipnz
  6007  0D06  2CBB               	goto	l304
  6008  0D07  3A03               	xorlw	3	; case 2
  6009  0D08  1903               	skipnz
  6010  0D09  2CBE               	goto	l305
  6011  0D0A  2D0B               	goto	l303
  6012  0D0B                     l303:
  6013                           
  6014                           ;lib/usb/usb_device.c: 2185:     if(inPipes[0].info.bits.busy == 1)
  6015  0D0B  0021               	movlb	1	; select bank1
  6016  0D0C  1FBA               	btfss	(_inPipes^(0+128)+2),7
  6017  0D0D  2D0F               	goto	u2211
  6018  0D0E  2D10               	goto	u2210
  6019  0D0F                     u2211:
  6020  0D0F  2D19               	goto	l311
  6021  0D10                     u2210:
  6022  0D10                     l3449:
  6023                           
  6024                           ;lib/usb/usb_device.c: 2186:     {;lib/usb/usb_device.c: 2187:         inPipes[0].pSrc.b
      +                          Ram = (uint8_t*)&CtrlTrfData;
  6025  0D10  3068               	movlw	104
  6026  0D11  00B8               	movwf	_inPipes^(0+128)
  6027  0D12  3000               	movlw	0
  6028  0D13  00B9               	movwf	(_inPipes+1)^(0+128)
  6029  0D14                     l3451:
  6030                           
  6031                           ;lib/usb/usb_device.c: 2188:         inPipes[0].info.bits.ctrl_trf_mem = 0x01;
  6032  0D14  143A               	bsf	(_inPipes^(0+128)+2),0
  6033  0D15                     l3453:
  6034                           
  6035                           ;lib/usb/usb_device.c: 2189:         inPipes[0].wCount.v[0] = 2;
  6036  0D15  3002               	movlw	2
  6037  0D16  00F0               	movwf	??_USBStdGetStatusHandler
  6038  0D17  0870               	movf	??_USBStdGetStatusHandler,w
  6039  0D18  00BB               	movwf	(_inPipes^(0+128)+3)
  6040  0D19                     l311:
  6041  0D19  0008               	return
  6042  0D1A                     __end_of_USBStdGetStatusHandler:
  6043                           
  6044                           	psect	text17
  6045  0EF5                     __ptext17:	
  6046 ;; *************** function _USBStdGetDscHandler *****************
  6047 ;; Defined at:
  6048 ;;		line 2047 in file "lib/usb/usb_device.c"
  6049 ;; Parameters:    Size  Location     Type
  6050 ;;		None
  6051 ;; Auto vars:     Size  Location     Type
  6052 ;;		None
  6053 ;; Return value:  Size  Location     Type
  6054 ;;                  1    wreg      void 
  6055 ;; Registers used:
  6056 ;;		wreg, fsr0l, fsr0h, status,2, status,0, pclath
  6057 ;; Tracked objects:
  6058 ;;		On entry : 0/0
  6059 ;;		On exit  : 0/0
  6060 ;;		Unchanged: 0/0
  6061 ;; Data sizes:     COMMON   BANK1   BANK2   BANK3  BANK4h  BANK4l   BANK5   BANK6   BANK7   BANK8   BANK9  BANK10  BANK1
      +1  BANK12
  6062 ;;      Params:         0       0       0       0       0       0       0       0       0       0       0       0       
      +0       0
  6063 ;;      Locals:         0       0       0       0       0       0       0       0       0       0       0       0       
      +0       0
  6064 ;;      Temps:          3       0       0       0       0       0       0       0       0       0       0       0       
      +0       0
  6065 ;;      Totals:         3       0       0       0       0       0       0       0       0       0       0       0       
      +0       0
  6066 ;;Total ram usage:        3 bytes
  6067 ;; Hardware stack levels used: 1
  6068 ;; Hardware stack levels required when called: 1
  6069 ;; This function calls:
  6070 ;;		Nothing
  6071 ;; This function is called by:
  6072 ;;		_USBCheckStdRequest
  6073 ;; This function uses a non-reentrant model
  6074 ;;
  6075                           
  6076  0EF5                     _USBStdGetDscHandler:	
  6077                           ;psect for function _USBStdGetDscHandler
  6078                           
  6079  0EF5                     l3389:	
  6080                           ;incstack = 0
  6081                           ; Regs used in _USBStdGetDscHandler: [wreg-fsr0h+status,2+status,0+pclath]
  6082                           
  6083                           
  6084                           ;lib/usb/usb_device.c: 2049:     if(SetupPkt.bmRequestType == 0x80)
  6085  0EF5  3080               	movlw	128
  6086  0EF6  0020               	movlb	0	; select bank0
  6087  0EF7  0660               	xorwf	96,w	;volatile
  6088  0EF8  1D03               	btfss	3,2
  6089  0EF9  2EFB               	goto	u2131
  6090  0EFA  2EFC               	goto	u2130
  6091  0EFB                     u2131:
  6092  0EFB  2F79               	goto	l296
  6093  0EFC                     u2130:
  6094  0EFC                     l3391:
  6095                           
  6096                           ;lib/usb/usb_device.c: 2050:     {;lib/usb/usb_device.c: 2051:         inPipes[0].info.V
      +                          al = 0x00 | 0x80 | 0x40;
  6097  0EFC  30C0               	movlw	192
  6098  0EFD  00F0               	movwf	??_USBStdGetDscHandler
  6099  0EFE  0870               	movf	??_USBStdGetDscHandler,w
  6100  0EFF  0021               	movlb	1	; select bank1
  6101  0F00  00BA               	movwf	(_inPipes^(0+128)+2)
  6102                           
  6103                           ;lib/usb/usb_device.c: 2053:         switch(SetupPkt.bDescriptorType)
  6104  0F01  2F65               	goto	l3417
  6105  0F02                     l3393:
  6106                           
  6107                           ;lib/usb/usb_device.c: 2059:                     inPipes[0].pSrc.bRom = (const uint8_t*)
      +                          &device_dsc;
  6108  0F02  3042               	movlw	low (_device_dsc| (0+32768))
  6109  0F03  0021               	movlb	1	; select bank1
  6110  0F04  00B8               	movwf	_inPipes^(0+128)
  6111  0F05  3091               	movlw	high (_device_dsc| (0+32768))
  6112  0F06  00B9               	movwf	(_inPipes^(0+128)+1)
  6113                           
  6114                           ;lib/usb/usb_device.c: 2061:                 inPipes[0].wCount.Val = sizeof(device_dsc);
  6115  0F07  3012               	movlw	18
  6116  0F08  00BB               	movwf	(_inPipes^(0+128)+3)
  6117  0F09  3000               	movlw	0
  6118  0F0A  00BC               	movwf	(_inPipes^(0+128)+4)
  6119                           
  6120                           ;lib/usb/usb_device.c: 2062:                 break;
  6121  0F0B  2F79               	goto	l296
  6122  0F0C                     l3395:
  6123                           
  6124                           ;lib/usb/usb_device.c: 2067:                 if(SetupPkt.bDscIndex < 1)
  6125  0F0C  0862               	movf	98,w	;volatile
  6126  0F0D  1D03               	btfss	3,2
  6127  0F0E  2F10               	goto	u2141
  6128  0F0F  2F11               	goto	u2140
  6129  0F10                     u2141:
  6130  0F10  2F40               	goto	l3403
  6131  0F11                     u2140:
  6132  0F11                     l3397:
  6133                           
  6134                           ;lib/usb/usb_device.c: 2068:                 {;lib/usb/usb_device.c: 2072:              
      +                                     inPipes[0].pSrc.bRom = *(USB_CD_Ptr+SetupPkt.bDscIndex);
  6135  0F11  0862               	movf	98,w	;volatile
  6136  0F12  00F0               	movwf	??_USBStdGetDscHandler
  6137  0F13  01F1               	clrf	??_USBStdGetDscHandler+1
  6138  0F14  35F0               	lslf	??_USBStdGetDscHandler,f
  6139  0F15  0DF1               	rlf	??_USBStdGetDscHandler+1,f
  6140  0F16  305E               	movlw	low (_USB_CD_Ptr| (0+32768))
  6141  0F17  0770               	addwf	??_USBStdGetDscHandler,w
  6142  0F18  0084               	movwf	4
  6143  0F19  3091               	movlw	high (_USB_CD_Ptr| (0+32768))
  6144  0F1A  3D71               	addwfc	??_USBStdGetDscHandler+1,w
  6145  0F1B  0085               	movwf	5
  6146  0F1C  3F00               	moviw [0]fsr0
  6147  0F1D  0021               	movlb	1	; select bank1
  6148  0F1E  00B8               	movwf	_inPipes^(0+128)
  6149  0F1F  3F01               	moviw [1]fsr0
  6150  0F20  00B9               	movwf	(_inPipes+1)^(0+128)
  6151  0F21                     l3399:
  6152                           
  6153                           ;lib/usb/usb_device.c: 2078:                     inPipes[0].wCount.byte.LB = *(inPipes[0
      +                          ].pSrc.bRom+2);
  6154  0F21  0839               	movf	(_inPipes+1)^(0+128),w
  6155  0F22  00F1               	movwf	??_USBStdGetDscHandler+1
  6156  0F23  0838               	movf	_inPipes^(0+128),w
  6157  0F24  00F0               	movwf	??_USBStdGetDscHandler
  6158  0F25  3002               	movlw	2
  6159  0F26  0770               	addwf	??_USBStdGetDscHandler,w
  6160  0F27  0084               	movwf	4
  6161  0F28  0871               	movf	??_USBStdGetDscHandler+1,w
  6162  0F29  1803               	skipnc
  6163  0F2A  0A71               	incf	??_USBStdGetDscHandler+1,w
  6164  0F2B  0085               	movwf	5
  6165  0F2C  0800               	movf	0,w	;code access
  6166  0F2D  00F2               	movwf	??_USBStdGetDscHandler+2
  6167  0F2E  0872               	movf	??_USBStdGetDscHandler+2,w
  6168  0F2F  00BB               	movwf	(_inPipes^(0+128)+3)
  6169  0F30                     l3401:
  6170                           
  6171                           ;lib/usb/usb_device.c: 2079:                     inPipes[0].wCount.byte.HB = *(inPipes[0
      +                          ].pSrc.bRom+3);
  6172  0F30  0839               	movf	(_inPipes+1)^(0+128),w
  6173  0F31  00F1               	movwf	??_USBStdGetDscHandler+1
  6174  0F32  0838               	movf	_inPipes^(0+128),w
  6175  0F33  00F0               	movwf	??_USBStdGetDscHandler
  6176  0F34  3003               	movlw	3
  6177  0F35  0770               	addwf	??_USBStdGetDscHandler,w
  6178  0F36  0084               	movwf	4
  6179  0F37  0871               	movf	??_USBStdGetDscHandler+1,w
  6180  0F38  1803               	skipnc
  6181  0F39  0A71               	incf	??_USBStdGetDscHandler+1,w
  6182  0F3A  0085               	movwf	5
  6183  0F3B  0800               	movf	0,w	;code access
  6184  0F3C  00F2               	movwf	??_USBStdGetDscHandler+2
  6185  0F3D  0872               	movf	??_USBStdGetDscHandler+2,w
  6186  0F3E  00BC               	movwf	(_inPipes^(0+128)+4)
  6187                           
  6188                           ;lib/usb/usb_device.c: 2080:                 }
  6189  0F3F  2F79               	goto	l296
  6190  0F40                     l3403:
  6191                           
  6192                           ;lib/usb/usb_device.c: 2082:     {;lib/usb/usb_device.c: 2083:      inPipes[0].info.Val 
      +                          = 0;
  6193  0F40  0021               	movlb	1	; select bank1
  6194  0F41  01BA               	clrf	(_inPipes^(0+128)+2)
  6195  0F42  2F79               	goto	l296
  6196  0F43                     l3405:
  6197                           
  6198                           ;lib/usb/usb_device.c: 2090:                 if(SetupPkt.bDscIndex<3)
  6199  0F43  3003               	movlw	3
  6200  0F44  0262               	subwf	98,w	;volatile
  6201  0F45  1803               	skipnc
  6202  0F46  2F48               	goto	u2151
  6203  0F47  2F49               	goto	u2150
  6204  0F48                     u2151:
  6205  0F48  2F40               	goto	l3403
  6206  0F49                     u2150:
  6207  0F49                     l3407:
  6208                           
  6209                           ;lib/usb/usb_device.c: 2091:                 {;lib/usb/usb_device.c: 2093:              
      +                                 inPipes[0].pSrc.bRom = *(USB_SD_Ptr+SetupPkt.bDscIndex);
  6210  0F49  0862               	movf	98,w	;volatile
  6211  0F4A  00F0               	movwf	??_USBStdGetDscHandler
  6212  0F4B  01F1               	clrf	??_USBStdGetDscHandler+1
  6213  0F4C  35F0               	lslf	??_USBStdGetDscHandler,f
  6214  0F4D  0DF1               	rlf	??_USBStdGetDscHandler+1,f
  6215  0F4E  3054               	movlw	low (_USB_SD_Ptr| (0+32768))
  6216  0F4F  0770               	addwf	??_USBStdGetDscHandler,w
  6217  0F50  0084               	movwf	4
  6218  0F51  3091               	movlw	high (_USB_SD_Ptr| (0+32768))
  6219  0F52  3D71               	addwfc	??_USBStdGetDscHandler+1,w
  6220  0F53  0085               	movwf	5
  6221  0F54  3F00               	moviw [0]fsr0
  6222  0F55  0021               	movlb	1	; select bank1
  6223  0F56  00B8               	movwf	_inPipes^(0+128)
  6224  0F57  3F01               	moviw [1]fsr0
  6225  0F58  00B9               	movwf	(_inPipes+1)^(0+128)
  6226  0F59                     l3409:
  6227                           
  6228                           ;lib/usb/usb_device.c: 2095:                     inPipes[0].wCount.Val = *inPipes[0].pSr
      +                          c.bRom;
  6229  0F59  0838               	movf	_inPipes^(0+128),w
  6230  0F5A  0084               	movwf	4
  6231  0F5B  0839               	movf	(_inPipes+1)^(0+128),w
  6232  0F5C  0085               	movwf	5
  6233  0F5D  0800               	movf	0,w	;code access
  6234  0F5E  00F0               	movwf	??_USBStdGetDscHandler
  6235  0F5F  01F1               	clrf	??_USBStdGetDscHandler+1
  6236  0F60  0870               	movf	??_USBStdGetDscHandler,w
  6237  0F61  00BB               	movwf	(_inPipes^(0+128)+3)
  6238  0F62  0871               	movf	??_USBStdGetDscHandler+1,w
  6239  0F63  00BC               	movwf	((_inPipes+1)^(0+128)+3)
  6240                           
  6241                           ;lib/usb/usb_device.c: 2096:                 }
  6242  0F64  2F79               	goto	l296
  6243  0F65                     l3417:
  6244  0F65  0020               	movlb	0	; select bank0
  6245  0F66  0863               	movf	99,w	;volatile
  6246  0F67  00F0               	movwf	??_USBStdGetDscHandler
  6247  0F68  01F1               	clrf	??_USBStdGetDscHandler+1
  6248                           
  6249                           ; Switch on 2 bytes has been partitioned into a top level switch of size 1, and 1 sub-sw
      +                          itches
  6250                           ; Switch size 1, requested type "simple"
  6251                           ; Number of cases is 1, Range of values is 0 to 0
  6252                           ; switch strategies available:
  6253                           ; Name         Instructions Cycles
  6254                           ; simple_byte            4     3 (average)
  6255                           ; direct_byte            8     6 (fixed)
  6256                           ; jumptable            260     6 (fixed)
  6257                           ;	Chosen strategy is simple_byte
  6258  0F69  0871               	movf	??_USBStdGetDscHandler+1,w
  6259  0F6A  3A00               	xorlw	0	; case 0
  6260  0F6B  1903               	skipnz
  6261  0F6C  2F6E               	goto	l5139
  6262  0F6D  2F40               	goto	l3403
  6263  0F6E                     l5139:
  6264                           
  6265                           ; Switch size 1, requested type "simple"
  6266                           ; Number of cases is 3, Range of values is 1 to 3
  6267                           ; switch strategies available:
  6268                           ; Name         Instructions Cycles
  6269                           ; simple_byte           10     6 (average)
  6270                           ; direct_byte           15     9 (fixed)
  6271                           ; jumptable            263     9 (fixed)
  6272                           ;	Chosen strategy is simple_byte
  6273  0F6E  0870               	movf	??_USBStdGetDscHandler,w
  6274  0F6F  3A01               	xorlw	1	; case 1
  6275  0F70  1903               	skipnz
  6276  0F71  2F02               	goto	l3393
  6277  0F72  3A03               	xorlw	3	; case 2
  6278  0F73  1903               	skipnz
  6279  0F74  2F0C               	goto	l3395
  6280  0F75  3A01               	xorlw	1	; case 3
  6281  0F76  1903               	skipnz
  6282  0F77  2F43               	goto	l3405
  6283  0F78  2F40               	goto	l3403
  6284  0F79                     l296:
  6285  0F79  0008               	return
  6286  0F7A                     __end_of_USBStdGetDscHandler:
  6287                           
  6288                           	psect	text18
  6289  0039                     __ptext18:	
  6290 ;; *************** function _USBStdFeatureReqHandler *****************
  6291 ;; Defined at:
  6292 ;;		line 2761 in file "lib/usb/usb_device.c"
  6293 ;; Parameters:    Size  Location     Type
  6294 ;;		None
  6295 ;; Auto vars:     Size  Location     Type
  6296 ;;  p               2   11[BANK1 ] PTR struct __BDT
  6297 ;;		 -> RAM(4096), NULL(0), BDT(64), 
  6298 ;;  pUEP            2    8[BANK1 ] PTR unsigned char 
  6299 ;;		 -> UEP0(1), 
  6300 ;;  current_ep_d    1   10[BANK1 ] struct .
  6301 ;; Return value:  Size  Location     Type
  6302 ;;                  1    wreg      void 
  6303 ;; Registers used:
  6304 ;;		wreg, fsr0l, fsr0h, fsr1l, fsr1h, status,2, status,0, pclath, cstack
  6305 ;; Tracked objects:
  6306 ;;		On entry : 0/0
  6307 ;;		On exit  : 0/0
  6308 ;;		Unchanged: 0/0
  6309 ;; Data sizes:     COMMON   BANK1   BANK2   BANK3  BANK4h  BANK4l   BANK5   BANK6   BANK7   BANK8   BANK9  BANK10  BANK1
      +1  BANK12
  6310 ;;      Params:         0       0       0       0       0       0       0       0       0       0       0       0       
      +0       0
  6311 ;;      Locals:         0       5       0       0       0       0       0       0       0       0       0       0       
      +0       0
  6312 ;;      Temps:          0       2       0       0       0       0       0       0       0       0       0       0       
      +0       0
  6313 ;;      Totals:         0       7       0       0       0       0       0       0       0       0       0       0       
      +0       0
  6314 ;;Total ram usage:        7 bytes
  6315 ;; Hardware stack levels used: 1
  6316 ;; Hardware stack levels required when called: 5
  6317 ;; This function calls:
  6318 ;;		_USER_USB_CALLBACK_EVENT_HANDLER
  6319 ;; This function is called by:
  6320 ;;		_USBCheckStdRequest
  6321 ;; This function uses a non-reentrant model
  6322 ;;
  6323                           
  6324  0039                     _USBStdFeatureReqHandler:	
  6325                           ;psect for function _USBStdFeatureReqHandler
  6326                           
  6327  0039                     l3459:	
  6328                           ;incstack = 0
  6329                           ; Regs used in _USBStdFeatureReqHandler: [wreg-fsr1h+status,2+status,0+pclath+cstack]
  6330                           
  6331                           
  6332                           ;lib/usb/usb_device.c: 2763:     BDT_ENTRY *p;;lib/usb/usb_device.c: 2764:     EP_STATUS
      +                           current_ep_data;;lib/usb/usb_device.c: 2768:         unsigned char* pUEP;;lib/usb/usb_d
      +                          evice.c: 2772:     if((SetupPkt.bFeature == 1)&&
  6333  0039  0020               	movlb	0	; select bank0
  6334  003A  0362               	decf	98,w	;volatile
  6335  003B  1D03               	btfss	3,2
  6336  003C  283E               	goto	u2221
  6337  003D  283F               	goto	u2220
  6338  003E                     u2221:
  6339  003E  2855               	goto	l3471
  6340  003F                     u2220:
  6341  003F                     l3461:
  6342  003F  0860               	movf	96,w	;volatile
  6343  0040  391F               	andlw	31
  6344  0041  3A00               	xorlw	0
  6345  0042  1D03               	skipz
  6346  0043  2845               	goto	u2231
  6347  0044  2846               	goto	u2230
  6348  0045                     u2231:
  6349  0045  2855               	goto	l3471
  6350  0046                     u2230:
  6351  0046                     l3463:
  6352                           
  6353                           ;lib/usb/usb_device.c: 2774:     {;lib/usb/usb_device.c: 2775:         inPipes[0].info.b
      +                          its.busy = 1;
  6354  0046  0021               	movlb	1	; select bank1
  6355  0047  17BA               	bsf	(_inPipes^(0+128)+2),7
  6356  0048                     l3465:
  6357                           
  6358                           ;lib/usb/usb_device.c: 2776:         if(SetupPkt.bRequest == 3)
  6359  0048  3003               	movlw	3
  6360  0049  0020               	movlb	0	; select bank0
  6361  004A  0661               	xorwf	97,w	;volatile
  6362  004B  1D03               	btfss	3,2
  6363  004C  284E               	goto	u2241
  6364  004D  284F               	goto	u2240
  6365  004E                     u2241:
  6366  004E  2853               	goto	l3469
  6367  004F                     u2240:
  6368  004F                     l3467:
  6369                           
  6370                           ;lib/usb/usb_device.c: 2777:             RemoteWakeup = 1;
  6371  004F  0021               	movlb	1	; select bank1
  6372  0050  01CE               	clrf	_RemoteWakeup^(0+128)
  6373  0051  0ACE               	incf	_RemoteWakeup^(0+128),f
  6374  0052  2855               	goto	l3471
  6375  0053                     l3469:
  6376                           
  6377                           ;lib/usb/usb_device.c: 2779:             RemoteWakeup = 0;
  6378  0053  0021               	movlb	1	; select bank1
  6379  0054  01CE               	clrf	_RemoteWakeup^(0+128)
  6380  0055                     l3471:
  6381                           
  6382                           ;lib/usb/usb_device.c: 2783:     if((SetupPkt.bFeature == 0)&&
  6383  0055  0020               	movlb	0	; select bank0
  6384  0056  0862               	movf	98,w	;volatile
  6385  0057  1D03               	btfss	3,2
  6386  0058  285A               	goto	u2251
  6387  0059  285B               	goto	u2250
  6388  005A                     u2251:
  6389  005A  299F               	goto	l401
  6390  005B                     u2250:
  6391  005B                     l3473:
  6392  005B  0860               	movf	96,w	;volatile
  6393  005C  391F               	andlw	31
  6394  005D  3A02               	xorlw	2
  6395  005E  1D03               	skipz
  6396  005F  2861               	goto	u2261
  6397  0060  2862               	goto	u2260
  6398  0061                     u2261:
  6399  0061  299F               	goto	l401
  6400  0062                     u2260:
  6401  0062                     l3475:
  6402  0062  0864               	movf	100,w	;volatile
  6403  0063  390F               	andlw	15
  6404  0064  3A00               	xorlw	0
  6405  0065  1903               	skipnz
  6406  0066  2868               	goto	u2271
  6407  0067  2869               	goto	u2270
  6408  0068                     u2271:
  6409  0068  299F               	goto	l401
  6410  0069                     u2270:
  6411  0069                     l3477:
  6412  0069  0864               	movf	100,w	;volatile
  6413  006A  390F               	andlw	15
  6414  006B  0021               	movlb	1	; select bank1
  6415  006C  00DE               	movwf	??_USBStdFeatureReqHandler^(0+128)
  6416  006D  3004               	movlw	4
  6417  006E  025E               	subwf	??_USBStdFeatureReqHandler^(0+128),w
  6418  006F  1803               	skipnc
  6419  0070  2872               	goto	u2281
  6420  0071  2873               	goto	u2280
  6421  0072                     u2281:
  6422  0072  299F               	goto	l401
  6423  0073                     u2280:
  6424  0073                     l3479:
  6425  0073  3020               	movlw	32
  6426  0074  0653               	xorwf	_USBDeviceState^(0+128),w
  6427  0075  1D03               	btfss	3,2
  6428  0076  2878               	goto	u2291
  6429  0077  2879               	goto	u2290
  6430  0078                     u2291:
  6431  0078  299F               	goto	l401
  6432  0079                     u2290:
  6433  0079                     l3481:
  6434                           
  6435                           ;lib/usb/usb_device.c: 2787:     {;lib/usb/usb_device.c: 2790:   inPipes[0].info.bits.bu
      +                          sy = 1;
  6436  0079  17BA               	bsf	(_inPipes^(0+128)+2),7
  6437                           
  6438                           ;lib/usb/usb_device.c: 2793:         if(SetupPkt.EPDir == 0)
  6439  007A  0020               	movlb	0	; select bank0
  6440  007B  1BE4               	btfsc	100,7	;volatile
  6441  007C  287E               	goto	u2301
  6442  007D  287F               	goto	u2300
  6443  007E                     u2301:
  6444  007E  2898               	goto	l3485
  6445  007F                     u2300:
  6446  007F                     l3483:
  6447                           
  6448                           ;lib/usb/usb_device.c: 2794:         {;lib/usb/usb_device.c: 2795:             p = (BDT_
      +                          ENTRY*)pBDTEntryOut[SetupPkt.EPNum];
  6449  007F  0864               	movf	100,w	;volatile
  6450  0080  390F               	andlw	15
  6451  0081  0709               	addwf	9,w
  6452  0082  3E20               	addlw	(low (_pBDTEntryOut| (0+256)))& (0+255)
  6453  0083  0086               	movwf	6
  6454  0084  3001               	movlw	1	; select bank2/3
  6455  0085  0087               	movwf	7
  6456  0086  3F40               	moviw [0]fsr1
  6457  0087  0021               	movlb	1	; select bank1
  6458  0088  00E3               	movwf	USBStdFeatureReqHandler@p^(0+128)
  6459  0089  3F41               	moviw [1]fsr1
  6460  008A  00E4               	movwf	(USBStdFeatureReqHandler@p+1)^(0+128)
  6461                           
  6462                           ;lib/usb/usb_device.c: 2796:             current_ep_data.Val = ep_data_out[SetupPkt.EPNu
      +                          m].Val;
  6463  008B  0020               	movlb	0	; select bank0
  6464  008C  0864               	movf	100,w	;volatile
  6465  008D  390F               	andlw	15
  6466  008E  3E33               	addlw	(low (_ep_data_out| (0+256)))& (0+255)
  6467  008F  0086               	movwf	6
  6468  0090  3001               	movlw	1	; select bank2/3
  6469  0091  0087               	movwf	7
  6470  0092  0801               	movf	1,w
  6471  0093  0021               	movlb	1	; select bank1
  6472  0094  00DE               	movwf	??_USBStdFeatureReqHandler^(0+128)
  6473  0095  085E               	movf	??_USBStdFeatureReqHandler^(0+128),w
  6474  0096  00E2               	movwf	USBStdFeatureReqHandler@current_ep_data^(0+128)
  6475                           
  6476                           ;lib/usb/usb_device.c: 2797:         }
  6477  0097  28AF               	goto	l3487
  6478  0098                     l3485:
  6479                           
  6480                           ;lib/usb/usb_device.c: 2799:         {;lib/usb/usb_device.c: 2800:             p = (BDT_
      +                          ENTRY*)pBDTEntryIn[SetupPkt.EPNum];
  6481  0098  0864               	movf	100,w	;volatile
  6482  0099  390F               	andlw	15
  6483  009A  0709               	addwf	9,w
  6484  009B  3EB0               	addlw	(low (_pBDTEntryIn| 0))& (0+255)
  6485  009C  0086               	movwf	6
  6486  009D  0187               	clrf	7
  6487  009E  3F40               	moviw [0]fsr1
  6488  009F  0021               	movlb	1	; select bank1
  6489  00A0  00E3               	movwf	USBStdFeatureReqHandler@p^(0+128)
  6490  00A1  3F41               	moviw [1]fsr1
  6491  00A2  00E4               	movwf	(USBStdFeatureReqHandler@p+1)^(0+128)
  6492                           
  6493                           ;lib/usb/usb_device.c: 2801:             current_ep_data.Val = ep_data_in[SetupPkt.EPNum
      +                          ].Val;
  6494  00A3  0020               	movlb	0	; select bank0
  6495  00A4  0864               	movf	100,w	;volatile
  6496  00A5  390F               	andlw	15
  6497  00A6  3E37               	addlw	(low (_ep_data_in| (0+256)))& (0+255)
  6498  00A7  0086               	movwf	6
  6499  00A8  3001               	movlw	1	; select bank2/3
  6500  00A9  0087               	movwf	7
  6501  00AA  0801               	movf	1,w
  6502  00AB  0021               	movlb	1	; select bank1
  6503  00AC  00DE               	movwf	??_USBStdFeatureReqHandler^(0+128)
  6504  00AD  085E               	movf	??_USBStdFeatureReqHandler^(0+128),w
  6505  00AE  00E2               	movwf	USBStdFeatureReqHandler@current_ep_data^(0+128)
  6506  00AF                     l3487:
  6507                           
  6508                           ;lib/usb/usb_device.c: 2808:             if(current_ep_data.bits.ping_pong_state == 0)
  6509  00AF  1862               	btfsc	USBStdFeatureReqHandler@current_ep_data^(0+128),0
  6510  00B0  28B2               	goto	u2311
  6511  00B1  28B3               	goto	u2310
  6512  00B2                     u2311:
  6513  00B2  28BE               	goto	l3491
  6514  00B3                     u2310:
  6515  00B3                     l3489:
  6516                           
  6517                           ;lib/usb/usb_device.c: 2809:             {;lib/usb/usb_device.c: 2810:                 p
      +                           = (BDT_ENTRY*)(((uint16_t)(p)) & (~0x0004u));
  6518  00B3  30FB               	movlw	251
  6519  00B4  00DE               	movwf	??_USBStdFeatureReqHandler^(0+128)
  6520  00B5  30FF               	movlw	255
  6521  00B6  00DF               	movwf	(??_USBStdFeatureReqHandler^(0+128)+1)
  6522  00B7  0863               	movf	USBStdFeatureReqHandler@p^(0+128),w
  6523  00B8  055E               	andwf	??_USBStdFeatureReqHandler^(0+128),w
  6524  00B9  00E3               	movwf	USBStdFeatureReqHandler@p^(0+128)
  6525  00BA  0864               	movf	(USBStdFeatureReqHandler@p+1)^(0+128),w
  6526  00BB  055F               	andwf	(??_USBStdFeatureReqHandler+1)^(0+128),w
  6527  00BC  00E4               	movwf	(USBStdFeatureReqHandler@p+1)^(0+128)
  6528                           
  6529                           ;lib/usb/usb_device.c: 2811:             }
  6530  00BD  28C4               	goto	l3493
  6531  00BE                     l3491:
  6532                           
  6533                           ;lib/usb/usb_device.c: 2813:             {;lib/usb/usb_device.c: 2814:                 p
      +                           = (BDT_ENTRY*)(((uint16_t)p) | 0x0004u);
  6534  00BE  3004               	movlw	4
  6535  00BF  0463               	iorwf	USBStdFeatureReqHandler@p^(0+128),w
  6536  00C0  00E3               	movwf	USBStdFeatureReqHandler@p^(0+128)
  6537  00C1  3000               	movlw	0
  6538  00C2  0464               	iorwf	(USBStdFeatureReqHandler@p+1)^(0+128),w
  6539  00C3  00E4               	movwf	(USBStdFeatureReqHandler@p+1)^(0+128)
  6540  00C4                     l3493:
  6541                           
  6542                           ;lib/usb/usb_device.c: 2820:         if(SetupPkt.EPDir == 0)
  6543  00C4  0020               	movlb	0	; select bank0
  6544  00C5  1BE4               	btfsc	100,7	;volatile
  6545  00C6  28C8               	goto	u2321
  6546  00C7  28C9               	goto	u2320
  6547  00C8                     u2321:
  6548  00C8  28D6               	goto	l3497
  6549  00C9                     u2320:
  6550  00C9                     l3495:
  6551                           
  6552                           ;lib/usb/usb_device.c: 2821:         {;lib/usb/usb_device.c: 2822:             pBDTEntry
      +                          Out[SetupPkt.EPNum] = (volatile BDT_ENTRY *)p;
  6553  00C9  0864               	movf	100,w	;volatile
  6554  00CA  390F               	andlw	15
  6555  00CB  0709               	addwf	9,w
  6556  00CC  3E20               	addlw	(low (_pBDTEntryOut| (0+256)))& (0+255)
  6557  00CD  0086               	movwf	6
  6558  00CE  3001               	movlw	1	; select bank2/3
  6559  00CF  0087               	movwf	7
  6560  00D0  0021               	movlb	1	; select bank1
  6561  00D1  0863               	movf	USBStdFeatureReqHandler@p^(0+128),w
  6562  00D2  3FC0               	movwi [0]fsr1
  6563  00D3  0864               	movf	(USBStdFeatureReqHandler@p+1)^(0+128),w
  6564  00D4  3FC1               	movwi [1]fsr1
  6565                           
  6566                           ;lib/usb/usb_device.c: 2823:         }
  6567  00D5  28E1               	goto	l3499
  6568  00D6                     l3497:
  6569                           
  6570                           ;lib/usb/usb_device.c: 2825:         {;lib/usb/usb_device.c: 2826:             pBDTEntry
      +                          In[SetupPkt.EPNum] = (volatile BDT_ENTRY *)p;
  6571  00D6  0864               	movf	100,w	;volatile
  6572  00D7  390F               	andlw	15
  6573  00D8  0709               	addwf	9,w
  6574  00D9  3EB0               	addlw	(low (_pBDTEntryIn| 0))& (0+255)
  6575  00DA  0086               	movwf	6
  6576  00DB  0187               	clrf	7
  6577  00DC  0021               	movlb	1	; select bank1
  6578  00DD  0863               	movf	USBStdFeatureReqHandler@p^(0+128),w
  6579  00DE  3FC0               	movwi [0]fsr1
  6580  00DF  0864               	movf	(USBStdFeatureReqHandler@p+1)^(0+128),w
  6581  00E0  3FC1               	movwi [1]fsr1
  6582  00E1                     l3499:
  6583                           
  6584                           ;lib/usb/usb_device.c: 2830:         if(SetupPkt.bRequest == 3)
  6585  00E1  3003               	movlw	3
  6586  00E2  0020               	movlb	0	; select bank0
  6587  00E3  0661               	xorwf	97,w	;volatile
  6588  00E4  1D03               	btfss	3,2
  6589  00E5  28E7               	goto	u2331
  6590  00E6  28E8               	goto	u2330
  6591  00E7                     u2331:
  6592  00E7  2911               	goto	l3513
  6593  00E8                     u2330:
  6594  00E8                     l3501:
  6595                           
  6596                           ;lib/usb/usb_device.c: 2831:         {;lib/usb/usb_device.c: 2832:             if(p->STA
      +                          T.UOWN == 1)
  6597  00E8  0021               	movlb	1	; select bank1
  6598  00E9  0863               	movf	USBStdFeatureReqHandler@p^(0+128),w
  6599  00EA  0086               	movwf	6
  6600  00EB  0864               	movf	(USBStdFeatureReqHandler@p+1)^(0+128),w
  6601  00EC  0087               	movwf	7
  6602  00ED  1F81               	btfss	1,7
  6603  00EE  28F0               	goto	u2341
  6604  00EF  28F1               	goto	u2340
  6605  00F0                     u2341:
  6606  00F0  2905               	goto	l3509
  6607  00F1                     u2340:
  6608  00F1                     l3503:
  6609                           
  6610                           ;lib/usb/usb_device.c: 2833:             {;lib/usb/usb_device.c: 2836:                 i
      +                          f(SetupPkt.EPDir == 0)
  6611  00F1  0020               	movlb	0	; select bank0
  6612  00F2  1BE4               	btfsc	100,7	;volatile
  6613  00F3  28F5               	goto	u2351
  6614  00F4  28F6               	goto	u2350
  6615  00F5                     u2351:
  6616  00F5  28FE               	goto	l3507
  6617  00F6                     u2350:
  6618  00F6                     l3505:
  6619                           
  6620                           ;lib/usb/usb_device.c: 2837:                 {;lib/usb/usb_device.c: 2838:              
      +                                 ep_data_out[SetupPkt.EPNum].bits.transfer_terminated = 1;
  6621  00F6  0864               	movf	100,w	;volatile
  6622  00F7  390F               	andlw	15
  6623  00F8  3E33               	addlw	(low (_ep_data_out| (0+256)))& (0+255)
  6624  00F9  0086               	movwf	6
  6625  00FA  3001               	movlw	1	; select bank2/3
  6626  00FB  0087               	movwf	7
  6627  00FC  1481               	bsf	1,1
  6628                           
  6629                           ;lib/usb/usb_device.c: 2839:                 }
  6630  00FD  2905               	goto	l3509
  6631  00FE                     l3507:
  6632                           
  6633                           ;lib/usb/usb_device.c: 2841:                 {;lib/usb/usb_device.c: 2842:              
      +                                 ep_data_in[SetupPkt.EPNum].bits.transfer_terminated = 1;
  6634  00FE  0864               	movf	100,w	;volatile
  6635  00FF  390F               	andlw	15
  6636  0100  3E37               	addlw	(low (_ep_data_in| (0+256)))& (0+255)
  6637  0101  0086               	movwf	6
  6638  0102  3001               	movlw	1	; select bank2/3
  6639  0103  0087               	movwf	7
  6640  0104  1481               	bsf	1,1
  6641  0105                     l3509:
  6642                           
  6643                           ;lib/usb/usb_device.c: 2847:             p->STAT.Val |= 0x04;
  6644  0105  0021               	movlb	1	; select bank1
  6645  0106  0863               	movf	USBStdFeatureReqHandler@p^(0+128),w
  6646  0107  0086               	movwf	6
  6647  0108  0864               	movf	(USBStdFeatureReqHandler@p+1)^(0+128),w
  6648  0109  0087               	movwf	7
  6649  010A  1501               	bsf	1,2
  6650  010B                     l3511:
  6651                           
  6652                           ;lib/usb/usb_device.c: 2848:             p->STAT.Val |= 0x80;
  6653  010B  0863               	movf	USBStdFeatureReqHandler@p^(0+128),w
  6654  010C  0086               	movwf	6
  6655  010D  0864               	movf	(USBStdFeatureReqHandler@p+1)^(0+128),w
  6656  010E  0087               	movwf	7
  6657  010F  1781               	bsf	1,7
  6658                           
  6659                           ;lib/usb/usb_device.c: 2849:         }
  6660  0110  299F               	goto	l401
  6661  0111                     l3513:
  6662                           
  6663                           ;lib/usb/usb_device.c: 2851:         {;lib/usb/usb_device.c: 2855:                 p = (
      +                          BDT_ENTRY*)(((uint16_t)p) ^ 0x0004u);
  6664  0111  3004               	movlw	4
  6665  0112  0021               	movlb	1	; select bank1
  6666  0113  0663               	xorwf	USBStdFeatureReqHandler@p^(0+128),w
  6667  0114  00E3               	movwf	USBStdFeatureReqHandler@p^(0+128)
  6668  0115  3000               	movlw	0
  6669  0116  0664               	xorwf	(USBStdFeatureReqHandler@p+1)^(0+128),w
  6670  0117  00E4               	movwf	(USBStdFeatureReqHandler@p+1)^(0+128)
  6671  0118                     l3515:
  6672                           
  6673                           ;lib/usb/usb_device.c: 2857:                 if(p->STAT.UOWN == 1)
  6674  0118  0863               	movf	USBStdFeatureReqHandler@p^(0+128),w
  6675  0119  0086               	movwf	6
  6676  011A  0864               	movf	(USBStdFeatureReqHandler@p+1)^(0+128),w
  6677  011B  0087               	movwf	7
  6678  011C  1F81               	btfss	1,7
  6679  011D  291F               	goto	u2361
  6680  011E  2920               	goto	u2360
  6681  011F                     u2361:
  6682  011F  293D               	goto	l3523
  6683  0120                     u2360:
  6684  0120                     l3517:
  6685                           
  6686                           ;lib/usb/usb_device.c: 2858:                 {;lib/usb/usb_device.c: 2861:              
      +                                 p->STAT.Val &= (~0x80);
  6687  0120  307F               	movlw	127
  6688  0121  00DE               	movwf	??_USBStdFeatureReqHandler^(0+128)
  6689  0122  0863               	movf	USBStdFeatureReqHandler@p^(0+128),w
  6690  0123  0086               	movwf	6
  6691  0124  0864               	movf	(USBStdFeatureReqHandler@p+1)^(0+128),w
  6692  0125  0087               	movwf	7
  6693  0126  085E               	movf	??_USBStdFeatureReqHandler^(0+128),w
  6694  0127  0581               	andwf	1,f
  6695  0128                     l3519:
  6696                           
  6697                           ;lib/usb/usb_device.c: 2862:                     p->STAT.Val |= 0x40;
  6698  0128  0863               	movf	USBStdFeatureReqHandler@p^(0+128),w
  6699  0129  0086               	movwf	6
  6700  012A  0864               	movf	(USBStdFeatureReqHandler@p+1)^(0+128),w
  6701  012B  0087               	movwf	7
  6702  012C  1701               	bsf	1,6
  6703  012D                     l3521:
  6704                           
  6705                           ;lib/usb/usb_device.c: 2863:                     USER_USB_CALLBACK_EVENT_HANDLER((USB_EV
      +                          ENT)EVENT_TRANSFER_TERMINATED,p,sizeof(p));
  6706  012D  3005               	movlw	5
  6707  012E  00D8               	movwf	USER_USB_CALLBACK_EVENT_HANDLER@event^(0+128)
  6708  012F  3000               	movlw	0
  6709  0130  00D9               	movwf	(USER_USB_CALLBACK_EVENT_HANDLER@event^(0+128)+1)
  6710  0131  0864               	movf	(USBStdFeatureReqHandler@p+1)^(0+128),w
  6711  0132  00DB               	movwf	(USER_USB_CALLBACK_EVENT_HANDLER@pdata+1)^(0+128)
  6712  0133  0863               	movf	USBStdFeatureReqHandler@p^(0+128),w
  6713  0134  00DA               	movwf	USER_USB_CALLBACK_EVENT_HANDLER@pdata^(0+128)
  6714  0135  3002               	movlw	2
  6715  0136  00DC               	movwf	USER_USB_CALLBACK_EVENT_HANDLER@size^(0+128)
  6716  0137  3000               	movlw	0
  6717  0138  00DD               	movwf	(USER_USB_CALLBACK_EVENT_HANDLER@size^(0+128)+1)
  6718  0139  318B  2309  3180   	fcall	_USER_USB_CALLBACK_EVENT_HANDLER
  6719                           
  6720                           ;lib/usb/usb_device.c: 2864:                 }
  6721  013C  2942               	goto	l3525
  6722  013D                     l3523:
  6723                           
  6724                           ;lib/usb/usb_device.c: 2866:                 {;lib/usb/usb_device.c: 2868:      p->STAT.
      +                          Val |= 0x40;
  6725  013D  0863               	movf	USBStdFeatureReqHandler@p^(0+128),w
  6726  013E  0086               	movwf	6
  6727  013F  0864               	movf	(USBStdFeatureReqHandler@p+1)^(0+128),w
  6728  0140  0087               	movwf	7
  6729  0141  1701               	bsf	1,6
  6730  0142                     l3525:
  6731                           
  6732                           ;lib/usb/usb_device.c: 2873:                 p = (BDT_ENTRY*)(((uint16_t)p) ^ 0x0004u);
  6733  0142  3004               	movlw	4
  6734  0143  0021               	movlb	1	; select bank1
  6735  0144  0663               	xorwf	USBStdFeatureReqHandler@p^(0+128),w
  6736  0145  00E3               	movwf	USBStdFeatureReqHandler@p^(0+128)
  6737  0146  3000               	movlw	0
  6738  0147  0664               	xorwf	(USBStdFeatureReqHandler@p+1)^(0+128),w
  6739  0148  00E4               	movwf	(USBStdFeatureReqHandler@p+1)^(0+128)
  6740  0149                     l3527:
  6741                           
  6742                           ;lib/usb/usb_device.c: 2879:                 if((current_ep_data.bits.transfer_terminate
      +                          d != 0) || (p->STAT.UOWN == 1))
  6743  0149  18E2               	btfsc	USBStdFeatureReqHandler@current_ep_data^(0+128),1
  6744  014A  294C               	goto	u2371
  6745  014B  294D               	goto	u2370
  6746  014C                     u2371:
  6747  014C  2955               	goto	l397
  6748  014D                     u2370:
  6749  014D                     l3529:
  6750  014D  0863               	movf	USBStdFeatureReqHandler@p^(0+128),w
  6751  014E  0086               	movwf	6
  6752  014F  0864               	movf	(USBStdFeatureReqHandler@p+1)^(0+128),w
  6753  0150  0087               	movwf	7
  6754  0151  1F81               	btfss	1,7
  6755  0152  2954               	goto	u2381
  6756  0153  2955               	goto	u2380
  6757  0154                     u2381:
  6758  0154  2982               	goto	l3537
  6759  0155                     u2380:
  6760  0155                     l397:
  6761                           
  6762                           ;lib/usb/usb_device.c: 2880:                 {;lib/usb/usb_device.c: 2881:              
      +                                 if(SetupPkt.EPDir == 0)
  6763  0155  0020               	movlb	0	; select bank0
  6764  0156  1BE4               	btfsc	100,7	;volatile
  6765  0157  2959               	goto	u2391
  6766  0158  295A               	goto	u2390
  6767  0159                     u2391:
  6768  0159  2962               	goto	l3533
  6769  015A                     u2390:
  6770  015A                     l3531:
  6771                           
  6772                           ;lib/usb/usb_device.c: 2882:                     {;lib/usb/usb_device.c: 2883:          
      +                                         ep_data_out[SetupPkt.EPNum].bits.transfer_terminated = 0;
  6773  015A  0864               	movf	100,w	;volatile
  6774  015B  390F               	andlw	15
  6775  015C  3E33               	addlw	(low (_ep_data_out| (0+256)))& (0+255)
  6776  015D  0086               	movwf	6
  6777  015E  3001               	movlw	1	; select bank2/3
  6778  015F  0087               	movwf	7
  6779  0160  1081               	bcf	1,1
  6780                           
  6781                           ;lib/usb/usb_device.c: 2884:                     }
  6782  0161  2969               	goto	l399
  6783  0162                     l3533:
  6784                           
  6785                           ;lib/usb/usb_device.c: 2886:                     {;lib/usb/usb_device.c: 2887:          
      +                                         ep_data_in[SetupPkt.EPNum].bits.transfer_terminated = 0;
  6786  0162  0864               	movf	100,w	;volatile
  6787  0163  390F               	andlw	15
  6788  0164  3E37               	addlw	(low (_ep_data_in| (0+256)))& (0+255)
  6789  0165  0086               	movwf	6
  6790  0166  3001               	movlw	1	; select bank2/3
  6791  0167  0087               	movwf	7
  6792  0168  1081               	bcf	1,1
  6793  0169                     l399:	
  6794                           ;lib/usb/usb_device.c: 2888:                     }
  6795                           
  6796                           
  6797                           ;lib/usb/usb_device.c: 2890:                     p->STAT.Val &= ~(0x80 | 0x40 | 0x04);
  6798  0169  303B               	movlw	59
  6799  016A  0021               	movlb	1	; select bank1
  6800  016B  00DE               	movwf	??_USBStdFeatureReqHandler^(0+128)
  6801  016C  0863               	movf	USBStdFeatureReqHandler@p^(0+128),w
  6802  016D  0086               	movwf	6
  6803  016E  0864               	movf	(USBStdFeatureReqHandler@p+1)^(0+128),w
  6804  016F  0087               	movwf	7
  6805  0170  085E               	movf	??_USBStdFeatureReqHandler^(0+128),w
  6806  0171  0581               	andwf	1,f
  6807  0172                     l3535:
  6808                           
  6809                           ;lib/usb/usb_device.c: 2893:                     USER_USB_CALLBACK_EVENT_HANDLER((USB_EV
      +                          ENT)EVENT_TRANSFER_TERMINATED,p,sizeof(p));
  6810  0172  3005               	movlw	5
  6811  0173  00D8               	movwf	USER_USB_CALLBACK_EVENT_HANDLER@event^(0+128)
  6812  0174  3000               	movlw	0
  6813  0175  00D9               	movwf	(USER_USB_CALLBACK_EVENT_HANDLER@event^(0+128)+1)
  6814  0176  0864               	movf	(USBStdFeatureReqHandler@p+1)^(0+128),w
  6815  0177  00DB               	movwf	(USER_USB_CALLBACK_EVENT_HANDLER@pdata+1)^(0+128)
  6816  0178  0863               	movf	USBStdFeatureReqHandler@p^(0+128),w
  6817  0179  00DA               	movwf	USER_USB_CALLBACK_EVENT_HANDLER@pdata^(0+128)
  6818  017A  3002               	movlw	2
  6819  017B  00DC               	movwf	USER_USB_CALLBACK_EVENT_HANDLER@size^(0+128)
  6820  017C  3000               	movlw	0
  6821  017D  00DD               	movwf	(USER_USB_CALLBACK_EVENT_HANDLER@size^(0+128)+1)
  6822  017E  318B  2309  3180   	fcall	_USER_USB_CALLBACK_EVENT_HANDLER
  6823                           
  6824                           ;lib/usb/usb_device.c: 2894:                 }
  6825  0181  298A               	goto	l3539
  6826  0182                     l3537:
  6827                           
  6828                           ;lib/usb/usb_device.c: 2896:                 {;lib/usb/usb_device.c: 2898:              
      +                                 p->STAT.Val &= ~(0x80 | 0x40 | 0x04);
  6829  0182  303B               	movlw	59
  6830  0183  00DE               	movwf	??_USBStdFeatureReqHandler^(0+128)
  6831  0184  0863               	movf	USBStdFeatureReqHandler@p^(0+128),w
  6832  0185  0086               	movwf	6
  6833  0186  0864               	movf	(USBStdFeatureReqHandler@p+1)^(0+128),w
  6834  0187  0087               	movwf	7
  6835  0188  085E               	movf	??_USBStdFeatureReqHandler^(0+128),w
  6836  0189  0581               	andwf	1,f
  6837  018A                     l3539:
  6838                           
  6839                           ;lib/usb/usb_device.c: 2946:                 pUEP = (unsigned char*)(&UEP0+SetupPkt.EPNu
      +                          m);
  6840  018A  0020               	movlb	0	; select bank0
  6841  018B  0864               	movf	100,w	;volatile
  6842  018C  390F               	andlw	15
  6843  018D  3E98               	addlw	152
  6844  018E  0021               	movlb	1	; select bank1
  6845  018F  00DE               	movwf	??_USBStdFeatureReqHandler^(0+128)
  6846  0190  01DF               	clrf	(??_USBStdFeatureReqHandler^(0+128)+1)
  6847  0191  300E               	movlw	14
  6848  0192  3DDF               	addwfc	(??_USBStdFeatureReqHandler^(0+128)+1),f
  6849  0193  085E               	movf	??_USBStdFeatureReqHandler^(0+128),w
  6850  0194  00E0               	movwf	USBStdFeatureReqHandler@pUEP^(0+128)
  6851  0195  085F               	movf	(??_USBStdFeatureReqHandler+1)^(0+128),w
  6852  0196  00E1               	movwf	(USBStdFeatureReqHandler@pUEP+1)^(0+128)
  6853  0197                     l3541:
  6854                           
  6855                           ;lib/usb/usb_device.c: 2950:             *pUEP &= ~0x0001;
  6856  0197  30FE               	movlw	254
  6857  0198  00DE               	movwf	??_USBStdFeatureReqHandler^(0+128)
  6858  0199  0860               	movf	USBStdFeatureReqHandler@pUEP^(0+128),w
  6859  019A  0086               	movwf	6
  6860  019B  0861               	movf	(USBStdFeatureReqHandler@pUEP+1)^(0+128),w
  6861  019C  0087               	movwf	7
  6862  019D  085E               	movf	??_USBStdFeatureReqHandler^(0+128),w
  6863  019E  0581               	andwf	1,f
  6864  019F                     l401:
  6865  019F  0008               	return
  6866  01A0                     __end_of_USBStdFeatureReqHandler:
  6867                           
  6868                           	psect	text19
  6869  0B09                     __ptext19:	
  6870 ;; *************** function _USER_USB_CALLBACK_EVENT_HANDLER *****************
  6871 ;; Defined at:
  6872 ;;		line 50 in file "lib/usb/usb_events.c"
  6873 ;; Parameters:    Size  Location     Type
  6874 ;;  event           2    0[BANK1 ] enum E2426
  6875 ;;  pdata           2    2[BANK1 ] PTR void 
  6876 ;;		 -> RAM(4096), USTATcopy(1), USBActiveConfiguration(1), NULL(0), 
  6877 ;;		 -> BDT(64), 
  6878 ;;  size            2    4[BANK1 ] unsigned short 
  6879 ;; Auto vars:     Size  Location     Type
  6880 ;;		None
  6881 ;; Return value:  Size  Location     Type
  6882 ;;                  1    wreg      _Bool 
  6883 ;; Registers used:
  6884 ;;		wreg, fsr0l, fsr0h, fsr1l, fsr1h, status,2, status,0, pclath, cstack
  6885 ;; Tracked objects:
  6886 ;;		On entry : 0/0
  6887 ;;		On exit  : 0/0
  6888 ;;		Unchanged: 0/0
  6889 ;; Data sizes:     COMMON   BANK1   BANK2   BANK3  BANK4h  BANK4l   BANK5   BANK6   BANK7   BANK8   BANK9  BANK10  BANK1
      +1  BANK12
  6890 ;;      Params:         0       6       0       0       0       0       0       0       0       0       0       0       
      +0       0
  6891 ;;      Locals:         0       0       0       0       0       0       0       0       0       0       0       0       
      +0       0
  6892 ;;      Temps:          0       0       0       0       0       0       0       0       0       0       0       0       
      +0       0
  6893 ;;      Totals:         0       6       0       0       0       0       0       0       0       0       0       0       
      +0       0
  6894 ;;Total ram usage:        6 bytes
  6895 ;; Hardware stack levels used: 1
  6896 ;; Hardware stack levels required when called: 4
  6897 ;; This function calls:
  6898 ;;		_APP_DeviceJoystickInitialize
  6899 ;;		_APP_LEDUpdateUSBStatus
  6900 ;;		_SYSTEM_Initialize
  6901 ;;		_USBCheckHIDRequest
  6902 ;; This function is called by:
  6903 ;;		_USBDeviceTasks
  6904 ;;		_USBStdSetCfgHandler
  6905 ;;		_USBSuspend
  6906 ;;		_USBWakeFromSuspend
  6907 ;;		_USBCtrlTrfSetupHandler
  6908 ;;		_USBCheckStdRequest
  6909 ;;		_USBStdFeatureReqHandler
  6910 ;; This function uses a non-reentrant model
  6911 ;;
  6912                           
  6913  0B09                     _USER_USB_CALLBACK_EVENT_HANDLER:	
  6914                           ;psect for function _USER_USB_CALLBACK_EVENT_HANDLER
  6915                           
  6916  0B09                     l3167:	
  6917                           ;incstack = 0
  6918                           ; Regs used in _USER_USB_CALLBACK_EVENT_HANDLER: [wreg-fsr1h+status,2+status,0+pclath+cs
      +                          tack]
  6919                           
  6920                           
  6921                           ;lib/usb/usb_events.c: 50: _Bool USER_USB_CALLBACK_EVENT_HANDLER(USB_EVENT event, void *
      +                          pdata, uint16_t size);lib/usb/usb_events.c: 51: {;lib/usb/usb_events.c: 52:     switch( 
      +                          (int) event )
  6922  0B09  2B26               	goto	l3181
  6923  0B0A                     l3169:
  6924                           
  6925                           ;lib/usb/usb_events.c: 60:             APP_LEDUpdateUSBStatus();
  6926  0B0A  318C  244A  318B   	fcall	_APP_LEDUpdateUSBStatus
  6927                           
  6928                           ;lib/usb/usb_events.c: 61:             break;
  6929  0B0D  2B4E               	goto	l486
  6930  0B0E                     l3171:
  6931                           
  6932                           ;lib/usb/usb_events.c: 65:             APP_LEDUpdateUSBStatus();
  6933  0B0E  318C  244A  318B   	fcall	_APP_LEDUpdateUSBStatus
  6934                           
  6935                           ;lib/usb/usb_events.c: 73:             SYSTEM_Initialize(SYSTEM_STATE_USB_SUSPEND);
  6936  0B11  3001               	movlw	1
  6937  0B12  3189  2111  318B   	fcall	_SYSTEM_Initialize
  6938                           
  6939                           ;lib/usb/usb_events.c: 74:             break;
  6940  0B15  2B4E               	goto	l486
  6941  0B16                     l3173:
  6942                           
  6943                           ;lib/usb/usb_events.c: 78:             APP_LEDUpdateUSBStatus();
  6944  0B16  318C  244A  318B   	fcall	_APP_LEDUpdateUSBStatus
  6945                           
  6946                           ;lib/usb/usb_events.c: 84:             SYSTEM_Initialize(SYSTEM_STATE_USB_RESUME);
  6947  0B19  3002               	movlw	2
  6948  0B1A  3189  2111  318B   	fcall	_SYSTEM_Initialize
  6949                           
  6950                           ;lib/usb/usb_events.c: 85:             break;
  6951  0B1D  2B4E               	goto	l486
  6952  0B1E                     l3175:
  6953                           
  6954                           ;lib/usb/usb_events.c: 90:             APP_DeviceJoystickInitialize();
  6955  0B1E  3189  2153  318B   	fcall	_APP_DeviceJoystickInitialize
  6956                           
  6957                           ;lib/usb/usb_events.c: 91:             break;
  6958  0B21  2B4E               	goto	l486
  6959  0B22                     l3177:
  6960                           
  6961                           ;lib/usb/usb_events.c: 99:             USBCheckHIDRequest();
  6962  0B22  3182  22CF  318B   	fcall	_USBCheckHIDRequest
  6963                           
  6964                           ;lib/usb/usb_events.c: 100:             break;
  6965  0B25  2B4E               	goto	l486
  6966  0B26                     l3181:
  6967                           
  6968                           ; Switch on 2 bytes has been partitioned into a top level switch of size 1, and 2 sub-sw
      +                          itches
  6969                           ; Switch size 1, requested type "simple"
  6970                           ; Number of cases is 2, Range of values is 0 to 127
  6971                           ; switch strategies available:
  6972                           ; Name         Instructions Cycles
  6973                           ; simple_byte            7     4 (average)
  6974                           ; direct_byte          262     6 (fixed)
  6975                           ; jumptable            260     6 (fixed)
  6976                           ;	Chosen strategy is simple_byte
  6977  0B26  0021               	movlb	1	; select bank1
  6978  0B27  0859               	movf	(USER_USB_CALLBACK_EVENT_HANDLER@event+1)^(0+128),w
  6979  0B28  3A00               	xorlw	0	; case 0
  6980  0B29  1903               	skipnz
  6981  0B2A  2B2F               	goto	l5141
  6982  0B2B  3A7F               	xorlw	127	; case 127
  6983  0B2C  1903               	skipnz
  6984  0B2D  2B49               	goto	l5143
  6985  0B2E  2B4E               	goto	l486
  6986  0B2F                     l5141:
  6987                           
  6988                           ; Switch size 1, requested type "simple"
  6989                           ; Number of cases is 8, Range of values is 1 to 117
  6990                           ; switch strategies available:
  6991                           ; Name         Instructions Cycles
  6992                           ; simple_byte           25    13 (average)
  6993                           ; direct_byte          243     9 (fixed)
  6994                           ; jumptable            263     9 (fixed)
  6995                           ;	Chosen strategy is simple_byte
  6996  0B2F  0858               	movf	USER_USB_CALLBACK_EVENT_HANDLER@event^(0+128),w
  6997  0B30  3A01               	xorlw	1	; case 1
  6998  0B31  1903               	skipnz
  6999  0B32  2B1E               	goto	l3175
  7000  0B33  3A03               	xorlw	3	; case 2
  7001  0B34  1903               	skipnz
  7002  0B35  2B4E               	goto	l486
  7003  0B36  3A01               	xorlw	1	; case 3
  7004  0B37  1903               	skipnz
  7005  0B38  2B22               	goto	l3177
  7006  0B39  3A06               	xorlw	6	; case 5
  7007  0B3A  1903               	skipnz
  7008  0B3B  2B4E               	goto	l486
  7009  0B3C  3A77               	xorlw	119	; case 114
  7010  0B3D  1903               	skipnz
  7011  0B3E  2B4E               	goto	l486
  7012  0B3F  3A01               	xorlw	1	; case 115
  7013  0B40  1903               	skipnz
  7014  0B41  2B0A               	goto	l3169
  7015  0B42  3A07               	xorlw	7	; case 116
  7016  0B43  1903               	skipnz
  7017  0B44  2B16               	goto	l3173
  7018  0B45  3A01               	xorlw	1	; case 117
  7019  0B46  1903               	skipnz
  7020  0B47  2B0E               	goto	l3171
  7021  0B48  2B4E               	goto	l486
  7022  0B49                     l5143:
  7023                           
  7024                           ; Switch size 1, requested type "simple"
  7025                           ; Number of cases is 1, Range of values is 255 to 255
  7026                           ; switch strategies available:
  7027                           ; Name         Instructions Cycles
  7028                           ; simple_byte            4     3 (average)
  7029                           ; direct_byte            7     5 (fixed)
  7030                           ; jumptable            263     9 (fixed)
  7031                           ;	Chosen strategy is simple_byte
  7032  0B49  0858               	movf	USER_USB_CALLBACK_EVENT_HANDLER@event^(0+128),w
  7033  0B4A  3AFF               	xorlw	255	; case 255
  7034  0B4B  1903               	skipnz
  7035  0B4C  2B4E               	goto	l486
  7036  0B4D  2B4E               	goto	l486
  7037  0B4E                     l486:
  7038  0B4E  0008               	return
  7039  0B4F                     __end_of_USER_USB_CALLBACK_EVENT_HANDLER:
  7040                           
  7041                           	psect	text20
  7042  02CF                     __ptext20:	
  7043 ;; *************** function _USBCheckHIDRequest *****************
  7044 ;; Defined at:
  7045 ;;		line 163 in file "lib/usb/usb_device_hid.c"
  7046 ;; Parameters:    Size  Location     Type
  7047 ;;		None
  7048 ;; Auto vars:     Size  Location     Type
  7049 ;;		None
  7050 ;; Return value:  Size  Location     Type
  7051 ;;                  1    wreg      void 
  7052 ;; Registers used:
  7053 ;;		wreg, fsr0l, fsr0h, status,2, status,0
  7054 ;; Tracked objects:
  7055 ;;		On entry : 0/0
  7056 ;;		On exit  : 0/0
  7057 ;;		Unchanged: 0/0
  7058 ;; Data sizes:     COMMON   BANK1   BANK2   BANK3  BANK4h  BANK4l   BANK5   BANK6   BANK7   BANK8   BANK9  BANK10  BANK1
      +1  BANK12
  7059 ;;      Params:         0       0       0       0       0       0       0       0       0       0       0       0       
      +0       0
  7060 ;;      Locals:         0       0       0       0       0       0       0       0       0       0       0       0       
      +0       0
  7061 ;;      Temps:          2       0       0       0       0       0       0       0       0       0       0       0       
      +0       0
  7062 ;;      Totals:         2       0       0       0       0       0       0       0       0       0       0       0       
      +0       0
  7063 ;;Total ram usage:        2 bytes
  7064 ;; Hardware stack levels used: 1
  7065 ;; Hardware stack levels required when called: 1
  7066 ;; This function calls:
  7067 ;;		Nothing
  7068 ;; This function is called by:
  7069 ;;		_USER_USB_CALLBACK_EVENT_HANDLER
  7070 ;; This function uses a non-reentrant model
  7071 ;;
  7072                           
  7073  02CF                     _USBCheckHIDRequest:	
  7074                           ;psect for function _USBCheckHIDRequest
  7075                           
  7076  02CF                     l3025:	
  7077                           ;incstack = 0
  7078                           ; Regs used in _USBCheckHIDRequest: [wreg-fsr0h+status,2+status,0]
  7079                           
  7080                           
  7081                           ;lib/usb/usb_device_hid.c: 165:     if(SetupPkt.Recipient != (0x01)) return;
  7082  02CF  0020               	movlb	0	; select bank0
  7083  02D0  0860               	movf	96,w	;volatile
  7084  02D1  391F               	andlw	31
  7085  02D2  3A01               	xorlw	1
  7086  02D3  1903               	skipnz
  7087  02D4  2AD6               	goto	u1721
  7088  02D5  2AD7               	goto	u1720
  7089  02D6                     u1721:
  7090  02D6  2AD8               	goto	l3029
  7091  02D7                     u1720:
  7092  02D7  2BE5               	goto	l431
  7093  02D8                     l3029:
  7094                           
  7095                           ;lib/usb/usb_device_hid.c: 166:     if(SetupPkt.bIntfID != 0x00 && SetupPkt.bIntfID != 0
      +                          x01 && SetupPkt.bIntfID != 0x02 ) return;
  7096  02D8  0864               	movf	100,w	;volatile
  7097  02D9  1903               	btfsc	3,2
  7098  02DA  2ADC               	goto	u1731
  7099  02DB  2ADD               	goto	u1730
  7100  02DC                     u1731:
  7101  02DC  2AE9               	goto	l3037
  7102  02DD                     u1730:
  7103  02DD                     l3031:
  7104  02DD  0364               	decf	100,w	;volatile
  7105  02DE  1903               	btfsc	3,2
  7106  02DF  2AE1               	goto	u1741
  7107  02E0  2AE2               	goto	u1740
  7108  02E1                     u1741:
  7109  02E1  2AE9               	goto	l3037
  7110  02E2                     u1740:
  7111  02E2                     l3033:
  7112  02E2  3002               	movlw	2
  7113  02E3  0664               	xorwf	100,w	;volatile
  7114  02E4  1903               	btfsc	3,2
  7115  02E5  2AE7               	goto	u1751
  7116  02E6  2AE8               	goto	u1750
  7117  02E7                     u1751:
  7118  02E7  2AE9               	goto	l3037
  7119  02E8                     u1750:
  7120  02E8  2BE5               	goto	l431
  7121  02E9                     l3037:
  7122                           
  7123                           ;lib/usb/usb_device_hid.c: 173:     if(SetupPkt.bRequest == 6)
  7124  02E9  3006               	movlw	6
  7125  02EA  0661               	xorwf	97,w	;volatile
  7126  02EB  1D03               	btfss	3,2
  7127  02EC  2AEE               	goto	u1761
  7128  02ED  2AEF               	goto	u1760
  7129  02EE                     u1761:
  7130  02EE  2B8B               	goto	l3073
  7131  02EF                     u1760:
  7132  02EF  2B78               	goto	l3071
  7133  02F0                     l3041:
  7134                           
  7135                           ;lib/usb/usb_device_hid.c: 178:                 if(USBActiveConfiguration == 1)
  7136  02F0  0021               	movlb	1	; select bank1
  7137  02F1  0357               	decf	_USBActiveConfiguration^(0+128),w
  7138  02F2  1D03               	btfss	3,2
  7139  02F3  2AF5               	goto	u1771
  7140  02F4  2AF6               	goto	u1770
  7141  02F5                     u1771:
  7142  02F5  2B8B               	goto	l3073
  7143  02F6                     u1770:
  7144  02F6                     l3043:
  7145                           
  7146                           ;lib/usb/usb_device_hid.c: 179:                 {;lib/usb/usb_device_hid.c: 180:        
      +                                       if(SetupPkt.wIndex == 0x00)
  7147  02F6  0020               	movlb	0	; select bank0
  7148  02F7  0864               	movf	100,w	;volatile
  7149  02F8  0465               	iorwf	101,w	;volatile
  7150  02F9  1D03               	btfss	3,2
  7151  02FA  2AFC               	goto	u1781
  7152  02FB  2AFD               	goto	u1780
  7153  02FC                     u1781:
  7154  02FC  2B0A               	goto	l3047
  7155  02FD                     u1780:
  7156  02FD                     l3045:
  7157                           
  7158                           ;lib/usb/usb_device_hid.c: 181:                         { inPipes[0].pSrc.bRom = (const 
      +                          uint8_t*)&configDescriptor1 + 18; inPipes[0].wCount.Val = sizeof(USB_HID_DSC)+3; inPipes
      +                          [0].info.Val = 0x40 | 0x80 | 0x00; };
  7159  02FD  3012               	movlw	low ((_configDescriptor1| (0+32768)+18))
  7160  02FE  0021               	movlb	1	; select bank1
  7161  02FF  00B8               	movwf	_inPipes^(0+128)
  7162  0300  3090               	movlw	high ((_configDescriptor1| (0+32768)+18))
  7163  0301  00B9               	movwf	(_inPipes^(0+128)+1)
  7164  0302  3009               	movlw	9
  7165  0303  00BB               	movwf	(_inPipes^(0+128)+3)
  7166  0304  3000               	movlw	0
  7167  0305  00BC               	movwf	(_inPipes^(0+128)+4)
  7168  0306  30C0               	movlw	192
  7169  0307  00F0               	movwf	??_USBCheckHIDRequest
  7170  0308  0870               	movf	??_USBCheckHIDRequest,w
  7171  0309  00BA               	movwf	(_inPipes^(0+128)+2)
  7172  030A                     l3047:
  7173                           
  7174                           ;lib/usb/usb_device_hid.c: 185:                     if(SetupPkt.wIndex == 0x01)
  7175  030A  0020               	movlb	0	; select bank0
  7176  030B  0364               	decf	100,w	;volatile
  7177  030C  0465               	iorwf	101,w	;volatile
  7178  030D  1D03               	btfss	3,2
  7179  030E  2B10               	goto	u1791
  7180  030F  2B11               	goto	u1790
  7181  0310                     u1791:
  7182  0310  2B1E               	goto	l3051
  7183  0311                     u1790:
  7184  0311                     l3049:
  7185                           
  7186                           ;lib/usb/usb_device_hid.c: 186:                         { inPipes[0].pSrc.bRom = (const 
      +                          uint8_t*)&configDescriptor1 + 50; inPipes[0].wCount.Val = sizeof(USB_HID_DSC)+3; inPipes
      +                          [0].info.Val = 0x40 | 0x80 | 0x00; };
  7187  0311  3032               	movlw	low ((_configDescriptor1| (0+32768)+50))
  7188  0312  0021               	movlb	1	; select bank1
  7189  0313  00B8               	movwf	_inPipes^(0+128)
  7190  0314  3090               	movlw	high ((_configDescriptor1| (0+32768)+50))
  7191  0315  00B9               	movwf	(_inPipes^(0+128)+1)
  7192  0316  3009               	movlw	9
  7193  0317  00BB               	movwf	(_inPipes^(0+128)+3)
  7194  0318  3000               	movlw	0
  7195  0319  00BC               	movwf	(_inPipes^(0+128)+4)
  7196  031A  30C0               	movlw	192
  7197  031B  00F0               	movwf	??_USBCheckHIDRequest
  7198  031C  0870               	movf	??_USBCheckHIDRequest,w
  7199  031D  00BA               	movwf	(_inPipes^(0+128)+2)
  7200  031E                     l3051:
  7201                           
  7202                           ;lib/usb/usb_device_hid.c: 190:                     if(SetupPkt.wIndex == 0x02)
  7203  031E  3002               	movlw	2
  7204  031F  0020               	movlb	0	; select bank0
  7205  0320  0664               	xorwf	100,w	;volatile
  7206  0321  0465               	iorwf	101,w	;volatile
  7207  0322  1D03               	btfss	3,2
  7208  0323  2B25               	goto	u1801
  7209  0324  2B26               	goto	u1800
  7210  0325                     u1801:
  7211  0325  2B8B               	goto	l440
  7212  0326                     u1800:
  7213  0326                     l3053:
  7214                           
  7215                           ;lib/usb/usb_device_hid.c: 191:                         { inPipes[0].pSrc.bRom = (const 
      +                          uint8_t*)&configDescriptor1 + 82; inPipes[0].wCount.Val = sizeof(USB_HID_DSC)+3; inPipes
      +                          [0].info.Val = 0x40 | 0x80 | 0x00; };
  7216  0326  3052               	movlw	low ((_configDescriptor1| (0+32768)+82))
  7217  0327  0021               	movlb	1	; select bank1
  7218  0328  00B8               	movwf	_inPipes^(0+128)
  7219  0329  3090               	movlw	high ((_configDescriptor1| (0+32768)+82))
  7220  032A  00B9               	movwf	(_inPipes^(0+128)+1)
  7221  032B  3009               	movlw	9
  7222  032C  00BB               	movwf	(_inPipes^(0+128)+3)
  7223  032D  3000               	movlw	0
  7224  032E  00BC               	movwf	(_inPipes^(0+128)+4)
  7225  032F  30C0               	movlw	192
  7226  0330  00F0               	movwf	??_USBCheckHIDRequest
  7227  0331  0870               	movf	??_USBCheckHIDRequest,w
  7228  0332  00BA               	movwf	(_inPipes^(0+128)+2)
  7229  0333  2B8B               	goto	l3073
  7230  0334                     l3055:
  7231                           
  7232                           ;lib/usb/usb_device_hid.c: 198:                 if(USBActiveConfiguration == 1)
  7233  0334  0021               	movlb	1	; select bank1
  7234  0335  0357               	decf	_USBActiveConfiguration^(0+128),w
  7235  0336  1D03               	btfss	3,2
  7236  0337  2B39               	goto	u1811
  7237  0338  2B3A               	goto	u1810
  7238  0339                     u1811:
  7239  0339  2B8B               	goto	l3073
  7240  033A                     u1810:
  7241  033A                     l3057:
  7242                           
  7243                           ;lib/usb/usb_device_hid.c: 199:                 {;lib/usb/usb_device_hid.c: 200:        
      +                                       if(SetupPkt.wIndex == 0x00)
  7244  033A  0020               	movlb	0	; select bank0
  7245  033B  0864               	movf	100,w	;volatile
  7246  033C  0465               	iorwf	101,w	;volatile
  7247  033D  1D03               	btfss	3,2
  7248  033E  2B40               	goto	u1821
  7249  033F  2B41               	goto	u1820
  7250  0340                     u1821:
  7251  0340  2B4E               	goto	l3061
  7252  0341                     u1820:
  7253  0341                     l3059:
  7254                           
  7255                           ;lib/usb/usb_device_hid.c: 201:                         { inPipes[0].pSrc.bRom = (const 
      +                          uint8_t*)&HAPTIC_rpt; inPipes[0].wCount.Val = 87; inPipes[0].info.Val = 0x40 | 0x80 | 0x
      +                          00; };
  7256  0341  3069               	movlw	low (_HAPTIC_rpt| (0+32768))
  7257  0342  0021               	movlb	1	; select bank1
  7258  0343  00B8               	movwf	_inPipes^(0+128)
  7259  0344  3090               	movlw	high (_HAPTIC_rpt| (0+32768))
  7260  0345  00B9               	movwf	(_inPipes^(0+128)+1)
  7261  0346  3057               	movlw	87
  7262  0347  00BB               	movwf	(_inPipes^(0+128)+3)
  7263  0348  3000               	movlw	0
  7264  0349  00BC               	movwf	(_inPipes^(0+128)+4)
  7265  034A  30C0               	movlw	192
  7266  034B  00F0               	movwf	??_USBCheckHIDRequest
  7267  034C  0870               	movf	??_USBCheckHIDRequest,w
  7268  034D  00BA               	movwf	(_inPipes^(0+128)+2)
  7269  034E                     l3061:
  7270                           
  7271                           ;lib/usb/usb_device_hid.c: 206:                     if(SetupPkt.wIndex == 0x01)
  7272  034E  0020               	movlb	0	; select bank0
  7273  034F  0364               	decf	100,w	;volatile
  7274  0350  0465               	iorwf	101,w	;volatile
  7275  0351  1D03               	btfss	3,2
  7276  0352  2B54               	goto	u1831
  7277  0353  2B55               	goto	u1830
  7278  0354                     u1831:
  7279  0354  2B62               	goto	l3065
  7280  0355                     u1830:
  7281  0355                     l3063:
  7282                           
  7283                           ;lib/usb/usb_device_hid.c: 207:                         { inPipes[0].pSrc.bRom = (const 
      +                          uint8_t*)&LED_rpt; inPipes[0].wCount.Val = 28; inPipes[0].info.Val = 0x40 | 0x80 | 0x00;
      +                           };
  7284  0355  30F4               	movlw	low (_LED_rpt| (0+32768))
  7285  0356  0021               	movlb	1	; select bank1
  7286  0357  00B8               	movwf	_inPipes^(0+128)
  7287  0358  3090               	movlw	high (_LED_rpt| (0+32768))
  7288  0359  00B9               	movwf	(_inPipes^(0+128)+1)
  7289  035A  301C               	movlw	28
  7290  035B  00BB               	movwf	(_inPipes^(0+128)+3)
  7291  035C  3000               	movlw	0
  7292  035D  00BC               	movwf	(_inPipes^(0+128)+4)
  7293  035E  30C0               	movlw	192
  7294  035F  00F0               	movwf	??_USBCheckHIDRequest
  7295  0360  0870               	movf	??_USBCheckHIDRequest,w
  7296  0361  00BA               	movwf	(_inPipes^(0+128)+2)
  7297  0362                     l3065:
  7298                           
  7299                           ;lib/usb/usb_device_hid.c: 212:                     if(SetupPkt.wIndex == 0x02)
  7300  0362  3002               	movlw	2
  7301  0363  0020               	movlb	0	; select bank0
  7302  0364  0664               	xorwf	100,w	;volatile
  7303  0365  0465               	iorwf	101,w	;volatile
  7304  0366  1D03               	btfss	3,2
  7305  0367  2B69               	goto	u1841
  7306  0368  2B6A               	goto	u1840
  7307  0369                     u1841:
  7308  0369  2B8B               	goto	l440
  7309  036A                     u1840:
  7310  036A                     l3067:
  7311                           
  7312                           ;lib/usb/usb_device_hid.c: 213:                         { inPipes[0].pSrc.bRom = (const 
      +                          uint8_t*)&DISPLAY_rpt; inPipes[0].wCount.Val = 28; inPipes[0].info.Val = 0x40 | 0x80 | 0
      +                          x00; };
  7313  036A  302C               	movlw	low (_DISPLAY_rpt| (0+32768))
  7314  036B  0021               	movlb	1	; select bank1
  7315  036C  00B8               	movwf	_inPipes^(0+128)
  7316  036D  3091               	movlw	high (_DISPLAY_rpt| (0+32768))
  7317  036E  00B9               	movwf	(_inPipes^(0+128)+1)
  7318  036F  301C               	movlw	28
  7319  0370  00BB               	movwf	(_inPipes^(0+128)+3)
  7320  0371  3000               	movlw	0
  7321  0372  00BC               	movwf	(_inPipes^(0+128)+4)
  7322  0373  30C0               	movlw	192
  7323  0374  00F0               	movwf	??_USBCheckHIDRequest
  7324  0375  0870               	movf	??_USBCheckHIDRequest,w
  7325  0376  00BA               	movwf	(_inPipes^(0+128)+2)
  7326  0377  2B8B               	goto	l3073
  7327  0378                     l3071:
  7328  0378  0863               	movf	99,w	;volatile
  7329  0379  00F0               	movwf	??_USBCheckHIDRequest
  7330  037A  01F1               	clrf	??_USBCheckHIDRequest+1
  7331                           
  7332                           ; Switch on 2 bytes has been partitioned into a top level switch of size 1, and 1 sub-sw
      +                          itches
  7333                           ; Switch size 1, requested type "simple"
  7334                           ; Number of cases is 1, Range of values is 0 to 0
  7335                           ; switch strategies available:
  7336                           ; Name         Instructions Cycles
  7337                           ; simple_byte            4     3 (average)
  7338                           ; direct_byte            8     6 (fixed)
  7339                           ; jumptable            260     6 (fixed)
  7340                           ;	Chosen strategy is simple_byte
  7341  037B  0871               	movf	??_USBCheckHIDRequest+1,w
  7342  037C  3A00               	xorlw	0	; case 0
  7343  037D  1903               	skipnz
  7344  037E  2B80               	goto	l5145
  7345  037F  2B8B               	goto	l3073
  7346  0380                     l5145:
  7347                           
  7348                           ; Switch size 1, requested type "simple"
  7349                           ; Number of cases is 3, Range of values is 33 to 35
  7350                           ; switch strategies available:
  7351                           ; Name         Instructions Cycles
  7352                           ; simple_byte           10     6 (average)
  7353                           ; direct_byte           15     9 (fixed)
  7354                           ; jumptable            263     9 (fixed)
  7355                           ;	Chosen strategy is simple_byte
  7356  0380  0870               	movf	??_USBCheckHIDRequest,w
  7357  0381  3A21               	xorlw	33	; case 33
  7358  0382  1903               	skipnz
  7359  0383  2AF0               	goto	l3041
  7360  0384  3A03               	xorlw	3	; case 34
  7361  0385  1903               	skipnz
  7362  0386  2B34               	goto	l3055
  7363  0387  3A01               	xorlw	1	; case 35
  7364  0388  1903               	skipnz
  7365  0389  2B8B               	goto	l3073
  7366  038A  2B8B               	goto	l3073
  7367  038B                     l440:
  7368  038B                     l3073:
  7369                           
  7370                           ;lib/usb/usb_device_hid.c: 235:     if(SetupPkt.RequestType != (0x20>>5))
  7371  038B  0020               	movlb	0	; select bank0
  7372  038C  0E60               	swapf	96,w	;volatile
  7373  038D  0C89               	rrf	9,f
  7374  038E  3903               	andlw	3
  7375  038F  3A01               	xorlw	1
  7376  0390  1903               	skipnz
  7377  0391  2B93               	goto	u1851
  7378  0392  2B94               	goto	u1850
  7379  0393                     u1851:
  7380  0393  2BC9               	goto	l3095
  7381  0394                     u1850:
  7382  0394  2BE5               	goto	l431
  7383  0395                     l3077:
  7384                           
  7385                           ;lib/usb/usb_device_hid.c: 253:             { inPipes[0].pSrc.bRam = (uint8_t*)&idle_rat
      +                          e; inPipes[0].wCount.Val = 1; inPipes[0].info.Val = 0x40 | 0x80 | 0x01; };
  7386  0395  30D5               	movlw	low _idle_rate
  7387  0396  0021               	movlb	1	; select bank1
  7388  0397  00B8               	movwf	_inPipes^(0+128)
  7389  0398  3000               	movlw	high _idle_rate
  7390  0399  00B9               	movwf	(_inPipes+1)^(0+128)
  7391  039A                     l3079:
  7392  039A  3001               	movlw	1
  7393  039B  00BB               	movwf	(_inPipes^(0+128)+3)
  7394  039C  3000               	movlw	0
  7395  039D  00BC               	movwf	(_inPipes^(0+128)+4)
  7396  039E                     l3081:
  7397  039E  30C1               	movlw	193
  7398  039F  00F0               	movwf	??_USBCheckHIDRequest
  7399  03A0  0870               	movf	??_USBCheckHIDRequest,w
  7400  03A1  00BA               	movwf	(_inPipes^(0+128)+2)
  7401                           
  7402                           ;lib/usb/usb_device_hid.c: 257:             break;
  7403  03A2  2BE5               	goto	l431
  7404  03A3                     l3083:
  7405                           
  7406                           ;lib/usb/usb_device_hid.c: 259:             inPipes[0].info.Val = 0x00 | 0x80;
  7407  03A3  3080               	movlw	128
  7408  03A4  00F0               	movwf	??_USBCheckHIDRequest
  7409  03A5  0870               	movf	??_USBCheckHIDRequest,w
  7410  03A6  0021               	movlb	1	; select bank1
  7411  03A7  00BA               	movwf	(_inPipes^(0+128)+2)
  7412                           
  7413                           ;lib/usb/usb_device_hid.c: 260:             idle_rate = SetupPkt.W_Value.byte.HB;
  7414  03A8  0020               	movlb	0	; select bank0
  7415  03A9  0863               	movf	99,w	;volatile
  7416  03AA  00F0               	movwf	??_USBCheckHIDRequest
  7417  03AB  0870               	movf	??_USBCheckHIDRequest,w
  7418  03AC  0021               	movlb	1	; select bank1
  7419  03AD  00D5               	movwf	_idle_rate^(0+128)
  7420                           
  7421                           ;lib/usb/usb_device_hid.c: 262:             break;
  7422  03AE  2BE5               	goto	l431
  7423  03AF                     l3085:
  7424                           
  7425                           ;lib/usb/usb_device_hid.c: 264:             { inPipes[0].pSrc.bRam = (uint8_t*)&active_p
      +                          rotocol; inPipes[0].wCount.Val = 1; inPipes[0].info.Val = 0x00 | 0x80 | 0x01; };
  7426  03AF  30D4               	movlw	low _active_protocol
  7427  03B0  0021               	movlb	1	; select bank1
  7428  03B1  00B8               	movwf	_inPipes^(0+128)
  7429  03B2  3000               	movlw	high _active_protocol
  7430  03B3  00B9               	movwf	(_inPipes+1)^(0+128)
  7431  03B4                     l3087:
  7432  03B4  3001               	movlw	1
  7433  03B5  00BB               	movwf	(_inPipes^(0+128)+3)
  7434  03B6  3000               	movlw	0
  7435  03B7  00BC               	movwf	(_inPipes^(0+128)+4)
  7436  03B8                     l3089:
  7437  03B8  3081               	movlw	129
  7438  03B9  00F0               	movwf	??_USBCheckHIDRequest
  7439  03BA  0870               	movf	??_USBCheckHIDRequest,w
  7440  03BB  00BA               	movwf	(_inPipes^(0+128)+2)
  7441                           
  7442                           ;lib/usb/usb_device_hid.c: 268:             break;
  7443  03BC  2BE5               	goto	l431
  7444  03BD                     l3091:
  7445                           
  7446                           ;lib/usb/usb_device_hid.c: 270:             inPipes[0].info.Val = 0x00 | 0x80;
  7447  03BD  3080               	movlw	128
  7448  03BE  00F0               	movwf	??_USBCheckHIDRequest
  7449  03BF  0870               	movf	??_USBCheckHIDRequest,w
  7450  03C0  0021               	movlb	1	; select bank1
  7451  03C1  00BA               	movwf	(_inPipes^(0+128)+2)
  7452                           
  7453                           ;lib/usb/usb_device_hid.c: 271:             active_protocol = SetupPkt.W_Value.byte.LB;
  7454  03C2  0020               	movlb	0	; select bank0
  7455  03C3  0862               	movf	98,w	;volatile
  7456  03C4  00F0               	movwf	??_USBCheckHIDRequest
  7457  03C5  0870               	movf	??_USBCheckHIDRequest,w
  7458  03C6  0021               	movlb	1	; select bank1
  7459  03C7  00D4               	movwf	_active_protocol^(0+128)
  7460                           
  7461                           ;lib/usb/usb_device_hid.c: 272:             break;
  7462  03C8  2BE5               	goto	l431
  7463  03C9                     l3095:
  7464  03C9  0861               	movf	97,w	;volatile
  7465  03CA  00F0               	movwf	??_USBCheckHIDRequest
  7466  03CB  01F1               	clrf	??_USBCheckHIDRequest+1
  7467                           
  7468                           ; Switch on 2 bytes has been partitioned into a top level switch of size 1, and 1 sub-sw
      +                          itches
  7469                           ; Switch size 1, requested type "simple"
  7470                           ; Number of cases is 1, Range of values is 0 to 0
  7471                           ; switch strategies available:
  7472                           ; Name         Instructions Cycles
  7473                           ; simple_byte            4     3 (average)
  7474                           ; direct_byte            8     6 (fixed)
  7475                           ; jumptable            260     6 (fixed)
  7476                           ;	Chosen strategy is simple_byte
  7477  03CC  0871               	movf	??_USBCheckHIDRequest+1,w
  7478  03CD  3A00               	xorlw	0	; case 0
  7479  03CE  1903               	skipnz
  7480  03CF  2BD1               	goto	l5147
  7481  03D0  2BE5               	goto	l431
  7482  03D1                     l5147:
  7483                           
  7484                           ; Switch size 1, requested type "simple"
  7485                           ; Number of cases is 6, Range of values is 1 to 11
  7486                           ; switch strategies available:
  7487                           ; Name         Instructions Cycles
  7488                           ; simple_byte           19    10 (average)
  7489                           ; direct_byte           31     9 (fixed)
  7490                           ; jumptable            263     9 (fixed)
  7491                           ;	Chosen strategy is simple_byte
  7492  03D1  0870               	movf	??_USBCheckHIDRequest,w
  7493  03D2  3A01               	xorlw	1	; case 1
  7494  03D3  1903               	skipnz
  7495  03D4  2BE5               	goto	l431
  7496  03D5  3A03               	xorlw	3	; case 2
  7497  03D6  1903               	skipnz
  7498  03D7  2B95               	goto	l3077
  7499  03D8  3A01               	xorlw	1	; case 3
  7500  03D9  1903               	skipnz
  7501  03DA  2BAF               	goto	l3085
  7502  03DB  3A0A               	xorlw	10	; case 9
  7503  03DC  1903               	skipnz
  7504  03DD  2BE5               	goto	l431
  7505  03DE  3A03               	xorlw	3	; case 10
  7506  03DF  1903               	skipnz
  7507  03E0  2BA3               	goto	l3083
  7508  03E1  3A01               	xorlw	1	; case 11
  7509  03E2  1903               	skipnz
  7510  03E3  2BBD               	goto	l3091
  7511  03E4  2BE5               	goto	l431
  7512  03E5                     l431:
  7513  03E5  0008               	return
  7514  03E6                     __end_of_USBCheckHIDRequest:
  7515                           
  7516                           	psect	text21
  7517  0911                     __ptext21:	
  7518 ;; *************** function _SYSTEM_Initialize *****************
  7519 ;; Defined at:
  7520 ;;		line 85 in file "lib/system.c"
  7521 ;; Parameters:    Size  Location     Type
  7522 ;;  state           1    wreg     enum E2217
  7523 ;; Auto vars:     Size  Location     Type
  7524 ;;  state           1    5[COMMON] enum E2217
  7525 ;; Return value:  Size  Location     Type
  7526 ;;                  1    wreg      void 
  7527 ;; Registers used:
  7528 ;;		wreg, fsr0l, fsr0h, status,2, status,0, pclath, cstack
  7529 ;; Tracked objects:
  7530 ;;		On entry : 0/0
  7531 ;;		On exit  : 0/0
  7532 ;;		Unchanged: 0/0
  7533 ;; Data sizes:     COMMON   BANK1   BANK2   BANK3  BANK4h  BANK4l   BANK5   BANK6   BANK7   BANK8   BANK9  BANK10  BANK1
      +1  BANK12
  7534 ;;      Params:         0       0       0       0       0       0       0       0       0       0       0       0       
      +0       0
  7535 ;;      Locals:         1       0       0       0       0       0       0       0       0       0       0       0       
      +0       0
  7536 ;;      Temps:          2       0       0       0       0       0       0       0       0       0       0       0       
      +0       0
  7537 ;;      Totals:         3       0       0       0       0       0       0       0       0       0       0       0       
      +0       0
  7538 ;;Total ram usage:        3 bytes
  7539 ;; Hardware stack levels used: 1
  7540 ;; Hardware stack levels required when called: 2
  7541 ;; This function calls:
  7542 ;;		_BUTTON_Enable
  7543 ;;		_LED_Enable
  7544 ;; This function is called by:
  7545 ;;		_USER_USB_CALLBACK_EVENT_HANDLER
  7546 ;;		_main
  7547 ;; This function uses a non-reentrant model
  7548 ;;
  7549                           
  7550  0911                     _SYSTEM_Initialize:	
  7551                           ;psect for function _SYSTEM_Initialize
  7552                           
  7553                           
  7554                           ;incstack = 0
  7555                           ; Regs used in _SYSTEM_Initialize: [wreg-fsr0h+status,2+status,0+pclath+cstack]
  7556                           ;SYSTEM_Initialize@state stored from wreg
  7557  0911  00F5               	movwf	SYSTEM_Initialize@state
  7558  0912                     l3145:
  7559                           
  7560                           ;lib/system.c: 85: void SYSTEM_Initialize( SYSTEM_STATE state );lib/system.c: 86: {;lib/
      +                          system.c: 87:     ANSELC = 0;
  7561  0912  0023               	movlb	3	; select bank3
  7562  0913  018E               	clrf	14	;volatile
  7563                           
  7564                           ;lib/system.c: 88:     switch(state)
  7565  0914  291E               	goto	l3151
  7566  0915                     l3147:
  7567                           
  7568                           ;lib/system.c: 97:             LED_Enable(LED_D1);
  7569  0915  3001               	movlw	1
  7570  0916  3187  27DE  3189   	fcall	_LED_Enable
  7571                           
  7572                           ;lib/system.c: 100:             BUTTON_Enable(BUTTON_S1);
  7573  0919  3001               	movlw	1
  7574  091A  3188  20C6  3189   	fcall	_BUTTON_Enable
  7575                           
  7576                           ;lib/system.c: 101:             break;
  7577  091D  2931               	goto	l695
  7578  091E                     l3151:
  7579  091E  0875               	movf	SYSTEM_Initialize@state,w
  7580  091F  00F3               	movwf	??_SYSTEM_Initialize
  7581  0920  01F4               	clrf	??_SYSTEM_Initialize+1
  7582                           
  7583                           ; Switch on 2 bytes has been partitioned into a top level switch of size 1, and 1 sub-sw
      +                          itches
  7584                           ; Switch size 1, requested type "simple"
  7585                           ; Number of cases is 1, Range of values is 0 to 0
  7586                           ; switch strategies available:
  7587                           ; Name         Instructions Cycles
  7588                           ; simple_byte            4     3 (average)
  7589                           ; direct_byte            8     6 (fixed)
  7590                           ; jumptable            260     6 (fixed)
  7591                           ;	Chosen strategy is simple_byte
  7592  0921  0874               	movf	??_SYSTEM_Initialize+1,w
  7593  0922  3A00               	xorlw	0	; case 0
  7594  0923  1903               	skipnz
  7595  0924  2926               	goto	l5149
  7596  0925  2931               	goto	l695
  7597  0926                     l5149:
  7598                           
  7599                           ; Switch size 1, requested type "simple"
  7600                           ; Number of cases is 3, Range of values is 0 to 2
  7601                           ; switch strategies available:
  7602                           ; Name         Instructions Cycles
  7603                           ; simple_byte           10     6 (average)
  7604                           ; direct_byte           12     6 (fixed)
  7605                           ; jumptable            260     6 (fixed)
  7606                           ;	Chosen strategy is simple_byte
  7607  0926  0873               	movf	??_SYSTEM_Initialize,w
  7608  0927  3A00               	xorlw	0	; case 0
  7609  0928  1903               	skipnz
  7610  0929  2915               	goto	l3147
  7611  092A  3A01               	xorlw	1	; case 1
  7612  092B  1903               	skipnz
  7613  092C  2931               	goto	l695
  7614  092D  3A03               	xorlw	3	; case 2
  7615  092E  1903               	skipnz
  7616  092F  2931               	goto	l695
  7617  0930  2931               	goto	l695
  7618  0931                     l695:
  7619  0931  0008               	return
  7620  0932                     __end_of_SYSTEM_Initialize:
  7621                           
  7622                           	psect	text22
  7623  07DE                     __ptext22:	
  7624 ;; *************** function _LED_Enable *****************
  7625 ;; Defined at:
  7626 ;;		line 220 in file "lib/leds.c"
  7627 ;; Parameters:    Size  Location     Type
  7628 ;;  led             1    wreg     enum E2
  7629 ;; Auto vars:     Size  Location     Type
  7630 ;;  led             1    2[COMMON] enum E2
  7631 ;; Return value:  Size  Location     Type
  7632 ;;                  1    wreg      void 
  7633 ;; Registers used:
  7634 ;;		wreg, fsr0l, fsr0h, status,2, status,0
  7635 ;; Tracked objects:
  7636 ;;		On entry : 0/0
  7637 ;;		On exit  : 0/0
  7638 ;;		Unchanged: 0/0
  7639 ;; Data sizes:     COMMON   BANK1   BANK2   BANK3  BANK4h  BANK4l   BANK5   BANK6   BANK7   BANK8   BANK9  BANK10  BANK1
      +1  BANK12
  7640 ;;      Params:         0       0       0       0       0       0       0       0       0       0       0       0       
      +0       0
  7641 ;;      Locals:         1       0       0       0       0       0       0       0       0       0       0       0       
      +0       0
  7642 ;;      Temps:          2       0       0       0       0       0       0       0       0       0       0       0       
      +0       0
  7643 ;;      Totals:         3       0       0       0       0       0       0       0       0       0       0       0       
      +0       0
  7644 ;;Total ram usage:        3 bytes
  7645 ;; Hardware stack levels used: 1
  7646 ;; Hardware stack levels required when called: 1
  7647 ;; This function calls:
  7648 ;;		Nothing
  7649 ;; This function is called by:
  7650 ;;		_SYSTEM_Initialize
  7651 ;; This function uses a non-reentrant model
  7652 ;;
  7653                           
  7654  07DE                     _LED_Enable:	
  7655                           ;psect for function _LED_Enable
  7656                           
  7657                           
  7658                           ;incstack = 0
  7659                           ; Regs used in _LED_Enable: [wreg-fsr0h+status,2+status,0]
  7660                           ;LED_Enable@led stored from wreg
  7661  07DE  00F2               	movwf	LED_Enable@led
  7662  07DF                     l3015:
  7663                           
  7664                           ;lib/leds.c: 220: void LED_Enable(LED led);lib/leds.c: 221: {;lib/leds.c: 222:     switc
      +                          h(led)
  7665  07DF  2FE9               	goto	l3019
  7666  07E0                     l676:	
  7667                           ;lib/leds.c: 223:     {;lib/leds.c: 224:         case LED_D1:
  7668                           
  7669                           
  7670                           ;lib/leds.c: 225:             TRISCbits.TRISC4 = 0;
  7671  07E0  0021               	movlb	1	; select bank1
  7672  07E1  120E               	bcf	14,4	;volatile
  7673                           
  7674                           ;lib/leds.c: 226:             break;
  7675  07E2  2FFF               	goto	l681
  7676  07E3                     l678:	
  7677                           ;lib/leds.c: 228:         case LED_D2:
  7678                           
  7679                           
  7680                           ;lib/leds.c: 229:             TRISCbits.TRISC1 = 0;
  7681  07E3  0021               	movlb	1	; select bank1
  7682  07E4  108E               	bcf	14,1	;volatile
  7683                           
  7684                           ;lib/leds.c: 230:             break;
  7685  07E5  2FFF               	goto	l681
  7686  07E6                     l679:	
  7687                           ;lib/leds.c: 232:         case LED_D3:
  7688                           
  7689                           
  7690                           ;lib/leds.c: 233:             TRISCbits.TRISC2 = 0;
  7691  07E6  0021               	movlb	1	; select bank1
  7692  07E7  110E               	bcf	14,2	;volatile
  7693                           
  7694                           ;lib/leds.c: 234:             break;
  7695  07E8  2FFF               	goto	l681
  7696  07E9                     l3019:
  7697  07E9  0872               	movf	LED_Enable@led,w
  7698  07EA  00F0               	movwf	??_LED_Enable
  7699  07EB  01F1               	clrf	??_LED_Enable+1
  7700                           
  7701                           ; Switch on 2 bytes has been partitioned into a top level switch of size 1, and 1 sub-sw
      +                          itches
  7702                           ; Switch size 1, requested type "simple"
  7703                           ; Number of cases is 1, Range of values is 0 to 0
  7704                           ; switch strategies available:
  7705                           ; Name         Instructions Cycles
  7706                           ; simple_byte            4     3 (average)
  7707                           ; direct_byte            8     6 (fixed)
  7708                           ; jumptable            260     6 (fixed)
  7709                           ;	Chosen strategy is simple_byte
  7710  07EC  0871               	movf	??_LED_Enable+1,w
  7711  07ED  3A00               	xorlw	0	; case 0
  7712  07EE  1903               	skipnz
  7713  07EF  2FF1               	goto	l5151
  7714  07F0  2FFF               	goto	l681
  7715  07F1                     l5151:
  7716                           
  7717                           ; Switch size 1, requested type "simple"
  7718                           ; Number of cases is 4, Range of values is 0 to 3
  7719                           ; switch strategies available:
  7720                           ; Name         Instructions Cycles
  7721                           ; simple_byte           13     7 (average)
  7722                           ; direct_byte           14     6 (fixed)
  7723                           ; jumptable            260     6 (fixed)
  7724                           ;	Chosen strategy is simple_byte
  7725  07F1  0870               	movf	??_LED_Enable,w
  7726  07F2  3A00               	xorlw	0	; case 0
  7727  07F3  1903               	skipnz
  7728  07F4  2FFF               	goto	l681
  7729  07F5  3A01               	xorlw	1	; case 1
  7730  07F6  1903               	skipnz
  7731  07F7  2FE0               	goto	l676
  7732  07F8  3A03               	xorlw	3	; case 2
  7733  07F9  1903               	skipnz
  7734  07FA  2FE3               	goto	l678
  7735  07FB  3A01               	xorlw	1	; case 3
  7736  07FC  1903               	skipnz
  7737  07FD  2FE6               	goto	l679
  7738  07FE  2FFF               	goto	l681
  7739  07FF                     l681:
  7740  07FF  0008               	return
  7741  0800                     __end_of_LED_Enable:
  7742                           
  7743                           	psect	text23
  7744  08C6                     __ptext23:	
  7745 ;; *************** function _BUTTON_Enable *****************
  7746 ;; Defined at:
  7747 ;;		line 86 in file "lib/buttons.c"
  7748 ;; Parameters:    Size  Location     Type
  7749 ;;  button          1    wreg     enum E2193
  7750 ;; Auto vars:     Size  Location     Type
  7751 ;;  button          1    2[COMMON] enum E2193
  7752 ;; Return value:  Size  Location     Type
  7753 ;;                  1    wreg      void 
  7754 ;; Registers used:
  7755 ;;		wreg, fsr0l, fsr0h, status,2, status,0
  7756 ;; Tracked objects:
  7757 ;;		On entry : 0/0
  7758 ;;		On exit  : 0/0
  7759 ;;		Unchanged: 0/0
  7760 ;; Data sizes:     COMMON   BANK1   BANK2   BANK3  BANK4h  BANK4l   BANK5   BANK6   BANK7   BANK8   BANK9  BANK10  BANK1
      +1  BANK12
  7761 ;;      Params:         0       0       0       0       0       0       0       0       0       0       0       0       
      +0       0
  7762 ;;      Locals:         1       0       0       0       0       0       0       0       0       0       0       0       
      +0       0
  7763 ;;      Temps:          2       0       0       0       0       0       0       0       0       0       0       0       
      +0       0
  7764 ;;      Totals:         3       0       0       0       0       0       0       0       0       0       0       0       
      +0       0
  7765 ;;Total ram usage:        3 bytes
  7766 ;; Hardware stack levels used: 1
  7767 ;; Hardware stack levels required when called: 1
  7768 ;; This function calls:
  7769 ;;		Nothing
  7770 ;; This function is called by:
  7771 ;;		_SYSTEM_Initialize
  7772 ;; This function uses a non-reentrant model
  7773 ;;
  7774                           
  7775  08C6                     _BUTTON_Enable:	
  7776                           ;psect for function _BUTTON_Enable
  7777                           
  7778                           
  7779                           ;incstack = 0
  7780                           ; Regs used in _BUTTON_Enable: [wreg-fsr0h+status,2+status,0]
  7781                           ;BUTTON_Enable@button stored from wreg
  7782  08C6  00F2               	movwf	BUTTON_Enable@button
  7783  08C7                     l3005:
  7784  08C7                     l3009:	
  7785                           ;lib/buttons.c: 86: void BUTTON_Enable(BUTTON button);lib/buttons.c: 87: {;lib/buttons.c
      +                          : 88:     switch(button)
  7786                           
  7787  08C7  0872               	movf	BUTTON_Enable@button,w
  7788  08C8  00F0               	movwf	??_BUTTON_Enable
  7789  08C9  01F1               	clrf	??_BUTTON_Enable+1
  7790                           
  7791                           ; Switch on 2 bytes has been partitioned into a top level switch of size 1, and 1 sub-sw
      +                          itches
  7792                           ; Switch size 1, requested type "simple"
  7793                           ; Number of cases is 1, Range of values is 0 to 0
  7794                           ; switch strategies available:
  7795                           ; Name         Instructions Cycles
  7796                           ; simple_byte            4     3 (average)
  7797                           ; direct_byte            8     6 (fixed)
  7798                           ; jumptable            260     6 (fixed)
  7799                           ;	Chosen strategy is simple_byte
  7800  08CA  0871               	movf	??_BUTTON_Enable+1,w
  7801  08CB  3A00               	xorlw	0	; case 0
  7802  08CC  1903               	skipnz
  7803  08CD  28CF               	goto	l5153
  7804  08CE  28D7               	goto	l632
  7805  08CF                     l5153:
  7806                           
  7807                           ; Switch size 1, requested type "simple"
  7808                           ; Number of cases is 2, Range of values is 0 to 1
  7809                           ; switch strategies available:
  7810                           ; Name         Instructions Cycles
  7811                           ; simple_byte            7     4 (average)
  7812                           ; direct_byte           10     6 (fixed)
  7813                           ; jumptable            260     6 (fixed)
  7814                           ;	Chosen strategy is simple_byte
  7815  08CF  0870               	movf	??_BUTTON_Enable,w
  7816  08D0  3A00               	xorlw	0	; case 0
  7817  08D1  1903               	skipnz
  7818  08D2  28D7               	goto	l632
  7819  08D3  3A01               	xorlw	1	; case 1
  7820  08D4  1903               	skipnz
  7821  08D5  28D7               	goto	l632
  7822  08D6  28D7               	goto	l632
  7823  08D7                     l632:
  7824  08D7  0008               	return
  7825  08D8                     __end_of_BUTTON_Enable:
  7826                           
  7827                           	psect	text24
  7828  0C4A                     __ptext24:	
  7829 ;; *************** function _APP_LEDUpdateUSBStatus *****************
  7830 ;; Defined at:
  7831 ;;		line 50 in file "lib/app_led_usb_status.c"
  7832 ;; Parameters:    Size  Location     Type
  7833 ;;		None
  7834 ;; Auto vars:     Size  Location     Type
  7835 ;;		None
  7836 ;; Return value:  Size  Location     Type
  7837 ;;                  1    wreg      void 
  7838 ;; Registers used:
  7839 ;;		wreg, fsr0l, fsr0h, status,2, status,0, pclath, cstack
  7840 ;; Tracked objects:
  7841 ;;		On entry : 0/0
  7842 ;;		On exit  : 0/0
  7843 ;;		Unchanged: 0/0
  7844 ;; Data sizes:     COMMON   BANK1   BANK2   BANK3  BANK4h  BANK4l   BANK5   BANK6   BANK7   BANK8   BANK9  BANK10  BANK1
      +1  BANK12
  7845 ;;      Params:         0       0       0       0       0       0       0       0       0       0       0       0       
      +0       0
  7846 ;;      Locals:         0       0       0       0       0       0       0       0       0       0       0       0       
      +0       0
  7847 ;;      Temps:          2       0       0       0       0       0       0       0       0       0       0       0       
      +0       0
  7848 ;;      Totals:         2       0       0       0       0       0       0       0       0       0       0       0       
      +0       0
  7849 ;;Total ram usage:        2 bytes
  7850 ;; Hardware stack levels used: 1
  7851 ;; Hardware stack levels required when called: 2
  7852 ;; This function calls:
  7853 ;;		_LED_Off
  7854 ;;		_LED_On
  7855 ;; This function is called by:
  7856 ;;		_USER_USB_CALLBACK_EVENT_HANDLER
  7857 ;; This function uses a non-reentrant model
  7858 ;;
  7859                           
  7860  0C4A                     _APP_LEDUpdateUSBStatus:	
  7861                           ;psect for function _APP_LEDUpdateUSBStatus
  7862                           
  7863  0C4A                     l3105:	
  7864                           ;incstack = 0
  7865                           ; Regs used in _APP_LEDUpdateUSBStatus: [wreg-fsr0h+status,2+status,0+pclath+cstack]
  7866                           
  7867                           
  7868                           ;lib/app_led_usb_status.c: 52:     static uint16_t ledCount = 0;;lib/app_led_usb_status.
      +                          c: 54:     if(UCONbits.SUSPND == 1)
  7869  0C4A  003D               	movlb	29	; select bank29
  7870  0C4B  1C8E               	btfss	14,1	;volatile
  7871  0C4C  2C4E               	goto	u1861
  7872  0C4D  2C4F               	goto	u1860
  7873  0C4E                     u1861:
  7874  0C4E  2C99               	goto	l3137
  7875  0C4F                     u1860:
  7876  0C4F                     l3107:
  7877                           
  7878                           ;lib/app_led_usb_status.c: 55:     {;lib/app_led_usb_status.c: 56:         LED_Off(LED_D
      +                          1);
  7879  0C4F  3001               	movlw	1
  7880  0C50  3189  2175  318C   	fcall	_LED_Off
  7881  0C53  2CAC               	goto	l600
  7882  0C54                     l3111:
  7883                           
  7884                           ;lib/app_led_usb_status.c: 65:             if(ledCount == 1)
  7885  0C54  033D               	decf	APP_LEDUpdateUSBStatus@ledCount^(0+128),w
  7886  0C55  043E               	iorwf	(APP_LEDUpdateUSBStatus@ledCount+1)^(0+128),w
  7887  0C56  1D03               	btfss	3,2
  7888  0C57  2C59               	goto	u1871
  7889  0C58  2C5A               	goto	u1870
  7890  0C59                     u1871:
  7891  0C59  2C5F               	goto	l3115
  7892  0C5A                     u1870:
  7893  0C5A                     l3113:
  7894                           
  7895                           ;lib/app_led_usb_status.c: 66:             {;lib/app_led_usb_status.c: 67:              
      +                             LED_On(LED_D1);
  7896  0C5A  3001               	movlw	1
  7897  0C5B  3189  2197  318C   	fcall	_LED_On
  7898                           
  7899                           ;lib/app_led_usb_status.c: 68:             }
  7900  0C5E  2CA7               	goto	l3139
  7901  0C5F                     l3115:
  7902  0C5F  304B               	movlw	75
  7903  0C60  063D               	xorwf	APP_LEDUpdateUSBStatus@ledCount^(0+128),w
  7904  0C61  043E               	iorwf	(APP_LEDUpdateUSBStatus@ledCount+1)^(0+128),w
  7905  0C62  1D03               	btfss	3,2
  7906  0C63  2C65               	goto	u1881
  7907  0C64  2C66               	goto	u1880
  7908  0C65                     u1881:
  7909  0C65  2C6B               	goto	l3119
  7910  0C66                     u1880:
  7911  0C66                     l3117:
  7912                           
  7913                           ;lib/app_led_usb_status.c: 70:             {;lib/app_led_usb_status.c: 71:              
      +                             LED_Off(LED_D1);
  7914  0C66  3001               	movlw	1
  7915  0C67  3189  2175  318C   	fcall	_LED_Off
  7916                           
  7917                           ;lib/app_led_usb_status.c: 72:             }
  7918  0C6A  2CA7               	goto	l3139
  7919  0C6B                     l3119:
  7920  0C6B  3000               	movlw	0
  7921  0C6C  023E               	subwf	(APP_LEDUpdateUSBStatus@ledCount+1)^(0+128),w
  7922  0C6D  3097               	movlw	151
  7923  0C6E  1903               	skipnz
  7924  0C6F  023D               	subwf	APP_LEDUpdateUSBStatus@ledCount^(0+128),w
  7925  0C70  1C03               	skipc
  7926  0C71  2C73               	goto	u1891
  7927  0C72  2C74               	goto	u1890
  7928  0C73                     u1891:
  7929  0C73  2C77               	goto	l604
  7930  0C74                     u1890:
  7931  0C74                     l3121:
  7932                           
  7933                           ;lib/app_led_usb_status.c: 74:             {;lib/app_led_usb_status.c: 75:              
      +                             ledCount = 0;
  7934  0C74  01BD               	clrf	APP_LEDUpdateUSBStatus@ledCount^(0+128)
  7935  0C75  01BE               	clrf	(APP_LEDUpdateUSBStatus@ledCount+1)^(0+128)
  7936  0C76  2CA7               	goto	l3139
  7937  0C77                     l604:
  7938                           
  7939                           ;lib/app_led_usb_status.c: 77:             break;
  7940  0C77  2CA7               	goto	l3139
  7941  0C78                     l3123:
  7942                           
  7943                           ;lib/app_led_usb_status.c: 82:             if(ledCount == 1)
  7944  0C78  033D               	decf	APP_LEDUpdateUSBStatus@ledCount^(0+128),w
  7945  0C79  043E               	iorwf	(APP_LEDUpdateUSBStatus@ledCount+1)^(0+128),w
  7946  0C7A  1D03               	btfss	3,2
  7947  0C7B  2C7D               	goto	u1901
  7948  0C7C  2C7E               	goto	u1900
  7949  0C7D                     u1901:
  7950  0C7D  2C83               	goto	l3127
  7951  0C7E                     u1900:
  7952  0C7E                     l3125:
  7953                           
  7954                           ;lib/app_led_usb_status.c: 83:             {;lib/app_led_usb_status.c: 84:              
      +                             LED_On(LED_D1);
  7955  0C7E  3001               	movlw	1
  7956  0C7F  3189  2197  318C   	fcall	_LED_On
  7957                           
  7958                           ;lib/app_led_usb_status.c: 85:             }
  7959  0C82  2CA7               	goto	l3139
  7960  0C83                     l3127:
  7961  0C83  3032               	movlw	50
  7962  0C84  063D               	xorwf	APP_LEDUpdateUSBStatus@ledCount^(0+128),w
  7963  0C85  043E               	iorwf	(APP_LEDUpdateUSBStatus@ledCount+1)^(0+128),w
  7964  0C86  1D03               	btfss	3,2
  7965  0C87  2C89               	goto	u1911
  7966  0C88  2C8A               	goto	u1910
  7967  0C89                     u1911:
  7968  0C89  2C8F               	goto	l3131
  7969  0C8A                     u1910:
  7970  0C8A                     l3129:
  7971                           
  7972                           ;lib/app_led_usb_status.c: 87:             {;lib/app_led_usb_status.c: 88:              
      +                             LED_Off(LED_D1);
  7973  0C8A  3001               	movlw	1
  7974  0C8B  3189  2175  318C   	fcall	_LED_Off
  7975                           
  7976                           ;lib/app_led_usb_status.c: 89:             }
  7977  0C8E  2CA7               	goto	l3139
  7978  0C8F                     l3131:
  7979  0C8F  3003               	movlw	3
  7980  0C90  023E               	subwf	(APP_LEDUpdateUSBStatus@ledCount+1)^(0+128),w
  7981  0C91  30B7               	movlw	183
  7982  0C92  1903               	skipnz
  7983  0C93  023D               	subwf	APP_LEDUpdateUSBStatus@ledCount^(0+128),w
  7984  0C94  1C03               	skipc
  7985  0C95  2C97               	goto	u1921
  7986  0C96  2C98               	goto	u1920
  7987  0C97                     u1921:
  7988  0C97  2CA7               	goto	l3139
  7989  0C98                     u1920:
  7990  0C98  2C74               	goto	l3121
  7991  0C99                     l3137:
  7992  0C99  0021               	movlb	1	; select bank1
  7993  0C9A  0853               	movf	_USBDeviceState^(0+128),w
  7994  0C9B  00F3               	movwf	??_APP_LEDUpdateUSBStatus
  7995  0C9C  01F4               	clrf	??_APP_LEDUpdateUSBStatus+1
  7996                           
  7997                           ; Switch on 2 bytes has been partitioned into a top level switch of size 1, and 1 sub-sw
      +                          itches
  7998                           ; Switch size 1, requested type "simple"
  7999                           ; Number of cases is 1, Range of values is 0 to 0
  8000                           ; switch strategies available:
  8001                           ; Name         Instructions Cycles
  8002                           ; simple_byte            4     3 (average)
  8003                           ; direct_byte            8     6 (fixed)
  8004                           ; jumptable            260     6 (fixed)
  8005                           ;	Chosen strategy is simple_byte
  8006  0C9D  0874               	movf	??_APP_LEDUpdateUSBStatus+1,w
  8007  0C9E  3A00               	xorlw	0	; case 0
  8008  0C9F  1903               	skipnz
  8009  0CA0  2CA2               	goto	l5155
  8010  0CA1  2C78               	goto	l3123
  8011  0CA2                     l5155:
  8012                           
  8013                           ; Switch size 1, requested type "simple"
  8014                           ; Number of cases is 1, Range of values is 32 to 32
  8015                           ; switch strategies available:
  8016                           ; Name         Instructions Cycles
  8017                           ; simple_byte            4     3 (average)
  8018                           ; direct_byte           11     9 (fixed)
  8019                           ; jumptable            263     9 (fixed)
  8020                           ;	Chosen strategy is simple_byte
  8021  0CA2  0873               	movf	??_APP_LEDUpdateUSBStatus,w
  8022  0CA3  3A20               	xorlw	32	; case 32
  8023  0CA4  1903               	skipnz
  8024  0CA5  2C54               	goto	l3111
  8025  0CA6  2C78               	goto	l3123
  8026  0CA7                     l3139:
  8027                           
  8028                           ;lib/app_led_usb_status.c: 98:     ledCount++;
  8029  0CA7  3001               	movlw	1
  8030  0CA8  0021               	movlb	1	; select bank1
  8031  0CA9  07BD               	addwf	APP_LEDUpdateUSBStatus@ledCount^(0+128),f
  8032  0CAA  3000               	movlw	0
  8033  0CAB  3DBE               	addwfc	(APP_LEDUpdateUSBStatus@ledCount+1)^(0+128),f
  8034  0CAC                     l600:
  8035  0CAC  0008               	return
  8036  0CAD                     __end_of_APP_LEDUpdateUSBStatus:
  8037                           
  8038                           	psect	text25
  8039  0997                     __ptext25:	
  8040 ;; *************** function _LED_On *****************
  8041 ;; Defined at:
  8042 ;;		line 59 in file "lib/leds.c"
  8043 ;; Parameters:    Size  Location     Type
  8044 ;;  led             1    wreg     enum E2
  8045 ;; Auto vars:     Size  Location     Type
  8046 ;;  led             1    2[COMMON] enum E2
  8047 ;; Return value:  Size  Location     Type
  8048 ;;                  1    wreg      void 
  8049 ;; Registers used:
  8050 ;;		wreg, fsr0l, fsr0h, status,2, status,0
  8051 ;; Tracked objects:
  8052 ;;		On entry : 0/0
  8053 ;;		On exit  : 0/0
  8054 ;;		Unchanged: 0/0
  8055 ;; Data sizes:     COMMON   BANK1   BANK2   BANK3  BANK4h  BANK4l   BANK5   BANK6   BANK7   BANK8   BANK9  BANK10  BANK1
      +1  BANK12
  8056 ;;      Params:         0       0       0       0       0       0       0       0       0       0       0       0       
      +0       0
  8057 ;;      Locals:         1       0       0       0       0       0       0       0       0       0       0       0       
      +0       0
  8058 ;;      Temps:          2       0       0       0       0       0       0       0       0       0       0       0       
      +0       0
  8059 ;;      Totals:         3       0       0       0       0       0       0       0       0       0       0       0       
      +0       0
  8060 ;;Total ram usage:        3 bytes
  8061 ;; Hardware stack levels used: 1
  8062 ;; Hardware stack levels required when called: 1
  8063 ;; This function calls:
  8064 ;;		Nothing
  8065 ;; This function is called by:
  8066 ;;		_APP_LEDUpdateUSBStatus
  8067 ;; This function uses a non-reentrant model
  8068 ;;
  8069                           
  8070  0997                     _LED_On:	
  8071                           ;psect for function _LED_On
  8072                           
  8073                           
  8074                           ;incstack = 0
  8075                           ; Regs used in _LED_On: [wreg-fsr0h+status,2+status,0]
  8076                           ;LED_On@led stored from wreg
  8077  0997  00F2               	movwf	LED_On@led
  8078  0998                     l2995:
  8079                           
  8080                           ;lib/leds.c: 59: void LED_On(LED led);lib/leds.c: 60: {;lib/leds.c: 61:     switch(led)
  8081  0998  29A2               	goto	l2999
  8082  0999                     l640:	
  8083                           ;lib/leds.c: 62:     {;lib/leds.c: 63:         case LED_D1:
  8084                           
  8085                           
  8086                           ;lib/leds.c: 64:             LATCbits.LATC4 = 1;
  8087  0999  0022               	movlb	2	; select bank2
  8088  099A  160E               	bsf	14,4	;volatile
  8089                           
  8090                           ;lib/leds.c: 65:             break;
  8091  099B  29B8               	goto	l645
  8092  099C                     l642:	
  8093                           ;lib/leds.c: 67:         case LED_D2:
  8094                           
  8095                           
  8096                           ;lib/leds.c: 68:             LATCbits.LATC1 = 1;
  8097  099C  0022               	movlb	2	; select bank2
  8098  099D  148E               	bsf	14,1	;volatile
  8099                           
  8100                           ;lib/leds.c: 69:             break;
  8101  099E  29B8               	goto	l645
  8102  099F                     l643:	
  8103                           ;lib/leds.c: 71:         case LED_D3:
  8104                           
  8105                           
  8106                           ;lib/leds.c: 72:             LATCbits.LATC2 = 1;
  8107  099F  0022               	movlb	2	; select bank2
  8108  09A0  150E               	bsf	14,2	;volatile
  8109                           
  8110                           ;lib/leds.c: 73:             break;
  8111  09A1  29B8               	goto	l645
  8112  09A2                     l2999:
  8113  09A2  0872               	movf	LED_On@led,w
  8114  09A3  00F0               	movwf	??_LED_On
  8115  09A4  01F1               	clrf	??_LED_On+1
  8116                           
  8117                           ; Switch on 2 bytes has been partitioned into a top level switch of size 1, and 1 sub-sw
      +                          itches
  8118                           ; Switch size 1, requested type "simple"
  8119                           ; Number of cases is 1, Range of values is 0 to 0
  8120                           ; switch strategies available:
  8121                           ; Name         Instructions Cycles
  8122                           ; simple_byte            4     3 (average)
  8123                           ; direct_byte            8     6 (fixed)
  8124                           ; jumptable            260     6 (fixed)
  8125                           ;	Chosen strategy is simple_byte
  8126  09A5  0871               	movf	??_LED_On+1,w
  8127  09A6  3A00               	xorlw	0	; case 0
  8128  09A7  1903               	skipnz
  8129  09A8  29AA               	goto	l5157
  8130  09A9  29B8               	goto	l645
  8131  09AA                     l5157:
  8132                           
  8133                           ; Switch size 1, requested type "simple"
  8134                           ; Number of cases is 4, Range of values is 0 to 3
  8135                           ; switch strategies available:
  8136                           ; Name         Instructions Cycles
  8137                           ; simple_byte           13     7 (average)
  8138                           ; direct_byte           14     6 (fixed)
  8139                           ; jumptable            260     6 (fixed)
  8140                           ;	Chosen strategy is simple_byte
  8141  09AA  0870               	movf	??_LED_On,w
  8142  09AB  3A00               	xorlw	0	; case 0
  8143  09AC  1903               	skipnz
  8144  09AD  29B8               	goto	l645
  8145  09AE  3A01               	xorlw	1	; case 1
  8146  09AF  1903               	skipnz
  8147  09B0  2999               	goto	l640
  8148  09B1  3A03               	xorlw	3	; case 2
  8149  09B2  1903               	skipnz
  8150  09B3  299C               	goto	l642
  8151  09B4  3A01               	xorlw	1	; case 3
  8152  09B5  1903               	skipnz
  8153  09B6  299F               	goto	l643
  8154  09B7  29B8               	goto	l645
  8155  09B8                     l645:
  8156  09B8  0008               	return
  8157  09B9                     __end_of_LED_On:
  8158                           
  8159                           	psect	text26
  8160  0975                     __ptext26:	
  8161 ;; *************** function _LED_Off *****************
  8162 ;; Defined at:
  8163 ;;		line 100 in file "lib/leds.c"
  8164 ;; Parameters:    Size  Location     Type
  8165 ;;  led             1    wreg     enum E2
  8166 ;; Auto vars:     Size  Location     Type
  8167 ;;  led             1    2[COMMON] enum E2
  8168 ;; Return value:  Size  Location     Type
  8169 ;;                  1    wreg      void 
  8170 ;; Registers used:
  8171 ;;		wreg, fsr0l, fsr0h, status,2, status,0
  8172 ;; Tracked objects:
  8173 ;;		On entry : 0/0
  8174 ;;		On exit  : 0/0
  8175 ;;		Unchanged: 0/0
  8176 ;; Data sizes:     COMMON   BANK1   BANK2   BANK3  BANK4h  BANK4l   BANK5   BANK6   BANK7   BANK8   BANK9  BANK10  BANK1
      +1  BANK12
  8177 ;;      Params:         0       0       0       0       0       0       0       0       0       0       0       0       
      +0       0
  8178 ;;      Locals:         1       0       0       0       0       0       0       0       0       0       0       0       
      +0       0
  8179 ;;      Temps:          2       0       0       0       0       0       0       0       0       0       0       0       
      +0       0
  8180 ;;      Totals:         3       0       0       0       0       0       0       0       0       0       0       0       
      +0       0
  8181 ;;Total ram usage:        3 bytes
  8182 ;; Hardware stack levels used: 1
  8183 ;; Hardware stack levels required when called: 1
  8184 ;; This function calls:
  8185 ;;		Nothing
  8186 ;; This function is called by:
  8187 ;;		_APP_LEDUpdateUSBStatus
  8188 ;; This function uses a non-reentrant model
  8189 ;;
  8190                           
  8191  0975                     _LED_Off:	
  8192                           ;psect for function _LED_Off
  8193                           
  8194                           
  8195                           ;incstack = 0
  8196                           ; Regs used in _LED_Off: [wreg-fsr0h+status,2+status,0]
  8197                           ;LED_Off@led stored from wreg
  8198  0975  00F2               	movwf	LED_Off@led
  8199  0976                     l2985:
  8200                           
  8201                           ;lib/leds.c: 100: void LED_Off(LED led);lib/leds.c: 101: {;lib/leds.c: 102:     switch(l
      +                          ed)
  8202  0976  2980               	goto	l2989
  8203  0977                     l649:	
  8204                           ;lib/leds.c: 103:     {;lib/leds.c: 104:         case LED_D1:
  8205                           
  8206                           
  8207                           ;lib/leds.c: 105:             LATCbits.LATC4 = 0;
  8208  0977  0022               	movlb	2	; select bank2
  8209  0978  120E               	bcf	14,4	;volatile
  8210                           
  8211                           ;lib/leds.c: 106:             break;
  8212  0979  2996               	goto	l654
  8213  097A                     l651:	
  8214                           ;lib/leds.c: 108:         case LED_D2:
  8215                           
  8216                           
  8217                           ;lib/leds.c: 109:             LATCbits.LATC1 = 0;
  8218  097A  0022               	movlb	2	; select bank2
  8219  097B  108E               	bcf	14,1	;volatile
  8220                           
  8221                           ;lib/leds.c: 110:             break;
  8222  097C  2996               	goto	l654
  8223  097D                     l652:	
  8224                           ;lib/leds.c: 112:         case LED_D3:
  8225                           
  8226                           
  8227                           ;lib/leds.c: 113:             LATCbits.LATC2 = 0;
  8228  097D  0022               	movlb	2	; select bank2
  8229  097E  110E               	bcf	14,2	;volatile
  8230                           
  8231                           ;lib/leds.c: 114:             break;
  8232  097F  2996               	goto	l654
  8233  0980                     l2989:
  8234  0980  0872               	movf	LED_Off@led,w
  8235  0981  00F0               	movwf	??_LED_Off
  8236  0982  01F1               	clrf	??_LED_Off+1
  8237                           
  8238                           ; Switch on 2 bytes has been partitioned into a top level switch of size 1, and 1 sub-sw
      +                          itches
  8239                           ; Switch size 1, requested type "simple"
  8240                           ; Number of cases is 1, Range of values is 0 to 0
  8241                           ; switch strategies available:
  8242                           ; Name         Instructions Cycles
  8243                           ; simple_byte            4     3 (average)
  8244                           ; direct_byte            8     6 (fixed)
  8245                           ; jumptable            260     6 (fixed)
  8246                           ;	Chosen strategy is simple_byte
  8247  0983  0871               	movf	??_LED_Off+1,w
  8248  0984  3A00               	xorlw	0	; case 0
  8249  0985  1903               	skipnz
  8250  0986  2988               	goto	l5159
  8251  0987  2996               	goto	l654
  8252  0988                     l5159:
  8253                           
  8254                           ; Switch size 1, requested type "simple"
  8255                           ; Number of cases is 4, Range of values is 0 to 3
  8256                           ; switch strategies available:
  8257                           ; Name         Instructions Cycles
  8258                           ; simple_byte           13     7 (average)
  8259                           ; direct_byte           14     6 (fixed)
  8260                           ; jumptable            260     6 (fixed)
  8261                           ;	Chosen strategy is simple_byte
  8262  0988  0870               	movf	??_LED_Off,w
  8263  0989  3A00               	xorlw	0	; case 0
  8264  098A  1903               	skipnz
  8265  098B  2996               	goto	l654
  8266  098C  3A01               	xorlw	1	; case 1
  8267  098D  1903               	skipnz
  8268  098E  2977               	goto	l649
  8269  098F  3A03               	xorlw	3	; case 2
  8270  0990  1903               	skipnz
  8271  0991  297A               	goto	l651
  8272  0992  3A01               	xorlw	1	; case 3
  8273  0993  1903               	skipnz
  8274  0994  297D               	goto	l652
  8275  0995  2996               	goto	l654
  8276  0996                     l654:
  8277  0996  0008               	return
  8278  0997                     __end_of_LED_Off:
  8279                           
  8280                           	psect	text27
  8281  0953                     __ptext27:	
  8282 ;; *************** function _APP_DeviceJoystickInitialize *****************
  8283 ;; Defined at:
  8284 ;;		line 68 in file "lib/app_device_joystick.c"
  8285 ;; Parameters:    Size  Location     Type
  8286 ;;		None
  8287 ;; Auto vars:     Size  Location     Type
  8288 ;;		None
  8289 ;; Return value:  Size  Location     Type
  8290 ;;                  1    wreg      void 
  8291 ;; Registers used:
  8292 ;;		wreg, fsr1l, fsr1h, status,2, status,0, pclath, cstack
  8293 ;; Tracked objects:
  8294 ;;		On entry : 0/0
  8295 ;;		On exit  : 0/0
  8296 ;;		Unchanged: 0/0
  8297 ;; Data sizes:     COMMON   BANK1   BANK2   BANK3  BANK4h  BANK4l   BANK5   BANK6   BANK7   BANK8   BANK9  BANK10  BANK1
      +1  BANK12
  8298 ;;      Params:         0       0       0       0       0       0       0       0       0       0       0       0       
      +0       0
  8299 ;;      Locals:         0       0       0       0       0       0       0       0       0       0       0       0       
      +0       0
  8300 ;;      Temps:          1       0       0       0       0       0       0       0       0       0       0       0       
      +0       0
  8301 ;;      Totals:         1       0       0       0       0       0       0       0       0       0       0       0       
      +0       0
  8302 ;;Total ram usage:        1 bytes
  8303 ;; Hardware stack levels used: 1
  8304 ;; Hardware stack levels required when called: 3
  8305 ;; This function calls:
  8306 ;;		_USBEnableEndpoint
  8307 ;; This function is called by:
  8308 ;;		_USER_USB_CALLBACK_EVENT_HANDLER
  8309 ;; This function uses a non-reentrant model
  8310 ;;
  8311                           
  8312  0953                     _APP_DeviceJoystickInitialize:	
  8313                           ;psect for function _APP_DeviceJoystickInitialize
  8314                           
  8315  0953                     l3159:	
  8316                           ;incstack = 0
  8317                           ; Regs used in _APP_DeviceJoystickInitialize: [wreg+fsr1l+fsr1h+status,2+status,0+pclath
      +                          +cstack]
  8318                           
  8319                           
  8320                           ;lib/app_device_joystick.c: 72:     last_HAP_IN = 0;
  8321  0953  0022               	movlb	2	; select bank2
  8322  0954  01C3               	clrf	_last_HAP_IN^(0+256)
  8323  0955  01C4               	clrf	(_last_HAP_IN+1)^(0+256)
  8324                           
  8325                           ;lib/app_device_joystick.c: 73:     last_HAP_OUT = 0;
  8326  0956  01C1               	clrf	_last_HAP_OUT^(0+256)
  8327  0957  01C2               	clrf	(_last_HAP_OUT+1)^(0+256)
  8328                           
  8329                           ;lib/app_device_joystick.c: 74:     last_LED_OUT = 0;
  8330  0958  01BF               	clrf	_last_LED_OUT^(0+256)
  8331  0959  01C0               	clrf	(_last_LED_OUT+1)^(0+256)
  8332                           
  8333                           ;lib/app_device_joystick.c: 75:     last_DSP_OUT = 0;
  8334  095A  01BD               	clrf	_last_DSP_OUT^(0+256)
  8335  095B  01BE               	clrf	(_last_DSP_OUT+1)^(0+256)
  8336  095C                     l3161:
  8337                           
  8338                           ;lib/app_device_joystick.c: 78:     USBEnableEndpoint(1,0x04|0x02|0x10|0x08);
  8339  095C  301E               	movlw	30
  8340  095D  00FD               	movwf	??_APP_DeviceJoystickInitialize
  8341  095E  087D               	movf	??_APP_DeviceJoystickInitialize,w
  8342  095F  00F7               	movwf	USBEnableEndpoint@options
  8343  0960  3001               	movlw	1
  8344  0961  3189  21DC  3189   	fcall	_USBEnableEndpoint
  8345  0964                     l3163:
  8346                           
  8347                           ;lib/app_device_joystick.c: 79:     USBEnableEndpoint(2 ,0x04|0x02|0x10|0x08);
  8348  0964  301E               	movlw	30
  8349  0965  00FD               	movwf	??_APP_DeviceJoystickInitialize
  8350  0966  087D               	movf	??_APP_DeviceJoystickInitialize,w
  8351  0967  00F7               	movwf	USBEnableEndpoint@options
  8352  0968  3002               	movlw	2
  8353  0969  3189  21DC  3189   	fcall	_USBEnableEndpoint
  8354  096C                     l3165:
  8355                           
  8356                           ;lib/app_device_joystick.c: 80:     USBEnableEndpoint(3 ,0x04|0x02|0x10|0x08);
  8357  096C  301E               	movlw	30
  8358  096D  00FD               	movwf	??_APP_DeviceJoystickInitialize
  8359  096E  087D               	movf	??_APP_DeviceJoystickInitialize,w
  8360  096F  00F7               	movwf	USBEnableEndpoint@options
  8361  0970  3003               	movlw	3
  8362  0971  3189  21DC  3189   	fcall	_USBEnableEndpoint
  8363  0974                     l565:
  8364  0974  0008               	return
  8365  0975                     __end_of_APP_DeviceJoystickInitialize:
  8366                           
  8367                           	psect	text28
  8368  09DC                     __ptext28:	
  8369 ;; *************** function _USBEnableEndpoint *****************
  8370 ;; Defined at:
  8371 ;;		line 882 in file "lib/usb/usb_device.c"
  8372 ;; Parameters:    Size  Location     Type
  8373 ;;  ep              1    wreg     unsigned char 
  8374 ;;  options         1    7[COMMON] unsigned char 
  8375 ;; Auto vars:     Size  Location     Type
  8376 ;;  ep              1   12[COMMON] unsigned char 
  8377 ;;  p               2   10[COMMON] PTR unsigned char 
  8378 ;;		 -> UEP0(1), 
  8379 ;; Return value:  Size  Location     Type
  8380 ;;                  1    wreg      void 
  8381 ;; Registers used:
  8382 ;;		wreg, fsr1l, fsr1h, status,2, status,0, pclath, cstack
  8383 ;; Tracked objects:
  8384 ;;		On entry : 0/0
  8385 ;;		On exit  : 0/0
  8386 ;;		Unchanged: 0/0
  8387 ;; Data sizes:     COMMON   BANK1   BANK2   BANK3  BANK4h  BANK4l   BANK5   BANK6   BANK7   BANK8   BANK9  BANK10  BANK1
      +1  BANK12
  8388 ;;      Params:         1       0       0       0       0       0       0       0       0       0       0       0       
      +0       0
  8389 ;;      Locals:         3       0       0       0       0       0       0       0       0       0       0       0       
      +0       0
  8390 ;;      Temps:          2       0       0       0       0       0       0       0       0       0       0       0       
      +0       0
  8391 ;;      Totals:         6       0       0       0       0       0       0       0       0       0       0       0       
      +0       0
  8392 ;;Total ram usage:        6 bytes
  8393 ;; Hardware stack levels used: 1
  8394 ;; Hardware stack levels required when called: 2
  8395 ;; This function calls:
  8396 ;;		_USBConfigureEndpoint
  8397 ;; This function is called by:
  8398 ;;		_APP_DeviceJoystickInitialize
  8399 ;; This function uses a non-reentrant model
  8400 ;;
  8401                           
  8402  09DC                     _USBEnableEndpoint:	
  8403                           ;psect for function _USBEnableEndpoint
  8404                           
  8405                           
  8406                           ;incstack = 0
  8407                           ; Regs used in _USBEnableEndpoint: [wreg+fsr1l+fsr1h+status,2+status,0+pclath+cstack]
  8408                           ;USBEnableEndpoint@ep stored from wreg
  8409  09DC  00FC               	movwf	USBEnableEndpoint@ep
  8410  09DD                     l2973:
  8411                           
  8412                           ;lib/usb/usb_device.c: 882: void USBEnableEndpoint(uint8_t ep, uint8_t options);lib/usb/
      +                          usb_device.c: 883: {;lib/usb/usb_device.c: 884:     unsigned char* p;;lib/usb/usb_device
      +                          .c: 888:     if(options & 0x04)
  8413  09DD  1D77               	btfss	USBEnableEndpoint@options,2
  8414  09DE  29E0               	goto	u1701
  8415  09DF  29E1               	goto	u1700
  8416  09E0                     u1701:
  8417  09E0  29E6               	goto	l2977
  8418  09E1                     u1700:
  8419  09E1                     l2975:
  8420                           
  8421                           ;lib/usb/usb_device.c: 889:     {;lib/usb/usb_device.c: 890:         USBConfigureEndpoin
      +                          t(ep, 0);
  8422  09E1  01F0               	clrf	USBConfigureEndpoint@direction
  8423  09E2  087C               	movf	USBEnableEndpoint@ep,w
  8424  09E3  318A  22C6  3189   	fcall	_USBConfigureEndpoint
  8425  09E6                     l2977:
  8426                           
  8427                           ;lib/usb/usb_device.c: 892:     if(options & 0x02)
  8428  09E6  1CF7               	btfss	USBEnableEndpoint@options,1
  8429  09E7  29E9               	goto	u1711
  8430  09E8  29EA               	goto	u1710
  8431  09E9                     u1711:
  8432  09E9  29F0               	goto	l2981
  8433  09EA                     u1710:
  8434  09EA                     l2979:
  8435                           
  8436                           ;lib/usb/usb_device.c: 893:     {;lib/usb/usb_device.c: 894:         USBConfigureEndpoin
      +                          t(ep, 1);
  8437  09EA  01F0               	clrf	USBConfigureEndpoint@direction
  8438  09EB  0AF0               	incf	USBConfigureEndpoint@direction,f
  8439  09EC  087C               	movf	USBEnableEndpoint@ep,w
  8440  09ED  318A  22C6  3189   	fcall	_USBConfigureEndpoint
  8441  09F0                     l2981:
  8442                           
  8443                           ;lib/usb/usb_device.c: 903:         p = (unsigned char*)(&UEP0+ep);
  8444  09F0  087C               	movf	USBEnableEndpoint@ep,w
  8445  09F1  3E98               	addlw	152
  8446  09F2  00F8               	movwf	??_USBEnableEndpoint
  8447  09F3  01F9               	clrf	??_USBEnableEndpoint+1
  8448  09F4  300E               	movlw	14
  8449  09F5  3DF9               	addwfc	??_USBEnableEndpoint+1,f
  8450  09F6  0878               	movf	??_USBEnableEndpoint,w
  8451  09F7  00FA               	movwf	USBEnableEndpoint@p
  8452  09F8  0879               	movf	??_USBEnableEndpoint+1,w
  8453  09F9  00FB               	movwf	USBEnableEndpoint@p+1
  8454  09FA                     l2983:
  8455                           
  8456                           ;lib/usb/usb_device.c: 905:     *p = options;
  8457  09FA  087A               	movf	USBEnableEndpoint@p,w
  8458  09FB  0086               	movwf	6
  8459  09FC  087B               	movf	USBEnableEndpoint@p+1,w
  8460  09FD  0087               	movwf	7
  8461  09FE  0877               	movf	USBEnableEndpoint@options,w
  8462  09FF  0081               	movwf	1
  8463  0A00                     l196:
  8464  0A00  0008               	return
  8465  0A01                     __end_of_USBEnableEndpoint:
  8466                           
  8467                           	psect	text29
  8468  0AC6                     __ptext29:	
  8469 ;; *************** function _USBConfigureEndpoint *****************
  8470 ;; Defined at:
  8471 ;;		line 1547 in file "lib/usb/usb_device.c"
  8472 ;; Parameters:    Size  Location     Type
  8473 ;;  EPNum           1    wreg     unsigned char 
  8474 ;;  direction       1    0[COMMON] unsigned char 
  8475 ;; Auto vars:     Size  Location     Type
  8476 ;;  EPNum           1    5[COMMON] unsigned char 
  8477 ;;  handle          1    6[COMMON] PTR volatile struct __BD
  8478 ;;		 -> BDT(64), 
  8479 ;; Return value:  Size  Location     Type
  8480 ;;                  1    wreg      void 
  8481 ;; Registers used:
  8482 ;;		wreg, fsr1l, fsr1h, status,2, status,0
  8483 ;; Tracked objects:
  8484 ;;		On entry : 0/0
  8485 ;;		On exit  : 0/0
  8486 ;;		Unchanged: 0/0
  8487 ;; Data sizes:     COMMON   BANK1   BANK2   BANK3  BANK4h  BANK4l   BANK5   BANK6   BANK7   BANK8   BANK9  BANK10  BANK1
      +1  BANK12
  8488 ;;      Params:         1       0       0       0       0       0       0       0       0       0       0       0       
      +0       0
  8489 ;;      Locals:         2       0       0       0       0       0       0       0       0       0       0       0       
      +0       0
  8490 ;;      Temps:          4       0       0       0       0       0       0       0       0       0       0       0       
      +0       0
  8491 ;;      Totals:         7       0       0       0       0       0       0       0       0       0       0       0       
      +0       0
  8492 ;;Total ram usage:        7 bytes
  8493 ;; Hardware stack levels used: 1
  8494 ;; Hardware stack levels required when called: 1
  8495 ;; This function calls:
  8496 ;;		Nothing
  8497 ;; This function is called by:
  8498 ;;		_USBEnableEndpoint
  8499 ;; This function uses a non-reentrant model
  8500 ;;
  8501                           
  8502  0AC6                     _USBConfigureEndpoint:	
  8503                           ;psect for function _USBConfigureEndpoint
  8504                           
  8505                           
  8506                           ;incstack = 0
  8507                           ; Regs used in _USBConfigureEndpoint: [wreg+fsr1l+fsr1h+status,2+status,0]
  8508                           ;USBConfigureEndpoint@EPNum stored from wreg
  8509  0AC6  00F5               	movwf	USBConfigureEndpoint@EPNum
  8510  0AC7                     l2957:
  8511                           
  8512                           ;lib/usb/usb_device.c: 1547: static void USBConfigureEndpoint(uint8_t EPNum, uint8_t dir
      +                          ection);lib/usb/usb_device.c: 1548: {;lib/usb/usb_device.c: 1549:     volatile BDT_ENTRY
      +                          * handle;;lib/usb/usb_device.c: 1553:     handle = (volatile BDT_ENTRY*)&BDT[0];
  8513  0AC7  3020               	movlw	32
  8514  0AC8  00F1               	movwf	??_USBConfigureEndpoint
  8515  0AC9  0871               	movf	??_USBConfigureEndpoint,w
  8516  0ACA  00F6               	movwf	USBConfigureEndpoint@handle
  8517  0ACB                     l2959:
  8518                           
  8519                           ;lib/usb/usb_device.c: 1554:     handle += (4*EPNum+2*direction+0u);
  8520  0ACB  0870               	movf	USBConfigureEndpoint@direction,w
  8521  0ACC  00F1               	movwf	??_USBConfigureEndpoint
  8522  0ACD  3001               	movlw	1
  8523  0ACE                     u1665:
  8524  0ACE  35F1               	lslf	??_USBConfigureEndpoint,f
  8525  0ACF  0B89               	decfsz	9,f
  8526  0AD0  2ACE               	goto	u1665
  8527  0AD1  0875               	movf	USBConfigureEndpoint@EPNum,w
  8528  0AD2  00F2               	movwf	??_USBConfigureEndpoint+1
  8529  0AD3  3001               	movlw	1
  8530  0AD4                     u1675:
  8531  0AD4  35F2               	lslf	??_USBConfigureEndpoint+1,f
  8532  0AD5  3EFF               	addlw	-1
  8533  0AD6  1D03               	skipz
  8534  0AD7  2AD4               	goto	u1675
  8535  0AD8  3572               	lslf	??_USBConfigureEndpoint+1,w
  8536  0AD9  0771               	addwf	??_USBConfigureEndpoint,w
  8537  0ADA  00F3               	movwf	??_USBConfigureEndpoint+2
  8538  0ADB  3001               	movlw	1
  8539  0ADC                     u1685:
  8540  0ADC  35F3               	lslf	??_USBConfigureEndpoint+2,f
  8541  0ADD  3EFF               	addlw	-1
  8542  0ADE  1D03               	skipz
  8543  0ADF  2ADC               	goto	u1685
  8544  0AE0  3573               	lslf	??_USBConfigureEndpoint+2,w
  8545  0AE1  00F4               	movwf	??_USBConfigureEndpoint+3
  8546  0AE2  0874               	movf	??_USBConfigureEndpoint+3,w
  8547  0AE3  07F6               	addwf	USBConfigureEndpoint@handle,f
  8548  0AE4                     l2961:
  8549                           
  8550                           ;lib/usb/usb_device.c: 1556:     handle->STAT.UOWN = 0;
  8551  0AE4  0876               	movf	USBConfigureEndpoint@handle,w
  8552  0AE5  0086               	movwf	6
  8553  0AE6  0187               	clrf	7
  8554  0AE7  1381               	bcf	1,7
  8555  0AE8                     l2963:
  8556                           
  8557                           ;lib/usb/usb_device.c: 1561:     if(direction == 0)
  8558  0AE8  0870               	movf	USBConfigureEndpoint@direction,w
  8559  0AE9  1D03               	btfss	3,2
  8560  0AEA  2AEC               	goto	u1691
  8561  0AEB  2AED               	goto	u1690
  8562  0AEC                     u1691:
  8563  0AEC  2AF7               	goto	l2967
  8564  0AED                     u1690:
  8565  0AED                     l2965:
  8566                           
  8567                           ;lib/usb/usb_device.c: 1562:     {;lib/usb/usb_device.c: 1563:         pBDTEntryOut[EPNu
      +                          m] = handle;
  8568  0AED  3575               	lslf	USBConfigureEndpoint@EPNum,w
  8569  0AEE  3E20               	addlw	(low (_pBDTEntryOut| (0+256)))& (0+255)
  8570  0AEF  0086               	movwf	6
  8571  0AF0  3001               	movlw	1	; select bank2/3
  8572  0AF1  0087               	movwf	7
  8573  0AF2  0876               	movf	USBConfigureEndpoint@handle,w
  8574  0AF3  3FC0               	movwi [0]fsr1
  8575  0AF4  3000               	movlw	0
  8576  0AF5  3FC1               	movwi [1]fsr1
  8577                           
  8578                           ;lib/usb/usb_device.c: 1564:     }
  8579  0AF6  2AFF               	goto	l2969
  8580  0AF7                     l2967:
  8581                           
  8582                           ;lib/usb/usb_device.c: 1566:     {;lib/usb/usb_device.c: 1567:         pBDTEntryIn[EPNum
      +                          ] = handle;
  8583  0AF7  3575               	lslf	USBConfigureEndpoint@EPNum,w
  8584  0AF8  3EB0               	addlw	(low (_pBDTEntryIn| 0))& (0+255)
  8585  0AF9  0086               	movwf	6
  8586  0AFA  0187               	clrf	7
  8587  0AFB  0876               	movf	USBConfigureEndpoint@handle,w
  8588  0AFC  3FC0               	movwi [0]fsr1
  8589  0AFD  3000               	movlw	0
  8590  0AFE  3FC1               	movwi [1]fsr1
  8591  0AFF                     l2969:
  8592                           
  8593                           ;lib/usb/usb_device.c: 1571:         handle->STAT.DTS = 0;
  8594  0AFF  0876               	movf	USBConfigureEndpoint@handle,w
  8595  0B00  0086               	movwf	6
  8596  0B01  0187               	clrf	7
  8597  0B02  1301               	bcf	1,6
  8598  0B03                     l2971:
  8599                           
  8600                           ;lib/usb/usb_device.c: 1572:         (handle+1)->STAT.DTS = 1;
  8601  0B03  0876               	movf	USBConfigureEndpoint@handle,w
  8602  0B04  3E04               	addlw	4
  8603  0B05  0086               	movwf	6
  8604  0B06  0187               	clrf	7
  8605  0B07  1701               	bsf	1,6
  8606  0B08                     l232:
  8607  0B08  0008               	return
  8608  0B09                     __end_of_USBConfigureEndpoint:
  8609                           
  8610                           	psect	text30
  8611  0A8E                     __ptext30:	
  8612 ;; *************** function _USBCtrlTrfOutHandler *****************
  8613 ;; Defined at:
  8614 ;;		line 2545 in file "lib/usb/usb_device.c"
  8615 ;; Parameters:    Size  Location     Type
  8616 ;;		None
  8617 ;; Auto vars:     Size  Location     Type
  8618 ;;		None
  8619 ;; Return value:  Size  Location     Type
  8620 ;;                  1    wreg      void 
  8621 ;; Registers used:
  8622 ;;		wreg, fsr1l, fsr1h, status,2, status,0, pclath, cstack
  8623 ;; Tracked objects:
  8624 ;;		On entry : 0/0
  8625 ;;		On exit  : 0/0
  8626 ;;		Unchanged: 0/0
  8627 ;; Data sizes:     COMMON   BANK1   BANK2   BANK3  BANK4h  BANK4l   BANK5   BANK6   BANK7   BANK8   BANK9  BANK10  BANK1
      +1  BANK12
  8628 ;;      Params:         0       0       0       0       0       0       0       0       0       0       0       0       
      +0       0
  8629 ;;      Locals:         0       0       0       0       0       0       0       0       0       0       0       0       
      +0       0
  8630 ;;      Temps:          2       0       0       0       0       0       0       0       0       0       0       0       
      +0       0
  8631 ;;      Totals:         2       0       0       0       0       0       0       0       0       0       0       0       
      +0       0
  8632 ;;Total ram usage:        2 bytes
  8633 ;; Hardware stack levels used: 1
  8634 ;; Hardware stack levels required when called: 3
  8635 ;; This function calls:
  8636 ;;		_USBCtrlTrfRxService
  8637 ;; This function is called by:
  8638 ;;		_USBCtrlEPService
  8639 ;; This function uses a non-reentrant model
  8640 ;;
  8641                           
  8642  0A8E                     _USBCtrlTrfOutHandler:	
  8643                           ;psect for function _USBCtrlTrfOutHandler
  8644                           
  8645  0A8E                     l3723:	
  8646                           ;incstack = 0
  8647                           ; Regs used in _USBCtrlTrfOutHandler: [wreg+fsr1l+fsr1h+status,2+status,0+pclath+cstack]
  8648                           
  8649                           
  8650                           ;lib/usb/usb_device.c: 2547:     if(controlTransferState == 2)
  8651  0A8E  3002               	movlw	2
  8652  0A8F  0021               	movlb	1	; select bank1
  8653  0A90  0650               	xorwf	_controlTransferState^(0+128),w
  8654  0A91  1D03               	btfss	3,2
  8655  0A92  2A94               	goto	u2541
  8656  0A93  2A95               	goto	u2540
  8657  0A94                     u2541:
  8658  0A94  2A99               	goto	l3727
  8659  0A95                     u2540:
  8660  0A95                     l3725:
  8661                           
  8662                           ;lib/usb/usb_device.c: 2548:     {;lib/usb/usb_device.c: 2549:         USBCtrlTrfRxServi
      +                          ce();
  8663  0A95  3186  2611  318A   	fcall	_USBCtrlTrfRxService
  8664                           
  8665                           ;lib/usb/usb_device.c: 2550:     }
  8666  0A98  2AC5               	goto	l343
  8667  0A99                     l3727:
  8668                           
  8669                           ;lib/usb/usb_device.c: 2552:     {;lib/usb/usb_device.c: 2555:         controlTransferSt
      +                          ate = 0;
  8670  0A99  01D0               	clrf	_controlTransferState^(0+128)
  8671  0A9A                     l3729:
  8672                           
  8673                           ;lib/usb/usb_device.c: 2562:         if(BothEP0OutUOWNsSet == 0)
  8674  0A9A  084B               	movf	_BothEP0OutUOWNsSet^(0+128),w
  8675  0A9B  1D03               	btfss	3,2
  8676  0A9C  2A9E               	goto	u2551
  8677  0A9D  2A9F               	goto	u2550
  8678  0A9E                     u2551:
  8679  0A9E  2AC4               	goto	l3739
  8680  0A9F                     u2550:
  8681  0A9F                     l3731:
  8682                           
  8683                           ;lib/usb/usb_device.c: 2563:         {;lib/usb/usb_device.c: 2564:             pBDTEntry
      +                          EP0OutNext->CNT = 8;
  8684  0A9F  083F               	movf	_pBDTEntryEP0OutNext^(0+128),w
  8685  0AA0  3E01               	addlw	1
  8686  0AA1  00F6               	movwf	??_USBCtrlTrfOutHandler
  8687  0AA2  3000               	movlw	0
  8688  0AA3  3D40               	addwfc	(_pBDTEntryEP0OutNext+1)^(0+128),w
  8689  0AA4  00F7               	movwf	??_USBCtrlTrfOutHandler+1
  8690  0AA5  0876               	movf	??_USBCtrlTrfOutHandler,w
  8691  0AA6  0086               	movwf	6
  8692  0AA7  0877               	movf	??_USBCtrlTrfOutHandler+1,w
  8693  0AA8  0087               	movwf	7
  8694  0AA9  3008               	movlw	8
  8695  0AAA  0081               	movwf	1
  8696  0AAB                     l3733:
  8697                           
  8698                           ;lib/usb/usb_device.c: 2565:             pBDTEntryEP0OutNext->ADR = (((uint16_t)(&SetupP
      +                          kt)) & 0x7FFF);
  8699  0AAB  3060               	movlw	96
  8700  0AAC  00F6               	movwf	??_USBCtrlTrfOutHandler
  8701  0AAD  3000               	movlw	0
  8702  0AAE  00F7               	movwf	??_USBCtrlTrfOutHandler+1
  8703  0AAF  083F               	movf	_pBDTEntryEP0OutNext^(0+128),w
  8704  0AB0  0086               	movwf	6
  8705  0AB1  0840               	movf	(_pBDTEntryEP0OutNext+1)^(0+128),w
  8706  0AB2  0087               	movwf	7
  8707  0AB3  3142               	addfsr 1,2
  8708  0AB4  0876               	movf	??_USBCtrlTrfOutHandler,w
  8709  0AB5  3FC0               	movwi [0]fsr1
  8710  0AB6  0877               	movf	??_USBCtrlTrfOutHandler+1,w
  8711  0AB7  3FC1               	movwi [1]fsr1
  8712  0AB8                     l3735:
  8713                           
  8714                           ;lib/usb/usb_device.c: 2566:             pBDTEntryEP0OutNext->STAT.Val = 0x00|(0x08 & 0x
      +                          08)|0x04;
  8715  0AB8  083F               	movf	_pBDTEntryEP0OutNext^(0+128),w
  8716  0AB9  0086               	movwf	6
  8717  0ABA  0840               	movf	(_pBDTEntryEP0OutNext+1)^(0+128),w
  8718  0ABB  0087               	movwf	7
  8719  0ABC  300C               	movlw	12
  8720  0ABD  0081               	movwf	1
  8721  0ABE                     l3737:
  8722                           
  8723                           ;lib/usb/usb_device.c: 2567:             pBDTEntryEP0OutNext->STAT.Val |= 0x80;
  8724  0ABE  083F               	movf	_pBDTEntryEP0OutNext^(0+128),w
  8725  0ABF  0086               	movwf	6
  8726  0AC0  0840               	movf	(_pBDTEntryEP0OutNext+1)^(0+128),w
  8727  0AC1  0087               	movwf	7
  8728  0AC2  1781               	bsf	1,7
  8729                           
  8730                           ;lib/usb/usb_device.c: 2568:         }
  8731  0AC3  2AC5               	goto	l343
  8732  0AC4                     l3739:
  8733                           
  8734                           ;lib/usb/usb_device.c: 2570:         {;lib/usb/usb_device.c: 2571:             BothEP0Ou
      +                          tUOWNsSet = 0;
  8735  0AC4  01CB               	clrf	_BothEP0OutUOWNsSet^(0+128)
  8736  0AC5                     l343:
  8737  0AC5  0008               	return
  8738  0AC6                     __end_of_USBCtrlTrfOutHandler:
  8739                           
  8740                           	psect	text31
  8741  0611                     __ptext31:	
  8742 ;; *************** function _USBCtrlTrfRxService *****************
  8743 ;; Defined at:
  8744 ;;		line 1856 in file "lib/usb/usb_device.c"
  8745 ;; Parameters:    Size  Location     Type
  8746 ;;		None
  8747 ;; Auto vars:     Size  Location     Type
  8748 ;;  byteToRead      1    5[COMMON] unsigned char 
  8749 ;;  i               1    4[COMMON] unsigned char 
  8750 ;; Return value:  Size  Location     Type
  8751 ;;                  1    wreg      void 
  8752 ;; Registers used:
  8753 ;;		wreg, fsr1l, fsr1h, status,2, status,0, pclath, cstack
  8754 ;; Tracked objects:
  8755 ;;		On entry : 0/0
  8756 ;;		On exit  : 0/0
  8757 ;;		Unchanged: 0/0
  8758 ;; Data sizes:     COMMON   BANK1   BANK2   BANK3  BANK4h  BANK4l   BANK5   BANK6   BANK7   BANK8   BANK9  BANK10  BANK1
      +1  BANK12
  8759 ;;      Params:         0       0       0       0       0       0       0       0       0       0       0       0       
      +0       0
  8760 ;;      Locals:         2       0       0       0       0       0       0       0       0       0       0       0       
      +0       0
  8761 ;;      Temps:          2       0       0       0       0       0       0       0       0       0       0       0       
      +0       0
  8762 ;;      Totals:         4       0       0       0       0       0       0       0       0       0       0       0       
      +0       0
  8763 ;;Total ram usage:        4 bytes
  8764 ;; Hardware stack levels used: 1
  8765 ;; Hardware stack levels required when called: 2
  8766 ;; This function calls:
  8767 ;;		_USBCtrlEPAllowStatusStage
  8768 ;; This function is called by:
  8769 ;;		_USBCtrlTrfOutHandler
  8770 ;; This function uses a non-reentrant model
  8771 ;;
  8772                           
  8773  0611                     _USBCtrlTrfRxService:	
  8774                           ;psect for function _USBCtrlTrfRxService
  8775                           
  8776  0611                     l3599:	
  8777                           ;incstack = 0
  8778                           ; Regs used in _USBCtrlTrfRxService: [wreg+fsr1l+fsr1h+status,2+status,0+pclath+cstack]
  8779                           
  8780                           
  8781                           ;lib/usb/usb_device.c: 1858:     uint8_t byteToRead;;lib/usb/usb_device.c: 1859:     uin
      +                          t8_t i;;lib/usb/usb_device.c: 1863:     byteToRead = pBDTEntryEP0OutCurrent->CNT;
  8782  0611  0021               	movlb	1	; select bank1
  8783  0612  0852               	movf	_pBDTEntryEP0OutCurrent^(0+128),w
  8784  0613  0086               	movwf	6
  8785  0614  0187               	clrf	7
  8786  0615  3F41               	moviw [1]fsr1
  8787  0616  00F5               	movwf	USBCtrlTrfRxService@byteToRead
  8788  0617                     l3601:
  8789                           
  8790                           ;lib/usb/usb_device.c: 1869:     if(byteToRead > outPipes[0].wCount.Val)
  8791  0617  0875               	movf	USBCtrlTrfRxService@byteToRead,w
  8792  0618  00F2               	movwf	??_USBCtrlTrfRxService
  8793  0619  01F3               	clrf	??_USBCtrlTrfRxService+1
  8794  061A  0873               	movf	??_USBCtrlTrfRxService+1,w
  8795  061B  0022               	movlb	2	; select bank2
  8796  061C  022C               	subwf	((_outPipes+1)^(0+256)+3),w
  8797  061D  1D03               	skipz
  8798  061E  2E21               	goto	u2475
  8799  061F  0872               	movf	??_USBCtrlTrfRxService,w
  8800  0620  022B               	subwf	(_outPipes^(0+256)+3),w
  8801  0621                     u2475:
  8802  0621  1803               	skipnc
  8803  0622  2E24               	goto	u2471
  8804  0623  2E25               	goto	u2470
  8805  0624                     u2471:
  8806  0624  2E29               	goto	l263
  8807  0625                     u2470:
  8808  0625                     l3603:
  8809                           
  8810                           ;lib/usb/usb_device.c: 1870:     {;lib/usb/usb_device.c: 1871:         byteToRead = (uin
      +                          t8_t)(outPipes[0].wCount.Val);
  8811  0625  082B               	movf	(_outPipes^(0+256)+3),w
  8812  0626  00F2               	movwf	??_USBCtrlTrfRxService
  8813  0627  0872               	movf	??_USBCtrlTrfRxService,w
  8814  0628  00F5               	movwf	USBCtrlTrfRxService@byteToRead
  8815  0629                     l263:	
  8816                           ;lib/usb/usb_device.c: 1872:     }
  8817                           
  8818                           
  8819                           ;lib/usb/usb_device.c: 1874:     outPipes[0].wCount.Val -= byteToRead;
  8820  0629  0875               	movf	USBCtrlTrfRxService@byteToRead,w
  8821  062A  00F2               	movwf	??_USBCtrlTrfRxService
  8822  062B  01F3               	clrf	??_USBCtrlTrfRxService+1
  8823  062C  0872               	movf	??_USBCtrlTrfRxService,w
  8824  062D  02AB               	subwf	(_outPipes^(0+256)+3),f
  8825  062E  0873               	movf	??_USBCtrlTrfRxService+1,w
  8826  062F  3BAC               	subwfb	((_outPipes+1)^(0+256)+3),f
  8827  0630                     l3605:
  8828                           
  8829                           ;lib/usb/usb_device.c: 1878:     for(i=0;i<byteToRead;i++)
  8830  0630  01F4               	clrf	USBCtrlTrfRxService@i
  8831  0631  2E45               	goto	l3613
  8832  0632                     l3607:
  8833                           
  8834                           ;lib/usb/usb_device.c: 1879:     {;lib/usb/usb_device.c: 1880:         *outPipes[0].pDst
      +                          .bRam++ = CtrlTrfData[i];
  8835  0632  0874               	movf	USBCtrlTrfRxService@i,w
  8836  0633  3E68               	addlw	104
  8837  0634  0086               	movwf	6
  8838  0635  0187               	clrf	7
  8839  0636  0801               	movf	1,w
  8840  0637  00F2               	movwf	??_USBCtrlTrfRxService
  8841  0638  0828               	movf	_outPipes^(0+256),w
  8842  0639  0086               	movwf	6
  8843  063A  0187               	clrf	7
  8844  063B  0872               	movf	??_USBCtrlTrfRxService,w
  8845  063C  0081               	movwf	1
  8846  063D                     l3609:
  8847  063D  3001               	movlw	1
  8848  063E  00F2               	movwf	??_USBCtrlTrfRxService
  8849  063F  0872               	movf	??_USBCtrlTrfRxService,w
  8850  0640  07A8               	addwf	_outPipes^(0+256),f
  8851  0641                     l3611:
  8852                           
  8853                           ;lib/usb/usb_device.c: 1881:     }
  8854  0641  3001               	movlw	1
  8855  0642  00F2               	movwf	??_USBCtrlTrfRxService
  8856  0643  0872               	movf	??_USBCtrlTrfRxService,w
  8857  0644  07F4               	addwf	USBCtrlTrfRxService@i,f
  8858  0645                     l3613:
  8859  0645  0875               	movf	USBCtrlTrfRxService@byteToRead,w
  8860  0646  0274               	subwf	USBCtrlTrfRxService@i,w
  8861  0647  1C03               	skipc
  8862  0648  2E4A               	goto	u2481
  8863  0649  2E4B               	goto	u2480
  8864  064A                     u2481:
  8865  064A  2E32               	goto	l3607
  8866  064B                     u2480:
  8867  064B                     l3615:
  8868                           
  8869                           ;lib/usb/usb_device.c: 1885:     if(outPipes[0].wCount.Val > 0)
  8870  064B  082B               	movf	(_outPipes^(0+256)+3),w
  8871  064C  042C               	iorwf	((_outPipes+1)^(0+256)+3),w
  8872  064D  1903               	btfsc	3,2
  8873  064E  2E50               	goto	u2491
  8874  064F  2E51               	goto	u2490
  8875  0650                     u2491:
  8876  0650  2E8A               	goto	l3627
  8877  0651                     u2490:
  8878  0651                     l3617:
  8879                           
  8880                           ;lib/usb/usb_device.c: 1886:     {;lib/usb/usb_device.c: 1887:         pBDTEntryEP0OutNe
      +                          xt->CNT = 8;
  8881  0651  0021               	movlb	1	; select bank1
  8882  0652  083F               	movf	_pBDTEntryEP0OutNext^(0+128),w
  8883  0653  3E01               	addlw	1
  8884  0654  00F2               	movwf	??_USBCtrlTrfRxService
  8885  0655  3000               	movlw	0
  8886  0656  3D40               	addwfc	(_pBDTEntryEP0OutNext+1)^(0+128),w
  8887  0657  00F3               	movwf	??_USBCtrlTrfRxService+1
  8888  0658  0872               	movf	??_USBCtrlTrfRxService,w
  8889  0659  0086               	movwf	6
  8890  065A  0873               	movf	??_USBCtrlTrfRxService+1,w
  8891  065B  0087               	movwf	7
  8892  065C  3008               	movlw	8
  8893  065D  0081               	movwf	1
  8894  065E                     l3619:
  8895                           
  8896                           ;lib/usb/usb_device.c: 1888:         pBDTEntryEP0OutNext->ADR = (((uint16_t)(&CtrlTrfDat
      +                          a)) & 0x7FFF);
  8897  065E  3068               	movlw	104
  8898  065F  00F2               	movwf	??_USBCtrlTrfRxService
  8899  0660  3000               	movlw	0
  8900  0661  00F3               	movwf	??_USBCtrlTrfRxService+1
  8901  0662  083F               	movf	_pBDTEntryEP0OutNext^(0+128),w
  8902  0663  0086               	movwf	6
  8903  0664  0840               	movf	(_pBDTEntryEP0OutNext+1)^(0+128),w
  8904  0665  0087               	movwf	7
  8905  0666  3142               	addfsr 1,2
  8906  0667  0872               	movf	??_USBCtrlTrfRxService,w
  8907  0668  3FC0               	movwi [0]fsr1
  8908  0669  0873               	movf	??_USBCtrlTrfRxService+1,w
  8909  066A  3FC1               	movwi [1]fsr1
  8910  066B                     l3621:
  8911                           
  8912                           ;lib/usb/usb_device.c: 1889:         if(pBDTEntryEP0OutCurrent->STAT.DTS == 0)
  8913  066B  0852               	movf	_pBDTEntryEP0OutCurrent^(0+128),w
  8914  066C  0086               	movwf	6
  8915  066D  0187               	clrf	7
  8916  066E  1B01               	btfsc	1,6
  8917  066F  2E71               	goto	u2501
  8918  0670  2E72               	goto	u2500
  8919  0671                     u2501:
  8920  0671  2E7E               	goto	l3625
  8921  0672                     u2500:
  8922  0672                     l3623:
  8923                           
  8924                           ;lib/usb/usb_device.c: 1890:         {;lib/usb/usb_device.c: 1891:             pBDTEntry
      +                          EP0OutNext->STAT.Val = 0x40|(0x08 & 0x08);
  8925  0672  083F               	movf	_pBDTEntryEP0OutNext^(0+128),w
  8926  0673  0086               	movwf	6
  8927  0674  0840               	movf	(_pBDTEntryEP0OutNext+1)^(0+128),w
  8928  0675  0087               	movwf	7
  8929  0676  3048               	movlw	72
  8930  0677  0081               	movwf	1
  8931                           
  8932                           ;lib/usb/usb_device.c: 1892:             pBDTEntryEP0OutNext->STAT.Val |= 0x80;
  8933  0678  083F               	movf	_pBDTEntryEP0OutNext^(0+128),w
  8934  0679  0086               	movwf	6
  8935  067A  0840               	movf	(_pBDTEntryEP0OutNext+1)^(0+128),w
  8936  067B  0087               	movwf	7
  8937  067C  1781               	bsf	1,7
  8938                           
  8939                           ;lib/usb/usb_device.c: 1893:         }
  8940  067D  2EBA               	goto	l273
  8941  067E                     l3625:
  8942                           
  8943                           ;lib/usb/usb_device.c: 1895:         {;lib/usb/usb_device.c: 1896:             pBDTEntry
      +                          EP0OutNext->STAT.Val = 0x00|(0x08 & 0x08);
  8944  067E  083F               	movf	_pBDTEntryEP0OutNext^(0+128),w
  8945  067F  0086               	movwf	6
  8946  0680  0840               	movf	(_pBDTEntryEP0OutNext+1)^(0+128),w
  8947  0681  0087               	movwf	7
  8948  0682  3008               	movlw	8
  8949  0683  0081               	movwf	1
  8950                           
  8951                           ;lib/usb/usb_device.c: 1897:             pBDTEntryEP0OutNext->STAT.Val |= 0x80;
  8952  0684  083F               	movf	_pBDTEntryEP0OutNext^(0+128),w
  8953  0685  0086               	movwf	6
  8954  0686  0840               	movf	(_pBDTEntryEP0OutNext+1)^(0+128),w
  8955  0687  0087               	movwf	7
  8956  0688  1781               	bsf	1,7
  8957  0689  2EBA               	goto	l273
  8958  068A                     l3627:
  8959                           
  8960                           ;lib/usb/usb_device.c: 1901:     {;lib/usb/usb_device.c: 1905:         pBDTEntryEP0OutNe
      +                          xt->CNT = 8;
  8961  068A  0021               	movlb	1	; select bank1
  8962  068B  083F               	movf	_pBDTEntryEP0OutNext^(0+128),w
  8963  068C  3E01               	addlw	1
  8964  068D  00F2               	movwf	??_USBCtrlTrfRxService
  8965  068E  3000               	movlw	0
  8966  068F  3D40               	addwfc	(_pBDTEntryEP0OutNext+1)^(0+128),w
  8967  0690  00F3               	movwf	??_USBCtrlTrfRxService+1
  8968  0691  0872               	movf	??_USBCtrlTrfRxService,w
  8969  0692  0086               	movwf	6
  8970  0693  0873               	movf	??_USBCtrlTrfRxService+1,w
  8971  0694  0087               	movwf	7
  8972  0695  3008               	movlw	8
  8973  0696  0081               	movwf	1
  8974  0697                     l3629:
  8975                           
  8976                           ;lib/usb/usb_device.c: 1906:         pBDTEntryEP0OutNext->ADR = (((uint16_t)(&SetupPkt))
      +                           & 0x7FFF);
  8977  0697  3060               	movlw	96
  8978  0698  00F2               	movwf	??_USBCtrlTrfRxService
  8979  0699  3000               	movlw	0
  8980  069A  00F3               	movwf	??_USBCtrlTrfRxService+1
  8981  069B  083F               	movf	_pBDTEntryEP0OutNext^(0+128),w
  8982  069C  0086               	movwf	6
  8983  069D  0840               	movf	(_pBDTEntryEP0OutNext+1)^(0+128),w
  8984  069E  0087               	movwf	7
  8985  069F  3142               	addfsr 1,2
  8986  06A0  0872               	movf	??_USBCtrlTrfRxService,w
  8987  06A1  3FC0               	movwi [0]fsr1
  8988  06A2  0873               	movf	??_USBCtrlTrfRxService+1,w
  8989  06A3  3FC1               	movwi [1]fsr1
  8990  06A4                     l3631:
  8991                           
  8992                           ;lib/usb/usb_device.c: 1910:         pBDTEntryEP0OutNext->STAT.Val = 0x04;
  8993  06A4  083F               	movf	_pBDTEntryEP0OutNext^(0+128),w
  8994  06A5  0086               	movwf	6
  8995  06A6  0840               	movf	(_pBDTEntryEP0OutNext+1)^(0+128),w
  8996  06A7  0087               	movwf	7
  8997  06A8  3004               	movlw	4
  8998  06A9  0081               	movwf	1
  8999  06AA                     l3633:
  9000                           
  9001                           ;lib/usb/usb_device.c: 1911:         pBDTEntryEP0OutNext->STAT.Val |= 0x80;
  9002  06AA  083F               	movf	_pBDTEntryEP0OutNext^(0+128),w
  9003  06AB  0086               	movwf	6
  9004  06AC  0840               	movf	(_pBDTEntryEP0OutNext+1)^(0+128),w
  9005  06AD  0087               	movwf	7
  9006  06AE  1781               	bsf	1,7
  9007  06AF                     l271:
  9008  06AF  0022               	movlb	2	; select bank2
  9009  06B0  13AA               	bcf	(_outPipes^(0+256)+2),7
  9010  06B1                     l3637:
  9011                           
  9012                           ;lib/usb/usb_device.c: 1945:         if(USBDeferStatusStagePacket == 0)
  9013  06B1  0021               	movlb	1	; select bank1
  9014  06B2  0849               	movf	_USBDeferStatusStagePacket^(0+128),w	;volatile
  9015  06B3  1D03               	btfss	3,2
  9016  06B4  2EB6               	goto	u2511
  9017  06B5  2EB7               	goto	u2510
  9018  06B6                     u2511:
  9019  06B6  2EBA               	goto	l273
  9020  06B7                     u2510:
  9021  06B7                     l3639:
  9022                           
  9023                           ;lib/usb/usb_device.c: 1946:         {;lib/usb/usb_device.c: 1947:             USBCtrlEP
      +                          AllowStatusStage();
  9024  06B7  318D  251A  3186   	fcall	_USBCtrlEPAllowStatusStage
  9025  06BA                     l273:
  9026  06BA  0008               	return
  9027  06BB                     __end_of_USBCtrlTrfRxService:
  9028                           
  9029                           	psect	text32
  9030  0D1A                     __ptext32:	
  9031 ;; *************** function _USBCtrlEPAllowStatusStage *****************
  9032 ;; Defined at:
  9033 ;;		line 1420 in file "lib/usb/usb_device.c"
  9034 ;; Parameters:    Size  Location     Type
  9035 ;;		None
  9036 ;; Auto vars:     Size  Location     Type
  9037 ;;		None
  9038 ;; Return value:  Size  Location     Type
  9039 ;;                  1    wreg      void 
  9040 ;; Registers used:
  9041 ;;		wreg, fsr1l, fsr1h, status,2, status,0
  9042 ;; Tracked objects:
  9043 ;;		On entry : 0/0
  9044 ;;		On exit  : 0/0
  9045 ;;		Unchanged: 0/0
  9046 ;; Data sizes:     COMMON   BANK1   BANK2   BANK3  BANK4h  BANK4l   BANK5   BANK6   BANK7   BANK8   BANK9  BANK10  BANK1
      +1  BANK12
  9047 ;;      Params:         0       0       0       0       0       0       0       0       0       0       0       0       
      +0       0
  9048 ;;      Locals:         0       0       0       0       0       0       0       0       0       0       0       0       
      +0       0
  9049 ;;      Temps:          2       0       0       0       0       0       0       0       0       0       0       0       
      +0       0
  9050 ;;      Totals:         2       0       0       0       0       0       0       0       0       0       0       0       
      +0       0
  9051 ;;Total ram usage:        2 bytes
  9052 ;; Hardware stack levels used: 1
  9053 ;; Hardware stack levels required when called: 1
  9054 ;; This function calls:
  9055 ;;		Nothing
  9056 ;; This function is called by:
  9057 ;;		_USBDeviceTasks
  9058 ;;		_USBCtrlEPServiceComplete
  9059 ;;		_USBCtrlTrfRxService
  9060 ;; This function uses a non-reentrant model
  9061 ;;
  9062                           
  9063  0D1A                     _USBCtrlEPAllowStatusStage:	
  9064                           ;psect for function _USBCtrlEPAllowStatusStage
  9065                           
  9066  0D1A                     l3277:	
  9067                           ;incstack = 0
  9068                           ; Regs used in _USBCtrlEPAllowStatusStage: [wreg+fsr1l+fsr1h+status,2+status,0]
  9069                           
  9070                           
  9071                           ;lib/usb/usb_device.c: 1427:     if(USBStatusStageEnabledFlag1 == 0)
  9072  0D1A  0021               	movlb	1	; select bank1
  9073  0D1B  0848               	movf	_USBStatusStageEnabledFlag1^(0+128),w	;volatile
  9074  0D1C  1D03               	btfss	3,2
  9075  0D1D  2D1F               	goto	u2041
  9076  0D1E  2D20               	goto	u2040
  9077  0D1F                     u2041:
  9078  0D1F  2D8B               	goto	l221
  9079  0D20                     u2040:
  9080  0D20                     l3279:
  9081                           
  9082                           ;lib/usb/usb_device.c: 1428:     {;lib/usb/usb_device.c: 1429:         USBStatusStageEna
      +                          bledFlag1 = 1;
  9083  0D20  3001               	movlw	1
  9084  0D21  00F0               	movwf	??_USBCtrlEPAllowStatusStage
  9085  0D22  0870               	movf	??_USBCtrlEPAllowStatusStage,w
  9086  0D23  00C8               	movwf	_USBStatusStageEnabledFlag1^(0+128)	;volatile
  9087  0D24                     l3281:
  9088                           
  9089                           ;lib/usb/usb_device.c: 1430:         if(USBStatusStageEnabledFlag2 == 0)
  9090  0D24  0847               	movf	_USBStatusStageEnabledFlag2^(0+128),w	;volatile
  9091  0D25  1D03               	btfss	3,2
  9092  0D26  2D28               	goto	u2051
  9093  0D27  2D29               	goto	u2050
  9094  0D28                     u2051:
  9095  0D28  2D8B               	goto	l221
  9096  0D29                     u2050:
  9097  0D29                     l3283:
  9098                           
  9099                           ;lib/usb/usb_device.c: 1431:         {;lib/usb/usb_device.c: 1432:             USBStatus
      +                          StageEnabledFlag2 = 1;
  9100  0D29  3001               	movlw	1
  9101  0D2A  00F0               	movwf	??_USBCtrlEPAllowStatusStage
  9102  0D2B  0870               	movf	??_USBCtrlEPAllowStatusStage,w
  9103  0D2C  00C7               	movwf	_USBStatusStageEnabledFlag2^(0+128)	;volatile
  9104  0D2D                     l3285:
  9105                           
  9106                           ;lib/usb/usb_device.c: 1436:             if(controlTransferState == 2)
  9107  0D2D  3002               	movlw	2
  9108  0D2E  0650               	xorwf	_controlTransferState^(0+128),w
  9109  0D2F  1D03               	btfss	3,2
  9110  0D30  2D32               	goto	u2061
  9111  0D31  2D33               	goto	u2060
  9112  0D32                     u2061:
  9113  0D32  2D45               	goto	l3293
  9114  0D33                     u2060:
  9115  0D33                     l3287:
  9116                           
  9117                           ;lib/usb/usb_device.c: 1437:             {;lib/usb/usb_device.c: 1438:                 p
      +                          BDTEntryIn[0]->CNT = 0;
  9118  0D33  0830               	movf	_pBDTEntryIn^(0+128),w
  9119  0D34  0086               	movwf	6
  9120  0D35  0831               	movf	(_pBDTEntryIn+1)^(0+128),w
  9121  0D36  0087               	movwf	7
  9122  0D37  3141               	addfsr 1,1
  9123  0D38  0181               	clrf	1
  9124  0D39                     l3289:
  9125                           
  9126                           ;lib/usb/usb_device.c: 1439:                 pBDTEntryIn[0]->STAT.Val = 0x40|(0x08 & 0x0
      +                          8);
  9127  0D39  0830               	movf	_pBDTEntryIn^(0+128),w
  9128  0D3A  0086               	movwf	6
  9129  0D3B  0831               	movf	(_pBDTEntryIn+1)^(0+128),w
  9130  0D3C  0087               	movwf	7
  9131  0D3D  3048               	movlw	72
  9132  0D3E  0081               	movwf	1
  9133  0D3F                     l3291:
  9134                           
  9135                           ;lib/usb/usb_device.c: 1440:                 pBDTEntryIn[0]->STAT.Val |= 0x80;
  9136  0D3F  0830               	movf	_pBDTEntryIn^(0+128),w
  9137  0D40  0086               	movwf	6
  9138  0D41  0831               	movf	(_pBDTEntryIn+1)^(0+128),w
  9139  0D42  0087               	movwf	7
  9140  0D43  1781               	bsf	1,7
  9141                           
  9142                           ;lib/usb/usb_device.c: 1441:             }
  9143  0D44  2D8B               	goto	l221
  9144  0D45                     l3293:
  9145  0D45  0350               	decf	_controlTransferState^(0+128),w
  9146  0D46  1D03               	btfss	3,2
  9147  0D47  2D49               	goto	u2071
  9148  0D48  2D4A               	goto	u2070
  9149  0D49                     u2071:
  9150  0D49  2D8B               	goto	l217
  9151  0D4A                     u2070:
  9152  0D4A                     l3295:
  9153                           
  9154                           ;lib/usb/usb_device.c: 1443:             {;lib/usb/usb_device.c: 1444:                 B
      +                          othEP0OutUOWNsSet = 0;
  9155  0D4A  01CB               	clrf	_BothEP0OutUOWNsSet^(0+128)
  9156  0D4B                     l3297:
  9157                           
  9158                           ;lib/usb/usb_device.c: 1449:                     pBDTEntryEP0OutCurrent->CNT = 8;
  9159  0D4B  3008               	movlw	8
  9160  0D4C  00F0               	movwf	??_USBCtrlEPAllowStatusStage
  9161  0D4D  0A52               	incf	_pBDTEntryEP0OutCurrent^(0+128),w
  9162  0D4E  0086               	movwf	6
  9163  0D4F  0187               	clrf	7
  9164  0D50  0870               	movf	??_USBCtrlEPAllowStatusStage,w
  9165  0D51  0081               	movwf	1
  9166  0D52                     l3299:
  9167                           
  9168                           ;lib/usb/usb_device.c: 1450:                     pBDTEntryEP0OutCurrent->ADR = (((uint16
      +                          _t)(&SetupPkt)) & 0x7FFF);
  9169  0D52  3060               	movlw	96
  9170  0D53  00F0               	movwf	??_USBCtrlEPAllowStatusStage
  9171  0D54  3000               	movlw	0
  9172  0D55  00F1               	movwf	??_USBCtrlEPAllowStatusStage+1
  9173  0D56  0852               	movf	_pBDTEntryEP0OutCurrent^(0+128),w
  9174  0D57  3E02               	addlw	2
  9175  0D58  0086               	movwf	6
  9176  0D59  0187               	clrf	7
  9177  0D5A  0870               	movf	??_USBCtrlEPAllowStatusStage,w
  9178  0D5B  3FC0               	movwi [0]fsr1
  9179  0D5C  0871               	movf	??_USBCtrlEPAllowStatusStage+1,w
  9180  0D5D  3FC1               	movwi [1]fsr1
  9181  0D5E                     l3301:
  9182                           
  9183                           ;lib/usb/usb_device.c: 1451:                     pBDTEntryEP0OutCurrent->STAT.Val = 0x04
      +                          ;
  9184  0D5E  3004               	movlw	4
  9185  0D5F  00F0               	movwf	??_USBCtrlEPAllowStatusStage
  9186  0D60  0852               	movf	_pBDTEntryEP0OutCurrent^(0+128),w
  9187  0D61  0086               	movwf	6
  9188  0D62  0187               	clrf	7
  9189  0D63  0870               	movf	??_USBCtrlEPAllowStatusStage,w
  9190  0D64  0081               	movwf	1
  9191  0D65                     l3303:
  9192                           
  9193                           ;lib/usb/usb_device.c: 1452:                     pBDTEntryEP0OutCurrent->STAT.Val |= 0x8
      +                          0;
  9194  0D65  0852               	movf	_pBDTEntryEP0OutCurrent^(0+128),w
  9195  0D66  0086               	movwf	6
  9196  0D67  0187               	clrf	7
  9197  0D68  1781               	bsf	1,7
  9198  0D69                     l3305:
  9199                           
  9200                           ;lib/usb/usb_device.c: 1453:                     BothEP0OutUOWNsSet = 1;
  9201  0D69  01CB               	clrf	_BothEP0OutUOWNsSet^(0+128)
  9202  0D6A  0ACB               	incf	_BothEP0OutUOWNsSet^(0+128),f
  9203  0D6B                     l3307:
  9204                           
  9205                           ;lib/usb/usb_device.c: 1457:                 pBDTEntryEP0OutNext->CNT = 8;
  9206  0D6B  083F               	movf	_pBDTEntryEP0OutNext^(0+128),w
  9207  0D6C  3E01               	addlw	1
  9208  0D6D  00F0               	movwf	??_USBCtrlEPAllowStatusStage
  9209  0D6E  3000               	movlw	0
  9210  0D6F  3D40               	addwfc	(_pBDTEntryEP0OutNext+1)^(0+128),w
  9211  0D70  00F1               	movwf	??_USBCtrlEPAllowStatusStage+1
  9212  0D71  0870               	movf	??_USBCtrlEPAllowStatusStage,w
  9213  0D72  0086               	movwf	6
  9214  0D73  0871               	movf	??_USBCtrlEPAllowStatusStage+1,w
  9215  0D74  0087               	movwf	7
  9216  0D75  3008               	movlw	8
  9217  0D76  0081               	movwf	1
  9218  0D77                     l3309:
  9219                           
  9220                           ;lib/usb/usb_device.c: 1458:                 pBDTEntryEP0OutNext->ADR = (((uint16_t)(&Se
      +                          tupPkt)) & 0x7FFF);
  9221  0D77  3060               	movlw	96
  9222  0D78  00F0               	movwf	??_USBCtrlEPAllowStatusStage
  9223  0D79  3000               	movlw	0
  9224  0D7A  00F1               	movwf	??_USBCtrlEPAllowStatusStage+1
  9225  0D7B  083F               	movf	_pBDTEntryEP0OutNext^(0+128),w
  9226  0D7C  0086               	movwf	6
  9227  0D7D  0840               	movf	(_pBDTEntryEP0OutNext+1)^(0+128),w
  9228  0D7E  0087               	movwf	7
  9229  0D7F  3142               	addfsr 1,2
  9230  0D80  0870               	movf	??_USBCtrlEPAllowStatusStage,w
  9231  0D81  3FC0               	movwi [0]fsr1
  9232  0D82  0871               	movf	??_USBCtrlEPAllowStatusStage+1,w
  9233  0D83  3FC1               	movwi [1]fsr1
  9234  0D84                     l3311:
  9235                           
  9236                           ;lib/usb/usb_device.c: 1459:                 pBDTEntryEP0OutNext->STAT.Val = 0x80;
  9237  0D84  083F               	movf	_pBDTEntryEP0OutNext^(0+128),w
  9238  0D85  0086               	movwf	6
  9239  0D86  0840               	movf	(_pBDTEntryEP0OutNext+1)^(0+128),w
  9240  0D87  0087               	movwf	7
  9241  0D88  3080               	movlw	128
  9242  0D89  0081               	movwf	1
  9243  0D8A  2D8B               	goto	l221
  9244  0D8B                     l217:	
  9245                           ;lib/usb/usb_device.c: 1461:         }
  9246                           
  9247  0D8B                     l221:
  9248  0D8B  0008               	return
  9249  0D8C                     __end_of_USBCtrlEPAllowStatusStage:
  9250                           
  9251                           	psect	text33
  9252  0E01                     __ptext33:	
  9253 ;; *************** function _USBCtrlTrfInHandler *****************
  9254 ;; Defined at:
  9255 ;;		line 2599 in file "lib/usb/usb_device.c"
  9256 ;; Parameters:    Size  Location     Type
  9257 ;;		None
  9258 ;; Auto vars:     Size  Location     Type
  9259 ;;  lastDTS         1    5[COMMON] unsigned char 
  9260 ;; Return value:  Size  Location     Type
  9261 ;;                  1    wreg      void 
  9262 ;; Registers used:
  9263 ;;		wreg, fsr0l, fsr0h, fsr1l, fsr1h, status,2, status,0, pclath, cstack
  9264 ;; Tracked objects:
  9265 ;;		On entry : 0/0
  9266 ;;		On exit  : 0/0
  9267 ;;		Unchanged: 0/0
  9268 ;; Data sizes:     COMMON   BANK1   BANK2   BANK3  BANK4h  BANK4l   BANK5   BANK6   BANK7   BANK8   BANK9  BANK10  BANK1
      +1  BANK12
  9269 ;;      Params:         0       0       0       0       0       0       0       0       0       0       0       0       
      +0       0
  9270 ;;      Locals:         1       0       0       0       0       0       0       0       0       0       0       0       
      +0       0
  9271 ;;      Temps:          2       0       0       0       0       0       0       0       0       0       0       0       
      +0       0
  9272 ;;      Totals:         3       0       0       0       0       0       0       0       0       0       0       0       
      +0       0
  9273 ;;Total ram usage:        3 bytes
  9274 ;; Hardware stack levels used: 1
  9275 ;; Hardware stack levels required when called: 2
  9276 ;; This function calls:
  9277 ;;		_USBCtrlTrfTxService
  9278 ;; This function is called by:
  9279 ;;		_USBCtrlEPService
  9280 ;; This function uses a non-reentrant model
  9281 ;;
  9282                           
  9283  0E01                     _USBCtrlTrfInHandler:	
  9284                           ;psect for function _USBCtrlTrfInHandler
  9285                           
  9286  0E01                     l3741:	
  9287                           ;incstack = 0
  9288                           ; Regs used in _USBCtrlTrfInHandler: [wreg-fsr1h+status,2+status,0+pclath+cstack]
  9289                           
  9290                           
  9291                           ;lib/usb/usb_device.c: 2601:     uint8_t lastDTS;;lib/usb/usb_device.c: 2603:     lastDT
      +                          S = pBDTEntryIn[0]->STAT.DTS;
  9292  0E01  0021               	movlb	1	; select bank1
  9293  0E02  0830               	movf	_pBDTEntryIn^(0+128),w
  9294  0E03  0086               	movwf	6
  9295  0E04  0831               	movf	(_pBDTEntryIn+1)^(0+128),w
  9296  0E05  0087               	movwf	7
  9297  0E06  3000               	movlw	0
  9298  0E07  1B01               	btfsc	1,6
  9299  0E08  3001               	movlw	1
  9300  0E09  00F5               	movwf	USBCtrlTrfInHandler@lastDTS
  9301  0E0A                     l3743:
  9302                           
  9303                           ;lib/usb/usb_device.c: 2606:     pBDTEntryIn[0] = (volatile BDT_ENTRY*)(((uint16_t)pBDTE
      +                          ntryIn[0]) ^ 0x0004);
  9304  0E0A  3004               	movlw	4
  9305  0E0B  0630               	xorwf	_pBDTEntryIn^(0+128),w
  9306  0E0C  00B0               	movwf	_pBDTEntryIn^(0+128)
  9307  0E0D  3000               	movlw	0
  9308  0E0E  0631               	xorwf	(_pBDTEntryIn+1)^(0+128),w
  9309  0E0F  00B1               	movwf	(_pBDTEntryIn+1)^(0+128)
  9310  0E10                     l3745:
  9311                           
  9312                           ;lib/usb/usb_device.c: 2611:     if(USBDeviceState == ADR_PENDING_STATE)
  9313  0E10  3008               	movlw	8
  9314  0E11  0653               	xorwf	_USBDeviceState^(0+128),w
  9315  0E12  1D03               	btfss	3,2
  9316  0E13  2E15               	goto	u2561
  9317  0E14  2E16               	goto	u2560
  9318  0E15                     u2561:
  9319  0E15  2E2B               	goto	l3755
  9320  0E16                     u2560:
  9321  0E16                     l3747:
  9322                           
  9323                           ;lib/usb/usb_device.c: 2612:     {;lib/usb/usb_device.c: 2613:         UADDR = (SetupPkt
      +                          .bDevADR & 0x7F);
  9324  0E16  0020               	movlb	0	; select bank0
  9325  0E17  0862               	movf	98,w	;volatile
  9326  0E18  397F               	andlw	127
  9327  0E19  003D               	movlb	29	; select bank29
  9328  0E1A  0096               	movwf	22	;volatile
  9329  0E1B                     l3749:
  9330                           
  9331                           ;lib/usb/usb_device.c: 2614:         if(UADDR != 0u)
  9332  0E1B  0816               	movf	22,w	;volatile
  9333  0E1C  1903               	btfsc	3,2
  9334  0E1D  2E1F               	goto	u2571
  9335  0E1E  2E20               	goto	u2570
  9336  0E1F                     u2571:
  9337  0E1F  2E26               	goto	l3753
  9338  0E20                     u2570:
  9339  0E20                     l3751:
  9340                           
  9341                           ;lib/usb/usb_device.c: 2615:         {;lib/usb/usb_device.c: 2616:             USBDevice
      +                          State=ADDRESS_STATE;
  9342  0E20  3010               	movlw	16
  9343  0E21  00F3               	movwf	??_USBCtrlTrfInHandler
  9344  0E22  0873               	movf	??_USBCtrlTrfInHandler,w
  9345  0E23  0021               	movlb	1	; select bank1
  9346  0E24  00D3               	movwf	_USBDeviceState^(0+128)
  9347                           
  9348                           ;lib/usb/usb_device.c: 2617:         }
  9349  0E25  2E2B               	goto	l3755
  9350  0E26                     l3753:
  9351                           
  9352                           ;lib/usb/usb_device.c: 2619:         {;lib/usb/usb_device.c: 2620:             USBDevice
      +                          State=DEFAULT_STATE;
  9353  0E26  3004               	movlw	4
  9354  0E27  00F3               	movwf	??_USBCtrlTrfInHandler
  9355  0E28  0873               	movf	??_USBCtrlTrfInHandler,w
  9356  0E29  0021               	movlb	1	; select bank1
  9357  0E2A  00D3               	movwf	_USBDeviceState^(0+128)
  9358  0E2B                     l3755:
  9359                           
  9360                           ;lib/usb/usb_device.c: 2625:     if(controlTransferState == 1)
  9361  0E2B  0350               	decf	_controlTransferState^(0+128),w
  9362  0E2C  1D03               	btfss	3,2
  9363  0E2D  2E2F               	goto	u2581
  9364  0E2E  2E30               	goto	u2580
  9365  0E2F                     u2581:
  9366  0E2F  2E70               	goto	l349
  9367  0E30                     u2580:
  9368  0E30                     l3757:
  9369                           
  9370                           ;lib/usb/usb_device.c: 2626:     {;lib/usb/usb_device.c: 2627:         pBDTEntryIn[0]->A
      +                          DR = (((uint16_t)(CtrlTrfData)) & 0x7FFF);
  9371  0E30  3068               	movlw	104
  9372  0E31  00F3               	movwf	??_USBCtrlTrfInHandler
  9373  0E32  3000               	movlw	0
  9374  0E33  00F4               	movwf	??_USBCtrlTrfInHandler+1
  9375  0E34  0830               	movf	_pBDTEntryIn^(0+128),w
  9376  0E35  0086               	movwf	6
  9377  0E36  0831               	movf	(_pBDTEntryIn+1)^(0+128),w
  9378  0E37  0087               	movwf	7
  9379  0E38  3142               	addfsr 1,2
  9380  0E39  0873               	movf	??_USBCtrlTrfInHandler,w
  9381  0E3A  3FC0               	movwi [0]fsr1
  9382  0E3B  0874               	movf	??_USBCtrlTrfInHandler+1,w
  9383  0E3C  3FC1               	movwi [1]fsr1
  9384  0E3D                     l3759:
  9385                           
  9386                           ;lib/usb/usb_device.c: 2628:         USBCtrlTrfTxService();
  9387  0E3D  318D  258C  318E   	fcall	_USBCtrlTrfTxService
  9388  0E40                     l3761:
  9389                           
  9390                           ;lib/usb/usb_device.c: 2634:         if(shortPacketStatus == 2)
  9391  0E40  3002               	movlw	2
  9392  0E41  0021               	movlb	1	; select bank1
  9393  0E42  0651               	xorwf	_shortPacketStatus^(0+128),w
  9394  0E43  1D03               	btfss	3,2
  9395  0E44  2E46               	goto	u2591
  9396  0E45  2E47               	goto	u2590
  9397  0E46                     u2591:
  9398  0E46  2E53               	goto	l3765
  9399  0E47                     u2590:
  9400  0E47                     l3763:
  9401                           
  9402                           ;lib/usb/usb_device.c: 2635:         {;lib/usb/usb_device.c: 2638:             pBDTEntry
      +                          In[0]->STAT.Val = 0x04;
  9403  0E47  0830               	movf	_pBDTEntryIn^(0+128),w
  9404  0E48  0086               	movwf	6
  9405  0E49  0831               	movf	(_pBDTEntryIn+1)^(0+128),w
  9406  0E4A  0087               	movwf	7
  9407  0E4B  3004               	movlw	4
  9408  0E4C  0081               	movwf	1
  9409                           
  9410                           ;lib/usb/usb_device.c: 2639:             pBDTEntryIn[0]->STAT.Val |= 0x80;
  9411  0E4D  0830               	movf	_pBDTEntryIn^(0+128),w
  9412  0E4E  0086               	movwf	6
  9413  0E4F  0831               	movf	(_pBDTEntryIn+1)^(0+128),w
  9414  0E50  0087               	movwf	7
  9415  0E51  1781               	bsf	1,7
  9416                           
  9417                           ;lib/usb/usb_device.c: 2640:         }
  9418  0E52  2E78               	goto	l357
  9419  0E53                     l3765:
  9420                           
  9421                           ;lib/usb/usb_device.c: 2642:         {;lib/usb/usb_device.c: 2643:             if(lastDT
      +                          S == 0)
  9422  0E53  0875               	movf	USBCtrlTrfInHandler@lastDTS,w
  9423  0E54  1D03               	btfss	3,2
  9424  0E55  2E57               	goto	u2601
  9425  0E56  2E58               	goto	u2600
  9426  0E57                     u2601:
  9427  0E57  2E64               	goto	l3769
  9428  0E58                     u2600:
  9429  0E58                     l3767:
  9430                           
  9431                           ;lib/usb/usb_device.c: 2644:             {;lib/usb/usb_device.c: 2645:                 p
      +                          BDTEntryIn[0]->STAT.Val = 0x40|(0x08 & 0x08);
  9432  0E58  0830               	movf	_pBDTEntryIn^(0+128),w
  9433  0E59  0086               	movwf	6
  9434  0E5A  0831               	movf	(_pBDTEntryIn+1)^(0+128),w
  9435  0E5B  0087               	movwf	7
  9436  0E5C  3048               	movlw	72
  9437  0E5D  0081               	movwf	1
  9438                           
  9439                           ;lib/usb/usb_device.c: 2646:                 pBDTEntryIn[0]->STAT.Val |= 0x80;
  9440  0E5E  0830               	movf	_pBDTEntryIn^(0+128),w
  9441  0E5F  0086               	movwf	6
  9442  0E60  0831               	movf	(_pBDTEntryIn+1)^(0+128),w
  9443  0E61  0087               	movwf	7
  9444  0E62  1781               	bsf	1,7
  9445                           
  9446                           ;lib/usb/usb_device.c: 2647:             }
  9447  0E63  2E78               	goto	l357
  9448  0E64                     l3769:
  9449                           
  9450                           ;lib/usb/usb_device.c: 2649:             {;lib/usb/usb_device.c: 2650:                 p
      +                          BDTEntryIn[0]->STAT.Val = 0x00|(0x08 & 0x08);
  9451  0E64  0830               	movf	_pBDTEntryIn^(0+128),w
  9452  0E65  0086               	movwf	6
  9453  0E66  0831               	movf	(_pBDTEntryIn+1)^(0+128),w
  9454  0E67  0087               	movwf	7
  9455  0E68  3008               	movlw	8
  9456  0E69  0081               	movwf	1
  9457                           
  9458                           ;lib/usb/usb_device.c: 2651:                 pBDTEntryIn[0]->STAT.Val |= 0x80;
  9459  0E6A  0830               	movf	_pBDTEntryIn^(0+128),w
  9460  0E6B  0086               	movwf	6
  9461  0E6C  0831               	movf	(_pBDTEntryIn+1)^(0+128),w
  9462  0E6D  0087               	movwf	7
  9463  0E6E  1781               	bsf	1,7
  9464  0E6F  2E78               	goto	l357
  9465  0E70                     l349:	
  9466                           ;lib/usb/usb_device.c: 2655:  else
  9467                           
  9468                           
  9469                           ;lib/usb/usb_device.c: 2656:  {;lib/usb/usb_device.c: 2660:         if(outPipes[0].info.
      +                          bits.busy == 1)
  9470  0E70  0022               	movlb	2	; select bank2
  9471  0E71  1FAA               	btfss	(_outPipes^(0+256)+2),7
  9472  0E72  2E74               	goto	u2611
  9473  0E73  2E75               	goto	u2610
  9474  0E74                     u2611:
  9475  0E74  2E76               	goto	l3773
  9476  0E75                     u2610:
  9477  0E75                     l356:	
  9478                           ;lib/usb/usb_device.c: 2665:             }
  9479                           
  9480                           
  9481                           ;lib/usb/usb_device.c: 2666:             outPipes[0].info.bits.busy = 0;
  9482  0E75  13AA               	bcf	(_outPipes^(0+256)+2),7
  9483  0E76                     l3773:
  9484                           
  9485                           ;lib/usb/usb_device.c: 2669:         controlTransferState = 0;
  9486  0E76  0021               	movlb	1	; select bank1
  9487  0E77  01D0               	clrf	_controlTransferState^(0+128)
  9488  0E78                     l357:
  9489  0E78  0008               	return
  9490  0E79                     __end_of_USBCtrlTrfInHandler:
  9491                           
  9492                           	psect	text34
  9493  0D8C                     __ptext34:	
  9494 ;; *************** function _USBCtrlTrfTxService *****************
  9495 ;; Defined at:
  9496 ;;		line 1775 in file "lib/usb/usb_device.c"
  9497 ;; Parameters:    Size  Location     Type
  9498 ;;		None
  9499 ;; Auto vars:     Size  Location     Type
  9500 ;;  byteToSend      1    2[COMMON] unsigned char 
  9501 ;; Return value:  Size  Location     Type
  9502 ;;                  1    wreg      void 
  9503 ;; Registers used:
  9504 ;;		wreg, fsr0l, fsr0h, fsr1l, fsr1h, status,2, status,0, pclath
  9505 ;; Tracked objects:
  9506 ;;		On entry : 0/0
  9507 ;;		On exit  : 0/0
  9508 ;;		Unchanged: 0/0
  9509 ;; Data sizes:     COMMON   BANK1   BANK2   BANK3  BANK4h  BANK4l   BANK5   BANK6   BANK7   BANK8   BANK9  BANK10  BANK1
      +1  BANK12
  9510 ;;      Params:         0       0       0       0       0       0       0       0       0       0       0       0       
      +0       0
  9511 ;;      Locals:         1       0       0       0       0       0       0       0       0       0       0       0       
      +0       0
  9512 ;;      Temps:          2       0       0       0       0       0       0       0       0       0       0       0       
      +0       0
  9513 ;;      Totals:         3       0       0       0       0       0       0       0       0       0       0       0       
      +0       0
  9514 ;;Total ram usage:        3 bytes
  9515 ;; Hardware stack levels used: 1
  9516 ;; Hardware stack levels required when called: 1
  9517 ;; This function calls:
  9518 ;;		Nothing
  9519 ;; This function is called by:
  9520 ;;		_USBCtrlEPAllowDataStage
  9521 ;;		_USBCtrlTrfInHandler
  9522 ;; This function uses a non-reentrant model
  9523 ;;
  9524                           
  9525  0D8C                     _USBCtrlTrfTxService:	
  9526                           ;psect for function _USBCtrlTrfTxService
  9527                           
  9528  0D8C                     l3195:	
  9529                           ;incstack = 0
  9530                           ; Regs used in _USBCtrlTrfTxService: [wreg-fsr1h+status,2+status,0+pclath]
  9531                           
  9532                           
  9533                           ;lib/usb/usb_device.c: 1777:     uint8_t byteToSend;;lib/usb/usb_device.c: 1781:     byt
      +                          eToSend = 8;
  9534  0D8C  3008               	movlw	8
  9535  0D8D  00F0               	movwf	??_USBCtrlTrfTxService
  9536  0D8E  0870               	movf	??_USBCtrlTrfTxService,w
  9537  0D8F  00F2               	movwf	USBCtrlTrfTxService@byteToSend
  9538                           
  9539                           ;lib/usb/usb_device.c: 1782:     if(inPipes[0].wCount.Val < (uint8_t)8)
  9540  0D90  3000               	movlw	0
  9541  0D91  0021               	movlb	1	; select bank1
  9542  0D92  023C               	subwf	((_inPipes+1)^(0+128)+3),w
  9543  0D93  3008               	movlw	8
  9544  0D94  1903               	skipnz
  9545  0D95  023B               	subwf	(_inPipes^(0+128)+3),w
  9546  0D96  1803               	skipnc
  9547  0D97  2D99               	goto	u1931
  9548  0D98  2D9A               	goto	u1930
  9549  0D99                     u1931:
  9550  0D99  2DAF               	goto	l248
  9551  0D9A                     u1930:
  9552  0D9A                     l3197:
  9553                           
  9554                           ;lib/usb/usb_device.c: 1783:     {;lib/usb/usb_device.c: 1784:         byteToSend = (uin
      +                          t8_t)(inPipes[0].wCount.Val);
  9555  0D9A  083B               	movf	(_inPipes^(0+128)+3),w
  9556  0D9B  00F0               	movwf	??_USBCtrlTrfTxService
  9557  0D9C  0870               	movf	??_USBCtrlTrfTxService,w
  9558  0D9D  00F2               	movwf	USBCtrlTrfTxService@byteToSend
  9559  0D9E                     l3199:
  9560                           
  9561                           ;lib/usb/usb_device.c: 1791:         if(shortPacketStatus == 0)
  9562  0D9E  0851               	movf	_shortPacketStatus^(0+128),w
  9563  0D9F  1D03               	btfss	3,2
  9564  0DA0  2DA2               	goto	u1941
  9565  0DA1  2DA3               	goto	u1940
  9566  0DA2                     u1941:
  9567  0DA2  2DA6               	goto	l3203
  9568  0DA3                     u1940:
  9569  0DA3                     l3201:
  9570                           
  9571                           ;lib/usb/usb_device.c: 1792:         {;lib/usb/usb_device.c: 1793:             shortPack
      +                          etStatus = 1;
  9572  0DA3  01D1               	clrf	_shortPacketStatus^(0+128)
  9573  0DA4  0AD1               	incf	_shortPacketStatus^(0+128),f
  9574                           
  9575                           ;lib/usb/usb_device.c: 1794:         }
  9576  0DA5  2DAF               	goto	l248
  9577  0DA6                     l3203:
  9578  0DA6  0351               	decf	_shortPacketStatus^(0+128),w
  9579  0DA7  1D03               	btfss	3,2
  9580  0DA8  2DAA               	goto	u1951
  9581  0DA9  2DAB               	goto	u1950
  9582  0DAA                     u1951:
  9583  0DAA  2DAF               	goto	l248
  9584  0DAB                     u1950:
  9585  0DAB                     l3205:
  9586                           
  9587                           ;lib/usb/usb_device.c: 1796:         {;lib/usb/usb_device.c: 1797:             shortPack
      +                          etStatus = 2;
  9588  0DAB  3002               	movlw	2
  9589  0DAC  00F0               	movwf	??_USBCtrlTrfTxService
  9590  0DAD  0870               	movf	??_USBCtrlTrfTxService,w
  9591  0DAE  00D1               	movwf	_shortPacketStatus^(0+128)
  9592  0DAF                     l248:	
  9593                           ;lib/usb/usb_device.c: 1799:     }
  9594                           
  9595                           
  9596                           ;lib/usb/usb_device.c: 1803:     inPipes[0].wCount.Val -= byteToSend;
  9597  0DAF  0872               	movf	USBCtrlTrfTxService@byteToSend,w
  9598  0DB0  00F0               	movwf	??_USBCtrlTrfTxService
  9599  0DB1  01F1               	clrf	??_USBCtrlTrfTxService+1
  9600  0DB2  0870               	movf	??_USBCtrlTrfTxService,w
  9601  0DB3  02BB               	subwf	(_inPipes^(0+128)+3),f
  9602  0DB4  0871               	movf	??_USBCtrlTrfTxService+1,w
  9603  0DB5  3BBC               	subwfb	((_inPipes+1)^(0+128)+3),f
  9604  0DB6                     l3207:
  9605                           
  9606                           ;lib/usb/usb_device.c: 1808:     pBDTEntryIn[0]->CNT = byteToSend;
  9607  0DB6  0830               	movf	_pBDTEntryIn^(0+128),w
  9608  0DB7  3E01               	addlw	1
  9609  0DB8  00F0               	movwf	??_USBCtrlTrfTxService
  9610  0DB9  3000               	movlw	0
  9611  0DBA  3D31               	addwfc	(_pBDTEntryIn+1)^(0+128),w
  9612  0DBB  00F1               	movwf	??_USBCtrlTrfTxService+1
  9613  0DBC  0870               	movf	??_USBCtrlTrfTxService,w
  9614  0DBD  0086               	movwf	6
  9615  0DBE  0871               	movf	??_USBCtrlTrfTxService+1,w
  9616  0DBF  0087               	movwf	7
  9617  0DC0  0872               	movf	USBCtrlTrfTxService@byteToSend,w
  9618  0DC1  0081               	movwf	1
  9619  0DC2                     l3209:
  9620                           
  9621                           ;lib/usb/usb_device.c: 1812:     pDst = ( uint8_t*)CtrlTrfData;
  9622  0DC2  3068               	movlw	104
  9623  0DC3  00F0               	movwf	??_USBCtrlTrfTxService
  9624  0DC4  0870               	movf	??_USBCtrlTrfTxService,w
  9625  0DC5  00CF               	movwf	_pDst^(0+128)
  9626  0DC6                     l3211:
  9627                           
  9628                           ;lib/usb/usb_device.c: 1813:     if(inPipes[0].info.bits.ctrl_trf_mem == 0x00)
  9629  0DC6  183A               	btfsc	(_inPipes^(0+128)+2),0
  9630  0DC7  2DC9               	goto	u1961
  9631  0DC8  2DCA               	goto	u1960
  9632  0DC9                     u1961:
  9633  0DC9  2DFB               	goto	l3233
  9634  0DCA                     u1960:
  9635  0DCA  2DE0               	goto	l3223
  9636  0DCB                     l3215:
  9637                           
  9638                           ;lib/usb/usb_device.c: 1816:         {;lib/usb/usb_device.c: 1817:             *pDst++ =
      +                           *inPipes[0].pSrc.bRom++;
  9639  0DCB  0838               	movf	_inPipes^(0+128),w
  9640  0DCC  0084               	movwf	4
  9641  0DCD  0839               	movf	(_inPipes+1)^(0+128),w
  9642  0DCE  0085               	movwf	5
  9643  0DCF  0800               	movf	0,w	;code access
  9644  0DD0  00F0               	movwf	??_USBCtrlTrfTxService
  9645  0DD1  084F               	movf	_pDst^(0+128),w
  9646  0DD2  0086               	movwf	6
  9647  0DD3  0187               	clrf	7
  9648  0DD4  0870               	movf	??_USBCtrlTrfTxService,w
  9649  0DD5  0081               	movwf	1
  9650  0DD6                     l3217:
  9651  0DD6  3001               	movlw	1
  9652  0DD7  07B8               	addwf	_inPipes^(0+128),f
  9653  0DD8  3000               	movlw	0
  9654  0DD9  3DB9               	addwfc	(_inPipes+1)^(0+128),f
  9655  0DDA                     l3219:
  9656  0DDA  3001               	movlw	1
  9657  0DDB  00F0               	movwf	??_USBCtrlTrfTxService
  9658  0DDC  0870               	movf	??_USBCtrlTrfTxService,w
  9659  0DDD  07CF               	addwf	_pDst^(0+128),f
  9660  0DDE                     l3221:
  9661                           
  9662                           ;lib/usb/usb_device.c: 1818:             byteToSend--;
  9663  0DDE  3001               	movlw	1
  9664  0DDF  02F2               	subwf	USBCtrlTrfTxService@byteToSend,f
  9665  0DE0                     l3223:
  9666                           
  9667                           ;lib/usb/usb_device.c: 1815:         while(byteToSend)
  9668  0DE0  0872               	movf	USBCtrlTrfTxService@byteToSend,w
  9669  0DE1  1D03               	btfss	3,2
  9670  0DE2  2DE4               	goto	u1971
  9671  0DE3  2DE5               	goto	u1970
  9672  0DE4                     u1971:
  9673  0DE4  2DCB               	goto	l3215
  9674  0DE5                     u1970:
  9675  0DE5  2E00               	goto	l260
  9676  0DE6                     l3225:
  9677                           
  9678                           ;lib/usb/usb_device.c: 1824:         {;lib/usb/usb_device.c: 1825:             *pDst++ =
      +                           *inPipes[0].pSrc.bRam++;
  9679  0DE6  0838               	movf	_inPipes^(0+128),w
  9680  0DE7  0084               	movwf	4
  9681  0DE8  0839               	movf	(_inPipes+1)^(0+128),w
  9682  0DE9  0085               	movwf	5
  9683  0DEA  0800               	movf	0,w	;code access
  9684  0DEB  00F0               	movwf	??_USBCtrlTrfTxService
  9685  0DEC  084F               	movf	_pDst^(0+128),w
  9686  0DED  0086               	movwf	6
  9687  0DEE  0187               	clrf	7
  9688  0DEF  0870               	movf	??_USBCtrlTrfTxService,w
  9689  0DF0  0081               	movwf	1
  9690  0DF1                     l3227:
  9691  0DF1  3001               	movlw	1
  9692  0DF2  07B8               	addwf	_inPipes^(0+128),f
  9693  0DF3  3000               	movlw	0
  9694  0DF4  3DB9               	addwfc	(_inPipes+1)^(0+128),f
  9695  0DF5                     l3229:
  9696  0DF5  3001               	movlw	1
  9697  0DF6  00F0               	movwf	??_USBCtrlTrfTxService
  9698  0DF7  0870               	movf	??_USBCtrlTrfTxService,w
  9699  0DF8  07CF               	addwf	_pDst^(0+128),f
  9700  0DF9                     l3231:
  9701                           
  9702                           ;lib/usb/usb_device.c: 1826:             byteToSend--;
  9703  0DF9  3001               	movlw	1
  9704  0DFA  02F2               	subwf	USBCtrlTrfTxService@byteToSend,f
  9705  0DFB                     l3233:
  9706                           
  9707                           ;lib/usb/usb_device.c: 1823:         while(byteToSend)
  9708  0DFB  0872               	movf	USBCtrlTrfTxService@byteToSend,w
  9709  0DFC  1D03               	btfss	3,2
  9710  0DFD  2DFF               	goto	u1981
  9711  0DFE  2E00               	goto	u1980
  9712  0DFF                     u1981:
  9713  0DFF  2DE6               	goto	l3225
  9714  0E00                     u1980:
  9715  0E00                     l260:
  9716  0E00  0008               	return
  9717  0E01                     __end_of_USBCtrlTrfTxService:
  9718                           
  9719                           	psect	text35
  9720  08AF                     __ptext35:	
  9721 ;; *************** function _MasterinitSPI *****************
  9722 ;; Defined at:
  9723 ;;		line 123 in file "lib/spi.c"
  9724 ;; Parameters:    Size  Location     Type
  9725 ;;		None
  9726 ;; Auto vars:     Size  Location     Type
  9727 ;;		None
  9728 ;; Return value:  Size  Location     Type
  9729 ;;                  1    wreg      void 
  9730 ;; Registers used:
  9731 ;;		wreg
  9732 ;; Tracked objects:
  9733 ;;		On entry : 0/0
  9734 ;;		On exit  : 0/0
  9735 ;;		Unchanged: 0/0
  9736 ;; Data sizes:     COMMON   BANK1   BANK2   BANK3  BANK4h  BANK4l   BANK5   BANK6   BANK7   BANK8   BANK9  BANK10  BANK1
      +1  BANK12
  9737 ;;      Params:         0       0       0       0       0       0       0       0       0       0       0       0       
      +0       0
  9738 ;;      Locals:         0       0       0       0       0       0       0       0       0       0       0       0       
      +0       0
  9739 ;;      Temps:          0       0       0       0       0       0       0       0       0       0       0       0       
      +0       0
  9740 ;;      Totals:         0       0       0       0       0       0       0       0       0       0       0       0       
      +0       0
  9741 ;;Total ram usage:        0 bytes
  9742 ;; Hardware stack levels used: 1
  9743 ;; Hardware stack levels required when called: 1
  9744 ;; This function calls:
  9745 ;;		Nothing
  9746 ;; This function is called by:
  9747 ;;		_main
  9748 ;; This function uses a non-reentrant model
  9749 ;;
  9750                           
  9751  08AF                     _MasterinitSPI:	
  9752                           ;psect for function _MasterinitSPI
  9753                           
  9754  08AF                     l4075:	
  9755                           ;incstack = 0
  9756                           ; Regs used in _MasterinitSPI: [wreg]
  9757                           
  9758                           
  9759                           ;lib/spi.c: 124:     TRISC3 = 0;TRISC0 = 0;
  9760  08AF  0021               	movlb	1	; select bank1
  9761  08B0  118E               	bcf	14,3	;volatile
  9762  08B1  100E               	bcf	14,0	;volatile
  9763  08B2                     l4077:
  9764                           
  9765                           ;lib/spi.c: 127:     SSPADD = 1;
  9766  08B2  3001               	movlw	1
  9767  08B3  0024               	movlb	4	; select bank4
  9768  08B4  0092               	movwf	18	;volatile
  9769                           
  9770                           ;lib/spi.c: 128:     SSPSTAT = SAMPLE_MIDDLE | ACTIVE_TO_IDLE;
  9771  08B5  3040               	movlw	64
  9772  08B6  0094               	movwf	20	;volatile
  9773                           
  9774                           ;lib/spi.c: 129:     SSPCON = MASTER_OSC_SPADD | IDLE_LOW;
  9775  08B7  302A               	movlw	42
  9776  08B8  0095               	movwf	21	;volatile
  9777  08B9                     l766:
  9778  08B9  0008               	return
  9779  08BA                     __end_of_MasterinitSPI:
  9780                           
  9781                           	psect	text36
  9782  04B0                     __ptext36:	
  9783 ;; *************** function _APP_DeviceJoystickTasks *****************
  9784 ;; Defined at:
  9785 ;;		line 100 in file "lib/app_device_joystick.c"
  9786 ;; Parameters:    Size  Location     Type
  9787 ;;		None
  9788 ;; Auto vars:     Size  Location     Type
  9789 ;;		None
  9790 ;; Return value:  Size  Location     Type
  9791 ;;                  1    wreg      void 
  9792 ;; Registers used:
  9793 ;;		wreg, fsr1l, fsr1h, status,2, status,0, pclath, cstack
  9794 ;; Tracked objects:
  9795 ;;		On entry : 0/0
  9796 ;;		On exit  : 0/0
  9797 ;;		Unchanged: 0/0
  9798 ;; Data sizes:     COMMON   BANK1   BANK2   BANK3  BANK4h  BANK4l   BANK5   BANK6   BANK7   BANK8   BANK9  BANK10  BANK1
      +1  BANK12
  9799 ;;      Params:         0       0       0       0       0       0       0       0       0       0       0       0       
      +0       0
  9800 ;;      Locals:         0       0       0       0       0       0       0       0       0       0       0       0       
      +0       0
  9801 ;;      Temps:          1       0       0       0       0       0       0       0       0       0       0       0       
      +0       0
  9802 ;;      Totals:         1       0       0       0       0       0       0       0       0       0       0       0       
      +0       0
  9803 ;;Total ram usage:        1 bytes
  9804 ;; Hardware stack levels used: 1
  9805 ;; Hardware stack levels required when called: 2
  9806 ;; This function calls:
  9807 ;;		_USBTransferOnePacket
  9808 ;; This function is called by:
  9809 ;;		_main
  9810 ;; This function uses a non-reentrant model
  9811 ;;
  9812                           
  9813  04B0                     _APP_DeviceJoystickTasks:	
  9814                           ;psect for function _APP_DeviceJoystickTasks
  9815                           
  9816  04B0                     l4091:	
  9817                           ;incstack = 0
  9818                           ; Regs used in _APP_DeviceJoystickTasks: [wreg+fsr1l+fsr1h+status,2+status,0+pclath+csta
      +                          ck]
  9819                           
  9820                           
  9821                           ;lib/app_device_joystick.c: 105:     if( USBDeviceState < CONFIGURED_STATE )
  9822  04B0  3020               	movlw	32
  9823  04B1  0021               	movlb	1	; select bank1
  9824  04B2  0253               	subwf	_USBDeviceState^(0+128),w
  9825  04B3  1803               	skipnc
  9826  04B4  2CB6               	goto	u3071
  9827  04B5  2CB7               	goto	u3070
  9828  04B6                     u3071:
  9829  04B6  2CB8               	goto	l570
  9830  04B7                     u3070:
  9831  04B7  2D66               	goto	l571
  9832  04B8                     l570:	
  9833                           ;lib/app_device_joystick.c: 109:     }
  9834                           
  9835                           
  9836                           ;lib/app_device_joystick.c: 115:     if( UCONbits.SUSPND == 1 )
  9837  04B8  003D               	movlb	29	; select bank29
  9838  04B9  1C8E               	btfss	14,1	;volatile
  9839  04BA  2CBC               	goto	u3081
  9840  04BB  2CBD               	goto	u3080
  9841  04BC                     u3081:
  9842  04BC  2CBE               	goto	l4097
  9843  04BD                     u3080:
  9844  04BD  2D66               	goto	l571
  9845  04BE                     l4097:
  9846                           
  9847                           ;lib/app_device_joystick.c: 122:     if(!((last_HAP_IN != 0x0000) && ((*(volatile uint8_
      +                          t*)last_HAP_IN & 0x80) != 0x00)))
  9848  04BE  0022               	movlb	2	; select bank2
  9849  04BF  0843               	movf	_last_HAP_IN^(0+256),w
  9850  04C0  0444               	iorwf	(_last_HAP_IN+1)^(0+256),w
  9851  04C1  1903               	btfsc	3,2
  9852  04C2  2CC4               	goto	u3091
  9853  04C3  2CC5               	goto	u3090
  9854  04C4                     u3091:
  9855  04C4  2CCD               	goto	l4105
  9856  04C5                     u3090:
  9857  04C5                     l4099:
  9858  04C5  0843               	movf	_last_HAP_IN^(0+256),w
  9859  04C6  0086               	movwf	6
  9860  04C7  0844               	movf	(_last_HAP_IN+1)^(0+256),w
  9861  04C8  0087               	movwf	7
  9862  04C9  1B81               	btfsc	1,7
  9863  04CA  2CCC               	goto	u3101
  9864  04CB  2CCD               	goto	u3100
  9865  04CC                     u3101:
  9866  04CC  2D06               	goto	l4117
  9867  04CD                     u3100:
  9868  04CD                     l4105:
  9869                           
  9870                           ;lib/app_device_joystick.c: 143:         {;lib/app_device_joystick.c: 150:             h
      +                          aptic_in[0] = display_output[0];
  9871  04CD  30D0               	movlw	208
  9872  04CE  0086               	movwf	6
  9873  04CF  3021               	movlw	33
  9874  04D0  0087               	movwf	7
  9875  04D1  0801               	movf	1,w
  9876  04D2  00FB               	movwf	??_APP_DeviceJoystickTasks
  9877  04D3  087B               	movf	??_APP_DeviceJoystickTasks,w
  9878  04D4  0021               	movlb	1	; select bank1
  9879  04D5  00A0               	movwf	32
  9880                           
  9881                           ;lib/app_device_joystick.c: 151:             haptic_in[1] = display_output[1];
  9882  04D6  30D0               	movlw	208
  9883  04D7  0086               	movwf	6
  9884  04D8  3021               	movlw	33
  9885  04D9  0087               	movwf	7
  9886  04DA  3141               	addfsr 1,1
  9887  04DB  0801               	movf	1,w
  9888  04DC  00FB               	movwf	??_APP_DeviceJoystickTasks
  9889  04DD  087B               	movf	??_APP_DeviceJoystickTasks,w
  9890  04DE  00A1               	movwf	33
  9891  04DF                     l4107:
  9892                           
  9893                           ;lib/app_device_joystick.c: 152:             haptic_in[2] = TESTB;
  9894  04DF  0843               	movf	_TESTB^(0+128),w
  9895  04E0  00FB               	movwf	??_APP_DeviceJoystickTasks
  9896  04E1  087B               	movf	??_APP_DeviceJoystickTasks,w
  9897  04E2  00A2               	movwf	34
  9898  04E3                     l4109:
  9899                           
  9900                           ;lib/app_device_joystick.c: 153:             haptic_in[3] = SSPCON1;
  9901  04E3  0024               	movlb	4	; select bank4
  9902  04E4  0815               	movf	21,w	;volatile
  9903  04E5  00FB               	movwf	??_APP_DeviceJoystickTasks
  9904  04E6  087B               	movf	??_APP_DeviceJoystickTasks,w
  9905  04E7  0021               	movlb	1	; select bank1
  9906  04E8  00A3               	movwf	35
  9907  04E9                     l4111:
  9908                           
  9909                           ;lib/app_device_joystick.c: 154:             haptic_in[4] = SSPSTAT;
  9910  04E9  0024               	movlb	4	; select bank4
  9911  04EA  0814               	movf	20,w	;volatile
  9912  04EB  00FB               	movwf	??_APP_DeviceJoystickTasks
  9913  04EC  087B               	movf	??_APP_DeviceJoystickTasks,w
  9914  04ED  0021               	movlb	1	; select bank1
  9915  04EE  00A4               	movwf	36
  9916  04EF                     l4113:
  9917                           
  9918                           ;lib/app_device_joystick.c: 155:             haptic_in[5] = REGT;
  9919  04EF  0842               	movf	_REGT^(0+128),w
  9920  04F0  00FB               	movwf	??_APP_DeviceJoystickTasks
  9921  04F1  087B               	movf	??_APP_DeviceJoystickTasks,w
  9922  04F2  00A5               	movwf	37
  9923  04F3                     l4115:
  9924                           
  9925                           ;lib/app_device_joystick.c: 164:             last_HAP_IN = USBTransferOnePacket(1,1,(uin
      +                          t8_t*)&haptic_in,sizeof(haptic_in));
  9926  04F3  01F0               	clrf	USBTransferOnePacket@dir
  9927  04F4  0AF0               	incf	USBTransferOnePacket@dir,f
  9928  04F5  30A0               	movlw	160
  9929  04F6  00F1               	movwf	USBTransferOnePacket@data
  9930  04F7  3000               	movlw	0
  9931  04F8  00F2               	movwf	USBTransferOnePacket@data+1
  9932  04F9  3010               	movlw	16
  9933  04FA  00FB               	movwf	??_APP_DeviceJoystickTasks
  9934  04FB  087B               	movf	??_APP_DeviceJoystickTasks,w
  9935  04FC  00F3               	movwf	USBTransferOnePacket@len
  9936  04FD  3001               	movlw	1
  9937  04FE  3187  2757  3184   	fcall	_USBTransferOnePacket
  9938  0501  0871               	movf	?_USBTransferOnePacket+1,w
  9939  0502  0022               	movlb	2	; select bank2
  9940  0503  00C4               	movwf	(_last_HAP_IN+1)^(0+256)
  9941  0504  0870               	movf	?_USBTransferOnePacket,w
  9942  0505  00C3               	movwf	_last_HAP_IN^(0+256)
  9943  0506                     l4117:
  9944                           
  9945                           ;lib/app_device_joystick.c: 168:     if(!((last_HAP_OUT != 0x0000) && ((*(volatile uint8
      +                          _t*)last_HAP_OUT & 0x80) != 0x00))){
  9946  0506  0841               	movf	_last_HAP_OUT^(0+256),w
  9947  0507  0442               	iorwf	(_last_HAP_OUT+1)^(0+256),w
  9948  0508  1903               	btfsc	3,2
  9949  0509  2D0B               	goto	u3111
  9950  050A  2D0C               	goto	u3110
  9951  050B                     u3111:
  9952  050B  2D14               	goto	l4121
  9953  050C                     u3110:
  9954  050C                     l4119:
  9955  050C  0841               	movf	_last_HAP_OUT^(0+256),w
  9956  050D  0086               	movwf	6
  9957  050E  0842               	movf	(_last_HAP_OUT+1)^(0+256),w
  9958  050F  0087               	movwf	7
  9959  0510  1B81               	btfsc	1,7
  9960  0511  2D13               	goto	u3121
  9961  0512  2D14               	goto	u3120
  9962  0513                     u3121:
  9963  0513  2D26               	goto	l4123
  9964  0514                     u3120:
  9965  0514                     l4121:
  9966                           
  9967                           ;lib/app_device_joystick.c: 169:         last_HAP_OUT = USBTransferOnePacket(1,0,(uint8_
      +                          t*)&haptic_out,sizeof(haptic_out));
  9968  0514  01F0               	clrf	USBTransferOnePacket@dir
  9969  0515  30D0               	movlw	208
  9970  0516  00F1               	movwf	USBTransferOnePacket@data
  9971  0517  3020               	movlw	32
  9972  0518  00F2               	movwf	USBTransferOnePacket@data+1
  9973  0519  3040               	movlw	64
  9974  051A  00FB               	movwf	??_APP_DeviceJoystickTasks
  9975  051B  087B               	movf	??_APP_DeviceJoystickTasks,w
  9976  051C  00F3               	movwf	USBTransferOnePacket@len
  9977  051D  3001               	movlw	1
  9978  051E  3187  2757  3184   	fcall	_USBTransferOnePacket
  9979  0521  0871               	movf	?_USBTransferOnePacket+1,w
  9980  0522  0022               	movlb	2	; select bank2
  9981  0523  00C2               	movwf	(_last_HAP_OUT+1)^(0+256)
  9982  0524  0870               	movf	?_USBTransferOnePacket,w
  9983  0525  00C1               	movwf	_last_HAP_OUT^(0+256)
  9984  0526                     l4123:
  9985                           
  9986                           ;lib/app_device_joystick.c: 171:     if(!((last_DSP_OUT != 0x0000) && ((*(volatile uint8
      +                          _t*)last_DSP_OUT & 0x80) != 0x00))){
  9987  0526  083D               	movf	_last_DSP_OUT^(0+256),w
  9988  0527  043E               	iorwf	(_last_DSP_OUT+1)^(0+256),w
  9989  0528  1903               	btfsc	3,2
  9990  0529  2D2B               	goto	u3131
  9991  052A  2D2C               	goto	u3130
  9992  052B                     u3131:
  9993  052B  2D34               	goto	l4127
  9994  052C                     u3130:
  9995  052C                     l4125:
  9996  052C  083D               	movf	_last_DSP_OUT^(0+256),w
  9997  052D  0086               	movwf	6
  9998  052E  083E               	movf	(_last_DSP_OUT+1)^(0+256),w
  9999  052F  0087               	movwf	7
 10000  0530  1B81               	btfsc	1,7
 10001  0531  2D33               	goto	u3141
 10002  0532  2D34               	goto	u3140
 10003  0533                     u3141:
 10004  0533  2D46               	goto	l4129
 10005  0534                     u3140:
 10006  0534                     l4127:
 10007                           
 10008                           ;lib/app_device_joystick.c: 172:         last_DSP_OUT = USBTransferOnePacket(3,0,(uint8_
      +                          t*)&display_output,sizeof(display_output));
 10009  0534  01F0               	clrf	USBTransferOnePacket@dir
 10010  0535  30D0               	movlw	208
 10011  0536  00F1               	movwf	USBTransferOnePacket@data
 10012  0537  3021               	movlw	33
 10013  0538  00F2               	movwf	USBTransferOnePacket@data+1
 10014  0539  3040               	movlw	64
 10015  053A  00FB               	movwf	??_APP_DeviceJoystickTasks
 10016  053B  087B               	movf	??_APP_DeviceJoystickTasks,w
 10017  053C  00F3               	movwf	USBTransferOnePacket@len
 10018  053D  3003               	movlw	3
 10019  053E  3187  2757  3184   	fcall	_USBTransferOnePacket
 10020  0541  0871               	movf	?_USBTransferOnePacket+1,w
 10021  0542  0022               	movlb	2	; select bank2
 10022  0543  00BE               	movwf	(_last_DSP_OUT+1)^(0+256)
 10023  0544  0870               	movf	?_USBTransferOnePacket,w
 10024  0545  00BD               	movwf	_last_DSP_OUT^(0+256)
 10025  0546                     l4129:
 10026                           
 10027                           ;lib/app_device_joystick.c: 174:     if(!((last_LED_OUT != 0x0000) && ((*(volatile uint8
      +                          _t*)last_LED_OUT & 0x80) != 0x00))){
 10028  0546  083F               	movf	_last_LED_OUT^(0+256),w
 10029  0547  0440               	iorwf	(_last_LED_OUT+1)^(0+256),w
 10030  0548  1903               	btfsc	3,2
 10031  0549  2D4B               	goto	u3151
 10032  054A  2D4C               	goto	u3150
 10033  054B                     u3151:
 10034  054B  2D54               	goto	l4133
 10035  054C                     u3150:
 10036  054C                     l4131:
 10037  054C  083F               	movf	_last_LED_OUT^(0+256),w
 10038  054D  0086               	movwf	6
 10039  054E  0840               	movf	(_last_LED_OUT+1)^(0+256),w
 10040  054F  0087               	movwf	7
 10041  0550  1B81               	btfsc	1,7
 10042  0551  2D53               	goto	u3161
 10043  0552  2D54               	goto	u3160
 10044  0553                     u3161:
 10045  0553  2D66               	goto	l571
 10046  0554                     u3160:
 10047  0554                     l4133:
 10048                           
 10049                           ;lib/app_device_joystick.c: 179:         last_LED_OUT = USBTransferOnePacket(2,0,(uint8_
      +                          t*)&leds_output,sizeof(leds_output));
 10050  0554  01F0               	clrf	USBTransferOnePacket@dir
 10051  0555  3030               	movlw	48
 10052  0556  00F1               	movwf	USBTransferOnePacket@data
 10053  0557  3002               	movlw	2
 10054  0558  00F2               	movwf	USBTransferOnePacket@data+1
 10055  0559  3031               	movlw	49
 10056  055A  00FB               	movwf	??_APP_DeviceJoystickTasks
 10057  055B  087B               	movf	??_APP_DeviceJoystickTasks,w
 10058  055C  00F3               	movwf	USBTransferOnePacket@len
 10059  055D  3002               	movlw	2
 10060  055E  3187  2757  3184   	fcall	_USBTransferOnePacket
 10061  0561  0871               	movf	?_USBTransferOnePacket+1,w
 10062  0562  0022               	movlb	2	; select bank2
 10063  0563  00C0               	movwf	(_last_LED_OUT+1)^(0+256)
 10064  0564  0870               	movf	?_USBTransferOnePacket,w
 10065  0565  00BF               	movwf	_last_LED_OUT^(0+256)
 10066  0566                     l571:
 10067  0566  0008               	return
 10068  0567                     __end_of_APP_DeviceJoystickTasks:
 10069                           
 10070                           	psect	text37
 10071  0757                     __ptext37:	
 10072 ;; *************** function _USBTransferOnePacket *****************
 10073 ;; Defined at:
 10074 ;;		line 999 in file "lib/usb/usb_device.c"
 10075 ;; Parameters:    Size  Location     Type
 10076 ;;  ep              1    wreg     unsigned char 
 10077 ;;  dir             1    0[COMMON] unsigned char 
 10078 ;;  data            2    1[COMMON] PTR unsigned char 
 10079 ;;		 -> leds_output(49), haptic_out(64), display_output(64), haptic_in(16), 
 10080 ;;  len             1    3[COMMON] unsigned char 
 10081 ;; Auto vars:     Size  Location     Type
 10082 ;;  ep              1    8[COMMON] unsigned char 
 10083 ;;  handle          2    9[COMMON] PTR volatile struct __BD
 10084 ;;		 -> RAM(4096), NULL(0), BDT(64), 
 10085 ;; Return value:  Size  Location     Type
 10086 ;;                  2    0[COMMON] PTR void 
 10087 ;; Registers used:
 10088 ;;		wreg, fsr1l, fsr1h, status,2, status,0
 10089 ;; Tracked objects:
 10090 ;;		On entry : 0/0
 10091 ;;		On exit  : 0/0
 10092 ;;		Unchanged: 0/0
 10093 ;; Data sizes:     COMMON   BANK1   BANK2   BANK3  BANK4h  BANK4l   BANK5   BANK6   BANK7   BANK8   BANK9  BANK10  BANK1
      +1  BANK12
 10094 ;;      Params:         4       0       0       0       0       0       0       0       0       0       0       0       
      +0       0
 10095 ;;      Locals:         3       0       0       0       0       0       0       0       0       0       0       0       
      +0       0
 10096 ;;      Temps:          4       0       0       0       0       0       0       0       0       0       0       0       
      +0       0
 10097 ;;      Totals:        11       0       0       0       0       0       0       0       0       0       0       0       
      +0       0
 10098 ;;Total ram usage:       11 bytes
 10099 ;; Hardware stack levels used: 1
 10100 ;; Hardware stack levels required when called: 1
 10101 ;; This function calls:
 10102 ;;		Nothing
 10103 ;; This function is called by:
 10104 ;;		_APP_DeviceJoystickTasks
 10105 ;; This function uses a non-reentrant model
 10106 ;;
 10107                           
 10108  0757                     _USBTransferOnePacket:	
 10109                           ;psect for function _USBTransferOnePacket
 10110                           
 10111                           
 10112                           ;incstack = 0
 10113                           ; Regs used in _USBTransferOnePacket: [wreg+fsr1l+fsr1h+status,2+status,0]
 10114                           ;USBTransferOnePacket@ep stored from wreg
 10115  0757  00F8               	movwf	USBTransferOnePacket@ep
 10116  0758                     l3929:
 10117                           
 10118                           ;lib/usb/usb_device.c: 999: void* USBTransferOnePacket(uint8_t ep,uint8_t dir,uint8_t* d
      +                          ata,uint8_t len);lib/usb/usb_device.c: 1000: {;lib/usb/usb_device.c: 1001:     volatile 
      +                          BDT_ENTRY* handle;;lib/usb/usb_device.c: 1004:     if(dir != 0)
 10119  0758  0870               	movf	USBTransferOnePacket@dir,w
 10120  0759  1903               	btfsc	3,2
 10121  075A  2F5C               	goto	u2771
 10122  075B  2F5D               	goto	u2770
 10123  075C                     u2771:
 10124  075C  2F66               	goto	l3933
 10125  075D                     u2770:
 10126  075D                     l3931:
 10127                           
 10128                           ;lib/usb/usb_device.c: 1005:     {;lib/usb/usb_device.c: 1007:         handle = pBDTEntr
      +                          yIn[ep];
 10129  075D  3578               	lslf	USBTransferOnePacket@ep,w
 10130  075E  3EB0               	addlw	(low (_pBDTEntryIn| 0))& (0+255)
 10131  075F  0086               	movwf	6
 10132  0760  0187               	clrf	7
 10133  0761  3F40               	moviw [0]fsr1
 10134  0762  00F9               	movwf	USBTransferOnePacket@handle
 10135  0763  3F41               	moviw [1]fsr1
 10136  0764  00FA               	movwf	USBTransferOnePacket@handle+1
 10137                           
 10138                           ;lib/usb/usb_device.c: 1008:     }
 10139  0765  2F6F               	goto	l3935
 10140  0766                     l3933:
 10141                           
 10142                           ;lib/usb/usb_device.c: 1010:     {;lib/usb/usb_device.c: 1012:         handle = pBDTEntr
      +                          yOut[ep];
 10143  0766  3578               	lslf	USBTransferOnePacket@ep,w
 10144  0767  3E20               	addlw	(low (_pBDTEntryOut| (0+256)))& (0+255)
 10145  0768  0086               	movwf	6
 10146  0769  3001               	movlw	1	; select bank2/3
 10147  076A  0087               	movwf	7
 10148  076B  3F40               	moviw [0]fsr1
 10149  076C  00F9               	movwf	USBTransferOnePacket@handle
 10150  076D  3F41               	moviw [1]fsr1
 10151  076E  00FA               	movwf	USBTransferOnePacket@handle+1
 10152  076F                     l3935:
 10153                           
 10154                           ;lib/usb/usb_device.c: 1017:     if(handle == 0)
 10155  076F  0879               	movf	USBTransferOnePacket@handle,w
 10156  0770  047A               	iorwf	USBTransferOnePacket@handle+1,w
 10157  0771  1D03               	btfss	3,2
 10158  0772  2F74               	goto	u2781
 10159  0773  2F75               	goto	u2780
 10160  0774                     u2781:
 10161  0774  2F78               	goto	l3941
 10162  0775                     u2780:
 10163  0775                     l3937:
 10164                           
 10165                           ;lib/usb/usb_device.c: 1018:     {;lib/usb/usb_device.c: 1019:         return 0;
 10166  0775  01F0               	clrf	?_USBTransferOnePacket
 10167  0776  01F1               	clrf	?_USBTransferOnePacket+1
 10168  0777  2FDD               	goto	l202
 10169  0778                     l3941:
 10170                           
 10171                           ;lib/usb/usb_device.c: 1033:     handle->ADR = (((uint16_t)(data)) & 0x7FFF);
 10172  0778  30FF               	movlw	255
 10173  0779  0571               	andwf	USBTransferOnePacket@data,w
 10174  077A  00F4               	movwf	??_USBTransferOnePacket
 10175  077B  307F               	movlw	127
 10176  077C  0572               	andwf	USBTransferOnePacket@data+1,w
 10177  077D  00F5               	movwf	??_USBTransferOnePacket+1
 10178  077E  0879               	movf	USBTransferOnePacket@handle,w
 10179  077F  0086               	movwf	6
 10180  0780  087A               	movf	USBTransferOnePacket@handle+1,w
 10181  0781  0087               	movwf	7
 10182  0782  3142               	addfsr 1,2
 10183  0783  0874               	movf	??_USBTransferOnePacket,w
 10184  0784  3FC0               	movwi [0]fsr1
 10185  0785  0875               	movf	??_USBTransferOnePacket+1,w
 10186  0786  3FC1               	movwi [1]fsr1
 10187  0787                     l3943:
 10188                           
 10189                           ;lib/usb/usb_device.c: 1034:     handle->CNT = len;
 10190  0787  0879               	movf	USBTransferOnePacket@handle,w
 10191  0788  3E01               	addlw	1
 10192  0789  00F4               	movwf	??_USBTransferOnePacket
 10193  078A  3000               	movlw	0
 10194  078B  3D7A               	addwfc	USBTransferOnePacket@handle+1,w
 10195  078C  00F5               	movwf	??_USBTransferOnePacket+1
 10196  078D  0874               	movf	??_USBTransferOnePacket,w
 10197  078E  0086               	movwf	6
 10198  078F  0875               	movf	??_USBTransferOnePacket+1,w
 10199  0790  0087               	movwf	7
 10200  0791  0873               	movf	USBTransferOnePacket@len,w
 10201  0792  0081               	movwf	1
 10202  0793                     l3945:
 10203                           
 10204                           ;lib/usb/usb_device.c: 1035:     handle->STAT.Val &= 0x40;
 10205  0793  3040               	movlw	64
 10206  0794  00F4               	movwf	??_USBTransferOnePacket
 10207  0795  0879               	movf	USBTransferOnePacket@handle,w
 10208  0796  0086               	movwf	6
 10209  0797  087A               	movf	USBTransferOnePacket@handle+1,w
 10210  0798  0087               	movwf	7
 10211  0799  0874               	movf	??_USBTransferOnePacket,w
 10212  079A  0581               	andwf	1,f
 10213                           
 10214                           ;lib/usb/usb_device.c: 1036:     handle->STAT.Val |= (0x08 & 0x08);
 10215  079B  0879               	movf	USBTransferOnePacket@handle,w
 10216  079C  0086               	movwf	6
 10217  079D  087A               	movf	USBTransferOnePacket@handle+1,w
 10218  079E  0087               	movwf	7
 10219  079F  1581               	bsf	1,3
 10220                           
 10221                           ;lib/usb/usb_device.c: 1037:     handle->STAT.Val |= 0x80;
 10222  07A0  0879               	movf	USBTransferOnePacket@handle,w
 10223  07A1  0086               	movwf	6
 10224  07A2  087A               	movf	USBTransferOnePacket@handle+1,w
 10225  07A3  0087               	movwf	7
 10226  07A4  1781               	bsf	1,7
 10227  07A5                     l3947:
 10228                           
 10229                           ;lib/usb/usb_device.c: 1040:     if(dir != 0)
 10230  07A5  0870               	movf	USBTransferOnePacket@dir,w
 10231  07A6  1903               	btfsc	3,2
 10232  07A7  2FA9               	goto	u2791
 10233  07A8  2FAA               	goto	u2790
 10234  07A9                     u2791:
 10235  07A9  2FC1               	goto	l3951
 10236  07AA                     u2790:
 10237  07AA                     l3949:
 10238                           
 10239                           ;lib/usb/usb_device.c: 1041:     {;lib/usb/usb_device.c: 1043:         pBDTEntryIn[ep] =
      +                           (BDT_ENTRY*)(((uint16_t)pBDTEntryIn[ep]) ^ 0x0004u);
 10240  07AA  3578               	lslf	USBTransferOnePacket@ep,w
 10241  07AB  3EB0               	addlw	(low (_pBDTEntryIn| 0))& (0+255)
 10242  07AC  0086               	movwf	6
 10243  07AD  0187               	clrf	7
 10244  07AE  3F40               	moviw [0]fsr1
 10245  07AF  00F4               	movwf	??_USBTransferOnePacket
 10246  07B0  3F41               	moviw [1]fsr1
 10247  07B1  00F5               	movwf	??_USBTransferOnePacket+1
 10248  07B2  3004               	movlw	4
 10249  07B3  0674               	xorwf	??_USBTransferOnePacket,w
 10250  07B4  00F6               	movwf	??_USBTransferOnePacket+2
 10251  07B5  3000               	movlw	0
 10252  07B6  0675               	xorwf	??_USBTransferOnePacket+1,w
 10253  07B7  00F7               	movwf	??_USBTransferOnePacket+3
 10254  07B8  3578               	lslf	USBTransferOnePacket@ep,w
 10255  07B9  3EB0               	addlw	(low (_pBDTEntryIn| 0))& (0+255)
 10256  07BA  0086               	movwf	6
 10257  07BB  0187               	clrf	7
 10258  07BC  0876               	movf	??_USBTransferOnePacket+2,w
 10259  07BD  3FC0               	movwi [0]fsr1
 10260  07BE  0877               	movf	??_USBTransferOnePacket+3,w
 10261  07BF  3FC1               	movwi [1]fsr1
 10262                           
 10263                           ;lib/usb/usb_device.c: 1044:     }
 10264  07C0  2FD9               	goto	l3953
 10265  07C1                     l3951:
 10266                           
 10267                           ;lib/usb/usb_device.c: 1046:     {;lib/usb/usb_device.c: 1048:         pBDTEntryOut[ep] 
      +                          = (BDT_ENTRY*)(((uint16_t)pBDTEntryOut[ep]) ^ 0x0004u);
 10268  07C1  3578               	lslf	USBTransferOnePacket@ep,w
 10269  07C2  3E20               	addlw	(low (_pBDTEntryOut| (0+256)))& (0+255)
 10270  07C3  0086               	movwf	6
 10271  07C4  3001               	movlw	1	; select bank2/3
 10272  07C5  0087               	movwf	7
 10273  07C6  3F40               	moviw [0]fsr1
 10274  07C7  00F4               	movwf	??_USBTransferOnePacket
 10275  07C8  3F41               	moviw [1]fsr1
 10276  07C9  00F5               	movwf	??_USBTransferOnePacket+1
 10277  07CA  3004               	movlw	4
 10278  07CB  0674               	xorwf	??_USBTransferOnePacket,w
 10279  07CC  00F6               	movwf	??_USBTransferOnePacket+2
 10280  07CD  3000               	movlw	0
 10281  07CE  0675               	xorwf	??_USBTransferOnePacket+1,w
 10282  07CF  00F7               	movwf	??_USBTransferOnePacket+3
 10283  07D0  3578               	lslf	USBTransferOnePacket@ep,w
 10284  07D1  3E20               	addlw	(low (_pBDTEntryOut| (0+256)))& (0+255)
 10285  07D2  0086               	movwf	6
 10286  07D3  3001               	movlw	1	; select bank2/3
 10287  07D4  0087               	movwf	7
 10288  07D5  0876               	movf	??_USBTransferOnePacket+2,w
 10289  07D6  3FC0               	movwi [0]fsr1
 10290  07D7  0877               	movf	??_USBTransferOnePacket+3,w
 10291  07D8  3FC1               	movwi [1]fsr1
 10292  07D9                     l3953:
 10293                           
 10294                           ;lib/usb/usb_device.c: 1050:     return (void*)handle;
 10295  07D9  087A               	movf	USBTransferOnePacket@handle+1,w
 10296  07DA  00F1               	movwf	?_USBTransferOnePacket+1
 10297  07DB  0879               	movf	USBTransferOnePacket@handle,w
 10298  07DC  00F0               	movwf	?_USBTransferOnePacket
 10299  07DD                     l202:
 10300  07DD  0008               	return
 10301  07DE                     __end_of_USBTransferOnePacket:
 10302                           
 10303                           	psect	intentry
 10304  0004                     __pintentry:	
 10305 ;; *************** function _SYS_InterruptHigh *****************
 10306 ;; Defined at:
 10307 ;;		line 117 in file "lib/system.c"
 10308 ;; Parameters:    Size  Location     Type
 10309 ;;		None
 10310 ;; Auto vars:     Size  Location     Type
 10311 ;;		None
 10312 ;; Return value:  Size  Location     Type
 10313 ;;                  1    wreg      void 
 10314 ;; Registers used:
 10315 ;;		None
 10316 ;; Tracked objects:
 10317 ;;		On entry : 0/0
 10318 ;;		On exit  : 0/0
 10319 ;;		Unchanged: 0/0
 10320 ;; Data sizes:     COMMON   BANK1   BANK2   BANK3  BANK4h  BANK4l   BANK5   BANK6   BANK7   BANK8   BANK9  BANK10  BANK1
      +1  BANK12
 10321 ;;      Params:         0       0       0       0       0       0       0       0       0       0       0       0       
      +0       0
 10322 ;;      Locals:         0       0       0       0       0       0       0       0       0       0       0       0       
      +0       0
 10323 ;;      Temps:          0       0       0       0       0       0       0       0       0       0       0       0       
      +0       0
 10324 ;;      Totals:         0       0       0       0       0       0       0       0       0       0       0       0       
      +0       0
 10325 ;;Total ram usage:        0 bytes
 10326 ;; Hardware stack levels used: 1
 10327 ;; This function calls:
 10328 ;;		Nothing
 10329 ;; This function is called by:
 10330 ;;		Interrupt level 1
 10331 ;; This function uses a non-reentrant model
 10332 ;;
 10333                           
 10334  0004                     _SYS_InterruptHigh:
 10335                           
 10336                           ;incstack = 0
 10337  0004  147E               	bsf	int$flags,0	;set compiler interrupt flag (level 1)
 10338                           
 10339                           ; Regs used in _SYS_InterruptHigh: []
 10340  0005  3180               	pagesel	$
 10341  0006                     i1l700:
 10342  0006  107E               	bcf	int$flags,0	;clear compiler interrupt flag (level 1)
 10343  0007  0009               	retfie
 10344  0008                     __end_of_SYS_InterruptHigh:
 10345  007E                     btemp	set	126	;btemp
 10346  007E                     int$flags	set	126
 10347  007E                     wtemp0	set	126
 10348                           
 10349                           	psect	idloc
 10350                           
 10351                           ;Config register IDLOC0 @ 0x8000
 10352                           ;	unspecified, using default values
 10353  8000                     	org	32768
 10354  8000  3FFF               	dw	16383
 10355                           
 10356                           ;Config register IDLOC1 @ 0x8001
 10357                           ;	unspecified, using default values
 10358  8001                     	org	32769
 10359  8001  3FFF               	dw	16383
 10360                           
 10361                           ;Config register IDLOC2 @ 0x8002
 10362                           ;	unspecified, using default values
 10363  8002                     	org	32770
 10364  8002  3FFF               	dw	16383
 10365                           
 10366                           ;Config register IDLOC3 @ 0x8003
 10367                           ;	unspecified, using default values
 10368  8003                     	org	32771
 10369  8003  3FFF               	dw	16383
 10370                           
 10371                           	psect	config
 10372                           
 10373                           ;Config register CONFIG1 @ 0x8007
 10374                           ;	Oscillator Selection Bits
 10375                           ;	FOSC = HS, HS Oscillator, High-speed crystal/resonator connected between OSC1 and OSC2
      +                           pins
 10376                           ;	Watchdog Timer Enable
 10377                           ;	WDTE = OFF, WDT disabled
 10378                           ;	Power-up Timer Enable
 10379                           ;	PWRTE = ON, PWRT enabled
 10380                           ;	MCLR Pin Function Select
 10381                           ;	MCLRE = ON, MCLR/VPP pin function is MCLR
 10382                           ;	Flash Program Memory Code Protection
 10383                           ;	CP = OFF, Program memory code protection is disabled
 10384                           ;	Brown-out Reset Enable
 10385                           ;	BOREN = ON, Brown-out Reset enabled
 10386                           ;	Clock Out Enable
 10387                           ;	CLKOUTEN = OFF, CLKOUT function is disabled. I/O or oscillator function on the CLKOUT 
      +                          pin
 10388                           ;	Internal/External Switchover Mode
 10389                           ;	IESO = OFF, Internal/External Switchover Mode is disabled
 10390                           ;	Fail-Safe Clock Monitor Enable
 10391                           ;	FCMEN = OFF, Fail-Safe Clock Monitor is disabled
 10392  8007                     	org	32775
 10393  8007  0FC2               	dw	4034
 10394                           
 10395                           ;Config register CONFIG2 @ 0x8008
 10396                           ;	Flash Memory Self-Write Protection
 10397                           ;	WRT = OFF, Write protection off
 10398                           ;	CPU System Clock Selection Bit
 10399                           ;	CPUDIV = NOCLKDIV, NO CPU system divide
 10400                           ;	USB Low SPeed Clock Selection bit
 10401                           ;	USBLSCLK = 48MHz, System clock expects 48 MHz, FS/LS USB CLKENs divide-by is set to 8.
 10402                           ;	PLL Multipler Selection Bit
 10403                           ;	PLLMULT = 4x, 4x Output Frequency Selected
 10404                           ;	PLL Enable Bit
 10405                           ;	PLLEN = ENABLED, 3x or 4x PLL Enabled
 10406                           ;	Stack Overflow/Underflow Reset Enable
 10407                           ;	STVREN = ON, Stack Overflow or Underflow will cause a Reset
 10408                           ;	Brown-out Reset Voltage Selection
 10409                           ;	BORV = LO, Brown-out Reset Voltage (Vbor), low trip point selected.
 10410                           ;	Low-Power Brown Out Reset
 10411                           ;	LPBOR = OFF, Low-Power BOR is disabled
 10412                           ;	Low-Voltage Programming Enable
 10413                           ;	LVP = ON, Low-voltage programmi 10414  8008                     	org	32776
 10415  8008  3F4F               	dw	16207

Data Sizes:
    Strings     0
    Constant    352
    Data        8
    BSS         80
    Persistent  32
    Stack       0

Auto Spaces:
    Space          Size  Autos    Used
    COMMON           14     14      14
    BANK1            64     23      63
    BANK2            48      0      48
    BANK3            48      0       0
    BANK4h           15      0       0
    BANK4l           16      0       0
    BANK5            64      0       0
    BANK6            32      0       0
    BANK7            80      0       0
    BANK8            80      0       0
    BANK9            80      0       0
    BANK10           80      0       0
    BANK11           80      0       0
    BANK12           48      0       0

Pointer List with Targets:

    USER_USB_CALLBACK_EVENT_HANDLER@pdata	PTR void  size(2) Largest target is 4096
		 -> RAM(DATA[4096]), USTATcopy(BANK1[1]), USBActiveConfiguration(BANK1[1]), NULL(NULL[0]), 
		 -> BDT(ABS[64]), 

    memset@dest	PTR void  size(2) Largest target is 64
		 -> USBAlternateInterface(BANK2[3]), BDT(ABS[64]), 

    memset@s	PTR unsigned char  size(2) Largest target is 64
		 -> USBAlternateInterface(BANK2[3]), BDT(ABS[64]), 

    memcpy@d1	PTR void  size(1) Largest target is 8
		 -> SetupPkt(ABS[8]), 

    memcpy@d	PTR unsigned char  size(1) Largest target is 8
		 -> SetupPkt(ABS[8]), 

    memcpy@s1	PTR const void  size(2) Largest target is 4096
		 -> CtrlTrfData(ABS[8]), RAM(DATA[4096]), SetupPkt(ABS[8]), 

    memcpy@s	PTR const unsigned char  size(2) Largest target is 4096
		 -> CtrlTrfData(ABS[8]), RAM(DATA[4096]), SetupPkt(ABS[8]), 

    last_DSP_OUT	PTR void  size(2) Largest target is 4096
		 -> RAM(DATA[4096]), NULL(NULL[0]), BDT(ABS[64]), 

    last_LED_OUT	PTR void  size(2) Largest target is 4096
		 -> RAM(DATA[4096]), NULL(NULL[0]), BDT(ABS[64]), 

    last_HAP_OUT	PTR void  size(2) Largest target is 4096
		 -> RAM(DATA[4096]), NULL(NULL[0]), BDT(ABS[64]), 

    last_HAP_IN	PTR void  size(2) Largest target is 4096
		 -> RAM(DATA[4096]), NULL(NULL[0]), BDT(ABS[64]), 

    USBStdFeatureReqHandler@pUEP	PTR unsigned char  size(2) Largest target is 1
		 -> UEP0(SFR29[1]), 

    USBStdFeatureReqHandler@p	PTR struct __BDT size(2) Largest target is 4096
		 -> RAM(DATA[4096]), NULL(NULL[0]), BDT(ABS[64]), 

    sp__memcpy	PTR void  size(1) Largest target is 8
		 -> SetupPkt(ABS[8]), 

    USBStdGetStatusHandler@p	PTR struct __BDT size(2) Largest target is 4096
		 -> RAM(DATA[4096]), NULL(NULL[0]), BDT(ABS[64]), 

    sp__memset	PTR void  size(2) Largest target is 64
		 -> USBAlternateInterface(BANK2[3]), BDT(ABS[64]), 

    USBStdSetCfgHandler@p	PTR unsigned char  size(2) Largest target is 1
		 -> UEP1(SFR29[1]), 

    pDst	PTR unsigned char  size(1) Largest target is 8
		 -> CtrlTrfData(ABS[8]), NULL(NULL[0]), 

    USBConfigureEndpoint@handle	PTR volatile struct __BDT size(1) Largest target is 64
		 -> BDT(ABS[64]), 

    pBDTEntryEP0OutCurrent	PTR volatile struct __BDT size(1) Largest target is 64
		 -> NULL(NULL[0]), BDT(ABS[64]), 

    pBDTEntryEP0OutNext	PTR volatile struct __BDT size(2) Largest target is 4096
		 -> RAM(DATA[4096]), NULL(NULL[0]), BDT(ABS[64]), 

    USBTransferOnePacket@data	PTR unsigned char  size(2) Largest target is 64
		 -> leds_output(BANK4l[49]), haptic_out(BIGRAM[64]), display_output(BIGRAM[64]), haptic_in(BANK1[16]), 

    sp__USBTransferOnePacket	PTR void  size(2) Largest target is 4096
		 -> RAM(DATA[4096]), NULL(NULL[0]), BDT(ABS[64]), 

    USBTransferOnePacket@handle	PTR volatile struct __BDT size(2) Largest target is 4096
		 -> RAM(DATA[4096]), NULL(NULL[0]), BDT(ABS[64]), 

    USBEnableEndpoint@p	PTR unsigned char  size(2) Largest target is 1
		 -> UEP0(SFR29[1]), 

    pBDTEntryOut	PTR volatile struct __BDT[4] size(2) Largest target is 4096
		 -> RAM(DATA[4096]), NULL(NULL[0]), BDT(ABS[64]), 

    pBDTEntryIn	PTR volatile struct __BDT[4] size(2) Largest target is 4096
		 -> RAM(DATA[4096]), NULL(NULL[0]), BDT(ABS[64]), 

    S174$pFunc	PTR FTN()void  size(2) Largest target is 0

    outPipes.pFunc	PTR FTN()void  size(2) Largest target is 0

    S164$wRam	PTR unsigned short  size(1) Largest target is 0

    outPipes.pDst.wRam	PTR unsigned short  size(1) Largest target is 0

    S164$bRam	PTR unsigned char  size(1) Largest target is 0

    outPipes.pDst.bRam	PTR unsigned char  size(1) Largest target is 0

    S140$wRom	PTR const unsigned short  size(1) Largest target is 0

    inPipes.pSrc.wRom	PTR const unsigned short  size(1) Largest target is 0

    S140$wRam	PTR unsigned short  size(1) Largest target is 0

    inPipes.pSrc.wRam	PTR unsigned short  size(1) Largest target is 0

    S140$bRom	PTR const unsigned char  size(1) Largest target is 0

    inPipes.pSrc.bRom	PTR const unsigned char  size(1) Largest target is 0

    S140$bRam	PTR unsigned char  size(1) Largest target is 0

    inPipes.pSrc.bRam	PTR unsigned char  size(1) Largest target is 0

    USBDeviceInit@p	PTR unsigned char  size(2) Largest target is 1
		 -> UEP1(SFR29[1]), 

    USB_SD_Ptr	const PTR const unsigned char [3] size(2) Largest target is 52
		 -> sd002(CODE[28]), sd001(CODE[52]), sd000(CODE[4]), 

    USB_CD_Ptr	const PTR const unsigned char [1] size(2) Largest target is 105
		 -> configDescriptor1(CODE[105]), 


Critical Paths under _main in COMMON

    _USBCtrlEPServiceComplete->_USBCtrlEPAllowDataStage
    _USBCtrlEPAllowDataStage->_USBCtrlTrfTxService
    _USBStdSetCfgHandler->_memset
    _USER_USB_CALLBACK_EVENT_HANDLER->_APP_DeviceJoystickInitialize
    _SYSTEM_Initialize->_BUTTON_Enable
    _SYSTEM_Initialize->_LED_Enable
    _APP_LEDUpdateUSBStatus->_LED_Off
    _APP_LEDUpdateUSBStatus->_LED_On
    _APP_DeviceJoystickInitialize->_USBEnableEndpoint
    _USBEnableEndpoint->_USBConfigureEndpoint
    _USBCtrlTrfOutHandler->_USBCtrlTrfRxService
    _USBCtrlTrfRxService->_USBCtrlEPAllowStatusStage
    _USBCtrlTrfInHandler->_USBCtrlTrfTxService
    _APP_DeviceJoystickTasks->_USBTransferOnePacket

Critical Paths under _SYS_InterruptHigh in COMMON

    None.

Critical Paths under _main in BANK1

    _main->_USBDeviceTasks
    _USBDeviceTasks->_USBCtrlEPService
    _USBWakeFromSuspend->_USER_USB_CALLBACK_EVENT_HANDLER
    _USBSuspend->_USER_USB_CALLBACK_EVENT_HANDLER
    _USBCtrlEPService->_USBCtrlTrfSetupHandler
    _USBCtrlTrfSetupHandler->_USBCheckStdRequest
    _USBCheckStdRequest->_USBStdFeatureReqHandler
    _USBStdSetCfgHandler->_USER_USB_CALLBACK_EVENT_HANDLER
    _USBStdFeatureReqHandler->_USER_USB_CALLBACK_EVENT_HANDLER

Critical Paths under _SYS_InterruptHigh in BANK1

    None.

Critical Paths under _main in BANK2

    None.

Critical Paths under _SYS_InterruptHigh in BANK2

    None.

Critical Paths under _main in BANK3

    None.

Critical Paths under _SYS_InterruptHigh in BANK3

    None.

Critical Paths under _main in BANK4h

    None.

Critical Paths under _SYS_InterruptHigh in BANK4h

    None.

Critical Paths under _main in BANK4l

    None.

Critical Paths under _SYS_InterruptHigh in BANK4l

    None.

Critical Paths under _main in BANK5

    None.

Critical Paths under _SYS_InterruptHigh in BANK5

    None.

Critical Paths under _main in BANK6

    None.

Critical Paths under _SYS_InterruptHigh in BANK6

    None.

Critical Paths under _main in BANK7

    None.

Critical Paths under _SYS_InterruptHigh in BANK7

    None.

Critical Paths under _main in BANK8

    None.

Critical Paths under _SYS_InterruptHigh in BANK8

    None.

Critical Paths under _main in BANK9

    None.

Critical Paths under _SYS_InterruptHigh in BANK9

    None.

Critical Paths under _main in BANK10

    None.

Critical Paths under _SYS_InterruptHigh in BANK10

    None.

Critical Paths under _main in BANK11

    None.

Critical Paths under _SYS_InterruptHigh in BANK11

    None.

Critical Paths under _main in BANK12

    None.

Critical Paths under _SYS_InterruptHigh in BANK12

    None.

Call Graph Tables:

 ---------------------------------------------------------------------------------
 (Depth) Function   	        Calls       Base Space   Used Autos Params    Refs
 ---------------------------------------------------------------------------------
 (0) _main                                                 2     2      0   30712
                                             21 BANK1      2     2      0
            _APP_DeviceJoystickTasks
                      _MasterinitSPI
                  _SYSTEM_Initialize
                      _USBDeviceInit
                     _USBDeviceTasks
                           _spiWrite
 ---------------------------------------------------------------------------------
 (1) _spiWrite                                             1     1      0       0
                                              0 COMMON     1     1      0
 ---------------------------------------------------------------------------------
 (1) _USBDeviceTasks                                       3     3      0   28663
                                             18 BANK1      3     3      0
          _USBCtrlEPAllowStatusStage
                   _USBCtrlEPService
                      _USBDeviceInit
      _USBIncrement1msInternalTimers
                    _USBStallHandler
                         _USBSuspend
                 _USBWakeFromSuspend
    _USER_USB_CALLBACK_EVENT_HANDLER
 ---------------------------------------------------------------------------------
 (2) _USBWakeFromSuspend                                   1     1      0    3624
                                              6 BANK1      1     1      0
    _USER_USB_CALLBACK_EVENT_HANDLER
 ---------------------------------------------------------------------------------
 (2) _USBSuspend                                           1     1      0    3624
                                              6 BANK1      1     1      0
    _USER_USB_CALLBACK_EVENT_HANDLER
 ---------------------------------------------------------------------------------
 (2) _USBStallHandler                                      1     1      0       0
                                              0 COMMON     1     1      0
 ---------------------------------------------------------------------------------
 (2) _USBIncrement1msInternalTimers                        1     1      0       0
                                              0 COMMON     1     1      0
 ---------------------------------------------------------------------------------
 (2) _USBDeviceInit                                        5     5      0     272
                                              0 COMMON     5     5      0
 ---------------------------------------------------------------------------------
 (2) _USBCtrlEPService                                     2     2      0   17451
                                             16 BANK1      2     2      0
                _USBCtrlTrfInHandler
               _USBCtrlTrfOutHandler
             _USBCtrlTrfSetupHandler
                             _memcpy
 ---------------------------------------------------------------------------------
 (3) _memcpy                                              10     6      4     363
                                              0 COMMON    10     6      4
 ---------------------------------------------------------------------------------
 (3) _USBCtrlTrfSetupHandler                               1     1      0   16859
                                             15 BANK1      1     1      0
                 _USBCheckStdRequest
           _USBCtrlEPServiceComplete
    _USER_USB_CALLBACK_EVENT_HANDLER
 ---------------------------------------------------------------------------------
 (4) _USBCtrlEPServiceComplete                             2     2      0      92
                                              5 COMMON     2     2      0
            _USBCtrlEPAllowDataStage
          _USBCtrlEPAllowStatusStage
 ---------------------------------------------------------------------------------
 (5) _USBCtrlEPAllowDataStage                              2     2      0      92
                                              3 COMMON     2     2      0
                _USBCtrlTrfTxService
 ---------------------------------------------------------------------------------
 (4) _USBCheckStdRequest                                   2     2      0   13143
                                             13 BANK1      2     2      0
            _USBStdFeatureReqHandler
                _USBStdGetDscHandler
             _USBStdGetStatusHandler
                _USBStdSetCfgHandler
    _USER_USB_CALLBACK_EVENT_HANDLER
 ---------------------------------------------------------------------------------
 (5) _USBStdSetCfgHandler                                  5     5      0    5378
                                              6 BANK1      5     5      0
    _USER_USB_CALLBACK_EVENT_HANDLER
                             _memset
 ---------------------------------------------------------------------------------
 (6) _memset                                              14     8      6    1519
                                              0 COMMON    14     8      6
 ---------------------------------------------------------------------------------
 (5) _USBStdGetStatusHandler                               4     4      0      46
                                              0 COMMON     4     4      0
 ---------------------------------------------------------------------------------
 (5) _USBStdGetDscHandler                                  3     3      0       0
                                              0 COMMON     3     3      0
 ---------------------------------------------------------------------------------
 (5) _USBStdFeatureReqHandler                              7     7      0    4095
                                              6 BANK1      7     7      0
    _USER_USB_CALLBACK_EVENT_HANDLER
 ---------------------------------------------------------------------------------
 (2) _USER_USB_CALLBACK_EVENT_HANDLER                      6     0      6    3624
                                              0 BANK1      6     0      6
       _APP_DeviceJoystickInitialize
             _APP_LEDUpdateUSBStatus
                  _SYSTEM_Initialize
                 _USBCheckHIDRequest
 ---------------------------------------------------------------------------------
 (3) _USBCheckHIDRequest                                   2     2      0       0
                                              0 COMMON     2     2      0
 ---------------------------------------------------------------------------------
 (3) _SYSTEM_Initialize                                    3     3      0      66
                                              3 COMMON     3     3      0
                      _BUTTON_Enable
                         _LED_Enable
 ---------------------------------------------------------------------------------
 (4) _LED_Enable                                           3     3      0      22
                                              0 COMMON     3     3      0
 ---------------------------------------------------------------------------------
 (4) _BUTTON_Enable                                        3     3      0      22
                                              0 COMMON     3     3      0
 ---------------------------------------------------------------------------------
 (3) _APP_LEDUpdateUSBStatus                               2     2      0      44
                                              3 COMMON     2     2      0
                            _LED_Off
                             _LED_On
 ---------------------------------------------------------------------------------
 (4) _LED_On                                               3     3      0      22
                                              0 COMMON     3     3      0
 ---------------------------------------------------------------------------------
 (4) _LED_Off                                              3     3      0      22
                                              0 COMMON     3     3      0
 ---------------------------------------------------------------------------------
 (3) _APP_DeviceJoystickInitialize                         1     1      0     822
                                             13 COMMON     1     1      0
                  _USBEnableEndpoint
 ---------------------------------------------------------------------------------
 (4) _USBEnableEndpoint                                    6     5      1     822
                                              7 COMMON     6     5      1
               _USBConfigureEndpoint
 ---------------------------------------------------------------------------------
 (5) _USBConfigureEndpoint                                 7     6      1     400
                                              0 COMMON     7     6      1
 ---------------------------------------------------------------------------------
 (3) _USBCtrlTrfOutHandler                                 2     2      0     114
                                              6 COMMON     2     2      0
                _USBCtrlTrfRxService
 ---------------------------------------------------------------------------------
 (4) _USBCtrlTrfRxService                                  4     4      0     114
                                              2 COMMON     4     4      0
          _USBCtrlEPAllowStatusStage
 ---------------------------------------------------------------------------------
 (5) _USBCtrlEPAllowStatusStage                            2     2      0       0
                                              0 COMMON     2     2      0
 ---------------------------------------------------------------------------------
 (3) _USBCtrlTrfInHandler                                  3     3      0     115
                                              3 COMMON     3     3      0
                _USBCtrlTrfTxService
 ---------------------------------------------------------------------------------
 (6) _USBCtrlTrfTxService                                  3     3      0      92
                                              0 COMMON     3     3      0
 ---------------------------------------------------------------------------------
 (1) _MasterinitSPI                                        0     0      0       0
 ---------------------------------------------------------------------------------
 (1) _APP_DeviceJoystickTasks                              1     1      0    1711
                                             11 COMMON     1     1      0
               _USBTransferOnePacket
 ---------------------------------------------------------------------------------
 (2) _USBTransferOnePacket                                11     7      4    1711
                                              0 COMMON    11     7      4
 ---------------------------------------------------------------------------------
 Estimated maximum stack depth 6
 ---------------------------------------------------------------------------------
 (Depth) Function   	        Calls       Base Space   Used Autos Params    Refs
 ---------------------------------------------------------------------------------
 (10) _SYS_InterruptHigh                                   0     0      0       0
 ---------------------------------------------------------------------------------
 Estimated maximum stack depth 10
 ---------------------------------------------------------------------------------

 Call Graph Graphs:

 _main (ROOT)
   _APP_DeviceJoystickTasks
     _USBTransferOnePacket
   _MasterinitSPI
   _SYSTEM_Initialize
     _BUTTON_Enable
     _LED_Enable
   _USBDeviceInit
   _USBDeviceTasks
     _USBCtrlEPAllowStatusStage
     _USBCtrlEPService
       _USBCtrlTrfInHandler
         _USBCtrlTrfTxService
       _USBCtrlTrfOutHandler
         _USBCtrlTrfRxService
           _USBCtrlEPAllowStatusStage
       _USBCtrlTrfSetupHandler
         _USBCheckStdRequest
           _USBStdFeatureReqHandler
             _USER_USB_CALLBACK_EVENT_HANDLER
               _APP_DeviceJoystickInitialize
                 _USBEnableEndpoint
                   _USBConfigureEndpoint
               _APP_LEDUpdateUSBStatus
                 _LED_Off
                 _LED_On
               _SYSTEM_Initialize
               _USBCheckHIDRequest
           _USBStdGetDscHandler
           _USBStdGetStatusHandler
           _USBStdSetCfgHandler
             _USER_USB_CALLBACK_EVENT_HANDLER
             _memset
           _USER_USB_CALLBACK_EVENT_HANDLER
         _USBCtrlEPServiceComplete
           _USBCtrlEPAllowDataStage
             _USBCtrlTrfTxService
           _USBCtrlEPAllowStatusStage
         _USER_USB_CALLBACK_EVENT_HANDLER
       _memcpy
     _USBDeviceInit
     _USBIncrement1msInternalTimers
     _USBStallHandler
     _USBSuspend
       _USER_USB_CALLBACK_EVENT_HANDLER
     _USBWakeFromSuspend
       _USER_USB_CALLBACK_EVENT_HANDLER
     _USER_USB_CALLBACK_EVENT_HANDLER
   _spiWrite

 _SYS_InterruptHigh (ROOT)

 Address spaces:
Name               Size   Autos  Total    Cost      Usage
BIGRAM             3F0      0       0       0        0.0%
NULL                 0      0       0       0        0.0%
CODE                 0      0       0       0        0.0%
BITCOMMON            E      0       0       1        0.0%
BITSFR0              0      0       0       1        0.0%
SFR0                 0      0       0       1        0.0%
COMMON               E      E       E       2      100.0%
BITSFR1              0      0       0       2        0.0%
SFR1                 0      0       0       2        0.0%
BITSFR2              0      0       0       3        0.0%
SFR2                 0      0       0       3        0.0%
STACK                0      0       0       3        0.0%
BITBANK1            40      0       0       4        0.0%
BITSFR3              0      0       0       4        0.0%
SFR3                 0      0       0       4        0.0%
BANK1               40     17      3F       5       98.4%
BITSFR4              0      0       0       5        0.0%
SFR4                 0      0       0       5        0.0%
BITBANK2            50      0       0       6        0.0%
BITSFR5              0      0       0       6        0.0%
SFR5                 0      0       0       6        0.0%
BANK2               30      0      30       7      100.0%
BITSFR6              0      0       0       7        0.0%
SFR6                 0      0       0       7        0.0%
BITBANK3            50      0       0       8        0.0%
BITSFR7              0      0       0       8        0.0%
SFR7                 0      0       0       8        0.0%
BANK3               30      0       0       9        0.0%
BITSFR8              0      0       0       9        0.0%
SFR8                 0      0       0       9        0.0%
BITBANK4h            F      0       0      10        0.0%
BITSFR9              0      0       0      10        0.0%
SFR9                 0      0       0      10        0.0%
BITBANK4l           10      0       0      11        0.0%
BITSFR10             0      0       0      11        0.0%
SFR10                0      0       0      11        0.0%
BANK4h               F      0       0      12        0.0%
BITSFR11             0      0       0      12        0.0%
SFR11                0      0       0      12        0.0%
BANK4l              10      0       0      13        0.0%
BITSFR12             0      0       0      13        0.0%
SFR12                0      0       0      13        0.0%
BITBANK5            50      0       0      14        0.0%
BITSFR13             0      0       0      14        0.0%
SFR13                0      0       0      14        0.0%
BANK5               40      0       0      15        0.0%
BITSFR14             0      0       0      15        0.0%
SFR14                0      0       0      15        0.0%
BITBANK6            50      0       0      16        0.0%
BITSFR15             0      0       0      16        0.0%
SFR15                0      0       0      16        0.0%
BANK6               20      0       0      17        0.0%
BITSFR16             0      0       0      17        0.0%
SFR16                0      0       0      17        0.0%
BITBANK7            50      0       0      18        0.0%
BITSFR17             0      0       0      18        0.0%
SFR17                0      0       0      18        0.0%
BANK7               50      0       0      19        0.0%
BITSFR18             0      0       0      19        0.0%
SFR18                0      0       0      19        0.0%
BITSFR19             0      0       0      20        0.0%
SFR19                0      0       0      20        0.0%
ABS                  0      0      7D      20        0.0%
BITBANK8            50      0       0      21        0.0%
BITSFR20             0      0       0      21        0.0%
SFR20                0      0       0      21        0.0%
BANK8               50      0       0      22        0.0%
BITSFR21             0      0       0      22        0.0%
SFR21                0      0       0      22        0.0%
BITBANK9            50      0       0      23        0.0%
BITSFR22             0      0       0      23        0.0%
SFR22                0      0       0      23        0.0%
BANK9               50      0       0      24        0.0%
BITSFR23             0      0       0      24        0.0%
SFR23                0      0       0      24        0.0%
BITBANK10           50      0       0      25        0.0%
BITSFR24             0      0       0      25        0.0%
SFR24                0      0       0      25        0.0%
BANK10              50      0       0      26        0.0%
BITSFR25             0      0       0      26        0.0%
SFR25                0      0       0      26        0.0%
BITBANK11           50      0       0      27        0.0%
BITSFR26             0      0       0      27        0.0%
SFR26                0      0       0      27        0.0%
BANK11              50      0       0      28        0.0%
BITSFR27             0      0       0      28        0.0%
SFR27                0      0       0      28        0.0%
BITBANK12           30      0       0      29        0.0%
BITSFR28             0      0       0      29        0.0%
SFR28                0      0       0      29        0.0%
BANK12              30      0       0      30        0.0%
BITSFR29             0      0       0      30        0.0%
SFR29                0      0       0      30        0.0%
BITSFR30             0      0       0      31        0.0%
SFR30                0      0       0      31        0.0%
DATA                 0      0      7D      31        0.0%
BITSFR31             0      0       0      32        0.0%
SFR31                0      0       0      32        0.0%


Microchip Technology PIC Macro Assembler V2.36 build 20220127204148 
Symbol Table                                                                                   Thu Oct 20 02:42:59 2022

                             _USB_SD_Ptr 1154                                        _v 0148  
                                     _BF 10A0                              ?_LED_Enable 0070  
                          _USBDeviceInit 0567                       _USBCheckHIDRequest 02CF  
   USER_USB_CALLBACK_EVENT_HANDLER@event 00D8     USER_USB_CALLBACK_EVENT_HANDLER@pdata 00DA  
                                    l202 07DD                                      l300 0CB1  
                                    l221 0D8B                                      l311 0D19  
                                    l303 0D0B                                      l232 0B08  
                                    l304 0CBB                                      l217 0D8B  
                                    l401 019F                                      l305 0CBE  
                                    l161 0610                                      l227 0C49  
                                    l235 0709                                      l260 0E00  
                                    l156 05A8                                      l316 0A2B  
                                    l245 0756                                      l333 0BEA  
                                    l325 0952                                      l165 02CE  
                                    l173 01E5              __end_of_USBStdGetDscHandler 0F7A  
                                    l406 0910                                      l182 0268  
                                    l271 06AF                                      l263 0629  
                                    l343 0AC5                                      l431 03E5  
                                    l319 08F3                                      l183 02CC  
                                    l167 01B1                                      l248 0DAF  
                                    l600 0CAC                                      l440 038B  
                                    l336 0B96                                      l184 026F  
                                    l168 01B0                                      l273 06BA  
                                    l361 0EF4                                      l169 01B5  
                                    l282 0FFF                                      l178 022F  
                                    l363 0E83                                      l356 0E75  
                                    l196 0A00                                      l604 0C77  
                                    l372 0EAA                                      l357 0E78  
                                    l349 0E70                                      l526 0A82  
                                    l640 0999                                      l632 08D7  
                                    l296 0F79                                      l570 04B8  
                                    l642 099C                                      l571 0566  
                                    l651 097A                                      l643 099F  
                                    l652 097D                                      l565 0974  
                                    l645 09B8                                      l397 0155  
                                    l654 0996                                      l486 0B4E  
                                    l399 0169                                      l760 09DB  
                                    l649 0977                                      l681 07FF  
                                    l761 09D5                                      l763 09D9  
                                    l676 07E0                                      _BDT 0020  
                                    l766 08B9                                      l678 07E3  
                                    l679 07E6                                      l695 0931  
                                    _UIE 0E92                                      _UIR 0E90  
                 _APP_LEDUpdateUSBStatus 0C4A                               _USBSuspend 08D8  
                   USBStdSetCfgHandler@i 00E2                     USBStdSetCfgHandler@p 00DF  
                                    wreg 0009                           _USBDeviceTasks 01A0  
                    ?_USBCheckHIDRequest 0070                           _USBDeviceState 00D3  
                          _BUTTON_Enable 08C6                    ??_USBCtrlTrfRxService 0072  
               USBEnableEndpoint@options 0077                          __end_of_LED_Off 0997  
                                   l1303 04AF                                     l3005 08C7  
                                   l3111 0C54                                     l3015 07DF  
                                   l3031 02DD                                     l3201 0DA3  
                                   l3121 0C74                                     l3113 0C5A  
                                   l3105 0C4A                                     l3009 08C7  
                                   l3041 02F0                                     l3033 02E2  
                                   l3025 02CF                                     l3211 0DC6  
                                   l3203 0DA6                                     l3131 0C8F  
                                   l3123 0C78                                     l3115 0C5F  
                                   l3107 0C4F                                     l3019 07E9  
                                   l3051 031E                                     l3043 02F6  
                                   l3221 0DDE                                     l3205 0DAB  
                                   l3301 0D5E                                     l3125 0C7E  
                                   l3117 0C66                                     l3061 034E  
                                   l3053 0326                                     l3045 02FD  
                                   l3037 02E9                                     l3029 02D8  
                                   l4111 04E9                                     l3231 0DF9  
                                   l3215 0DCB                                     l3223 0DE0  
                                   l3207 0DB6                                     l3311 0D84  
                                   l3303 0D65                                     l3127 0C83  
                                   l3119 0C6B                                     l3151 091E  
                                   l3063 0355                                     l3055 0334  
                                   l3047 030A                                     l3071 0378  
                                   l4121 0514                                     l4113 04EF  
                                   l4105 04CD                                     l3225 0DE6  
                                   l3217 0DD6                                     l3233 0DFB  
                                   l3209 0DC2                                     l3305 0D69  
                                   l3161 095C                                     l3129 0C8A  
                                   l3137 0C99                                     l3145 0912  
                                   l3081 039E                                     l3065 0362  
                                   l3057 033A                                     l3049 0311  
                                   l3073 038B                                     l3401 0F30  
                                   l3321 0C0D                                     l3313 0BEB  
                                   l4131 054C                                     l4123 0526  
                                   l4115 04F3                                     l4107 04DF  
                                   l3227 0DF1                                     l3219 0DDA  
                                   l3307 0D6B                                     l3163 0964  
                                   l3139 0CA7                                     l3147 0915  
                                   l3091 03BD                                     l3083 03A3  
                                   l3067 036A                                     l3059 0341  
                                   l3171 0B0E                                     l3403 0F40  
                                   l3331 0C30                                     l3323 0C13  
                                   l3315 0BEE                                     l1299 0A59  
             USBConfigureEndpoint@handle 0076                                     l4133 0554  
                                   l4125 052C                                     l4109 04E3  
                                   l4117 0506                                     l3229 0DF5  
                                   l3309 0D77                                     l3165 096C  
                                   l3085 03AF                                     l3077 0395  
                                   l3173 0B16                                     l3181 0B26  
                                   l3501 00E8                                     l3405 0F43  
                                   l3333 0C3E                                     l3317 0BF4  
                                   l3325 0C19                                     l4127 0534  
                                   l4119 050C                                     l3159 0953  
                                   l3087 03B4                                     l3079 039A  
                                   l3095 03C9                                     l3175 0B1E  
                                   l3167 0B09                                     l3511 010B  
                                   l3503 00F1                                     l3407 0F49  
                                   l3431 0CC0                                     l3423 0CAD  
                                   l3335 0C44                                     l3327 0C26  
                                   l3319 0C00                                     l4129 0546  
                                   l3281 0D24                                     l3601 0617  
                                   l3089 03B8                                     l3177 0B22  
                                   l3169 0B0A                                     l3521 012D  
                                   l3505 00F6                                     l3513 0111  
                                   l3409 0F59                                     l3417 0F65  
                                   l3441 0CEA                                     l3433 0CC8  
                                   l3329 0C2D                                     l4081 09C7  
                                   l4091 04B0                                     l4075 08AF  
                                   l3195 0D8C                                     l3291 0D3F  
                                   l3283 0D29                                     l3611 0641  
                                   l3603 0625                                     l3531 015A  
                                   l3523 013D                                     l3515 0118  
                                   l3507 00FE                                     l3451 0D14  
                                   l3443 0CF2                                     l3435 0CCC  
                                   l3427 0CB3                                     l4077 08B2  
                                   l3197 0D9A                                     l3293 0D45  
                                   l3285 0D2D                                     l3277 0D1A  
                                   l3621 066B                                     l3613 0645  
                                   l3605 0630                                     l5141 0B2F  
                                   l3541 0197                                     l3533 0162  
                                   l3525 0142                                     l3517 0120  
                                   l3509 0105                                     l3461 003F  
                                   l3453 0D15                                     l3437 0CD8  
                                   l3429 0CB8                                     l4085 09CD  
                                   l3199 0D9E                                     l3295 0D4A  
                                   l3287 0D33                                     l3279 0D20  
                                   l3631 06A4                                     l3623 0672  
                                   l3615 064B                                     l3607 0632  
                                   l5151 07F1                                     l5143 0B49  
                                   l3535 0172                                     l3527 0149  
                                   l3519 0128                                     l3463 0046  
                                   l3471 0055                                     l3391 0EFC  
                                   l3439 0CE2                                     l3447 0CF7  
                                   l4511 03EA                                     l5135 0ED1  
                                   l3551 06D1                                     l3543 06BB  
                                   l4087 09D0                                     l4079 09B9  
                                   l4097 04BE                                     l3297 0D4B  
                                   l3289 0D39                                     l3633 06AA  
                                   l3625 067E                                     l3617 0651  
                                   l3609 063D                                     l5153 08CF  
                                   l5145 0380                                     l3537 0182  
                                   l3529 014D                                     l3481 0079  
                                   l3473 005B                                     l3465 0048  
                                   l3393 0F02                                     l3449 0D10  
                                   l5137 0D00                                     l4601 0FFA  
                                   l3561 06F2                                     l3553 06D4  
                                   l3545 06C2                                     l3801 058D  
                                   l4089 09D2                                     l4099 04C5  
                                   l3299 0D52                                     l3619 065E  
                                   l3627 068A                                     l3731 0A9F  
                                   l3723 0A8E                                     l5155 0CA2  
                                   l5147 03D1                                     l3539 018A  
                                   l3491 00BE                                     l3483 007F  
                                   l3475 0062                                     l3467 004F  
                                   l3459 0039                                     l5139 0F6E  
                                   l3395 0F0C                                     l4531 0477  
                                   l4523 0413                                     l4515 03F1  
                                   l4611 0E8D                                     l4603 0E79  
                                   l3571 0711                                     l3563 06F8  
                                   l3555 06D6                                     l3547 06C7  
                                   l3811 05AC                                     l3803 059E  
                                   l3741 0E01                                     l3637 06B1  
                                   l3629 0697                                     l3733 0AAB  
                                   l3725 0A95                                     l5157 09AA  
                                   l5149 0926                                     l3493 00C4  
                                   l3485 0098                                     l3477 0069  
                                   l3469 0053                                     l3397 0F11  
                                   l3389 0EF5                                     l4541 0496  
                                   l4525 044F                                     l4517 03F7  
                                   l4509 03E6                                     l4621 0E9A  
                                   l4613 0E91                                     l3581 0721  
                                   l3573 0716                                     l3565 06FD  
                                   l3549 06CC                                     l3557 06D8  
                                   l3821 05B7                                     l3813 05AD  
                                   l3805 05A2                                     l3901 0A1A  
                                   l3751 0E20                                     l3743 0E0A  
                                   l3639 06B7                                     l3735 0AB8  
                                   l3727 0A99                                     l5159 0988  
                                   l3495 00C9                                     l3487 00AF  
                                   l3479 0073                                     l3399 0F21  
                                   l4543 049B                                     l4535 0481  
                                   l4519 0409                                     l4551 0F7A  
                                   l4623 0E9E                                     l4615 0E95  
                                   l4607 0E84                                     l3591 0749  
                                   l3575 0719                                     l3583 0725  
                                   l3567 0703                                     l3559 06E5  
                                   l3831 05C8                                     l3823 05BC  
                                   l3815 05B1                                     l3807 05AA  
                                   l3903 0A25                                     l4711 01AD  
                                   l4703 01A0                                     l3761 0E40  
                                   l3753 0E26                                     l3745 0E10  
                                   l3737 0ABE                                     l3729 0A9A  
                                   l2961 0AE4                                     l3497 00D6  
                                   l3489 00B3                                     l4545 04A1  
                                   l4537 048E                                     l4529 0459  
                                   l4561 0F86                                     l4553 0F80  
                                   l4633 0EAB                                     l4625 0EA2  
                                   l4617 0E96                                     l4609 0E89  
                                   l3593 074E                                     l3585 072A  
                                   l3577 071B                                     l3569 070E  
                                   l3841 05EE                                     l3825 05C5  
                                   l3817 05B3                                     l3809 05AB  
                                   l3905 0A27                                     l4801 029B  
                                   l4721 01C5                                     l4705 01A6  
                                   l4713 01B8                                     l3931 075D  
                                   l3763 0E47                                     l3747 0E16  
                                   l3755 0E2B                                     l3739 0AC4  
                                   l2971 0B03                                     l2963 0AE8  
                                   l3499 00E1                                     l4547 04A5  
                                   l4539 0492                                     l4571 0FA4  
                                   l4563 0F8A                                     l4635 0EB9  
                                   l4619 0E98                                     l3595 074F  
                                   l3587 0736                                     l3579 071C  
                                   l4651 0B5E                                     l3691 0A42  
                                   l3851 0601                                     l3843 05F3  
                                   l3835 05C9                                     l3827 05C6  
                                   l3819 05B5                                     l4811 02C6  
                                   l4803 02AA                                     l4731 01DA  
                                   l4723 01C6                                     l4715 01BD  
                                   l4707 01A9                                     l3941 0778  
                                   l3933 0766                                     l3773 0E76  
                                   l3765 0E53                                     l3757 0E30  
                                   l3749 0E1B                                     l2965 0AED  
                                   l2957 0AC7                                     l2981 09F0  
                                   l2973 09DD                                     l4549 04A9  
                                   l4581 0FB6                                     l4565 0F8E  
                                   l3589 0743                                     l4661 0B7B  
                                   l4653 0B64                                     l3693 0A49  
                                   l3685 0A2D                                     l3853 0602  
                                   l3845 05F6                                     l3837 05E4  
                                   l3829 05C7                                     l3861 0932  
                                   l4805 02AF                                     l4741 01F0  
                                   l4733 01DD                                     l4717 01C2  
                                   l4725 01CB                                     l4709 01AB  
                                   l4821 0A71                                     l4813 0A5A  
                                   l3951 07C1                                     l3943 0787  
                                   l3935 076F                                     l3767 0E58  
                                   l3759 0E3D                                     l3599 0611  
                                   l2967 0AF7                                     l2959 0ACB  
                                   l2983 09FA                                     l2975 09E1  
                                   l4591 0FD5                                     l4583 0FBC  
                                   l4567 0F94                                     l4559 0F81  
                                   l4639 0EC8                                     l4671 0B93  
                                   l4663 0B7D                                     l4655 0B6C  
                                   l4647 0B4F                                     l3687 0A36  
                                   l3695 0A4D                                     l3855 0604  
                                   l3847 05FB                                     l3839 05E8  
                                   l3791 057F                                     l3775 0567  
                                   l3871 094C                                     l3863 0934  
                                   l4807 02B3                                     l4751 0205  
                                   l4743 01F5                                     l4735 01E2  
                                   l4727 01D0                                     l4719 01C4  
                                   l4823 0A74                                     l4815 0A5D  
                                   l3953 07D9                                     l3945 0793  
                                   l3937 0775                                     l3929 0758  
                                   l3769 0E64                                     l2969 0AFF  
                                   l2977 09E6                                     l2985 0976  
                                   l4593 0FDB                                     l4585 0FCA  
                                   l4577 0FA6                                     l4569 0FA2  
                                   l4665 0B7F                                     l4657 0B72  
                                   l4649 0B56                                     l3689 0A3E  
                                   l4681 0BB5                                     l4673 0B97  
                                   l3857 060D                                     l3849 05FD  
                                   l3793 0585                                     l3785 0572  
                                   l3777 0569                                     l3881 08E1  
                                   l3873 0950                                     l3865 0942  
                                   l4809 02C1                                     l4761 0227  
                                   l4753 020A                                     l4737 01E9  
                                   l4745 01FA                                     l4729 01D4  
                                   l4833 0A88                                     l4825 0A77  
                                   l4817 0A61                                     l3947 07A5  
                                   l2979 09EA                                     l2995 0998  
                                   l4595 0FE1                                     l4587 0FCC  
                                   l4579 0FB2                                     l4667 0B81  
                                   l4659 0B7A                                     l4683 0BBB  
                                   l4691 0BDE                                     l4675 0B9C  
                                   l3859 060F                                     l3795 058C  
                                   l3787 0577                                     l3779 056D  
                                   l3891 0903                                     l3883 08E4  
                                   l3875 08D8                                     l3867 0944  
                                   l4771 0240                                     l4763 022D  
                                   l4755 020E                                     l4747 01FE  
                                   l4739 01ED                                     l4827 0A7A  
                                   l4819 0A6E                                     l3949 07AA  
                                   l2989 0980                                     l4597 0FE6  
                                   l4589 0FD1                                     l4669 0B84  
                                   l4693 0BE7                                     l4685 0BC6  
                                   l4677 0BA2                                     l3789 057B  
                                   l3893 090C                                     l3885 08E5  
                                   l3877 08DA                                     l3869 0946  
                                   l4781 025E                                     l4773 0243  
                                   l4765 0234                                     l4757 021E  
                                   l4749 0202                                     l2999 09A2  
                                   l4599 0FEB                                     l4687 0BD6  
                                   l4679 0BAF                                     l3887 08F4  
                                   l3895 0A01                                     l3879 08E0  
                                   l4791 0274                                     l4783 0265  
                                   l4775 0248                                     l4759 0224  
                                   l4767 0237                                     l4695 01A0  
                        __end_of_LED_rpt 1110                                     l4689 0BDA  
                                   l3889 08FD                                     l3897 0A06  
                                   l4793 0279                                     l4785 026D  
                                   l4777 024C                                     l4769 023C  
                                   l3899 0A10                                     l4795 0281  
                                   l4779 025C                                     l4797 0286  
                                   l4799 028B                                     u2040 0D20  
                                   u2200 0CF2                                     u2041 0D1F  
                                   u2201 0CF1                                     u2050 0D29  
                                   u2130 0EFC                                     u2210 0D10  
                                   u2051 0D28                                     u2131 0EFB  
                                   u2211 0D0F                                     u3100 04CD  
                                   u2060 0D33                                     u2300 007F  
                                   u2220 003F                                     u2140 0F11  
                                   u3101 04CC                                     u2061 0D32  
                                   u2301 007E                                     u2221 003E  
                                   u2141 0F10                                     u3110 050C  
                                   u2070 0D4A                                     u2310 00B3  
                                   u2230 0046                                     u2150 0F49  
                                   u3111 050B                                     u2071 0D49  
                                   u2311 00B2                                     u2231 0045  
                                   u2151 0F48                                     u3120 0514  
                                   u2320 00C9                                     u2240 004F  
                                   u2160 0CB8                                     u2080 0BF4  
                                   u2400 06C2                                     u3121 0513  
                                   u2321 00C8                                     u2241 004E  
                                   u2161 0CB7                                     u2081 0BF3  
                                   u2401 06C1                                     u3130 052C  
                                   u2330 00E8                                     u2250 005B  
                                   u2170 0CC8                                     u2090 0C26  
                                   u2410 06C7                                     u3050 09C7  
                                   u3131 052B                                     u2331 00E7  
                                   u2251 005A                                     u2171 0CC7  
                                   u2091 0C25                                     u2411 06C6  
                                   u3051 09C6                                     u3140 0534  
                                   u2500 0672                                     u1700 09E1  
                                   u2340 00F1                                     u2260 0062  
                                   u2180 0CCC                                     u2420 06D1  
                                   u3060 09D9                                     u3141 0533  
                                   u2501 0671                                     u1701 09E0  
                                   u2341 00F0                                     u2261 0061  
                                   u2181 0CCB                                     u2421 06D0  
                                   u3061 09D8                                     u3150 054C  
                                   u3070 04B7                                     u2510 06B7  
                                   u1710 09EA                                     u2350 00F6  
                                   u2270 0069                                     u2190 0CEA  
                                   u3310 03F0                                     u2430 070E  
                                   u3151 054B                                     u3071 04B6  
                                   u2511 06B6                                     u1711 09E9  
                                   u2351 00F5                                     u2271 0068  
                                   u2191 0CE9                                     u3311 03EF  
                                   u2095 0C22                                     u2431 070D  
                                   u3055 09C3                                     u3160 0554  
                                   u3080 04BD                                     u2600 0E58  
                                   u1800 0326                                     u1720 02D7  
                                   u2360 0120                                     u2280 0073  
                                   u3320 0412                                     u2440 0716  
                                   u3400 0BA2                                     u3161 0553  
                                   u3081 04BC                                     u2601 0E57  
                                   u1801 0325                                     u1721 02D6  
                                   u2361 011F                                     u2281 0072  
                                   u3321 0411                                     u2441 0715  
                                   u3401 0BA1                                     u3090 04C5  
                                   u2610 0E75                                     u1810 033A  
                                   u1730 02DD                                     u2370 014D  
                                   u2290 0079                                     u3330 0458  
                                   u2450 0721                                     u2530 0A59  
                                   u3091 04C4                                     u2611 0E74  
                                   u1811 0339                                     u1731 02DC  
                                   u2371 014C                                     u2291 0078  
                                   u3331 0457                                     u2451 0720  
                                   u2531 0A58                                     u2540 0A95  
                                   u1900 0C7E                                     u1820 0341  
                                   u1740 02E2                                     u2380 0155  
                                   u3340 0480                                     u2460 0755  
                                   u3420 0BC6                                     u2620 0585  
                                   u2700 0A06                                     u3500 01E2  
                                   u2541 0A94                                     u1901 0C7D  
                                   u1821 0340                                     u1741 02E1  
                                   u2381 0154                                     u3341 047F  
                                   u2461 0754                                     u3421 0BC5  
                                   u2621 0584                                     u2701 0A05  
                                   u3501 01E1                                     u2470 0625  
                                   u2550 0A9F                                     u1910 0C8A  
                                   u1830 0355                                     u1750 02E8  
                                   u2390 015A                                     u3350 04AF  
                                   u3430 0BE7                                     u2710 0A10  
                                   u3510 01E9                                     u2471 0624  
                                   u2551 0A9E                                     u1911 0C89  
                                   u1831 0354                                     u1751 02E7  
                                   u2391 0159                                     u3351 04AE  
                                   u3431 0BE6                                     u3415 0BA6  
                                   u2711 0A0F                                     u3511 01E8  
                                   u2560 0E16                                     u2480 064B  
                                   u1920 0C98                                     u1840 036A  
                                   u1760 02EF                                     u3360 0F94  
                                   u2640 05A8                                     u2720 0A1A  
                                   u3600 0240                                     u3520 01ED  
                                   u3440 01A6                                     u2561 0E15  
                                   u2481 064A                                     u1665 0ACE  
                                   u1921 0C97                                     u1841 0369  
                                   u1761 02EE                                     u3361 0F93  
                                   u2641 05A7                                     u2721 0A19  
                                   u3601 023F                                     u3521 01EC  
                                   u3441 01A5                                     u1930 0D9A  
                                   u2570 0E20                                     u2490 0651  
                                   u1690 0AED                                     u1850 0394  
                                   u1770 02F6                                     u3370 0FBC  
                                   u2650 05BC                                     u3610 0248  
                                   u3530 01FE                                     u3450 01B5  
                                   u1931 0D99                                     u2571 0E1F  
                                   u2491 0650                                     u2475 0621  
                                   u1691 0AEC                                     u1675 0AD4  
                                   u1851 0393                                     u1771 02F5  
                                   u3371 0FBB                                     u2651 05BB  
                                   u2635 0590                                     u3611 0247  
                                   u3531 01FD                                     u3451 01B4  
                                   u1940 0DA3                                     u2580 0E30  
                                   u1860 0C4F                                     u1780 02FD  
                                   u3380 0FE6                                     u2660 05EE  
                                   u3620 024C                                     u3540 0202  
                                   u3460 01BD                                     u3700 0A87  
                                   u1941 0DA2                                     u2581 0E2F  
                                   u1685 0ADC                                     u1861 0C4E  
                                   u1781 02FC                                     u3381 0FE5  
                                   u2661 05ED                                     u3621 024B  
                                   u3541 0201                                     u3461 01BC  
                                   u3701 0A86                                     u1950 0DAB  
                                   u2590 0E47                                     u1870 0C5A  
                                   u1790 0311                                     u3390 0E82  
                                   u2670 0950                                     u3630 0265  
                                   u3550 020A                                     u3470 01C2  
                                   u1951 0DAA                                     u2591 0E46  
                                   u1871 0C59                                     u1791 0310  
                                   u3391 0E81                                     u2671 094F  
                                   u3631 0264                                     u3551 0209  
                                   u3471 01C1                                     u1960 0DCA  
                                   u1880 0C66                                     u2680 0903  
                                   u3640 026D                                     u3560 020E  
                                   u3480 01D0                                     u1961 0DC9  
                                   u1881 0C65                                     u2681 0902  
                                   u3641 026C                                     u3561 020D  
                                   u3481 01CF                                     u2770 075D  
                                   u1970 0DE5                                     u1890 0C74  
                                   u2690 090C                                     u3650 0274  
                                   u3570 022D                                     u3490 01D4  
                                   u2771 075C                                     u1971 0DE4  
                                   u1891 0C73                                     u2691 090B  
                                   u3651 0273                                     u3571 022C  
                                   u3491 01D3                                     u2780 0775  
                                   u1980 0E00                                     u3660 028B  
                                   u3580 0234                                     u2781 0774  
                                   u1981 0DFF                                     u3661 028A  
                                   u3581 0233                                     u3717 0A67  
                                   u2790 07AA                                     u3670 02AF  
                                   u3590 023C                                     u2791 07A9  
                                   u3671 02AE                                     u3591 023B  
                                   u3680 02CC                                     u3681 02CB  
                                   u3690 0A81                                     u3691 0A80  
                  ??_USBCtrlTrfTxService 0070                                     _REGT 00C2  
                                   _UCFG 0E91                                     _UEP0 0E98  
                                   _UEP1 0E99                                     _UEIE 0E97  
                                   _UEIR 0E93                                     _UCON 0E8E  
                                   _WCOL 10AF   USBStdFeatureReqHandler@current_ep_data 00E2  
                                   _pDst 00CF                                     _cntr 00C1  
                                   _main 0A5A                                     fsr0h 0005  
                                   fsr1h 0007                                     indf0 0000  
                                   fsr0l 0004                                     indf1 0001  
                                   fsr1l 0006                                     btemp 007E  
                                   start 0008          __end_of_APP_DeviceJoystickTasks 0567  
                   ??_USBCheckHIDRequest 0070               __end_of_USBCheckStdRequest 0EF5  
                 ??_USBCtrlTrfOutHandler 0076                ??_USBStdFeatureReqHandler 00DE  
               ??_USBStdGetStatusHandler 0070                           ?_USBDeviceInit 0070  
                                  ?_main 0070                   __end_of_USBDeviceTasks 02CF  
              ?_USBCtrlEPServiceComplete 0070                                    i1l700 0006  
                                  _UADDR 0E96                                    _TESTB 00C3  
                                  _SSPOV 10AE                                    _USTAT 0E8F  
                         ?_BUTTON_Enable 0070          __end_of_USBCtrlEPAllowDataStage 0C4A  
                                  _sd000 115A                                    _sd001 10C0  
                                  _sd002 1110           ?_USBIncrement1msInternalTimers 0070  
                                  status 0003                                    wtemp0 007E  
                        __initialization 000A                             __end_of_main 0A8E  
                                 ??_main 00ED                          ?_USBDeviceTasks 0070  
                            ?_USBSuspend 0070                                ??_LED_Off 0070  
                                 _ANSELC 018E                   SYSTEM_Initialize@state 0075  
                                 _LED_On 0997                            _MasterinitSPI 08AF  
                                 _SSPADD 0212                                   _TRISC0 0470  
                                 _TRISC1 0471                                   _TRISC2 0472  
                                 _TRISC3 0473                                   _SSPBUF 0211  
                                 _SSPCON 0215                        _shortPacketStatus 00D1  
                        USBDeviceTasks@i 00EC              USBStdFeatureReqHandler@pUEP 00E0  
               USBTransferOnePacket@data 0071               USBCtrlTrfInHandler@lastDTS 0075  
                        ??_USBDeviceInit 0070                        _USBEnableEndpoint 09DC  
                                 _cnt_tr 013B                                   _memcpy 0A2C  
                                 _memset 03E6                       ?_USBEnableEndpoint 0077  
                        ??_BUTTON_Enable 0070                         __end_of_spiWrite 09DC  
                    ??_USBEnableEndpoint 0078                              _CtrlTrfData 0068  
                   _controlTransferState 00D0                           ?_MasterinitSPI 0070  
                      _SYSTEM_Initialize 0911                  __end_of__initialization 0035  
                     ?_SYSTEM_Initialize 0070                           __pcstackCOMMON 0070  
              __end_of_USBEnableEndpoint 0A01                            __end_of_sd000 115E  
                          __end_of_sd001 10F4                            __end_of_sd002 112C  
                           __pidataBANK2 08A7                      ??_SYSTEM_Initialize 0073  
                              LED_On@led 0072                       __end_of_HAPTIC_rpt 10C0  
                        _active_protocol 00D4                             ??_LED_Enable 0070  
            __end_of_USBCtrlTrfInHandler 0E79                  ?_APP_LEDUpdateUSBStatus 0070  
               ??_USBCtrlTrfSetupHandler 00E7                  _USBTicksSinceSuspendEnd 00C4  
              __end_of_SYSTEM_Initialize 0932                   _USBStdGetStatusHandler 0CAD  
                             __pbssBANK1 00B0                               __pbssBANK2 0120  
                                ?_LED_On 0070                       __end_of_LED_Enable 0800  
                            _pBDTEntryIn 00B0         __end_of_USBCtrlEPServiceComplete 0757  
                             __pmaintext 0A5A                     USBCtrlTrfRxService@i 0074  
                          LED_Enable@led 0072           __end_of_APP_LEDUpdateUSBStatus 0CAD  
                             __pintentry 0004                                  ?_memcpy 0070  
                                ?_memset 0070                               _device_dsc 1142  
                       _USBCtrlEPService 0B97                               _ep_data_in 0137  
            __end_of_USBCtrlTrfRxService 06BB                       _USBCheckStdRequest 0E79  
                      _configDescriptor1 1000                                  _LED_Off 0975  
                                _LED_rpt 10F4              __end_of_USBCtrlTrfTxService 0E01  
                    _USBStdSetCfgHandler 0F7A                               _haptic_out 20D0  
                        ??_MasterinitSPI 0070                                  _SSPCON1 0215  
                    ?_USBCheckStdRequest 0070                                  _UIEbits 0E92  
                                _SSPSTAT 0214                                  _UIRbits 0E90  
         APP_LEDUpdateUSBStatus@ledCount 00BD          ??_USBIncrement1msInternalTimers 0070  
                   ?_USBStdSetCfgHandler 0070                                ?_spiWrite 0070  
                   ??_USBCheckStdRequest 00E5                         ??_USBDeviceTasks 00EA  
                      ??_USBStallHandler 0070                __end_of_configDescriptor1 1069  
                                __ptext1 09B9                                  __ptext2 01A0  
                                __ptext3 0932                                  __ptext4 08D8  
                                __ptext5 0A01                                  __ptext6 08F4  
                                __ptext7 0567                                  __ptext8 0B97  
                                __ptext9 0A2C                                  _inPipes 00B8  
            _USBDeferOUTDataStagePackets 00C5                             ??_USBSuspend 00DE  
                _APP_DeviceJoystickTasks 04B0                       __end_of_USB_CD_Ptr 1160  
                                clrloop0 08BB                     end_of_initialization 0035  
                     __end_of_USB_SD_Ptr 115A                                  memcpy@d 0079  
                                memcpy@n 0072                                  memcpy@s 0075  
                    _pBDTEntryEP0OutNext 00BF                                  memset@c 0072  
                                memset@k 007A                                  memset@n 0074  
                                memset@s 007C                          _USB1msTickCount 012F  
               ?_USBStdFeatureReqHandler 0070                    ??_USBStdSetCfgHandler 00DE  
                     __end_of_USBSuspend 08F4                  _USBCtrlEPAllowDataStage 0BEB  
                             ??_spiWrite 0070                 _USBCtrlEPServiceComplete 06BB  
             _USBStatusStageEnabledFlag1 00C8               _USBStatusStageEnabledFlag2 00C7  
                     USBEnableEndpoint@p 007A                                _PORTCbits 000E  
                              _TRISCbits 008E                       _BothEP0OutUOWNsSet 00CB  
              USBStdSetCfgHandler@i_1457 00E1                USBConfigureEndpoint@EPNum 0075  
             ?_USBCtrlEPAllowStatusStage 0070      USER_USB_CALLBACK_EVENT_HANDLER@size 00DC  
                              _USTATcopy 00D6             __end_of_USBTransferOnePacket 07DE  
                         __end_of_LED_On 09B9                       USBDeviceInit@i_722 0073  
                 _USBCtrlTrfSetupHandler 0B4F                    __end_of_USBDeviceInit 0611  
  __end_of_USBIncrement1msInternalTimers 0911            _USBIncrement1msInternalTimers 08F4  
                             LED_Off@led 0072                             _last_HAP_OUT 0141  
              ??_APP_DeviceJoystickTasks 007B                           __end_of_memcpy 0A5A  
                    __end_of_DISPLAY_rpt 1142                           __end_of_memset 04B0  
                           _last_LED_OUT 013F                             _last_DSP_OUT 013D  
                      _USBBusIsSuspended 00CD                      start_initialization 000A  
                ?_USBStdGetStatusHandler 0070                    __end_of_BUTTON_Enable 08D8  
          USBCtrlTrfRxService@byteToRead 0075             __end_of_USBConfigureEndpoint 0B09  
        __end_of_USBStdFeatureReqHandler 01A0                                 ??_LED_On 0070  
      __end_of_USBCtrlEPAllowStatusStage 0D8C                 __end_of_USBCtrlEPService 0BEB  
              ??_USBCtrlEPAllowDataStage 0073                           USBDeviceInit@i 0074  
                         USBDeviceInit@p 0071                   _pBDTEntryEP0OutCurrent 00D2  
                USBTransferOnePacket@dir 0070                  USBTransferOnePacket@len 0073  
   __end_of_APP_DeviceJoystickInitialize 0975             _APP_DeviceJoystickInitialize 0953  
                    _USBStdGetDscHandler 0EF5                              __pdataBANK2 0148  
                               ??_memcpy 0074                                 ??_memset 0076  
                             memset@dest 0070                   _USBActiveConfiguration 00D7  
         __end_of_USBStdGetStatusHandler 0D1A                                 ?_LED_Off 0070  
                              ___latbits 0002                            __pcstackBANK1 00D8  
                   ?_USBStdGetDscHandler 0070               __end_of_USBWakeFromSuspend 0953  
                        _USBStallHandler 0A01                             _pBDTEntryOut 0120  
                            _DISPLAY_rpt 112C            ?_APP_DeviceJoystickInitialize 0070  
                              _idle_rate 00D5                                _haptic_in 00A0  
                   _USBTransferOnePacket 0757             __end_of_USBCtrlTrfOutHandler 0AC6  
                  ??_USBStdGetDscHandler 0070                              _ep_data_out 0133  
          USBConfigureEndpoint@direction 0070                    __end_of_MasterinitSPI 08BA  
                               _LATCbits 010E               __end_of_USBCheckHIDRequest 03E6  
             ??_USBCtrlEPServiceComplete 0075                                clear_ram0 08BA  
                               _PIE2bits 0092                                 _PIR2bits 0012  
                               _UEP0bits 0E98               _USBDeferINDataStagePackets 00C6  
                               _UCONbits 0E8E                     _USBConfigureEndpoint 0AC6  
                  ?_USBTransferOnePacket 0070                        _SYS_InterruptHigh 0004  
                           _RemoteWakeup 00CE                       ?_SYS_InterruptHigh 0070  
                __end_of_USBStallHandler 0A2C                              _last_HAP_IN 0143  
            ??_USBCtrlEPAllowStatusStage 0070              __end_of_USBStdSetCfgHandler 1000  
                    ??_SYS_InterruptHigh 0070                              _leds_output 0230  
                     __end_of_device_dsc 1154                 ??_APP_LEDUpdateUSBStatus 0073  
                ?_USBCtrlTrfSetupHandler 0070                  USBStdGetStatusHandler@p 0072  
                              memcpy@tmp 0077                   USBTransferOnePacket@ep 0078  
                               _SetupPkt 0060                    ?_USBConfigureEndpoint 0070  
              __end_of_SYS_InterruptHigh 0008           ??_APP_DeviceJoystickInitialize 007D  
                             _HAPTIC_rpt 1069                                 __ptext10 0B4F  
                               __ptext11 06BB                                 __ptext20 02CF  
                               __ptext12 0BEB                                 __ptext21 0911  
                               __ptext13 0E79                                 __ptext30 0A8E  
                               __ptext22 07DE                                 __ptext14 0F7A  
                               __ptext31 0611                                 __ptext23 08C6  
                               __ptext15 03E6                                 __ptext32 0D1A  
                               __ptext24 0C4A                                 __ptext16 0CAD  
                               __ptext33 0E01                                 __ptext25 0997  
                               __ptext17 0EF5                                 __ptext34 0D8C  
                               __ptext26 0975                                 __ptext18 0039  
                               __ptext35 08AF                                 __ptext27 0953  
                               __ptext19 0B09                                 __ptext36 04B0  
                               __ptext28 09DC                                 __ptext37 0757  
                               __ptext29 0AC6           __end_of_USBCtrlTrfSetupHandler 0B97  
                      ?_USBCtrlEPService 0070                       ??_USBCtrlEPService 00E8  
                    _USBCtrlTrfInHandler 0E01                      BUTTON_Enable@button 0072  
                               _outPipes 0128                                 _spiWrite 09B9  
                   _USBCtrlTrfOutHandler 0A8E                                 int$flags 007E  
              _USBCtrlEPAllowStatusStage 0D1A                               _LED_Enable 07DE  
                 ??_USBTransferOnePacket 0074                _USBDeferStatusStagePacket 00C9  
                   ?_USBCtrlTrfInHandler 0070                                 memcpy@d1 0078  
                               memcpy@s1 0070            USBCtrlTrfTxService@byteToSend 0072  
                         __pstringtext10 115A                         ?_USBStallHandler 0070  
               USBStdFeatureReqHandler@p 00E3                                 intlevel1 0000  
__end_of_USER_USB_CALLBACK_EVENT_HANDLER 0B4F        ??_USER_USB_CALLBACK_EVENT_HANDLER 007E  
       ?_USER_USB_CALLBACK_EVENT_HANDLER 00D8          _USER_USB_CALLBACK_EVENT_HANDLER 0B09  
                 ??_USBConfigureEndpoint 0071                    ?_USBCtrlTrfOutHandler 0070  
               ?_APP_DeviceJoystickTasks 0070                      _USBCtrlTrfRxService 0611  
                     _USBWakeFromSuspend 0932                  _USBStdFeatureReqHandler 0039  
                    _USBCtrlTrfTxService 0D8C                            __pstringtext1 1154  
                          __pstringtext2 115E                            __pstringtext3 1000  
                          __pstringtext4 1069                            __pstringtext5 10C0  
                          __pstringtext6 10F4                            __pstringtext7 1110  
                          __pstringtext8 112C                            __pstringtext9 1142  
                    ?_USBWakeFromSuspend 0070                    ??_USBCtrlTrfInHandler 0073  
                  _USBAlternateInterface 0145                      USBEnableEndpoint@ep 007C  
                        _endpoint_number 00CC                           _display_output 21D0  
                   ?_USBCtrlTrfRxService 0070                 ?_USBCtrlEPAllowDataStage 0070  
                   ?_USBCtrlTrfTxService 0070             _USBStatusStageTimeoutCounter 00CA  
                   ??_USBWakeFromSuspend 00DE               USBTransferOnePacket@handle 0079  
                             _USB_CD_Ptr 115E  
