

Microchip MPLAB XC8 Assembler V2.36 build 20220127204148 
                                                                                               Fri Oct 28 14:00:24 2022

Microchip MPLAB XC8 C Compiler v2.36 (Free license) build 20220127204148 Og1 
     1                           	processor	16F1455
     2                           	pagewidth 120
     3                           	opt	flic
     4                           	psect	idataBANK3,global,class=CODE,delta=2,noexec
     5                           	psect	stringtext1,global,class=STRCODE,delta=2,noexec
     6                           	psect	stringtext2,global,class=STRCODE,delta=2,noexec
     7                           	psect	stringtext3,global,class=STRCODE,delta=2,noexec
     8                           	psect	stringtext4,global,class=STRCODE,delta=2,noexec
     9                           	psect	stringtext5,global,class=STRCODE,delta=2,noexec
    10                           	psect	stringtext6,global,class=STRCODE,delta=2,noexec
    11                           	psect	stringtext7,global,class=STRCODE,delta=2,noexec
    12                           	psect	stringtext8,global,class=STRCODE,delta=2,noexec
    13                           	psect	stringtext9,global,class=STRCODE,delta=2,noexec
    14                           	psect	stringtext10,global,class=STRCODE,delta=2,noexec
    15                           	psect	cinit,global,class=CODE,merge=1,delta=2
    16                           	psect	bssBANK1,global,class=BANK1,space=1,delta=1,noexec
    17                           	psect	bssBANK2,global,class=BANK2,space=1,delta=1,noexec
    18                           	psect	bssBANK3,global,class=BANK3,space=1,delta=1,noexec
    19                           	psect	dataBANK3,global,class=BANK3,space=1,delta=1,noexec
    20                           	psect	clrtext,global,class=CODE,delta=2
    21                           	psect	cstackBANK1,global,class=BANK1,space=1,delta=1,noexec
    22                           	psect	cstackCOMMON,global,class=COMMON,space=1,delta=1,noexec
    23                           	psect	maintext,global,class=CODE,merge=1,split=1,delta=2
    24                           	psect	text1,local,class=CODE,merge=1,delta=2
    25                           	psect	text2,local,class=CODE,merge=1,delta=2
    26                           	psect	text3,local,class=CODE,merge=1,delta=2
    27                           	psect	text4,local,class=CODE,merge=1,delta=2
    28                           	psect	text5,local,class=CODE,merge=1,delta=2
    29                           	psect	text6,local,class=CODE,merge=1,delta=2
    30                           	psect	text7,local,class=CODE,merge=1,delta=2
    31                           	psect	text8,local,class=CODE,merge=1,delta=2
    32                           	psect	text9,local,class=CODE,merge=1,delta=2,group=2
    33                           	psect	text10,local,class=CODE,merge=1,delta=2
    34                           	psect	text11,local,class=CODE,merge=1,delta=2
    35                           	psect	text12,local,class=CODE,merge=1,delta=2
    36                           	psect	text13,local,class=CODE,merge=1,delta=2
    37                           	psect	text14,local,class=CODE,merge=1,delta=2
    38                           	psect	text15,local,class=CODE,merge=1,delta=2,group=2
    39                           	psect	text16,local,class=CODE,merge=1,delta=2
    40                           	psect	text17,local,class=CODE,merge=1,delta=2
    41                           	psect	text18,local,class=CODE,merge=1,delta=2
    42                           	psect	text19,local,class=CODE,merge=1,delta=2
    43                           	psect	text20,local,class=CODE,merge=1,delta=2
    44                           	psect	text21,local,class=CODE,merge=1,delta=2
    45                           	psect	text22,local,class=CODE,merge=1,delta=2
    46                           	psect	text23,local,class=CODE,merge=1,delta=2
    47                           	psect	text24,local,class=CODE,merge=1,delta=2
    48                           	psect	text25,local,class=CODE,merge=1,delta=2
    49                           	psect	text26,local,class=CODE,merge=1,delta=2
    50                           	psect	text27,local,class=CODE,merge=1,delta=2
    51                           	psect	text28,local,class=CODE,merge=1,delta=2
    52                           	psect	text29,local,class=CODE,merge=1,delta=2
    53                           	psect	text30,local,class=CODE,merge=1,delta=2
    54                           	psect	text31,local,class=CODE,merge=1,delta=2
    55                           	psect	text32,local,class=CODE,merge=1,delta=2
    56                           	psect	text33,local,class=CODE,merge=1,delta=2
    57                           	psect	text34,local,class=CODE,merge=1,delta=2
    58                           	psect	text35,local,class=CODE,merge=1,delta=2
    59                           	psect	text36,local,class=CODE,merge=1,delta=2
    60                           	psect	text37,local,class=CODE,merge=1,delta=2
    61                           	psect	intentry,global,class=CODE,delta=2
    62                           	psect	idloc,global,abs,ovrld,class=IDLOC,space=5,delta=2,noexec
    63                           	psect	config,global,abs,ovrld,class=CONFIG,space=4,delta=2,noexec
    64                           	dabs	1,0x320,16
    65                           	dabs	1,0x2C0,48
    66                           	dabs	1,0x220,33
    67                           	dabs	1,0x1E0,16
    68                           	dabs	1,0x20,64,_BDT
    69                           	dabs	1,0x68,8,_CtrlTrfData
    70                           	dabs	1,0x60,8,_SetupPkt
    71                           	dabs	1,0xA0,16,_haptic_in
    72                           	dabs	1,0x130,64,_haptic_out
    73                           	dabs	1,0x7E,2
    74  0000                     
    75                           ; Version 2.40
    76                           ; Generated 17/11/2021 GMT
    77                           ; 
    78                           ; Copyright © 2021, Microchip Technology Inc. and its subsidiaries ("Microchip")
    79                           ; All rights reserved.
    80                           ; 
    81                           ; This software is developed by Microchip Technology Inc. and its subsidiaries ("Microch
      +                          ip").
    82                           ; 
    83                           ; Redistribution and use in source and binary forms, with or without modification, are
    84                           ; permitted provided that the following conditions are met:
    85                           ; 
    86                           ;     1. Redistributions of source code must retain the above copyright notice, this lis
      +                          t of
    87                           ;        conditions and the following disclaimer.
    88                           ; 
    89                           ;     2. Redistributions in binary form must reproduce the above copyright notice, this 
      +                          list
    90                           ;        of conditions and the following disclaimer in the documentation and/or other
    91                           ;        materials provided with the distribution. Publication is not required when
    92                           ;        this file is used in an embedded application.
    93                           ; 
    94                           ;     3. Microchip's name may not be used to endorse or promote products derived from th
      +                          is
    95                           ;        software without specific prior written permission.
    96                           ; 
    97                           ; THIS SOFTWARE IS PROVIDED BY MICROCHIP "AS IS" AND ANY EXPRESS OR IMPLIED WARRANTIES,
    98                           ; INCLUDING, BUT NOT LIMITED TO, THE IMPLIED WARRANTIES OF MERCHANTABILITY AND FITNESS F
      +                          OR
    99                           ; PURPOSE ARE DISCLAIMED.  IN NO EVENT SHALL MICROCHIP BE LIABLE FOR ANY DIRECT, INDIREC
      +                          T,
   100                           ; INCIDENTAL, SPECIAL, EXEMPLARY, OR CONSEQUENTIAL DAMAGES (INCLUDING BUT NOT LIMITED TO
   101                           ; PROCUREMENT OF SUBSTITUTE GOODS OR SERVICES; LOSS OF USE, DATA OR PROFITS; OR BUSINESS
   102                           ; INTERRUPTION) HOWSOEVER CAUSED AND ON ANY THEORY OF LIABILITY, WHETHER IN CONTRACT, ST
      +                          RICT
   103                           ; LIABILITY, OR TORT (INCLUDING NEGLIGENCE OR OTHERWISE) ARISING IN ANY WAY OUT OF THE U
      +                          SE OF
   104                           ; THIS SOFTWARE, EVEN IF ADVISED OF THE POSSIBILITY OF SUCH DAMAGE.
   105                           ; 
   106                           ; 
   107                           ; Code-generator required, PIC16F1455 Definitions
   108                           ; 
   109                           ; SFR Addresses
   110  0000                     	;# 
   111  0001                     	;# 
   112  0002                     	;# 
   113  0003                     	;# 
   114  0004                     	;# 
   115  0005                     	;# 
   116  0006                     	;# 
   117  0007                     	;# 
   118  0008                     	;# 
   119  0009                     	;# 
   120  000A                     	;# 
   121  000B                     	;# 
   122  000C                     	;# 
   123  000E                     	;# 
   124  0011                     	;# 
   125  0012                     	;# 
   126  0015                     	;# 
   127  0016                     	;# 
   128  0016                     	;# 
   129  0017                     	;# 
   130  0018                     	;# 
   131  0019                     	;# 
   132  001A                     	;# 
   133  001B                     	;# 
   134  001C                     	;# 
   135  008C                     	;# 
   136  008E                     	;# 
   137  0091                     	;# 
   138  0092                     	;# 
   139  0095                     	;# 
   140  0096                     	;# 
   141  0097                     	;# 
   142  0098                     	;# 
   143  0099                     	;# 
   144  009A                     	;# 
   145  009B                     	;# 
   146  009B                     	;# 
   147  009C                     	;# 
   148  009D                     	;# 
   149  009E                     	;# 
   150  009F                     	;# 
   151  010C                     	;# 
   152  010E                     	;# 
   153  0111                     	;# 
   154  0112                     	;# 
   155  0113                     	;# 
   156  0114                     	;# 
   157  0115                     	;# 
   158  0116                     	;# 
   159  0117                     	;# 
   160  0118                     	;# 
   161  0119                     	;# 
   162  011D                     	;# 
   163  018C                     	;# 
   164  018E                     	;# 
   165  0191                     	;# 
   166  0191                     	;# 
   167  0192                     	;# 
   168  0193                     	;# 
   169  0193                     	;# 
   170  0194                     	;# 
   171  0195                     	;# 
   172  0196                     	;# 
   173  0197                     	;# 
   174  0199                     	;# 
   175  019A                     	;# 
   176  019B                     	;# 
   177  019B                     	;# 
   178  019C                     	;# 
   179  019D                     	;# 
   180  019E                     	;# 
   181  019F                     	;# 
   182  020C                     	;# 
   183  0211                     	;# 
   184  0211                     	;# 
   185  0212                     	;# 
   186  0212                     	;# 
   187  0213                     	;# 
   188  0213                     	;# 
   189  0214                     	;# 
   190  0214                     	;# 
   191  0215                     	;# 
   192  0215                     	;# 
   193  0215                     	;# 
   194  0216                     	;# 
   195  0216                     	;# 
   196  0217                     	;# 
   197  0217                     	;# 
   198  0391                     	;# 
   199  0392                     	;# 
   200  0393                     	;# 
   201  039A                     	;# 
   202  039B                     	;# 
   203  0611                     	;# 
   204  0612                     	;# 
   205  0613                     	;# 
   206  0613                     	;# 
   207  0614                     	;# 
   208  0615                     	;# 
   209  0616                     	;# 
   210  0616                     	;# 
   211  0691                     	;# 
   212  0692                     	;# 
   213  0693                     	;# 
   214  0694                     	;# 
   215  0695                     	;# 
   216  0E8E                     	;# 
   217  0E8F                     	;# 
   218  0E90                     	;# 
   219  0E91                     	;# 
   220  0E92                     	;# 
   221  0E93                     	;# 
   222  0E94                     	;# 
   223  0E94                     	;# 
   224  0E95                     	;# 
   225  0E96                     	;# 
   226  0E97                     	;# 
   227  0E98                     	;# 
   228  0E99                     	;# 
   229  0E9A                     	;# 
   230  0E9B                     	;# 
   231  0E9C                     	;# 
   232  0E9D                     	;# 
   233  0E9E                     	;# 
   234  0E9F                     	;# 
   235  0FE4                     	;# 
   236  0FE5                     	;# 
   237  0FE6                     	;# 
   238  0FE7                     	;# 
   239  0FE8                     	;# 
   240  0FE9                     	;# 
   241  0FEA                     	;# 
   242  0FEB                     	;# 
   243  0FED                     	;# 
   244  0FEE                     	;# 
   245  0FEF                     	;# 
   246  0000                     	;# 
   247  0001                     	;# 
   248  0002                     	;# 
   249  0003                     	;# 
   250  0004                     	;# 
   251  0005                     	;# 
   252  0006                     	;# 
   253  0007                     	;# 
   254  0008                     	;# 
   255  0009                     	;# 
   256  000A                     	;# 
   257  000B                     	;# 
   258  000C                     	;# 
   259  000E                     	;# 
   260  0011                     	;# 
   261  0012                     	;# 
   262  0015                     	;# 
   263  0016                     	;# 
   264  0016                     	;# 
   265  0017                     	;# 
   266  0018                     	;# 
   267  0019                     	;# 
   268  001A                     	;# 
   269  001B                     	;# 
   270  001C                     	;# 
   271  008C                     	;# 
   272  008E                     	;# 
   273  0091                     	;# 
   274  0092                     	;# 
   275  0095                     	;# 
   276  0096                     	;# 
   277  0097                     	;# 
   278  0098                     	;# 
   279  0099                     	;# 
   280  009A                     	;# 
   281  009B                     	;# 
   282  009B                     	;# 
   283  009C                     	;# 
   284  009D                     	;# 
   285  009E                     	;# 
   286  009F                     	;# 
   287  010C                     	;# 
   288  010E                     	;# 
   289  0111                     	;# 
   290  0112                     	;# 
   291  0113                     	;# 
   292  0114                     	;# 
   293  0115                     	;# 
   294  0116                     	;# 
   295  0117                     	;# 
   296  0118                     	;# 
   297  0119                     	;# 
   298  011D                     	;# 
   299  018C                     	;# 
   300  018E                     	;# 
   301  0191                     	;# 
   302  0191                     	;# 
   303  0192                     	;# 
   304  0193                     	;# 
   305  0193                     	;# 
   306  0194                     	;# 
   307  0195                     	;# 
   308  0196                     	;# 
   309  0197                     	;# 
   310  0199                     	;# 
   311  019A                     	;# 
   312  019B                     	;# 
   313  019B                     	;# 
   314  019C                     	;# 
   315  019D                     	;# 
   316  019E                     	;# 
   317  019F                     	;# 
   318  020C                     	;# 
   319  0211                     	;# 
   320  0211                     	;# 
   321  0212                     	;# 
   322  0212                     	;# 
   323  0213                     	;# 
   324  0213                     	;# 
   325  0214                     	;# 
   326  0214                     	;# 
   327  0215                     	;# 
   328  0215                     	;# 
   329  0215                     	;# 
   330  0216                     	;# 
   331  0216                     	;# 
   332  0217                     	;# 
   333  0217                     	;# 
   334  0391                     	;# 
   335  0392                     	;# 
   336  0393                     	;# 
   337  039A                     	;# 
   338  039B                     	;# 
   339  0611                     	;# 
   340  0612                     	;# 
   341  0613                     	;# 
   342  0613                     	;# 
   343  0614                     	;# 
   344  0615                     	;# 
   345  0616                     	;# 
   346  0616                     	;# 
   347  0691                     	;# 
   348  0692                     	;# 
   349  0693                     	;# 
   350  0694                     	;# 
   351  0695                     	;# 
   352  0E8E                     	;# 
   353  0E8F                     	;# 
   354  0E90                     	;# 
   355  0E91                     	;# 
   356  0E92                     	;# 
   357  0E93                     	;# 
   358  0E94                     	;# 
   359  0E94                     	;# 
   360  0E95                     	;# 
   361  0E96                     	;# 
   362  0E97                     	;# 
   363  0E98                     	;# 
   364  0E99                     	;# 
   365  0E9A                     	;# 
   366  0E9B                     	;# 
   367  0E9C                     	;# 
   368  0E9D                     	;# 
   369  0E9E                     	;# 
   370  0E9F                     	;# 
   371  0FE4                     	;# 
   372  0FE5                     	;# 
   373  0FE6                     	;# 
   374  0FE7                     	;# 
   375  0FE8                     	;# 
   376  0FE9                     	;# 
   377  0FEA                     	;# 
   378  0FEB                     	;# 
   379  0FED                     	;# 
   380  0FEE                     	;# 
   381  0FEF                     	;# 
   382  0000                     	;# 
   383  0001                     	;# 
   384  0002                     	;# 
   385  0003                     	;# 
   386  0004                     	;# 
   387  0005                     	;# 
   388  0006                     	;# 
   389  0007                     	;# 
   390  0008                     	;# 
   391  0009                     	;# 
   392  000A                     	;# 
   393  000B                     	;# 
   394  000C                     	;# 
   395  000E                     	;# 
   396  0011                     	;# 
   397  0012                     	;# 
   398  0015                     	;# 
   399  0016                     	;# 
   400  0016                     	;# 
   401  0017                     	;# 
   402  0018                     	;# 
   403  0019                     	;# 
   404  001A                     	;# 
   405  001B                     	;# 
   406  001C                     	;# 
   407  008C                     	;# 
   408  008E                     	;# 
   409  0091                     	;# 
   410  0092                     	;# 
   411  0095                     	;# 
   412  0096                     	;# 
   413  0097                     	;# 
   414  0098                     	;# 
   415  0099                     	;# 
   416  009A                     	;# 
   417  009B                     	;# 
   418  009B                     	;# 
   419  009C                     	;# 
   420  009D                     	;# 
   421  009E                     	;# 
   422  009F                     	;# 
   423  010C                     	;# 
   424  010E                     	;# 
   425  0111                     	;# 
   426  0112                     	;# 
   427  0113                     	;# 
   428  0114                     	;# 
   429  0115                     	;# 
   430  0116                     	;# 
   431  0117                     	;# 
   432  0118                     	;# 
   433  0119                     	;# 
   434  011D                     	;# 
   435  018C                     	;# 
   436  018E                     	;# 
   437  0191                     	;# 
   438  0191                     	;# 
   439  0192                     	;# 
   440  0193                     	;# 
   441  0193                     	;# 
   442  0194                     	;# 
   443  0195                     	;# 
   444  0196                     	;# 
   445  0197                     	;# 
   446  0199                     	;# 
   447  019A                     	;# 
   448  019B                     	;# 
   449  019B                     	;# 
   450  019C                     	;# 
   451  019D                     	;# 
   452  019E                     	;# 
   453  019F                     	;# 
   454  020C                     	;# 
   455  0211                     	;# 
   456  0211                     	;# 
   457  0212                     	;# 
   458  0212                     	;# 
   459  0213                     	;# 
   460  0213                     	;# 
   461  0214                     	;# 
   462  0214                     	;# 
   463  0215                     	;# 
   464  0215                     	;# 
   465  0215                     	;# 
   466  0216                     	;# 
   467  0216                     	;# 
   468  0217                     	;# 
   469  0217                     	;# 
   470  0391                     	;# 
   471  0392                     	;# 
   472  0393                     	;# 
   473  039A                     	;# 
   474  039B                     	;# 
   475  0611                     	;# 
   476  0612                     	;# 
   477  0613                     	;# 
   478  0613                     	;# 
   479  0614                     	;# 
   480  0615                     	;# 
   481  0616                     	;# 
   482  0616                     	;# 
   483  0691                     	;# 
   484  0692                     	;# 
   485  0693                     	;# 
   486  0694                     	;# 
   487  0695                     	;# 
   488  0E8E                     	;# 
   489  0E8F                     	;# 
   490  0E90                     	;# 
   491  0E91                     	;# 
   492  0E92                     	;# 
   493  0E93                     	;# 
   494  0E94                     	;# 
   495  0E94                     	;# 
   496  0E95                     	;# 
   497  0E96                     	;# 
   498  0E97                     	;# 
   499  0E98                     	;# 
   500  0E99                     	;# 
   501  0E9A                     	;# 
   502  0E9B                     	;# 
   503  0E9C                     	;# 
   504  0E9D                     	;# 
   505  0E9E                     	;# 
   506  0E9F                     	;# 
   507  0FE4                     	;# 
   508  0FE5                     	;# 
   509  0FE6                     	;# 
   510  0FE7                     	;# 
   511  0FE8                     	;# 
   512  0FE9                     	;# 
   513  0FEA                     	;# 
   514  0FEB                     	;# 
   515  0FED                     	;# 
   516  0FEE                     	;# 
   517  0FEF                     	;# 
   518  0000                     	;# 
   519  0001                     	;# 
   520  0002                     	;# 
   521  0003                     	;# 
   522  0004                     	;# 
   523  0005                     	;# 
   524  0006                     	;# 
   525  0007                     	;# 
   526  0008                     	;# 
   527  0009                     	;# 
   528  000A                     	;# 
   529  000B                     	;# 
   530  000C                     	;# 
   531  000E                     	;# 
   532  0011                     	;# 
   533  0012                     	;# 
   534  0015                     	;# 
   535  0016                     	;# 
   536  0016                     	;# 
   537  0017                     	;# 
   538  0018                     	;# 
   539  0019                     	;# 
   540  001A                     	;# 
   541  001B                     	;# 
   542  001C                     	;# 
   543  008C                     	;# 
   544  008E                     	;# 
   545  0091                     	;# 
   546  0092                     	;# 
   547  0095                     	;# 
   548  0096                     	;# 
   549  0097                     	;# 
   550  0098                     	;# 
   551  0099                     	;# 
   552  009A                     	;# 
   553  009B                     	;# 
   554  009B                     	;# 
   555  009C                     	;# 
   556  009D                     	;# 
   557  009E                     	;# 
   558  009F                     	;# 
   559  010C                     	;# 
   560  010E                     	;# 
   561  0111                     	;# 
   562  0112                     	;# 
   563  0113                     	;# 
   564  0114                     	;# 
   565  0115                     	;# 
   566  0116                     	;# 
   567  0117                     	;# 
   568  0118                     	;# 
   569  0119                     	;# 
   570  011D                     	;# 
   571  018C                     	;# 
   572  018E                     	;# 
   573  0191                     	;# 
   574  0191                     	;# 
   575  0192                     	;# 
   576  0193                     	;# 
   577  0193                     	;# 
   578  0194                     	;# 
   579  0195                     	;# 
   580  0196                     	;# 
   581  0197                     	;# 
   582  0199                     	;# 
   583  019A                     	;# 
   584  019B                     	;# 
   585  019B                     	;# 
   586  019C                     	;# 
   587  019D                     	;# 
   588  019E                     	;# 
   589  019F                     	;# 
   590  020C                     	;# 
   591  0211                     	;# 
   592  0211                     	;# 
   593  0212                     	;# 
   594  0212                     	;# 
   595  0213                     	;# 
   596  0213                     	;# 
   597  0214                     	;# 
   598  0214                     	;# 
   599  0215                     	;# 
   600  0215                     	;# 
   601  0215                     	;# 
   602  0216                     	;# 
   603  0216                     	;# 
   604  0217                     	;# 
   605  0217                     	;# 
   606  0391                     	;# 
   607  0392                     	;# 
   608  0393                     	;# 
   609  039A                     	;# 
   610  039B                     	;# 
   611  0611                     	;# 
   612  0612                     	;# 
   613  0613                     	;# 
   614  0613                     	;# 
   615  0614                     	;# 
   616  0615                     	;# 
   617  0616                     	;# 
   618  0616                     	;# 
   619  0691                     	;# 
   620  0692                     	;# 
   621  0693                     	;# 
   622  0694                     	;# 
   623  0695                     	;# 
   624  0E8E                     	;# 
   625  0E8F                     	;# 
   626  0E90                     	;# 
   627  0E91                     	;# 
   628  0E92                     	;# 
   629  0E93                     	;# 
   630  0E94                     	;# 
   631  0E94                     	;# 
   632  0E95                     	;# 
   633  0E96                     	;# 
   634  0E97                     	;# 
   635  0E98                     	;# 
   636  0E99                     	;# 
   637  0E9A                     	;# 
   638  0E9B                     	;# 
   639  0E9C                     	;# 
   640  0E9D                     	;# 
   641  0E9E                     	;# 
   642  0E9F                     	;# 
   643  0FE4                     	;# 
   644  0FE5                     	;# 
   645  0FE6                     	;# 
   646  0FE7                     	;# 
   647  0FE8                     	;# 
   648  0FE9                     	;# 
   649  0FEA                     	;# 
   650  0FEB                     	;# 
   651  0FED                     	;# 
   652  0FEE                     	;# 
   653  0FEF                     	;# 
   654  0000                     	;# 
   655  0001                     	;# 
   656  0002                     	;# 
   657  0003                     	;# 
   658  0004                     	;# 
   659  0005                     	;# 
   660  0006                     	;# 
   661  0007                     	;# 
   662  0008                     	;# 
   663  0009                     	;# 
   664  000A                     	;# 
   665  000B                     	;# 
   666  000C                     	;# 
   667  000E                     	;# 
   668  0011                     	;# 
   669  0012                     	;# 
   670  0015                     	;# 
   671  0016                     	;# 
   672  0016                     	;# 
   673  0017                     	;# 
   674  0018                     	;# 
   675  0019                     	;# 
   676  001A                     	;# 
   677  001B                     	;# 
   678  001C                     	;# 
   679  008C                     	;# 
   680  008E                     	;# 
   681  0091                     	;# 
   682  0092                     	;# 
   683  0095                     	;# 
   684  0096                     	;# 
   685  0097                     	;# 
   686  0098                     	;# 
   687  0099                     	;# 
   688  009A                     	;# 
   689  009B                     	;# 
   690  009B                     	;# 
   691  009C                     	;# 
   692  009D                     	;# 
   693  009E                     	;# 
   694  009F                     	;# 
   695  010C                     	;# 
   696  010E                     	;# 
   697  0111                     	;# 
   698  0112                     	;# 
   699  0113                     	;# 
   700  0114                     	;# 
   701  0115                     	;# 
   702  0116                     	;# 
   703  0117                     	;# 
   704  0118                     	;# 
   705  0119                     	;# 
   706  011D                     	;# 
   707  018C                     	;# 
   708  018E                     	;# 
   709  0191                     	;# 
   710  0191                     	;# 
   711  0192                     	;# 
   712  0193                     	;# 
   713  0193                     	;# 
   714  0194                     	;# 
   715  0195                     	;# 
   716  0196                     	;# 
   717  0197                     	;# 
   718  0199                     	;# 
   719  019A                     	;# 
   720  019B                     	;# 
   721  019B                     	;# 
   722  019C                     	;# 
   723  019D                     	;# 
   724  019E                     	;# 
   725  019F                     	;# 
   726  020C                     	;# 
   727  0211                     	;# 
   728  0211                     	;# 
   729  0212                     	;# 
   730  0212                     	;# 
   731  0213                     	;# 
   732  0213                     	;# 
   733  0214                     	;# 
   734  0214                     	;# 
   735  0215                     	;# 
   736  0215                     	;# 
   737  0215                     	;# 
   738  0216                     	;# 
   739  0216                     	;# 
   740  0217                     	;# 
   741  0217                     	;# 
   742  0391                     	;# 
   743  0392                     	;# 
   744  0393                     	;# 
   745  039A                     	;# 
   746  039B                     	;# 
   747  0611                     	;# 
   748  0612                     	;# 
   749  0613                     	;# 
   750  0613                     	;# 
   751  0614                     	;# 
   752  0615                     	;# 
   753  0616                     	;# 
   754  0616                     	;# 
   755  0691                     	;# 
   756  0692                     	;# 
   757  0693                     	;# 
   758  0694                     	;# 
   759  0695                     	;# 
   760  0E8E                     	;# 
   761  0E8F                     	;# 
   762  0E90                     	;# 
   763  0E91                     	;# 
   764  0E92                     	;# 
   765  0E93                     	;# 
   766  0E94                     	;# 
   767  0E94                     	;# 
   768  0E95                     	;# 
   769  0E96                     	;# 
   770  0E97                     	;# 
   771  0E98                     	;# 
   772  0E99                     	;# 
   773  0E9A                     	;# 
   774  0E9B                     	;# 
   775  0E9C                     	;# 
   776  0E9D                     	;# 
   777  0E9E                     	;# 
   778  0E9F                     	;# 
   779  0FE4                     	;# 
   780  0FE5                     	;# 
   781  0FE6                     	;# 
   782  0FE7                     	;# 
   783  0FE8                     	;# 
   784  0FE9                     	;# 
   785  0FEA                     	;# 
   786  0FEB                     	;# 
   787  0FED                     	;# 
   788  0FEE                     	;# 
   789  0FEF                     	;# 
   790  0000                     	;# 
   791  0001                     	;# 
   792  0002                     	;# 
   793  0003                     	;# 
   794  0004                     	;# 
   795  0005                     	;# 
   796  0006                     	;# 
   797  0007                     	;# 
   798  0008                     	;# 
   799  0009                     	;# 
   800  000A                     	;# 
   801  000B                     	;# 
   802  000C                     	;# 
   803  000E                     	;# 
   804  0011                     	;# 
   805  0012                     	;# 
   806  0015                     	;# 
   807  0016                     	;# 
   808  0016                     	;# 
   809  0017                     	;# 
   810  0018                     	;# 
   811  0019                     	;# 
   812  001A                     	;# 
   813  001B                     	;# 
   814  001C                     	;# 
   815  008C                     	;# 
   816  008E                     	;# 
   817  0091                     	;# 
   818  0092                     	;# 
   819  0095                     	;# 
   820  0096                     	;# 
   821  0097                     	;# 
   822  0098                     	;# 
   823  0099                     	;# 
   824  009A                     	;# 
   825  009B                     	;# 
   826  009B                     	;# 
   827  009C                     	;# 
   828  009D                     	;# 
   829  009E                     	;# 
   830  009F                     	;# 
   831  010C                     	;# 
   832  010E                     	;# 
   833  0111                     	;# 
   834  0112                     	;# 
   835  0113                     	;# 
   836  0114                     	;# 
   837  0115                     	;# 
   838  0116                     	;# 
   839  0117                     	;# 
   840  0118                     	;# 
   841  0119                     	;# 
   842  011D                     	;# 
   843  018C                     	;# 
   844  018E                     	;# 
   845  0191                     	;# 
   846  0191                     	;# 
   847  0192                     	;# 
   848  0193                     	;# 
   849  0193                     	;# 
   850  0194                     	;# 
   851  0195                     	;# 
   852  0196                     	;# 
   853  0197                     	;# 
   854  0199                     	;# 
   855  019A                     	;# 
   856  019B                     	;# 
   857  019B                     	;# 
   858  019C                     	;# 
   859  019D                     	;# 
   860  019E                     	;# 
   861  019F                     	;# 
   862  020C                     	;# 
   863  0211                     	;# 
   864  0211                     	;# 
   865  0212                     	;# 
   866  0212                     	;# 
   867  0213                     	;# 
   868  0213                     	;# 
   869  0214                     	;# 
   870  0214                     	;# 
   871  0215                     	;# 
   872  0215                     	;# 
   873  0215                     	;# 
   874  0216                     	;# 
   875  0216                     	;# 
   876  0217                     	;# 
   877  0217                     	;# 
   878  0391                     	;# 
   879  0392                     	;# 
   880  0393                     	;# 
   881  039A                     	;# 
   882  039B                     	;# 
   883  0611                     	;# 
   884  0612                     	;# 
   885  0613                     	;# 
   886  0613                     	;# 
   887  0614                     	;# 
   888  0615                     	;# 
   889  0616                     	;# 
   890  0616                     	;# 
   891  0691                     	;# 
   892  0692                     	;# 
   893  0693                     	;# 
   894  0694                     	;# 
   895  0695                     	;# 
   896  0E8E                     	;# 
   897  0E8F                     	;# 
   898  0E90                     	;# 
   899  0E91                     	;# 
   900  0E92                     	;# 
   901  0E93                     	;# 
   902  0E94                     	;# 
   903  0E94                     	;# 
   904  0E95                     	;# 
   905  0E96                     	;# 
   906  0E97                     	;# 
   907  0E98                     	;# 
   908  0E99                     	;# 
   909  0E9A                     	;# 
   910  0E9B                     	;# 
   911  0E9C                     	;# 
   912  0E9D                     	;# 
   913  0E9E                     	;# 
   914  0E9F                     	;# 
   915  0FE4                     	;# 
   916  0FE5                     	;# 
   917  0FE6                     	;# 
   918  0FE7                     	;# 
   919  0FE8                     	;# 
   920  0FE9                     	;# 
   921  0FEA                     	;# 
   922  0FEB                     	;# 
   923  0FED                     	;# 
   924  0FEE                     	;# 
   925  0FEF                     	;# 
   926  0000                     	;# 
   927  0001                     	;# 
   928  0002                     	;# 
   929  0003                     	;# 
   930  0004                     	;# 
   931  0005                     	;# 
   932  0006                     	;# 
   933  0007                     	;# 
   934  0008                     	;# 
   935  0009                     	;# 
   936  000A                     	;# 
   937  000B                     	;# 
   938  000C                     	;# 
   939  000E                     	;# 
   940  0011                     	;# 
   941  0012                     	;# 
   942  0015                     	;# 
   943  0016                     	;# 
   944  0016                     	;# 
   945  0017                     	;# 
   946  0018                     	;# 
   947  0019                     	;# 
   948  001A                     	;# 
   949  001B                     	;# 
   950  001C                     	;# 
   951  008C                     	;# 
   952  008E                     	;# 
   953  0091                     	;# 
   954  0092                     	;# 
   955  0095                     	;# 
   956  0096                     	;# 
   957  0097                     	;# 
   958  0098                     	;# 
   959  0099                     	;# 
   960  009A                     	;# 
   961  009B                     	;# 
   962  009B                     	;# 
   963  009C                     	;# 
   964  009D                     	;# 
   965  009E                     	;# 
   966  009F                     	;# 
   967  010C                     	;# 
   968  010E                     	;# 
   969  0111                     	;# 
   970  0112                     	;# 
   971  0113                     	;# 
   972  0114                     	;# 
   973  0115                     	;# 
   974  0116                     	;# 
   975  0117                     	;# 
   976  0118                     	;# 
   977  0119                     	;# 
   978  011D                     	;# 
   979  018C                     	;# 
   980  018E                     	;# 
   981  0191                     	;# 
   982  0191                     	;# 
   983  0192                     	;# 
   984  0193                     	;# 
   985  0193                     	;# 
   986  0194                     	;# 
   987  0195                     	;# 
   988  0196                     	;# 
   989  0197                     	;# 
   990  0199                     	;# 
   991  019A                     	;# 
   992  019B                     	;# 
   993  019B                     	;# 
   994  019C                     	;# 
   995  019D                     	;# 
   996  019E                     	;# 
   997  019F                     	;# 
   998  020C                     	;# 
   999  0211                     	;# 
  1000  0211                     	;# 
  1001  0212                     	;# 
  1002  0212                     	;# 
  1003  0213                     	;# 
  1004  0213                     	;# 
  1005  0214                     	;# 
  1006  0214                     	;# 
  1007  0215                     	;# 
  1008  0215                     	;# 
  1009  0215                     	;# 
  1010  0216                     	;# 
  1011  0216                     	;# 
  1012  0217                     	;# 
  1013  0217                     	;# 
  1014  0391                     	;# 
  1015  0392                     	;# 
  1016  0393                     	;# 
  1017  039A                     	;# 
  1018  039B                     	;# 
  1019  0611                     	;# 
  1020  0612                     	;# 
  1021  0613                     	;# 
  1022  0613                     	;# 
  1023  0614                     	;# 
  1024  0615                     	;# 
  1025  0616                     	;# 
  1026  0616                     	;# 
  1027  0691                     	;# 
  1028  0692                     	;# 
  1029  0693                     	;# 
  1030  0694                     	;# 
  1031  0695                     	;# 
  1032  0E8E                     	;# 
  1033  0E8F                     	;# 
  1034  0E90                     	;# 
  1035  0E91                     	;# 
  1036  0E92                     	;# 
  1037  0E93                     	;# 
  1038  0E94                     	;# 
  1039  0E94                     	;# 
  1040  0E95                     	;# 
  1041  0E96                     	;# 
  1042  0E97                     	;# 
  1043  0E98                     	;# 
  1044  0E99                     	;# 
  1045  0E9A                     	;# 
  1046  0E9B                     	;# 
  1047  0E9C                     	;# 
  1048  0E9D                     	;# 
  1049  0E9E                     	;# 
  1050  0E9F                     	;# 
  1051  0FE4                     	;# 
  1052  0FE5                     	;# 
  1053  0FE6                     	;# 
  1054  0FE7                     	;# 
  1055  0FE8                     	;# 
  1056  0FE9                     	;# 
  1057  0FEA                     	;# 
  1058  0FEB                     	;# 
  1059  0FED                     	;# 
  1060  0FEE                     	;# 
  1061  0FEF                     	;# 
  1062  0000                     	;# 
  1063  0001                     	;# 
  1064  0002                     	;# 
  1065  0003                     	;# 
  1066  0004                     	;# 
  1067  0005                     	;# 
  1068  0006                     	;# 
  1069  0007                     	;# 
  1070  0008                     	;# 
  1071  0009                     	;# 
  1072  000A                     	;# 
  1073  000B                     	;# 
  1074  000C                     	;# 
  1075  000E                     	;# 
  1076  0011                     	;# 
  1077  0012                     	;# 
  1078  0015                     	;# 
  1079  0016                     	;# 
  1080  0016                     	;# 
  1081  0017                     	;# 
  1082  0018                     	;# 
  1083  0019                     	;# 
  1084  001A                     	;# 
  1085  001B                     	;# 
  1086  001C                     	;# 
  1087  008C                     	;# 
  1088  008E                     	;# 
  1089  0091                     	;# 
  1090  0092                     	;# 
  1091  0095                     	;# 
  1092  0096                     	;# 
  1093  0097                     	;# 
  1094  0098                     	;# 
  1095  0099                     	;# 
  1096  009A                     	;# 
  1097  009B                     	;# 
  1098  009B                     	;# 
  1099  009C                     	;# 
  1100  009D                     	;# 
  1101  009E                     	;# 
  1102  009F                     	;# 
  1103  010C                     	;# 
  1104  010E                     	;# 
  1105  0111                     	;# 
  1106  0112                     	;# 
  1107  0113                     	;# 
  1108  0114                     	;# 
  1109  0115                     	;# 
  1110  0116                     	;# 
  1111  0117                     	;# 
  1112  0118                     	;# 
  1113  0119                     	;# 
  1114  011D                     	;# 
  1115  018C                     	;# 
  1116  018E                     	;# 
  1117  0191                     	;# 
  1118  0191                     	;# 
  1119  0192                     	;# 
  1120  0193                     	;# 
  1121  0193                     	;# 
  1122  0194                     	;# 
  1123  0195                     	;# 
  1124  0196                     	;# 
  1125  0197                     	;# 
  1126  0199                     	;# 
  1127  019A                     	;# 
  1128  019B                     	;# 
  1129  019B                     	;# 
  1130  019C                     	;# 
  1131  019D                     	;# 
  1132  019E                     	;# 
  1133  019F                     	;# 
  1134  020C                     	;# 
  1135  0211                     	;# 
  1136  0211                     	;# 
  1137  0212                     	;# 
  1138  0212                     	;# 
  1139  0213                     	;# 
  1140  0213                     	;# 
  1141  0214                     	;# 
  1142  0214                     	;# 
  1143  0215                     	;# 
  1144  0215                     	;# 
  1145  0215                     	;# 
  1146  0216                     	;# 
  1147  0216                     	;# 
  1148  0217                     	;# 
  1149  0217                     	;# 
  1150  0391                     	;# 
  1151  0392                     	;# 
  1152  0393                     	;# 
  1153  039A                     	;# 
  1154  039B                     	;# 
  1155  0611                     	;# 
  1156  0612                     	;# 
  1157  0613                     	;# 
  1158  0613                     	;# 
  1159  0614                     	;# 
  1160  0615                     	;# 
  1161  0616                     	;# 
  1162  0616                     	;# 
  1163  0691                     	;# 
  1164  0692                     	;# 
  1165  0693                     	;# 
  1166  0694                     	;# 
  1167  0695                     	;# 
  1168  0E8E                     	;# 
  1169  0E8F                     	;# 
  1170  0E90                     	;# 
  1171  0E91                     	;# 
  1172  0E92                     	;# 
  1173  0E93                     	;# 
  1174  0E94                     	;# 
  1175  0E94                     	;# 
  1176  0E95                     	;# 
  1177  0E96                     	;# 
  1178  0E97                     	;# 
  1179  0E98                     	;# 
  1180  0E99                     	;# 
  1181  0E9A                     	;# 
  1182  0E9B                     	;# 
  1183  0E9C                     	;# 
  1184  0E9D                     	;# 
  1185  0E9E                     	;# 
  1186  0E9F                     	;# 
  1187  0FE4                     	;# 
  1188  0FE5                     	;# 
  1189  0FE6                     	;# 
  1190  0FE7                     	;# 
  1191  0FE8                     	;# 
  1192  0FE9                     	;# 
  1193  0FEA                     	;# 
  1194  0FEB                     	;# 
  1195  0FED                     	;# 
  1196  0FEE                     	;# 
  1197  0FEF                     	;# 
  1198  0000                     	;# 
  1199  0001                     	;# 
  1200  0002                     	;# 
  1201  0003                     	;# 
  1202  0004                     	;# 
  1203  0005                     	;# 
  1204  0006                     	;# 
  1205  0007                     	;# 
  1206  0008                     	;# 
  1207  0009                     	;# 
  1208  000A                     	;# 
  1209  000B                     	;# 
  1210  000C                     	;# 
  1211  000E                     	;# 
  1212  0011                     	;# 
  1213  0012                     	;# 
  1214  0015                     	;# 
  1215  0016                     	;# 
  1216  0016                     	;# 
  1217  0017                     	;# 
  1218  0018                     	;# 
  1219  0019                     	;# 
  1220  001A                     	;# 
  1221  001B                     	;# 
  1222  001C                     	;# 
  1223  008C                     	;# 
  1224  008E                     	;# 
  1225  0091                     	;# 
  1226  0092                     	;# 
  1227  0095                     	;# 
  1228  0096                     	;# 
  1229  0097                     	;# 
  1230  0098                     	;# 
  1231  0099                     	;# 
  1232  009A                     	;# 
  1233  009B                     	;# 
  1234  009B                     	;# 
  1235  009C                     	;# 
  1236  009D                     	;# 
  1237  009E                     	;# 
  1238  009F                     	;# 
  1239  010C                     	;# 
  1240  010E                     	;# 
  1241  0111                     	;# 
  1242  0112                     	;# 
  1243  0113                     	;# 
  1244  0114                     	;# 
  1245  0115                     	;# 
  1246  0116                     	;# 
  1247  0117                     	;# 
  1248  0118                     	;# 
  1249  0119                     	;# 
  1250  011D                     	;# 
  1251  018C                     	;# 
  1252  018E                     	;# 
  1253  0191                     	;# 
  1254  0191                     	;# 
  1255  0192                     	;# 
  1256  0193                     	;# 
  1257  0193                     	;# 
  1258  0194                     	;# 
  1259  0195                     	;# 
  1260  0196                     	;# 
  1261  0197                     	;# 
  1262  0199                     	;# 
  1263  019A                     	;# 
  1264  019B                     	;# 
  1265  019B                     	;# 
  1266  019C                     	;# 
  1267  019D                     	;# 
  1268  019E                     	;# 
  1269  019F                     	;# 
  1270  020C                     	;# 
  1271  0211                     	;# 
  1272  0211                     	;# 
  1273  0212                     	;# 
  1274  0212                     	;# 
  1275  0213                     	;# 
  1276  0213                     	;# 
  1277  0214                     	;# 
  1278  0214                     	;# 
  1279  0215                     	;# 
  1280  0215                     	;# 
  1281  0215                     	;# 
  1282  0216                     	;# 
  1283  0216                     	;# 
  1284  0217                     	;# 
  1285  0217                     	;# 
  1286  0391                     	;# 
  1287  0392                     	;# 
  1288  0393                     	;# 
  1289  039A                     	;# 
  1290  039B                     	;# 
  1291  0611                     	;# 
  1292  0612                     	;# 
  1293  0613                     	;# 
  1294  0613                     	;# 
  1295  0614                     	;# 
  1296  0615                     	;# 
  1297  0616                     	;# 
  1298  0616                     	;# 
  1299  0691                     	;# 
  1300  0692                     	;# 
  1301  0693                     	;# 
  1302  0694                     	;# 
  1303  0695                     	;# 
  1304  0E8E                     	;# 
  1305  0E8F                     	;# 
  1306  0E90                     	;# 
  1307  0E91                     	;# 
  1308  0E92                     	;# 
  1309  0E93                     	;# 
  1310  0E94                     	;# 
  1311  0E94                     	;# 
  1312  0E95                     	;# 
  1313  0E96                     	;# 
  1314  0E97                     	;# 
  1315  0E98                     	;# 
  1316  0E99                     	;# 
  1317  0E9A                     	;# 
  1318  0E9B                     	;# 
  1319  0E9C                     	;# 
  1320  0E9D                     	;# 
  1321  0E9E                     	;# 
  1322  0E9F                     	;# 
  1323  0FE4                     	;# 
  1324  0FE5                     	;# 
  1325  0FE6                     	;# 
  1326  0FE7                     	;# 
  1327  0FE8                     	;# 
  1328  0FE9                     	;# 
  1329  0FEA                     	;# 
  1330  0FEB                     	;# 
  1331  0FED                     	;# 
  1332  0FEE                     	;# 
  1333  0FEF                     	;# 
  1334  0000                     	;# 
  1335  0001                     	;# 
  1336  0002                     	;# 
  1337  0003                     	;# 
  1338  0004                     	;# 
  1339  0005                     	;# 
  1340  0006                     	;# 
  1341  0007                     	;# 
  1342  0008                     	;# 
  1343  0009                     	;# 
  1344  000A                     	;# 
  1345  000B                     	;# 
  1346  000C                     	;# 
  1347  000E                     	;# 
  1348  0011                     	;# 
  1349  0012                     	;# 
  1350  0015                     	;# 
  1351  0016                     	;# 
  1352  0016                     	;# 
  1353  0017                     	;# 
  1354  0018                     	;# 
  1355  0019                     	;# 
  1356  001A                     	;# 
  1357  001B                     	;# 
  1358  001C                     	;# 
  1359  008C                     	;# 
  1360  008E                     	;# 
  1361  0091                     	;# 
  1362  0092                     	;# 
  1363  0095                     	;# 
  1364  0096                     	;# 
  1365  0097                     	;# 
  1366  0098                     	;# 
  1367  0099                     	;# 
  1368  009A                     	;# 
  1369  009B                     	;# 
  1370  009B                     	;# 
  1371  009C                     	;# 
  1372  009D                     	;# 
  1373  009E                     	;# 
  1374  009F                     	;# 
  1375  010C                     	;# 
  1376  010E                     	;# 
  1377  0111                     	;# 
  1378  0112                     	;# 
  1379  0113                     	;# 
  1380  0114                     	;# 
  1381  0115                     	;# 
  1382  0116                     	;# 
  1383  0117                     	;# 
  1384  0118                     	;# 
  1385  0119                     	;# 
  1386  011D                     	;# 
  1387  018C                     	;# 
  1388  018E                     	;# 
  1389  0191                     	;# 
  1390  0191                     	;# 
  1391  0192                     	;# 
  1392  0193                     	;# 
  1393  0193                     	;# 
  1394  0194                     	;# 
  1395  0195                     	;# 
  1396  0196                     	;# 
  1397  0197                     	;# 
  1398  0199                     	;# 
  1399  019A                     	;# 
  1400  019B                     	;# 
  1401  019B                     	;# 
  1402  019C                     	;# 
  1403  019D                     	;# 
  1404  019E                     	;# 
  1405  019F                     	;# 
  1406  020C                     	;# 
  1407  0211                     	;# 
  1408  0211                     	;# 
  1409  0212                     	;# 
  1410  0212                     	;# 
  1411  0213                     	;# 
  1412  0213                     	;# 
  1413  0214                     	;# 
  1414  0214                     	;# 
  1415  0215                     	;# 
  1416  0215                     	;# 
  1417  0215                     	;# 
  1418  0216                     	;# 
  1419  0216                     	;# 
  1420  0217                     	;# 
  1421  0217                     	;# 
  1422  0391                     	;# 
  1423  0392                     	;# 
  1424  0393                     	;# 
  1425  039A                     	;# 
  1426  039B                     	;# 
  1427  0611                     	;# 
  1428  0612                     	;# 
  1429  0613                     	;# 
  1430  0613                     	;# 
  1431  0614                     	;# 
  1432  0615                     	;# 
  1433  0616                     	;# 
  1434  0616                     	;# 
  1435  0691                     	;# 
  1436  0692                     	;# 
  1437  0693                     	;# 
  1438  0694                     	;# 
  1439  0695                     	;# 
  1440  0E8E                     	;# 
  1441  0E8F                     	;# 
  1442  0E90                     	;# 
  1443  0E91                     	;# 
  1444  0E92                     	;# 
  1445  0E93                     	;# 
  1446  0E94                     	;# 
  1447  0E94                     	;# 
  1448  0E95                     	;# 
  1449  0E96                     	;# 
  1450  0E97                     	;# 
  1451  0E98                     	;# 
  1452  0E99                     	;# 
  1453  0E9A                     	;# 
  1454  0E9B                     	;# 
  1455  0E9C                     	;# 
  1456  0E9D                     	;# 
  1457  0E9E                     	;# 
  1458  0E9F                     	;# 
  1459  0FE4                     	;# 
  1460  0FE5                     	;# 
  1461  0FE6                     	;# 
  1462  0FE7                     	;# 
  1463  0FE8                     	;# 
  1464  0FE9                     	;# 
  1465  0FEA                     	;# 
  1466  0FEB                     	;# 
  1467  0FED                     	;# 
  1468  0FEE                     	;# 
  1469  0FEF                     	;# 
  1470  0000                     	;# 
  1471  0001                     	;# 
  1472  0002                     	;# 
  1473  0003                     	;# 
  1474  0004                     	;# 
  1475  0005                     	;# 
  1476  0006                     	;# 
  1477  0007                     	;# 
  1478  0008                     	;# 
  1479  0009                     	;# 
  1480  000A                     	;# 
  1481  000B                     	;# 
  1482  000C                     	;# 
  1483  000E                     	;# 
  1484  0011                     	;# 
  1485  0012                     	;# 
  1486  0015                     	;# 
  1487  0016                     	;# 
  1488  0016                     	;# 
  1489  0017                     	;# 
  1490  0018                     	;# 
  1491  0019                     	;# 
  1492  001A                     	;# 
  1493  001B                     	;# 
  1494  001C                     	;# 
  1495  008C                     	;# 
  1496  008E                     	;# 
  1497  0091                     	;# 
  1498  0092                     	;# 
  1499  0095                     	;# 
  1500  0096                     	;# 
  1501  0097                     	;# 
  1502  0098                     	;# 
  1503  0099                     	;# 
  1504  009A                     	;# 
  1505  009B                     	;# 
  1506  009B                     	;# 
  1507  009C                     	;# 
  1508  009D                     	;# 
  1509  009E                     	;# 
  1510  009F                     	;# 
  1511  010C                     	;# 
  1512  010E                     	;# 
  1513  0111                     	;# 
  1514  0112                     	;# 
  1515  0113                     	;# 
  1516  0114                     	;# 
  1517  0115                     	;# 
  1518  0116                     	;# 
  1519  0117                     	;# 
  1520  0118                     	;# 
  1521  0119                     	;# 
  1522  011D                     	;# 
  1523  018C                     	;# 
  1524  018E                     	;# 
  1525  0191                     	;# 
  1526  0191                     	;# 
  1527  0192                     	;# 
  1528  0193                     	;# 
  1529  0193                     	;# 
  1530  0194                     	;# 
  1531  0195                     	;# 
  1532  0196                     	;# 
  1533  0197                     	;# 
  1534  0199                     	;# 
  1535  019A                     	;# 
  1536  019B                     	;# 
  1537  019B                     	;# 
  1538  019C                     	;# 
  1539  019D                     	;# 
  1540  019E                     	;# 
  1541  019F                     	;# 
  1542  020C                     	;# 
  1543  0211                     	;# 
  1544  0211                     	;# 
  1545  0212                     	;# 
  1546  0212                     	;# 
  1547  0213                     	;# 
  1548  0213                     	;# 
  1549  0214                     	;# 
  1550  0214                     	;# 
  1551  0215                     	;# 
  1552  0215                     	;# 
  1553  0215                     	;# 
  1554  0216                     	;# 
  1555  0216                     	;# 
  1556  0217                     	;# 
  1557  0217                     	;# 
  1558  0391                     	;# 
  1559  0392                     	;# 
  1560  0393                     	;# 
  1561  039A                     	;# 
  1562  039B                     	;# 
  1563  0611                     	;# 
  1564  0612                     	;# 
  1565  0613                     	;# 
  1566  0613                     	;# 
  1567  0614                     	;# 
  1568  0615                     	;# 
  1569  0616                     	;# 
  1570  0616                     	;# 
  1571  0691                     	;# 
  1572  0692                     	;# 
  1573  0693                     	;# 
  1574  0694                     	;# 
  1575  0695                     	;# 
  1576  0E8E                     	;# 
  1577  0E8F                     	;# 
  1578  0E90                     	;# 
  1579  0E91                     	;# 
  1580  0E92                     	;# 
  1581  0E93                     	;# 
  1582  0E94                     	;# 
  1583  0E94                     	;# 
  1584  0E95                     	;# 
  1585  0E96                     	;# 
  1586  0E97                     	;# 
  1587  0E98                     	;# 
  1588  0E99                     	;# 
  1589  0E9A                     	;# 
  1590  0E9B                     	;# 
  1591  0E9C                     	;# 
  1592  0E9D                     	;# 
  1593  0E9E                     	;# 
  1594  0E9F                     	;# 
  1595  0FE4                     	;# 
  1596  0FE5                     	;# 
  1597  0FE6                     	;# 
  1598  0FE7                     	;# 
  1599  0FE8                     	;# 
  1600  0FE9                     	;# 
  1601  0FEA                     	;# 
  1602  0FEB                     	;# 
  1603  0FED                     	;# 
  1604  0FEE                     	;# 
  1605  0FEF                     	;_leds_output
  1606                           
  1607                           	psect	idataBANK3
  1608  082F                     __pidataBANK3:
  1609                           
  1610                           ;initializer for _v
  1611  082F  3441               	retlw	65
  1612  0830  3442               	retlw	66
  1613  0831  3443               	retlw	67
  1614  0832  3444               	retlw	68
  1615  0833  3445               	retlw	69
  1616  0834  3446               	retlw	70
  1617  0835  3447               	retlw	71
  1618  0836  3448               	retlw	72
  1619                           
  1620                           	psect	stringtext1
  1621  1154                     __pstringtext1:
  1622  1154                     _USB_SD_Ptr:
  1623  1154  345A               	retlw	low (_sd000| (0+32768))
  1624  1155  3491               	retlw	high (_sd000| (0+32768))
  1625  1156  34C0               	retlw	low (_sd001| (0+32768))
  1626  1157  3490               	retlw	high (_sd001| (0+32768))
  1627  1158  3410               	retlw	low (_sd002| (0+32768))
  1628  1159  3491               	retlw	high (_sd002| (0+32768))
  1629  115A                     __end_of_USB_SD_Ptr:
  1630                           
  1631                           	psect	stringtext2
  1632  115E                     __pstringtext2:
  1633  115E                     _USB_CD_Ptr:
  1634  115E  3400               	retlw	low (_configDescriptor1| (0+32768))
  1635  115F  3490               	retlw	high (_configDescriptor1| (0+32768))
  1636  1160                     __end_of_USB_CD_Ptr:
  1637                           
  1638                           	psect	stringtext3
  1639  1000                     __pstringtext3:
  1640  1000                     _configDescriptor1:
  1641  1000  3409               	retlw	9
  1642  1001  3402               	retlw	2
  1643  1002  3469               	retlw	105
  1644  1003  3400               	retlw	0
  1645  1004  3403               	retlw	3
  1646  1005  3401               	retlw	1
  1647  1006  3400               	retlw	0
  1648  1007  34C0               	retlw	192
  1649  1008  34FA               	retlw	250
  1650  1009  3409               	retlw	9
  1651  100A  3404               	retlw	4
  1652  100B  3400               	retlw	0
  1653  100C  3400               	retlw	0
  1654  100D  3402               	retlw	2
  1655  100E  3403               	retlw	3
  1656  100F  3400               	retlw	0
  1657  1010  3400               	retlw	0
  1658  1011  3400               	retlw	0
  1659  1012  3409               	retlw	9
  1660  1013  3421               	retlw	33
  1661  1014  3411               	retlw	17
  1662  1015  3401               	retlw	1
  1663  1016  3400               	retlw	0
  1664  1017  3401               	retlw	1
  1665  1018  3422               	retlw	34
  1666  1019  3457               	retlw	87
  1667  101A  3400               	retlw	0
  1668  101B  3407               	retlw	7
  1669  101C  3405               	retlw	5
  1670  101D  3481               	retlw	129
  1671  101E  3403               	retlw	3
  1672  101F  3440               	retlw	64
  1673  1020  3400               	retlw	0
  1674  1021  3403               	retlw	3
  1675  1022  3407               	retlw	7
  1676  1023  3405               	retlw	5
  1677  1024  3401               	retlw	1
  1678  1025  3403               	retlw	3
  1679  1026  3440               	retlw	64
  1680  1027  3400               	retlw	0
  1681  1028  3403               	retlw	3
  1682  1029  3409               	retlw	9
  1683  102A  3404               	retlw	4
  1684  102B  3401               	retlw	1
  1685  102C  3400               	retlw	0
  1686  102D  3402               	retlw	2
  1687  102E  3403               	retlw	3
  1688  102F  3400               	retlw	0
  1689  1030  3400               	retlw	0
  1690  1031  3400               	retlw	0
  1691  1032  3409               	retlw	9
  1692  1033  3421               	retlw	33
  1693  1034  3411               	retlw	17
  1694  1035  3401               	retlw	1
  1695  1036  3400               	retlw	0
  1696  1037  3401               	retlw	1
  1697  1038  3422               	retlw	34
  1698  1039  341C               	retlw	28
  1699  103A  3400               	retlw	0
  1700  103B  3407               	retlw	7
  1701  103C  3405               	retlw	5
  1702  103D  3482               	retlw	130
  1703  103E  3403               	retlw	3
  1704  103F  3440               	retlw	64
  1705  1040  3400               	retlw	0
  1706  1041  3464               	retlw	100
  1707  1042  3407               	retlw	7
  1708  1043  3405               	retlw	5
  1709  1044  3402               	retlw	2
  1710  1045  3403               	retlw	3
  1711  1046  3440               	retlw	64
  1712  1047  3400               	retlw	0
  1713  1048  3405               	retlw	5
  1714  1049  3409               	retlw	9
  1715  104A  3404               	retlw	4
  1716  104B  3402               	retlw	2
  1717  104C  3400               	retlw	0
  1718  104D  3402               	retlw	2
  1719  104E  3403               	retlw	3
  1720  104F  3400               	retlw	0
  1721  1050  3400               	retlw	0
  1722  1051  3400               	retlw	0
  1723  1052  3409               	retlw	9
  1724  1053  3421               	retlw	33
  1725  1054  3411               	retlw	17
  1726  1055  3401               	retlw	1
  1727  1056  3400               	retlw	0
  1728  1057  3401               	retlw	1
  1729  1058  3422               	retlw	34
  1730  1059  3416               	retlw	22
  1731  105A  3400               	retlw	0
  1732  105B  3407               	retlw	7
  1733  105C  3405               	retlw	5
  1734  105D  3483               	retlw	131
  1735  105E  3403               	retlw	3
  1736  105F  3440               	retlw	64
  1737  1060  3400               	retlw	0
  1738  1061  3464               	retlw	100
  1739  1062  3407               	retlw	7
  1740  1063  3405               	retlw	5
  1741  1064  3403               	retlw	3
  1742  1065  3403               	retlw	3
  1743  1066  3440               	retlw	64
  1744  1067  3400               	retlw	0
  1745  1068  3401               	retlw	1
  1746  1069                     __end_of_configDescriptor1:
  1747                           
  1748                           	psect	stringtext4
  1749  1069                     __pstringtext4:
  1750  1069                     _HAPTIC_rpt:
  1751  1069  3405               	retlw	5
  1752  106A  3401               	retlw	1
  1753  106B  3409               	retlw	9
  1754  106C  3404               	retlw	4
  1755  106D  34A1               	retlw	161
  1756  106E  3401               	retlw	1
  1757  106F  3417               	retlw	23
  1758  1070  3401               	retlw	1
  1759  1071  3400               	retlw	0
  1760  1072  3400               	retlw	0
  1761  1073  3480               	retlw	128
  1762  1074  3427               	retlw	39
  1763  1075  34FF               	retlw	255
  1764  1076  34FF               	retlw	255
  1765  1077  34FF               	retlw	255
  1766  1078  347F               	retlw	127
  1767  1079  3475               	retlw	117
  1768  107A  3420               	retlw	32
  1769  107B  3495               	retlw	149
  1770  107C  3401               	retlw	1
  1771  107D  3405               	retlw	5
  1772  107E  3401               	retlw	1
  1773  107F  3409               	retlw	9
  1774  1080  3438               	retlw	56
  1775  1081  3481               	retlw	129
  1776  1082  3402               	retlw	2
  1777  1083  3415               	retlw	21
  1778  1084  3400               	retlw	0
  1779  1085  3426               	retlw	38
  1780  1086  34FF               	retlw	255
  1781  1087  3400               	retlw	0
  1782  1088  3435               	retlw	53
  1783  1089  3400               	retlw	0
  1784  108A  3446               	retlw	70
  1785  108B  34FF               	retlw	255
  1786  108C  3400               	retlw	0
  1787  108D  3475               	retlw	117
  1788  108E  3408               	retlw	8
  1789  108F  3495               	retlw	149
  1790  1090  3402               	retlw	2
  1791  1091  3405               	retlw	5
  1792  1092  3401               	retlw	1
  1793  1093  3409               	retlw	9
  1794  1094  3430               	retlw	48
  1795  1095  3409               	retlw	9
  1796  1096  3431               	retlw	49
  1797  1097  3481               	retlw	129
  1798  1098  3402               	retlw	2
  1799  1099  3405               	retlw	5
  1800  109A  3409               	retlw	9
  1801  109B  3409               	retlw	9
  1802  109C  3401               	retlw	1
  1803  109D  3495               	retlw	149
  1804  109E  3401               	retlw	1
  1805  109F  3475               	retlw	117
  1806  10A0  3408               	retlw	8
  1807  10A1  3426               	retlw	38
  1808  10A2  34FF               	retlw	255
  1809  10A3  3400               	retlw	0
  1810  10A4  3415               	retlw	21
  1811  10A5  3400               	retlw	0
  1812  10A6  3481               	retlw	129
  1813  10A7  3402               	retlw	2
  1814  10A8  3495               	retlw	149
  1815  10A9  3409               	retlw	9
  1816  10AA  3475               	retlw	117
  1817  10AB  3408               	retlw	8
  1818  10AC  3409               	retlw	9
  1819  10AD  34F0               	retlw	240
  1820  10AE  3481               	retlw	129
  1821  10AF  3402               	retlw	2
  1822  10B0  3415               	retlw	21
  1823  10B1  3400               	retlw	0
  1824  10B2  3426               	retlw	38
  1825  10B3  34FF               	retlw	255
  1826  10B4  3400               	retlw	0
  1827  10B5  3475               	retlw	117
  1828  10B6  3401               	retlw	1
  1829  10B7  3495               	retlw	149
  1830  10B8  3440               	retlw	64
  1831  10B9  3405               	retlw	5
  1832  10BA  3401               	retlw	1
  1833  10BB  3409               	retlw	9
  1834  10BC  344B               	retlw	75
  1835  10BD  3491               	retlw	145
  1836  10BE  3402               	retlw	2
  1837  10BF  34C0               	retlw	192
  1838  10C0                     __end_of_HAPTIC_rpt:
  1839                           
  1840                           	psect	stringtext5
  1841  10C0                     __pstringtext5:
  1842  10C0                     _sd001:
  1843  10C0  3434               	retlw	52
  1844  10C1  3403               	retlw	3
  1845  10C2  344D               	retlw	77
  1846  10C3  3400               	retlw	0
  1847  10C4  3469               	retlw	105
  1848  10C5  3400               	retlw	0
  1849  10C6  3463               	retlw	99
  1850  10C7  3400               	retlw	0
  1851  10C8  3472               	retlw	114
  1852  10C9  3400               	retlw	0
  1853  10CA  346F               	retlw	111
  1854  10CB  3400               	retlw	0
  1855  10CC  3463               	retlw	99
  1856  10CD  3400               	retlw	0
  1857  10CE  3468               	retlw	104
  1858  10CF  3400               	retlw	0
  1859  10D0  3469               	retlw	105
  1860  10D1  3400               	retlw	0
  1861  10D2  3470               	retlw	112
  1862  10D3  3400               	retlw	0
  1863  10D4  3420               	retlw	32
  1864  10D5  3400               	retlw	0
  1865  10D6  3454               	retlw	84
  1866  10D7  3400               	retlw	0
  1867  10D8  3465               	retlw	101
  1868  10D9  3400               	retlw	0
  1869  10DA  3463               	retlw	99
  1870  10DB  3400               	retlw	0
  1871  10DC  3468               	retlw	104
  1872  10DD  3400               	retlw	0
  1873  10DE  346E               	retlw	110
  1874  10DF  3400               	retlw	0
  1875  10E0  346F               	retlw	111
  1876  10E1  3400               	retlw	0
  1877  10E2  346C               	retlw	108
  1878  10E3  3400               	retlw	0
  1879  10E4  346F               	retlw	111
  1880  10E5  3400               	retlw	0
  1881  10E6  3467               	retlw	103
  1882  10E7  3400               	retlw	0
  1883  10E8  3479               	retlw	121
  1884  10E9  3400               	retlw	0
  1885  10EA  3420               	retlw	32
  1886  10EB  3400               	retlw	0
  1887  10EC  3449               	retlw	73
  1888  10ED  3400               	retlw	0
  1889  10EE  346E               	retlw	110
  1890  10EF  3400               	retlw	0
  1891  10F0  3463               	retlw	99
  1892  10F1  3400               	retlw	0
  1893  10F2  342E               	retlw	46
  1894  10F3  3400               	retlw	0
  1895  10F4                     __end_of_sd001:
  1896                           
  1897                           	psect	stringtext6
  1898  10F4                     __pstringtext6:
  1899  10F4                     _LED_rpt:
  1900  10F4  3405               	retlw	5
  1901  10F5  3408               	retlw	8
  1902  10F6  3409               	retlw	9
  1903  10F7  3452               	retlw	82
  1904  10F8  34A1               	retlw	161
  1905  10F9  3402               	retlw	2
  1906  10FA  3415               	retlw	21
  1907  10FB  3400               	retlw	0
  1908  10FC  3426               	retlw	38
  1909  10FD  3400               	retlw	0
  1910  10FE  3401               	retlw	1
  1911  10FF  3475               	retlw	117
  1912  1100  3408               	retlw	8
  1913  1101  3495               	retlw	149
  1914  1102  3431               	retlw	49
  1915  1103  3405               	retlw	5
  1916  1104  3408               	retlw	8
  1917  1105  3409               	retlw	9
  1918  1106  344B               	retlw	75
  1919  1107  3409               	retlw	9
  1920  1108  3453               	retlw	83
  1921  1109  3409               	retlw	9
  1922  110A  3455               	retlw	85
  1923  110B  3409               	retlw	9
  1924  110C  3454               	retlw	84
  1925  110D  3491               	retlw	145
  1926  110E  3402               	retlw	2
  1927  110F  34C0               	retlw	192
  1928  1110                     __end_of_LED_rpt:
  1929                           
  1930                           	psect	stringtext7
  1931  1110                     __pstringtext7:
  1932  1110                     _sd002:
  1933  1110  341C               	retlw	28
  1934  1111  3403               	retlw	3
  1935  1112  344A               	retlw	74
  1936  1113  3400               	retlw	0
  1937  1114  346F               	retlw	111
  1938  1115  3400               	retlw	0
  1939  1116  3479               	retlw	121
  1940  1117  3400               	retlw	0
  1941  1118  3473               	retlw	115
  1942  1119  3400               	retlw	0
  1943  111A  3474               	retlw	116
  1944  111B  3400               	retlw	0
  1945  111C  3469               	retlw	105
  1946  111D  3400               	retlw	0
  1947  111E  3463               	retlw	99
  1948  111F  3400               	retlw	0
  1949  1120  346B               	retlw	107
  1950  1121  3400               	retlw	0
  1951  1122  3420               	retlw	32
  1952  1123  3400               	retlw	0
  1953  1124  3444               	retlw	68
  1954  1125  3400               	retlw	0
  1955  1126  3465               	retlw	101
  1956  1127  3400               	retlw	0
  1957  1128  346D               	retlw	109
  1958  1129  3400               	retlw	0
  1959  112A  346F               	retlw	111
  1960  112B  3400               	retlw	0
  1961  112C                     __end_of_sd002:
  1962                           
  1963                           	psect	stringtext8
  1964  112C                     __pstringtext8:
  1965  112C                     _DISPLAY_rpt:
  1966  112C  3405               	retlw	5
  1967  112D  3414               	retlw	20
  1968  112E  3409               	retlw	9
  1969  112F  3402               	retlw	2
  1970  1130  34A1               	retlw	161
  1971  1131  3402               	retlw	2
  1972  1132  3415               	retlw	21
  1973  1133  3400               	retlw	0
  1974  1134  3426               	retlw	38
  1975  1135  3400               	retlw	0
  1976  1136  3401               	retlw	1
  1977  1137  3475               	retlw	117
  1978  1138  3408               	retlw	8
  1979  1139  3495               	retlw	149
  1980  113A  3440               	retlw	64
  1981  113B  3405               	retlw	5
  1982  113C  3414               	retlw	20
  1983  113D  3409               	retlw	9
  1984  113E  3402               	retlw	2
  1985  113F  3491               	retlw	145
  1986  1140  3402               	retlw	2
  1987  1141  34C0               	retlw	192
  1988  1142                     __end_of_DISPLAY_rpt:
  1989                           
  1990                           	psect	stringtext9
  1991  1142                     __pstringtext9:
  1992  1142                     _device_dsc:
  1993  1142  3412               	retlw	18
  1994  1143  3401               	retlw	1
  1995  1144  3400               	retlw	0
  1996  1145  3402               	retlw	2
  1997  1146  3400               	retlw	0
  1998  1147  3400               	retlw	0
  1999  1148  3400               	retlw	0
  2000  1149  3408               	retlw	8
  2001  114A  34D8               	retlw	216
  2002  114B  3404               	retlw	4
  2003  114C  345E               	retlw	94
  2004  114D  3400               	retlw	0
  2005  114E  3401               	retlw	1
  2006  114F  3400               	retlw	0
  2007  1150  3401               	retlw	1
  2008  1151  3402               	retlw	2
  2009  1152  3400               	retlw	0
  2010  1153  3401               	retlw	1
  2011  1154                     __end_of_device_dsc:
  2012                           
  2013                           	psect	stringtext10
  2014  115A                     __pstringtext10:
  2015  115A                     _sd000:
  2016  115A  3404               	retlw	4
  2017  115B  3403               	retlw	3
  2018  115C  3409               	retlw	9
  2019  115D  3404               	retlw	4
  2020  115E                     __end_of_sd000:
  2021  21B0                     _display_output	set	8624
  2022  2130                     _leds_output	set	8496
  2023  000E                     _PORTCbits	set	14
  2024  0012                     _PIR2bits	set	18
  2025  008E                     _TRISCbits	set	142
  2026  0092                     _PIE2bits	set	146
  2027  0470                     _TRISC0	set	1136
  2028  0473                     _TRISC3	set	1139
  2029  0472                     _TRISC2	set	1138
  2030  0471                     _TRISC1	set	1137
  2031  010E                     _LATCbits	set	270
  2032  018E                     _ANSELC	set	398
  2033  0215                     _SSPCON	set	533
  2034  0212                     _SSPADD	set	530
  2035  0211                     _SSPBUF	set	529
  2036  0214                     _SSPSTAT	set	532
  2037  0215                     _SSPCON1	set	533
  2038  10AF                     _WCOL	set	4271
  2039  10A0                     _BF	set	4256
  2040  10AE                     _SSPOV	set	4270
  2041  0E98                     _UEP0bits	set	3736
  2042  0E8F                     _USTAT	set	3727
  2043  0E92                     _UIEbits	set	3730
  2044  0E8E                     _UCON	set	3726
  2045  0E90                     _UIRbits	set	3728
  2046  0E96                     _UADDR	set	3734
  2047  0E8E                     _UCONbits	set	3726
  2048  0E92                     _UIE	set	3730
  2049  0E97                     _UEIE	set	3735
  2050  0E91                     _UCFG	set	3729
  2051  0E90                     _UIR	set	3728
  2052  0E93                     _UEIR	set	3731
  2053  0E99                     _UEP1	set	3737
  2054  0E98                     _UEP0	set	3736
  2055                           
  2056                           	psect	cinit
  2057  000A                     start_initialization:	
  2058                           ; #config settings
  2059                           
  2060  000A                     __initialization:
  2061                           
  2062                           ; Initialize objects allocated to BANK3
  2063  000A  302F               	movlw	low __pidataBANK3
  2064  000B  0084               	movwf	4
  2065  000C  3088               	movlw	(high __pidataBANK3)| (0+128)
  2066  000D  0085               	movwf	5
  2067  000E  0023               	movlb	3	; select bank3
  2068  000F  0012               	moviw fsr0++
  2069  0010  00C1               	movwf	__pdataBANK3& (0+127)
  2070  0011  0012               	moviw fsr0++
  2071  0012  00C2               	movwf	(__pdataBANK3+1)& (0+127)
  2072  0013  0012               	moviw fsr0++
  2073  0014  00C3               	movwf	(__pdataBANK3+2)& (0+127)
  2074  0015  0012               	moviw fsr0++
  2075  0016  00C4               	movwf	(__pdataBANK3+3)& (0+127)
  2076  0017  0012               	moviw fsr0++
  2077  0018  00C5               	movwf	(__pdataBANK3+4)& (0+127)
  2078  0019  0012               	moviw fsr0++
  2079  001A  00C6               	movwf	(__pdataBANK3+5)& (0+127)
  2080  001B  0012               	moviw fsr0++
  2081  001C  00C7               	movwf	(__pdataBANK3+6)& (0+127)
  2082  001D  0012               	moviw fsr0++
  2083  001E  00C8               	movwf	(__pdataBANK3+7)& (0+127)
  2084                           
  2085                           ; Clear objects allocated to BANK1
  2086  001F  30B0               	movlw	low __pbssBANK1
  2087  0020  0084               	movwf	4
  2088  0021  3000               	movlw	high __pbssBANK1
  2089  0022  0085               	movwf	5
  2090  0023  3029               	movlw	41
  2091  0024  00FE               	movwf	btemp
  2092  0025  3000               	movlw	0
  2093  0026  00FF               	movwf	btemp+1
  2094  0027  3188  2040  3180   	fcall	clear_ram0
  2095                           
  2096                           ; Clear objects allocated to BANK2
  2097  002A  3020               	movlw	low __pbssBANK2
  2098  002B  0084               	movwf	4
  2099  002C  3001               	movlw	high __pbssBANK2
  2100  002D  0085               	movwf	5
  2101  002E  300F               	movlw	15
  2102  002F  00FE               	movwf	btemp
  2103  0030  3000               	movlw	0
  2104  0031  00FF               	movwf	btemp+1
  2105  0032  3188  2040  3180   	fcall	clear_ram0
  2106                           
  2107                           ; Clear objects allocated to BANK3
  2108  0035  30A0               	movlw	low __pbssBANK3
  2109  0036  0084               	movwf	4
  2110  0037  3001               	movlw	high __pbssBANK3
  2111  0038  0085               	movwf	5
  2112  0039  3021               	movlw	33
  2113  003A  00FE               	movwf	btemp
  2114  003B  3000               	movlw	0
  2115  003C  00FF               	movwf	btemp+1
  2116  003D  3188  2040  3180   	fcall	clear_ram0
  2117  0040                     end_of_initialization:	
  2118                           ;End of C runtime variable initialization code
  2119                           
  2120  0040                     __end_of__initialization:
  2121  0040  107E               	bcf	int$flags,0	;clear compiler interrupt flag (level 1)
  2122  0041  0020               	movlb	0
  2123  0042  318A  2A1D         	ljmp	_main	;jump to C main() function
  2124                           
  2125                           	psect	bssBANK1
  2126  00B0                     __pbssBANK1:
  2127  00B0                     _pBDTEntryIn:
  2128  00B0                     	ds	8
  2129  00B8                     _inPipes:
  2130  00B8                     	ds	5
  2131  00BD                     APP_LEDUpdateUSBStatus@ledCount:
  2132  00BD                     	ds	2
  2133  00BF                     _pBDTEntryEP0OutNext:
  2134  00BF                     	ds	2
  2135  00C1                     _hap_OUT_pkt_ready:
  2136  00C1                     	ds	1
  2137  00C2                     _hap_IN_pkt_sent:
  2138  00C2                     	ds	1
  2139  00C3                     _LED_pkt_ready:
  2140  00C3                     	ds	1
  2141  00C4                     _display_pkt_ready:
  2142  00C4                     	ds	1
  2143  00C5                     _USBTicksSinceSuspendEnd:
  2144  00C5                     	ds	1
  2145  00C6                     _USBDeferOUTDataStagePackets:
  2146  00C6                     	ds	1
  2147  00C7                     _USBDeferINDataStagePackets:
  2148  00C7                     	ds	1
  2149  00C8                     _USBStatusStageEnabledFlag2:
  2150  00C8                     	ds	1
  2151  00C9                     _USBStatusStageEnabledFlag1:
  2152  00C9                     	ds	1
  2153  00CA                     _USBDeferStatusStagePacket:
  2154  00CA                     	ds	1
  2155  00CB                     _USBStatusStageTimeoutCounter:
  2156  00CB                     	ds	1
  2157  00CC                     _BothEP0OutUOWNsSet:
  2158  00CC                     	ds	1
  2159  00CD                     _endpoint_number:
  2160  00CD                     	ds	1
  2161  00CE                     _USBBusIsSuspended:
  2162  00CE                     	ds	1
  2163  00CF                     _RemoteWakeup:
  2164  00CF                     	ds	1
  2165  00D0                     _pDst:
  2166  00D0                     	ds	1
  2167  00D1                     _controlTransferState:
  2168  00D1                     	ds	1
  2169  00D2                     _shortPacketStatus:
  2170  00D2                     	ds	1
  2171  00D3                     _pBDTEntryEP0OutCurrent:
  2172  00D3                     	ds	1
  2173  00D4                     _USBDeviceState:
  2174  00D4                     	ds	1
  2175  00D5                     _active_protocol:
  2176  00D5                     	ds	1
  2177  00D6                     _idle_rate:
  2178  00D6                     	ds	1
  2179  00D7                     _USTATcopy:
  2180  00D7                     	ds	1
  2181  00D8                     _USBActiveConfiguration:
  2182  00D8                     	ds	1
  2183                           
  2184                           	psect	bssBANK2
  2185  0120                     __pbssBANK2:
  2186  0120                     _outPipes:
  2187  0120                     	ds	7
  2188  0127                     _ctrl2_from_PIC:
  2189  0127                     	ds	1
  2190  0128                     _pkt_requests:
  2191  0128                     	ds	1
  2192  0129                     _errors_ctr2_to_PIC:
  2193  0129                     	ds	1
  2194  012A                     _luminosity:
  2195  012A                     	ds	1
  2196  012B                     _garbage:
  2197  012B                     	ds	1
  2198  012C                     _cntr:
  2199  012C                     	ds	1
  2200  012D                     _REGT:
  2201  012D                     	ds	1
  2202  012E                     _TESTB:
  2203  012E                     	ds	1
  2204                           
  2205                           	psect	bssBANK3
  2206  01A0                     __pbssBANK3:
  2207  01A0                     _pBDTEntryOut:
  2208  01A0                     	ds	8
  2209  01A8                     _USB1msTickCount:
  2210  01A8                     	ds	4
  2211  01AC                     _ep_data_out:
  2212  01AC                     	ds	4
  2213  01B0                     _ep_data_in:
  2214  01B0                     	ds	4
  2215  01B4                     _cnt_tr:
  2216  01B4                     	ds	2
  2217  01B6                     _last_DSP_OUT:
  2218  01B6                     	ds	2
  2219  01B8                     _last_LED_OUT:
  2220  01B8                     	ds	2
  2221  01BA                     _last_HAP_OUT:
  2222  01BA                     	ds	2
  2223  01BC                     _last_HAP_IN:
  2224  01BC                     	ds	2
  2225  01BE                     _USBAlternateInterface:
  2226  01BE                     	ds	3
  2227                           
  2228                           	psect	dataBANK3
  2229  01C1                     __pdataBANK3:
  2230  01C1                     _v:
  2231  01C1                     	ds	8
  2232                           
  2233                           	psect	clrtext
  2234  0840                     clear_ram0:	
  2235                           ;	Called with FSR0 containing the base address, and
  2236                           ;	btemp/btemp+1 has the size to clear
  2237                           
  2238  0840  0064               	clrwdt	;clear the watchdog before getting into this loop
  2239  0841                     clrloop0:
  2240  0841  0180               	clrf	0	;clear RAM location pointed to by FSR
  2241  0842  3101               	addfsr 0,1
  2242  0843  3001               	movlw	1
  2243  0844  02FE               	subwf	btemp,f
  2244  0845  3000               	movlw	0
  2245  0846  3BFF               	subwfb	btemp+1,f
  2246  0847  087F               	movf	btemp+1,w
  2247  0848  047E               	iorwf	btemp,w
  2248  0849  1D03               	skipz
  2249  084A  2841               	goto	clrloop0	;have we reached the end yet?
  2250  084B  3400               	retlw	0	;all done for this memory range, return
  2251                           
  2252                           	psect	cstackBANK1
  2253  00D9                     __pcstackBANK1:
  2254  00D9                     ?_USER_USB_CALLBACK_EVENT_HANDLER:
  2255  00D9                     USER_USB_CALLBACK_EVENT_HANDLER@event:	
  2256                           ; 1 bytes @ 0x0
  2257                           
  2258                           
  2259                           ; 2 bytes @ 0x0
  2260  00D9                     	ds	2
  2261  00DB                     USER_USB_CALLBACK_EVENT_HANDLER@pdata:
  2262                           
  2263                           ; 2 bytes @ 0x2
  2264  00DB                     	ds	2
  2265  00DD                     USER_USB_CALLBACK_EVENT_HANDLER@size:
  2266                           
  2267                           ; 2 bytes @ 0x4
  2268  00DD                     	ds	2
  2269  00DF                     ??_USBWakeFromSuspend:
  2270  00DF                     ??_USBSuspend:	
  2271                           ; 1 bytes @ 0x6
  2272                           
  2273  00DF                     ??_USBStdFeatureReqHandler:	
  2274                           ; 1 bytes @ 0x6
  2275                           
  2276  00DF                     ??_USBStdSetCfgHandler:	
  2277                           ; 1 bytes @ 0x6
  2278                           
  2279                           
  2280                           ; 1 bytes @ 0x6
  2281  00DF                     	ds	1
  2282  00E0                     USBStdSetCfgHandler@p:
  2283                           
  2284                           ; 2 bytes @ 0x7
  2285  00E0                     	ds	1
  2286  00E1                     USBStdFeatureReqHandler@pUEP:
  2287                           
  2288                           ; 2 bytes @ 0x8
  2289  00E1                     	ds	1
  2290  00E2                     USBStdSetCfgHandler@i_1457:
  2291                           
  2292                           ; 1 bytes @ 0x9
  2293  00E2                     	ds	1
  2294  00E3                     USBStdSetCfgHandler@i:
  2295  00E3                     USBStdFeatureReqHandler@current_ep_data:	
  2296                           ; 1 bytes @ 0xA
  2297                           
  2298                           
  2299                           ; 1 bytes @ 0xA
  2300  00E3                     	ds	1
  2301  00E4                     USBStdFeatureReqHandler@p:
  2302                           
  2303                           ; 2 bytes @ 0xB
  2304  00E4                     	ds	2
  2305  00E6                     ??_USBCheckStdRequest:
  2306                           
  2307                           ; 1 bytes @ 0xD
  2308  00E6                     	ds	2
  2309  00E8                     ??_USBCtrlTrfSetupHandler:
  2310                           
  2311                           ; 1 bytes @ 0xF
  2312  00E8                     	ds	1
  2313  00E9                     ??_USBCtrlEPService:
  2314                           
  2315                           ; 1 bytes @ 0x10
  2316  00E9                     	ds	2
  2317  00EB                     ??_USBDeviceTasks:
  2318                           
  2319                           ; 1 bytes @ 0x12
  2320  00EB                     	ds	2
  2321  00ED                     USBDeviceTasks@i:
  2322                           
  2323                           ; 1 bytes @ 0x14
  2324  00ED                     	ds	1
  2325  00EE                     ??_main:
  2326                           
  2327                           ; 1 bytes @ 0x15
  2328  00EE                     	ds	2
  2329                           
  2330                           	psect	cstackCOMMON
  2331  0070                     __pcstackCOMMON:
  2332  0070                     ?_USBWakeFromSuspend:
  2333  0070                     ?_USBSuspend:	
  2334                           ; 1 bytes @ 0x0
  2335                           
  2336  0070                     ?_USBIncrement1msInternalTimers:	
  2337                           ; 1 bytes @ 0x0
  2338                           
  2339  0070                     ??_USBIncrement1msInternalTimers:	
  2340                           ; 1 bytes @ 0x0
  2341                           
  2342  0070                     ?_USBCtrlEPAllowStatusStage:	
  2343                           ; 1 bytes @ 0x0
  2344                           
  2345  0070                     ??_USBCtrlEPAllowStatusStage:	
  2346                           ; 1 bytes @ 0x0
  2347                           
  2348  0070                     ?_USBStallHandler:	
  2349                           ; 1 bytes @ 0x0
  2350                           
  2351  0070                     ??_USBStallHandler:	
  2352                           ; 1 bytes @ 0x0
  2353                           
  2354  0070                     ?_USBCtrlEPService:	
  2355                           ; 1 bytes @ 0x0
  2356                           
  2357  0070                     ?_USBConfigureEndpoint:	
  2358                           ; 1 bytes @ 0x0
  2359                           
  2360  0070                     ?_USBCtrlTrfTxService:	
  2361                           ; 1 bytes @ 0x0
  2362                           
  2363  0070                     ??_USBCtrlTrfTxService:	
  2364                           ; 1 bytes @ 0x0
  2365                           
  2366  0070                     ?_memcpy:	
  2367                           ; 1 bytes @ 0x0
  2368                           
  2369  0070                     ?_USBCtrlTrfSetupHandler:	
  2370                           ; 1 bytes @ 0x0
  2371                           
  2372  0070                     ?_USBCtrlTrfOutHandler:	
  2373                           ; 1 bytes @ 0x0
  2374                           
  2375  0070                     ?_USBCtrlTrfInHandler:	
  2376                           ; 1 bytes @ 0x0
  2377                           
  2378  0070                     ?_USBCheckStdRequest:	
  2379                           ; 1 bytes @ 0x0
  2380                           
  2381  0070                     ?_USBStdFeatureReqHandler:	
  2382                           ; 1 bytes @ 0x0
  2383                           
  2384  0070                     ?_APP_LEDUpdateUSBStatus:	
  2385                           ; 1 bytes @ 0x0
  2386                           
  2387  0070                     ?_SYSTEM_Initialize:	
  2388                           ; 1 bytes @ 0x0
  2389                           
  2390  0070                     ?_APP_DeviceJoystickInitialize:	
  2391                           ; 1 bytes @ 0x0
  2392                           
  2393  0070                     ?_SlaveinitSPI:	
  2394                           ; 1 bytes @ 0x0
  2395                           
  2396  0070                     ??_SlaveinitSPI:	
  2397                           ; 1 bytes @ 0x0
  2398                           
  2399  0070                     ?_spiTask:	
  2400                           ; 1 bytes @ 0x0
  2401                           
  2402  0070                     ??_spiTask:	
  2403                           ; 1 bytes @ 0x0
  2404                           
  2405  0070                     ?_APP_DeviceJoystickTasks:	
  2406                           ; 1 bytes @ 0x0
  2407                           
  2408  0070                     ?_LED_Off:	
  2409                           ; 1 bytes @ 0x0
  2410                           
  2411  0070                     ??_LED_Off:	
  2412                           ; 1 bytes @ 0x0
  2413                           
  2414  0070                     ?_LED_On:	
  2415                           ; 1 bytes @ 0x0
  2416                           
  2417  0070                     ??_LED_On:	
  2418                           ; 1 bytes @ 0x0
  2419                           
  2420  0070                     ?_USBDeviceInit:	
  2421                           ; 1 bytes @ 0x0
  2422                           
  2423  0070                     ??_USBDeviceInit:	
  2424                           ; 1 bytes @ 0x0
  2425                           
  2426  0070                     ?_USBDeviceTasks:	
  2427                           ; 1 bytes @ 0x0
  2428                           
  2429  0070                     ?_USBCtrlEPAllowDataStage:	
  2430                           ; 1 bytes @ 0x0
  2431                           
  2432  0070                     ?_USBCtrlEPServiceComplete:	
  2433                           ; 1 bytes @ 0x0
  2434                           
  2435  0070                     ?_USBCtrlTrfRxService:	
  2436                           ; 1 bytes @ 0x0
  2437                           
  2438  0070                     ?_USBStdSetCfgHandler:	
  2439                           ; 1 bytes @ 0x0
  2440                           
  2441  0070                     ?_USBStdGetDscHandler:	
  2442                           ; 1 bytes @ 0x0
  2443                           
  2444  0070                     ??_USBStdGetDscHandler:	
  2445                           ; 1 bytes @ 0x0
  2446                           
  2447  0070                     ?_USBStdGetStatusHandler:	
  2448                           ; 1 bytes @ 0x0
  2449                           
  2450  0070                     ??_USBStdGetStatusHandler:	
  2451                           ; 1 bytes @ 0x0
  2452                           
  2453  0070                     ?_USBCheckHIDRequest:	
  2454                           ; 1 bytes @ 0x0
  2455                           
  2456  0070                     ??_USBCheckHIDRequest:	
  2457                           ; 1 bytes @ 0x0
  2458                           
  2459  0070                     ?_main:	
  2460                           ; 1 bytes @ 0x0
  2461                           
  2462  0070                     ?_BUTTON_Enable:	
  2463                           ; 1 bytes @ 0x0
  2464                           
  2465  0070                     ??_BUTTON_Enable:	
  2466                           ; 1 bytes @ 0x0
  2467                           
  2468  0070                     ?_LED_Enable:	
  2469                           ; 1 bytes @ 0x0
  2470                           
  2471  0070                     ??_LED_Enable:	
  2472                           ; 1 bytes @ 0x0
  2473                           
  2474  0070                     ?_SYS_InterruptHigh:	
  2475                           ; 1 bytes @ 0x0
  2476                           
  2477  0070                     ??_SYS_InterruptHigh:	
  2478                           ; 1 bytes @ 0x0
  2479                           
  2480  0070                     ?_memset:	
  2481                           ; 1 bytes @ 0x0
  2482                           
  2483  0070                     ?_USBTransferOnePacket:	
  2484                           ; 2 bytes @ 0x0
  2485                           
  2486  0070                     USBTransferOnePacket@dir:	
  2487                           ; 2 bytes @ 0x0
  2488                           
  2489  0070                     USBConfigureEndpoint@direction:	
  2490                           ; 1 bytes @ 0x0
  2491                           
  2492  0070                     memcpy@s1:	
  2493                           ; 1 bytes @ 0x0
  2494                           
  2495  0070                     memset@dest:	
  2496                           ; 2 bytes @ 0x0
  2497                           
  2498                           
  2499                           ; 2 bytes @ 0x0
  2500  0070                     	ds	1
  2501  0071                     ??_USBConfigureEndpoint:
  2502  0071                     USBDeviceInit@p:	
  2503                           ; 1 bytes @ 0x1
  2504                           
  2505  0071                     USBTransferOnePacket@data:	
  2506                           ; 2 bytes @ 0x1
  2507                           
  2508                           
  2509                           ; 2 bytes @ 0x1
  2510  0071                     	ds	1
  2511  0072                     ??_USBCtrlTrfRxService:
  2512  0072                     USBCtrlTrfTxService@byteToSend:	
  2513                           ; 1 bytes @ 0x2
  2514                           
  2515  0072                     BUTTON_Enable@button:	
  2516                           ; 1 bytes @ 0x2
  2517                           
  2518  0072                     LED_On@led:	
  2519                           ; 1 bytes @ 0x2
  2520                           
  2521  0072                     LED_Off@led:	
  2522                           ; 1 bytes @ 0x2
  2523                           
  2524  0072                     LED_Enable@led:	
  2525                           ; 1 bytes @ 0x2
  2526                           
  2527  0072                     USBStdGetStatusHandler@p:	
  2528                           ; 1 bytes @ 0x2
  2529                           
  2530  0072                     memcpy@n:	
  2531                           ; 2 bytes @ 0x2
  2532                           
  2533  0072                     memset@c:	
  2534                           ; 2 bytes @ 0x2
  2535                           
  2536                           
  2537                           ; 2 bytes @ 0x2
  2538  0072                     	ds	1
  2539  0073                     ??_USBCtrlTrfInHandler:
  2540  0073                     ??_APP_LEDUpdateUSBStatus:	
  2541                           ; 1 bytes @ 0x3
  2542                           
  2543  0073                     ??_SYSTEM_Initialize:	
  2544                           ; 1 bytes @ 0x3
  2545                           
  2546  0073                     ??_USBCtrlEPAllowDataStage:	
  2547                           ; 1 bytes @ 0x3
  2548                           
  2549  0073                     USBDeviceInit@i_722:	
  2550                           ; 1 bytes @ 0x3
  2551                           
  2552  0073                     USBTransferOnePacket@len:	
  2553                           ; 1 bytes @ 0x3
  2554                           
  2555                           
  2556                           ; 1 bytes @ 0x3
  2557  0073                     	ds	1
  2558  0074                     ??_memcpy:
  2559  0074                     ??_USBTransferOnePacket:	
  2560                           ; 1 bytes @ 0x4
  2561                           
  2562  0074                     USBDeviceInit@i:	
  2563                           ; 1 bytes @ 0x4
  2564                           
  2565  0074                     USBCtrlTrfRxService@i:	
  2566                           ; 1 bytes @ 0x4
  2567                           
  2568  0074                     memset@n:	
  2569                           ; 1 bytes @ 0x4
  2570                           
  2571                           
  2572                           ; 2 bytes @ 0x4
  2573  0074                     	ds	1
  2574  0075                     ??_USBCtrlEPServiceComplete:
  2575  0075                     USBConfigureEndpoint@EPNum:	
  2576                           ; 1 bytes @ 0x5
  2577                           
  2578  0075                     USBCtrlTrfRxService@byteToRead:	
  2579                           ; 1 bytes @ 0x5
  2580                           
  2581  0075                     USBCtrlTrfInHandler@lastDTS:	
  2582                           ; 1 bytes @ 0x5
  2583                           
  2584  0075                     SYSTEM_Initialize@state:	
  2585                           ; 1 bytes @ 0x5
  2586                           
  2587  0075                     memcpy@s:	
  2588                           ; 1 bytes @ 0x5
  2589                           
  2590                           
  2591                           ; 2 bytes @ 0x5
  2592  0075                     	ds	1
  2593  0076                     ??_memset:
  2594  0076                     ??_USBCtrlTrfOutHandler:	
  2595                           ; 1 bytes @ 0x6
  2596                           
  2597  0076                     USBConfigureEndpoint@handle:	
  2598                           ; 1 bytes @ 0x6
  2599                           
  2600                           
  2601                           ; 1 bytes @ 0x6
  2602  0076                     	ds	1
  2603  0077                     ?_USBEnableEndpoint:
  2604  0077                     USBEnableEndpoint@options:	
  2605                           ; 1 bytes @ 0x7
  2606                           
  2607  0077                     memcpy@tmp:	
  2608                           ; 1 bytes @ 0x7
  2609                           
  2610                           
  2611                           ; 1 bytes @ 0x7
  2612  0077                     	ds	1
  2613  0078                     ??_USBEnableEndpoint:
  2614  0078                     USBTransferOnePacket@ep:	
  2615                           ; 1 bytes @ 0x8
  2616                           
  2617  0078                     memcpy@d1:	
  2618                           ; 1 bytes @ 0x8
  2619                           
  2620                           
  2621                           ; 1 bytes @ 0x8
  2622  0078                     	ds	1
  2623  0079                     memcpy@d:
  2624  0079                     USBTransferOnePacket@handle:	
  2625                           ; 1 bytes @ 0x9
  2626                           
  2627                           
  2628                           ; 2 bytes @ 0x9
  2629  0079                     	ds	1
  2630  007A                     USBEnableEndpoint@p:
  2631  007A                     memset@k:	
  2632                           ; 2 bytes @ 0xA
  2633                           
  2634                           
  2635                           ; 2 bytes @ 0xA
  2636  007A                     	ds	1
  2637  007B                     ??_APP_DeviceJoystickTasks:
  2638                           
  2639                           ; 1 bytes @ 0xB
  2640  007B                     	ds	1
  2641  007C                     USBEnableEndpoint@ep:
  2642  007C                     memset@s:	
  2643                           ; 1 bytes @ 0xC
  2644                           
  2645                           
  2646                           ; 2 bytes @ 0xC
  2647  007C                     	ds	1
  2648  007D                     ??_APP_DeviceJoystickInitialize:
  2649                           
  2650                           ; 1 bytes @ 0xD
  2651  007D                     	ds	1
  2652  007E                     ??_USER_USB_CALLBACK_EVENT_HANDLER:
  2653                           
  2654                           	psect	maintext
  2655  0A1D                     __pmaintext:	
  2656                           ; 1 bytes @ 0xE
  2657 ;;
  2658 ;;Main: autosize = 0, tempsize = 2, incstack = 0, save=0
  2659 ;;
  2660 ;; *************** function _main *****************
  2661 ;; Defined at:
  2662 ;;		line 32 in file "main.c"
  2663 ;; Parameters:    Size  Location     Type
  2664 ;;		None
  2665 ;; Auto vars:     Size  Location     Type
  2666 ;;		None
  2667 ;; Return value:  Size  Location     Type
  2668 ;;                  1    wreg      void 
  2669 ;; Registers used:
  2670 ;;		wreg, fsr0l, fsr0h, fsr1l, fsr1h, status,2, status,0, pclath, cstack
  2671 ;; Tracked objects:
  2672 ;;		On entry : B1F/0
  2673 ;;		On exit  : 0/0
  2674 ;;		Unchanged: 0/0
  2675 ;; Data sizes:     COMMON   BANK1   BANK2   BANK3   BANK4   BANK5   BANK6   BANK7   BANK8   BANK9  BANK10  BANK11  BANK1
      +2
  2676 ;;      Params:         0       0       0       0       0       0       0       0       0       0       0       0       
      +0
  2677 ;;      Locals:         0       0       0       0       0       0       0       0       0       0       0       0       
      +0
  2678 ;;      Temps:          0       2       0       0       0       0       0       0       0       0       0       0       
      +0
  2679 ;;      Totals:         0       2       0       0       0       0       0       0       0       0       0       0       
      +0
  2680 ;;Total ram usage:        2 bytes
  2681 ;; Hardware stack levels required when called: 10
  2682 ;; This function calls:
  2683 ;;		_APP_DeviceJoystickTasks
  2684 ;;		_SlaveinitSPI
  2685 ;;		_USBDeviceInit
  2686 ;;		_USBDeviceTasks
  2687 ;;		_spiTask
  2688 ;; This function is called by:
  2689 ;;		Startup code after reset
  2690 ;; This function uses a non-reentrant model
  2691 ;;
  2692                           
  2693  0A1D                     _main:	
  2694                           ;psect for function _main
  2695                           
  2696  0A1D                     l4881:	
  2697                           ;incstack = 0
  2698                           ; Regs used in _main: [wreg-fsr1h+status,2+status,0+pclath+cstack]
  2699                           
  2700                           
  2701                           ;main.c: 35:     TRISC1 = 1;TRISC2 = 0;
  2702  0A1D  0021               	movlb	1	; select bank1
  2703  0A1E  148E               	bsf	14,1	;volatile
  2704  0A1F  110E               	bcf	14,2	;volatile
  2705  0A20                     l4883:
  2706                           
  2707                           ;main.c: 37:     _delay((unsigned long)((200)*(48000000/4000.0)));
  2708  0A20  300D               	movlw	13
  2709  0A21  0021               	movlb	1	; select bank1
  2710  0A22  00EF               	movwf	(??_main^(0+128)+1)
  2711  0A23  302D               	movlw	45
  2712  0A24  00EE               	movwf	??_main^(0+128)
  2713  0A25  30D7               	movlw	215
  2714  0A26                     u3837:
  2715  0A26  0B89               	decfsz	9,f
  2716  0A27  2A26               	goto	u3837
  2717  0A28  0BEE               	decfsz	??_main^(0+128),f
  2718  0A29  2A26               	goto	u3837
  2719  0A2A  0BEF               	decfsz	(??_main^(0+128)+1),f
  2720  0A2B  2A26               	goto	u3837
  2721  0A2C  3200               	nop2
  2722  0A2D                     l4885:
  2723                           
  2724                           ;main.c: 39:     SlaveinitSPI();
  2725  0A2D  3188  2037  318A   	fcall	_SlaveinitSPI
  2726  0A30                     l4887:
  2727                           
  2728                           ;main.c: 41:     USBDeviceInit();
  2729  0A30  3185  2592  318A   	fcall	_USBDeviceInit
  2730  0A33                     l4889:
  2731                           
  2732                           ;main.c: 44:     TRISCbits.TRISC4 = 0;
  2733  0A33  0021               	movlb	1	; select bank1
  2734  0A34  120E               	bcf	14,4	;volatile
  2735  0A35                     l4891:
  2736                           
  2737                           ;main.c: 47:     {;main.c: 48:         spiTask();
  2738  0A35  318B  23DF  318A   	fcall	_spiTask
  2739  0A38                     l4893:
  2740                           
  2741                           ;main.c: 50:         LATCbits.LATC4 = ~LATCbits.LATC4;
  2742  0A38  1003               	clrc
  2743  0A39  0022               	movlb	2	; select bank2
  2744  0A3A  1E0E               	btfss	14,4	;volatile
  2745  0A3B  1403               	setc
  2746  0A3C  1803               	btfsc	3,0
  2747  0A3D  2A3F               	goto	u3791
  2748  0A3E  2A42               	goto	u3790
  2749  0A3F                     u3791:
  2750  0A3F  0022               	movlb	2	; select bank2
  2751  0A40  160E               	bsf	14,4	;volatile
  2752  0A41  2A44               	goto	u3804
  2753  0A42                     u3790:
  2754  0A42  0022               	movlb	2	; select bank2
  2755  0A43  120E               	bcf	14,4	;volatile
  2756  0A44                     u3804:
  2757  0A44                     l4895:
  2758                           
  2759                           ;main.c: 64:             USBDeviceTasks();
  2760  0A44  3181  21AB  318A   	fcall	_USBDeviceTasks
  2761  0A47                     l4897:
  2762                           
  2763                           ;main.c: 70:         if( USBDeviceState < CONFIGURED_STATE )
  2764  0A47  3020               	movlw	32
  2765  0A48  0021               	movlb	1	; select bank1
  2766  0A49  0254               	subwf	_USBDeviceState^(0+128),w
  2767  0A4A  1803               	skipnc
  2768  0A4B  2A4D               	goto	u3811
  2769  0A4C  2A4E               	goto	u3810
  2770  0A4D                     u3811:
  2771  0A4D  2A4F               	goto	l528
  2772  0A4E                     u3810:
  2773  0A4E  2A35               	goto	l4891
  2774  0A4F                     l528:	
  2775                           ;main.c: 74:         }
  2776                           
  2777                           
  2778                           ;main.c: 80:         if( UCONbits.SUSPND == 1 )
  2779  0A4F  003D               	movlb	29	; select bank29
  2780  0A50  1C8E               	btfss	14,1	;volatile
  2781  0A51  2A53               	goto	u3821
  2782  0A52  2A54               	goto	u3820
  2783  0A53                     u3821:
  2784  0A53  2A55               	goto	l4903
  2785  0A54                     u3820:
  2786  0A54  2A35               	goto	l4891
  2787  0A55                     l4903:
  2788                           
  2789                           ;main.c: 87:         APP_DeviceJoystickTasks();
  2790  0A55  3183  23F1  318A   	fcall	_APP_DeviceJoystickTasks
  2791  0A58  2A35               	goto	l4891
  2792  0A59  3180  2808         	ljmp	start
  2793  0A5B                     __end_of_main:
  2794                           
  2795                           	psect	text1
  2796  0BDF                     __ptext1:	
  2797 ;; *************** function _spiTask *****************
  2798 ;; Defined at:
  2799 ;;		line 76 in file "lib/spi.c"
  2800 ;; Parameters:    Size  Location     Type
  2801 ;;		None
  2802 ;; Auto vars:     Size  Location     Type
  2803 ;;		None
  2804 ;; Return value:  Size  Location     Type
  2805 ;;                  1    wreg      void 
  2806 ;; Registers used:
  2807 ;;		wreg, status,2, status,0
  2808 ;; Tracked objects:
  2809 ;;		On entry : 0/0
  2810 ;;		On exit  : 0/0
  2811 ;;		Unchanged: 0/0
  2812 ;; Data sizes:     COMMON   BANK1   BANK2   BANK3   BANK4   BANK5   BANK6   BANK7   BANK8   BANK9  BANK10  BANK11  BANK1
      +2
  2813 ;;      Params:         0       0       0       0       0       0       0       0       0       0       0       0       
      +0
  2814 ;;      Locals:         0       0       0       0       0       0       0       0       0       0       0       0       
      +0
  2815 ;;      Temps:          1       0       0       0       0       0       0       0       0       0       0       0       
      +0
  2816 ;;      Totals:         1       0       0       0       0       0       0       0       0       0       0       0       
      +0
  2817 ;;Total ram usage:        1 bytes
  2818 ;; Hardware stack levels used: 1
  2819 ;; Hardware stack levels required when called: 1
  2820 ;; This function calls:
  2821 ;;		Nothing
  2822 ;; This function is called by:
  2823 ;;		_main
  2824 ;; This function uses a non-reentrant model
  2825 ;;
  2826                           
  2827  0BDF                     _spiTask:	
  2828                           ;psect for function _spiTask
  2829                           
  2830  0BDF                     l4121:	
  2831                           ;incstack = 0
  2832                           ; Regs used in _spiTask: [wreg+status,2+status,0]
  2833                           
  2834                           
  2835                           ;lib/spi.c: 79:     garbage = SSPBUF;
  2836  0BDF  0024               	movlb	4	; select bank4
  2837  0BE0  0811               	movf	17,w	;volatile
  2838  0BE1  00F0               	movwf	??_spiTask
  2839  0BE2  0870               	movf	??_spiTask,w
  2840  0BE3  0022               	movlb	2	; select bank2
  2841  0BE4  00AB               	movwf	_garbage^(0+256)
  2842  0BE5                     l4123:
  2843                           
  2844                           ;lib/spi.c: 80:     SSPOV = 0;
  2845  0BE5  0024               	movlb	4	; select bank4
  2846  0BE6  1315               	bcf	21,6	;volatile
  2847  0BE7  0024               	movlb	4	;# 
  2848  0BE8  1C14               	btfss	532,0	;# 
  2849  0BE9  321E               	bra	OUTOFWAITSPI	;# 
  2850  0BEA  1C14               	btfss	532,0	;# 
  2851  0BEB  321C               	bra	OUTOFWAITSPI	;# 
  2852  0BEC  1C14               	btfss	532,0	;# 
  2853  0BED  321A               	bra	OUTOFWAITSPI	;# 
  2854  0BEE  1C14               	btfss	532,0	;# 
  2855  0BEF  3218               	bra	OUTOFWAITSPI	;# 
  2856  0BF0  1C14               	btfss	532,0	;# 
  2857  0BF1  3216               	bra	OUTOFWAITSPI	;# 
  2858  0BF2  1C14               	btfss	532,0	;# 
  2859  0BF3  3214               	bra	OUTOFWAITSPI	;# 
  2860  0BF4  1C14               	btfss	532,0	;# 
  2861  0BF5  3212               	bra	OUTOFWAITSPI	;# 
  2862  0BF6  1C14               	btfss	532,0	;# 
  2863  0BF7  3210               	bra	OUTOFWAITSPI	;# 
  2864  0BF8  1C14               	btfss	532,0	;# 
  2865  0BF9  320E               	bra	OUTOFWAITSPI	;# 
  2866  0BFA  1C14               	btfss	532,0	;# 
  2867  0BFB  320C               	bra	OUTOFWAITSPI	;# 
  2868  0BFC  1C14               	btfss	532,0	;# 
  2869  0BFD  320A               	bra	OUTOFWAITSPI	;# 
  2870  0BFE  1C14               	btfss	532,0	;# 
  2871  0BFF  3208               	bra	OUTOFWAITSPI	;# 
  2872  0C00  1C14               	btfss	532,0	;# 
  2873  0C01  3206               	bra	OUTOFWAITSPI	;# 
  2874  0C02  1C14               	btfss	532,0	;# 
  2875  0C03  3204               	bra	OUTOFWAITSPI	;# 
  2876  0C04  1C14               	btfss	532,0	;# 
  2877  0C05  3202               	bra	OUTOFWAITSPI	;# 
  2878  0C06  1C14               	btfss	532,0	;# 
  2879  0C07  3200               	bra	OUTOFWAITSPI	;# 
  2880  0C08                     OUTOFWAITSPI:
  2881  0C08  0000               	nop	;# 
  2882  0C09                     l4125:
  2883                           
  2884                           ;lib/spi.c: 89:     if(BF && SSPBUF == 0x55){
  2885  0C09  0024               	movlb	4	; select bank4
  2886  0C0A  1C14               	btfss	20,0	;volatile
  2887  0C0B  2C0D               	goto	u3101
  2888  0C0C  2C0E               	goto	u3100
  2889  0C0D                     u3101:
  2890  0C0D  2C3A               	goto	l4147
  2891  0C0E                     u3100:
  2892  0C0E                     l4127:
  2893  0C0E  3055               	movlw	85
  2894  0C0F  0611               	xorwf	17,w	;volatile
  2895  0C10  1D03               	btfss	3,2
  2896  0C11  2C13               	goto	u3111
  2897  0C12  2C14               	goto	u3110
  2898  0C13                     u3111:
  2899  0C13  2C3A               	goto	l4147
  2900  0C14                     u3110:
  2901  0C14                     l4129:
  2902                           
  2903                           ;lib/spi.c: 92:         SSPBUF = 0x76;
  2904  0C14  3076               	movlw	118
  2905  0C15  0091               	movwf	17	;volatile
  2906                           
  2907                           ;lib/spi.c: 94:         while(WCOL){
  2908  0C16  2C19               	goto	l4133
  2909  0C17                     l755:
  2910                           
  2911                           ;lib/spi.c: 95:             WCOL=0;
  2912  0C17  1395               	bcf	21,7	;volatile
  2913  0C18  2C14               	goto	l4129
  2914  0C19                     l4133:
  2915                           
  2916                           ;lib/spi.c: 94:         while(WCOL){
  2917  0C19  1B95               	btfsc	21,7	;volatile
  2918  0C1A  2C1C               	goto	u3121
  2919  0C1B  2C1D               	goto	u3120
  2920  0C1C                     u3121:
  2921  0C1C  2C17               	goto	l755
  2922  0C1D                     u3120:
  2923  0C1D                     l757:
  2924  0C1D  1C14               	btfss	20,0	;volatile
  2925  0C1E  2C20               	goto	u3131
  2926  0C1F  2C21               	goto	u3130
  2927  0C20                     u3131:
  2928  0C20  2C1D               	goto	l757
  2929  0C21                     u3130:
  2930  0C21                     l4135:
  2931                           
  2932                           ;lib/spi.c: 99:         if(SSPBUF == 0x55){
  2933  0C21  3055               	movlw	85
  2934  0C22  0611               	xorwf	17,w	;volatile
  2935  0C23  1D03               	btfss	3,2
  2936  0C24  2C26               	goto	u3141
  2937  0C25  2C27               	goto	u3140
  2938  0C26                     u3141:
  2939  0C26  2C3E               	goto	l763
  2940  0C27                     u3140:
  2941  0C27                     l4137:
  2942                           
  2943                           ;lib/spi.c: 103:             SSPBUF = pkt_requests;
  2944  0C27  0191               	clrf	17	;volatile
  2945  0C28  1C14               	btfss	532,0	;# 
  2946  0C29  33FE               	bra	-2	;# 
  2947  0C2A                     l4139:
  2948                           
  2949                           ;lib/spi.c: 107:             luminosity = SSPBUF;
  2950  0C2A  0024               	movlb	4	; select bank4
  2951  0C2B  0811               	movf	17,w	;volatile
  2952  0C2C  00F0               	movwf	??_spiTask
  2953  0C2D  0870               	movf	??_spiTask,w
  2954  0C2E  0022               	movlb	2	; select bank2
  2955  0C2F  00AA               	movwf	_luminosity^(0+256)
  2956  0C30                     l4141:
  2957                           
  2958                           ;lib/spi.c: 109:             SSPBUF = ctrl2_from_PIC;
  2959  0C30  0024               	movlb	4	; select bank4
  2960  0C31  0191               	clrf	17	;volatile
  2961  0C32  1C14               	btfss	532,0	;# 
  2962  0C33  33FE               	bra	-2	;# 
  2963                           
  2964                           ;lib/spi.c: 113:             errors_ctr2_to_PIC = SSPBUF;
  2965  0C34  0024               	movlb	4	; select bank4
  2966  0C35  0811               	movf	17,w	;volatile
  2967  0C36  00F0               	movwf	??_spiTask
  2968  0C37  0870               	movf	??_spiTask,w
  2969  0C38  0022               	movlb	2	; select bank2
  2970  0C39  00A9               	movwf	_errors_ctr2_to_PIC^(0+256)
  2971  0C3A                     l4147:	
  2972                           ;lib/spi.c: 116:             if(pkt_requests & 0x01){
  2973                           
  2974                           
  2975                           ;lib/spi.c: 144:     SSPBUF = 0x00;
  2976  0C3A  0024               	movlb	4	; select bank4
  2977  0C3B  0191               	clrf	17	;volatile
  2978  0C3C                     l4149:
  2979                           
  2980                           ;lib/spi.c: 145:     WCOL=0;
  2981  0C3C  1395               	bcf	21,7	;volatile
  2982  0C3D                     l4151:
  2983                           
  2984                           ;lib/spi.c: 146:     SSPOV=0;
  2985  0C3D  1315               	bcf	21,6	;volatile
  2986  0C3E                     l763:
  2987  0C3E  0008               	return
  2988  0C3F                     __end_of_spiTask:
  2989                           
  2990                           	psect	text2
  2991  01AB                     __ptext2:	
  2992 ;; *************** function _USBDeviceTasks *****************
  2993 ;; Defined at:
  2994 ;;		line 481 in file "lib/usb/usb_device.c"
  2995 ;; Parameters:    Size  Location     Type
  2996 ;;		None
  2997 ;; Auto vars:     Size  Location     Type
  2998 ;;  i               1   20[BANK1 ] unsigned char 
  2999 ;; Return value:  Size  Location     Type
  3000 ;;                  1    wreg      void 
  3001 ;; Registers used:
  3002 ;;		wreg, fsr0l, fsr0h, fsr1l, fsr1h, status,2, status,0, pclath, cstack
  3003 ;; Tracked objects:
  3004 ;;		On entry : 0/0
  3005 ;;		On exit  : 0/0
  3006 ;;		Unchanged: 0/0
  3007 ;; Data sizes:     COMMON   BANK1   BANK2   BANK3   BANK4   BANK5   BANK6   BANK7   BANK8   BANK9  BANK10  BANK11  BANK1
      +2
  3008 ;;      Params:         0       0       0       0       0       0       0       0       0       0       0       0       
      +0
  3009 ;;      Locals:         0       1       0       0       0       0       0       0       0       0       0       0       
      +0
  3010 ;;      Temps:          0       2       0       0       0       0       0       0       0       0       0       0       
      +0
  3011 ;;      Totals:         0       3       0       0       0       0       0       0       0       0       0       0       
      +0
  3012 ;;Total ram usage:        3 bytes
  3013 ;; Hardware stack levels used: 1
  3014 ;; Hardware stack levels required when called: 9
  3015 ;; This function calls:
  3016 ;;		_USBCtrlEPAllowStatusStage
  3017 ;;		_USBCtrlEPService
  3018 ;;		_USBDeviceInit
  3019 ;;		_USBIncrement1msInternalTimers
  3020 ;;		_USBStallHandler
  3021 ;;		_USBSuspend
  3022 ;;		_USBWakeFromSuspend
  3023 ;;		_USER_USB_CALLBACK_EVENT_HANDLER
  3024 ;; This function is called by:
  3025 ;;		_main
  3026 ;; This function uses a non-reentrant model
  3027 ;;
  3028                           
  3029  01AB                     _USBDeviceTasks:	
  3030                           ;psect for function _USBDeviceTasks
  3031                           
  3032  01AB                     l4763:	
  3033                           ;incstack = 0
  3034                           ; Regs used in _USBDeviceTasks: [wreg-fsr1h+status,2+status,0+pclath+cstack]
  3035                           
  3036  01AB                     l4771:	
  3037                           ;lib/usb/usb_device.c: 483:     uint8_t i;;lib/usb/usb_device.c: 509:     if (1 != 1)
  3038                           
  3039                           
  3040                           ;lib/usb/usb_device.c: 570:     if(USBDeviceState == DETACHED_STATE)
  3041  01AB  0021               	movlb	1	; select bank1
  3042  01AC  0854               	movf	_USBDeviceState^(0+128),w
  3043  01AD  1D03               	btfss	3,2
  3044  01AE  29B0               	goto	u3541
  3045  01AF  29B1               	goto	u3540
  3046  01B0                     u3541:
  3047  01B0  29C3               	goto	l4781
  3048  01B1                     u3540:
  3049  01B1                     l4773:
  3050                           
  3051                           ;lib/usb/usb_device.c: 571:     {;lib/usb/usb_device.c: 573:         UCON = 0;
  3052  01B1  003D               	movlb	29	; select bank29
  3053  01B2  018E               	clrf	14	;volatile
  3054                           
  3055                           ;lib/usb/usb_device.c: 576:         UIE = 0;
  3056  01B3  0192               	clrf	18	;volatile
  3057  01B4                     l4775:
  3058                           
  3059                           ;lib/usb/usb_device.c: 580:         { UCFG = 0x10 | 0x00 | 0x04 | 0x02; UEIE = 0x9F; UIE
      +                           = 0x39 | 0x40 | 0x02; };
  3060  01B4  3016               	movlw	22
  3061  01B5  0091               	movwf	17	;volatile
  3062  01B6                     l4777:
  3063  01B6  309F               	movlw	159
  3064  01B7  0097               	movwf	23	;volatile
  3065  01B8                     l4779:
  3066  01B8  307B               	movlw	123
  3067  01B9  0092               	movwf	18	;volatile
  3068                           
  3069                           ;lib/usb/usb_device.c: 583:         while(!UCONbits.USBEN){UCONbits.USBEN = 1;}
  3070  01BA  29BC               	goto	l167
  3071  01BB                     l168:
  3072  01BB  158E               	bsf	14,3	;volatile
  3073  01BC                     l167:
  3074  01BC  1D8E               	btfss	14,3	;volatile
  3075  01BD  29BF               	goto	u3551
  3076  01BE  29C0               	goto	u3550
  3077  01BF                     u3551:
  3078  01BF  29BB               	goto	l168
  3079  01C0                     u3550:
  3080  01C0                     l169:
  3081                           
  3082                           ;lib/usb/usb_device.c: 586:         USBDeviceState = ATTACHED_STATE;
  3083  01C0  0021               	movlb	1	; select bank1
  3084  01C1  01D4               	clrf	_USBDeviceState^(0+128)
  3085  01C2  0AD4               	incf	_USBDeviceState^(0+128),f
  3086  01C3                     l4781:
  3087                           
  3088                           ;lib/usb/usb_device.c: 594:     if(USBDeviceState == ATTACHED_STATE)
  3089  01C3  0354               	decf	_USBDeviceState^(0+128),w
  3090  01C4  1D03               	btfss	3,2
  3091  01C5  29C7               	goto	u3561
  3092  01C6  29C8               	goto	u3560
  3093  01C7                     u3561:
  3094  01C7  29D6               	goto	l4793
  3095  01C8                     u3560:
  3096  01C8                     l4783:
  3097                           
  3098                           ;lib/usb/usb_device.c: 595:     {;lib/usb/usb_device.c: 605:         if(!UCONbits.SE0)
  3099  01C8  003D               	movlb	29	; select bank29
  3100  01C9  1A8E               	btfsc	14,5	;volatile
  3101  01CA  29CC               	goto	u3571
  3102  01CB  29CD               	goto	u3570
  3103  01CC                     u3571:
  3104  01CC  29D6               	goto	l4793
  3105  01CD                     u3570:
  3106  01CD                     l4785:
  3107                           
  3108                           ;lib/usb/usb_device.c: 606:         {;lib/usb/usb_device.c: 612:                 {UIR = 
      +                          0;};
  3109  01CD  0190               	clrf	16	;volatile
  3110                           
  3111                           ;lib/usb/usb_device.c: 616:                 UIE=0;
  3112  01CE  0192               	clrf	18	;volatile
  3113  01CF                     l4787:
  3114                           
  3115                           ;lib/usb/usb_device.c: 618:             UIEbits.URSTIE = 1;
  3116  01CF  1412               	bsf	18,0	;volatile
  3117  01D0                     l4789:
  3118                           
  3119                           ;lib/usb/usb_device.c: 619:             UIEbits.IDLEIE = 1;
  3120  01D0  1612               	bsf	18,4	;volatile
  3121  01D1                     l4791:
  3122                           
  3123                           ;lib/usb/usb_device.c: 620:             USBDeviceState = POWERED_STATE;
  3124  01D1  3002               	movlw	2
  3125  01D2  0021               	movlb	1	; select bank1
  3126  01D3  00EB               	movwf	??_USBDeviceTasks^(0+128)
  3127  01D4  086B               	movf	??_USBDeviceTasks^(0+128),w
  3128  01D5  00D4               	movwf	_USBDeviceState^(0+128)
  3129  01D6                     l4793:
  3130                           
  3131                           ;lib/usb/usb_device.c: 638:     if(UIRbits.ACTVIF && UIEbits.ACTVIE)
  3132  01D6  003D               	movlb	29	; select bank29
  3133  01D7  1D10               	btfss	16,2	;volatile
  3134  01D8  29DA               	goto	u3581
  3135  01D9  29DB               	goto	u3580
  3136  01DA                     u3581:
  3137  01DA  29E8               	goto	l4801
  3138  01DB                     u3580:
  3139  01DB                     l4795:
  3140  01DB  1D12               	btfss	18,2	;volatile
  3141  01DC  29DE               	goto	u3591
  3142  01DD  29DF               	goto	u3590
  3143  01DE                     u3591:
  3144  01DE  29E8               	goto	l4801
  3145  01DF                     u3590:
  3146  01DF                     l4797:
  3147                           
  3148                           ;lib/usb/usb_device.c: 639:     {;lib/usb/usb_device.c: 640:         (UIR &= 0xFB);
  3149  01DF  30FB               	movlw	251
  3150  01E0  0021               	movlb	1	; select bank1
  3151  01E1  00EB               	movwf	??_USBDeviceTasks^(0+128)
  3152  01E2  086B               	movf	??_USBDeviceTasks^(0+128),w
  3153  01E3  003D               	movlb	29	; select bank29
  3154  01E4  0590               	andwf	16,f	;volatile
  3155  01E5                     l4799:
  3156                           
  3157                           ;lib/usb/usb_device.c: 644:             USBWakeFromSuspend();
  3158  01E5  3188  20B8  3181   	fcall	_USBWakeFromSuspend
  3159  01E8                     l4801:
  3160                           
  3161                           ;lib/usb/usb_device.c: 651:     if(UCONbits.SUSPND==1)
  3162  01E8  003D               	movlb	29	; select bank29
  3163  01E9  1C8E               	btfss	14,1	;volatile
  3164  01EA  29EC               	goto	u3601
  3165  01EB  29ED               	goto	u3600
  3166  01EC                     u3601:
  3167  01EC  29F0               	goto	l173
  3168  01ED                     u3600:
  3169  01ED                     l4803:
  3170                           
  3171                           ;lib/usb/usb_device.c: 652:     {;lib/usb/usb_device.c: 653:         PIR2bits.USBIF = 0;
      +                          ;
  3172  01ED  0020               	movlb	0	; select bank0
  3173  01EE  1112               	bcf	18,2	;volatile
  3174                           
  3175                           ;lib/usb/usb_device.c: 654:         return;
  3176  01EF  2AD9               	goto	l165
  3177  01F0                     l173:	
  3178                           ;lib/usb/usb_device.c: 655:     }
  3179                           
  3180                           
  3181                           ;lib/usb/usb_device.c: 667:     if(UIRbits.URSTIF && UIEbits.URSTIE)
  3182  01F0  1C10               	btfss	16,0	;volatile
  3183  01F1  29F3               	goto	u3611
  3184  01F2  29F4               	goto	u3610
  3185  01F3                     u3611:
  3186  01F3  2A05               	goto	l4813
  3187  01F4                     u3610:
  3188  01F4                     l4805:
  3189  01F4  1C12               	btfss	18,0	;volatile
  3190  01F5  29F7               	goto	u3621
  3191  01F6  29F8               	goto	u3620
  3192  01F7                     u3621:
  3193  01F7  2A05               	goto	l4813
  3194  01F8                     u3620:
  3195  01F8                     l4807:
  3196                           
  3197                           ;lib/usb/usb_device.c: 668:     {;lib/usb/usb_device.c: 669:         USBDeviceInit();
  3198  01F8  3185  2592  3181   	fcall	_USBDeviceInit
  3199  01FB                     l4809:
  3200                           
  3201                           ;lib/usb/usb_device.c: 675:         USBDeviceState = DEFAULT_STATE;
  3202  01FB  3004               	movlw	4
  3203  01FC  0021               	movlb	1	; select bank1
  3204  01FD  00EB               	movwf	??_USBDeviceTasks^(0+128)
  3205  01FE  086B               	movf	??_USBDeviceTasks^(0+128),w
  3206  01FF  00D4               	movwf	_USBDeviceState^(0+128)
  3207  0200                     l4811:
  3208                           
  3209                           ;lib/usb/usb_device.c: 685:         (UIR &= 0xFE);
  3210  0200  30FE               	movlw	254
  3211  0201  00EB               	movwf	??_USBDeviceTasks^(0+128)
  3212  0202  086B               	movf	??_USBDeviceTasks^(0+128),w
  3213  0203  003D               	movlb	29	; select bank29
  3214  0204  0590               	andwf	16,f	;volatile
  3215  0205                     l4813:
  3216                           
  3217                           ;lib/usb/usb_device.c: 691:     if(UIRbits.IDLEIF && UIEbits.IDLEIE)
  3218  0205  1E10               	btfss	16,4	;volatile
  3219  0206  2A08               	goto	u3631
  3220  0207  2A09               	goto	u3630
  3221  0208                     u3631:
  3222  0208  2A10               	goto	l4819
  3223  0209                     u3630:
  3224  0209                     l4815:
  3225  0209  1E12               	btfss	18,4	;volatile
  3226  020A  2A0C               	goto	u3641
  3227  020B  2A0D               	goto	u3640
  3228  020C                     u3641:
  3229  020C  2A10               	goto	l4819
  3230  020D                     u3640:
  3231  020D                     l4817:
  3232                           
  3233                           ;lib/usb/usb_device.c: 692:     {;lib/usb/usb_device.c: 698:             USBSuspend();
  3234  020D  3188  205E  3181   	fcall	_USBSuspend
  3235  0210                     l4819:
  3236                           
  3237                           ;lib/usb/usb_device.c: 712:     if(UIRbits.SOFIF)
  3238  0210  003D               	movlb	29	; select bank29
  3239  0211  1F10               	btfss	16,6	;volatile
  3240  0212  2A14               	goto	u3651
  3241  0213  2A15               	goto	u3650
  3242  0214                     u3651:
  3243  0214  2A42               	goto	l4835
  3244  0215                     u3650:
  3245  0215                     l4821:
  3246                           
  3247                           ;lib/usb/usb_device.c: 713:     {;lib/usb/usb_device.c: 715:         if(UIEbits.SOFIE)
  3248  0215  1F12               	btfss	18,6	;volatile
  3249  0216  2A18               	goto	u3661
  3250  0217  2A19               	goto	u3660
  3251  0218                     u3661:
  3252  0218  2A29               	goto	l4825
  3253  0219                     u3660:
  3254  0219                     l4823:
  3255                           
  3256                           ;lib/usb/usb_device.c: 716:         {;lib/usb/usb_device.c: 717:             USER_USB_CA
      +                          LLBACK_EVENT_HANDLER((USB_EVENT)EVENT_SOF,0,1);
  3257  0219  3073               	movlw	115
  3258  021A  0021               	movlb	1	; select bank1
  3259  021B  00D9               	movwf	USER_USB_CALLBACK_EVENT_HANDLER@event^(0+128)
  3260  021C  3000               	movlw	0
  3261  021D  00DA               	movwf	(USER_USB_CALLBACK_EVENT_HANDLER@event^(0+128)+1)
  3262  021E  3000               	movlw	0
  3263  021F  00DB               	movwf	USER_USB_CALLBACK_EVENT_HANDLER@pdata^(0+128)
  3264  0220  3000               	movlw	0
  3265  0221  00DC               	movwf	(USER_USB_CALLBACK_EVENT_HANDLER@pdata+1)^(0+128)
  3266  0222  3001               	movlw	1
  3267  0223  00DD               	movwf	USER_USB_CALLBACK_EVENT_HANDLER@size^(0+128)
  3268  0224  3000               	movlw	0
  3269  0225  00DE               	movwf	(USER_USB_CALLBACK_EVENT_HANDLER@size^(0+128)+1)
  3270  0226  318A  229E  3181   	fcall	_USER_USB_CALLBACK_EVENT_HANDLER
  3271  0229                     l4825:
  3272                           
  3273                           ;lib/usb/usb_device.c: 719:         (UIR &= 0xBF);
  3274  0229  30BF               	movlw	191
  3275  022A  0021               	movlb	1	; select bank1
  3276  022B  00EB               	movwf	??_USBDeviceTasks^(0+128)
  3277  022C  086B               	movf	??_USBDeviceTasks^(0+128),w
  3278  022D  003D               	movlb	29	; select bank29
  3279  022E  0590               	andwf	16,f	;volatile
  3280  022F                     l4827:
  3281                           
  3282                           ;lib/usb/usb_device.c: 722:             USBIncrement1msInternalTimers();
  3283  022F  3188  207A  3181   	fcall	_USBIncrement1msInternalTimers
  3284  0232                     l4829:
  3285                           
  3286                           ;lib/usb/usb_device.c: 739:             if(USBStatusStageTimeoutCounter != 0u)
  3287  0232  0021               	movlb	1	; select bank1
  3288  0233  084B               	movf	_USBStatusStageTimeoutCounter^(0+128),w
  3289  0234  1903               	btfsc	3,2
  3290  0235  2A37               	goto	u3671
  3291  0236  2A38               	goto	u3670
  3292  0237                     u3671:
  3293  0237  2A3A               	goto	l178
  3294  0238                     u3670:
  3295  0238                     l4831:
  3296                           
  3297                           ;lib/usb/usb_device.c: 740:             {;lib/usb/usb_device.c: 741:                 USB
      +                          StatusStageTimeoutCounter--;
  3298  0238  3001               	movlw	1
  3299  0239  02CB               	subwf	_USBStatusStageTimeoutCounter^(0+128),f
  3300  023A                     l178:	
  3301                           ;lib/usb/usb_device.c: 742:             }
  3302                           
  3303                           
  3304                           ;lib/usb/usb_device.c: 748:             if(USBStatusStageTimeoutCounter == 0)
  3305  023A  084B               	movf	_USBStatusStageTimeoutCounter^(0+128),w
  3306  023B  1D03               	btfss	3,2
  3307  023C  2A3E               	goto	u3681
  3308  023D  2A3F               	goto	u3680
  3309  023E                     u3681:
  3310  023E  2A42               	goto	l4835
  3311  023F                     u3680:
  3312  023F                     l4833:
  3313                           
  3314                           ;lib/usb/usb_device.c: 749:             {;lib/usb/usb_device.c: 750:                 USB
      +                          CtrlEPAllowStatusStage();
  3315  023F  318D  250F  3181   	fcall	_USBCtrlEPAllowStatusStage
  3316  0242                     l4835:
  3317                           
  3318                           ;lib/usb/usb_device.c: 755:     if(UIRbits.STALLIF && UIEbits.STALLIE)
  3319  0242  003D               	movlb	29	; select bank29
  3320  0243  1E90               	btfss	16,5	;volatile
  3321  0244  2A46               	goto	u3691
  3322  0245  2A47               	goto	u3690
  3323  0246                     u3691:
  3324  0246  2A4E               	goto	l4841
  3325  0247                     u3690:
  3326  0247                     l4837:
  3327  0247  1E92               	btfss	18,5	;volatile
  3328  0248  2A4A               	goto	u3701
  3329  0249  2A4B               	goto	u3700
  3330  024A                     u3701:
  3331  024A  2A4E               	goto	l4841
  3332  024B                     u3700:
  3333  024B                     l4839:
  3334                           
  3335                           ;lib/usb/usb_device.c: 756:     {;lib/usb/usb_device.c: 757:         USBStallHandler();
  3336  024B  3189  218C  3181   	fcall	_USBStallHandler
  3337  024E                     l4841:
  3338                           
  3339                           ;lib/usb/usb_device.c: 760:     if(UIRbits.UERRIF && UIEbits.UERRIE)
  3340  024E  003D               	movlb	29	; select bank29
  3341  024F  1C90               	btfss	16,1	;volatile
  3342  0250  2A52               	goto	u3711
  3343  0251  2A53               	goto	u3710
  3344  0252                     u3711:
  3345  0252  2A69               	goto	l4849
  3346  0253                     u3710:
  3347  0253                     l4843:
  3348  0253  1C92               	btfss	18,1	;volatile
  3349  0254  2A56               	goto	u3721
  3350  0255  2A57               	goto	u3720
  3351  0256                     u3721:
  3352  0256  2A69               	goto	l4849
  3353  0257                     u3720:
  3354  0257                     l4845:
  3355                           
  3356                           ;lib/usb/usb_device.c: 761:     {;lib/usb/usb_device.c: 762:         USER_USB_CALLBACK_E
      +                          VENT_HANDLER((USB_EVENT)EVENT_BUS_ERROR,0,1);
  3357  0257  30FF               	movlw	255
  3358  0258  0021               	movlb	1	; select bank1
  3359  0259  00D9               	movwf	USER_USB_CALLBACK_EVENT_HANDLER@event^(0+128)
  3360  025A  307F               	movlw	127
  3361  025B  00DA               	movwf	(USER_USB_CALLBACK_EVENT_HANDLER@event^(0+128)+1)
  3362  025C  3000               	movlw	0
  3363  025D  00DB               	movwf	USER_USB_CALLBACK_EVENT_HANDLER@pdata^(0+128)
  3364  025E  3000               	movlw	0
  3365  025F  00DC               	movwf	(USER_USB_CALLBACK_EVENT_HANDLER@pdata+1)^(0+128)
  3366  0260  3001               	movlw	1
  3367  0261  00DD               	movwf	USER_USB_CALLBACK_EVENT_HANDLER@size^(0+128)
  3368  0262  3000               	movlw	0
  3369  0263  00DE               	movwf	(USER_USB_CALLBACK_EVENT_HANDLER@size^(0+128)+1)
  3370  0264  318A  229E  3181   	fcall	_USER_USB_CALLBACK_EVENT_HANDLER
  3371  0267                     l4847:
  3372                           
  3373                           ;lib/usb/usb_device.c: 763:         {UEIR = 0;};
  3374  0267  003D               	movlb	29	; select bank29
  3375  0268  0193               	clrf	19	;volatile
  3376  0269                     l4849:
  3377                           
  3378                           ;lib/usb/usb_device.c: 778:     if(USBDeviceState < DEFAULT_STATE)
  3379  0269  3004               	movlw	4
  3380  026A  0021               	movlb	1	; select bank1
  3381  026B  0254               	subwf	_USBDeviceState^(0+128),w
  3382  026C  1803               	skipnc
  3383  026D  2A6F               	goto	u3731
  3384  026E  2A70               	goto	u3730
  3385  026F                     u3731:
  3386  026F  2A73               	goto	l182
  3387  0270                     u3730:
  3388  0270                     l4851:
  3389                           
  3390                           ;lib/usb/usb_device.c: 779:     {;lib/usb/usb_device.c: 780:         PIR2bits.USBIF = 0;
      +                          ;
  3391  0270  0020               	movlb	0	; select bank0
  3392  0271  1112               	bcf	18,2	;volatile
  3393                           
  3394                           ;lib/usb/usb_device.c: 781:         return;
  3395  0272  2AD9               	goto	l165
  3396  0273                     l182:	
  3397                           ;lib/usb/usb_device.c: 782:     }
  3398                           
  3399                           
  3400                           ;lib/usb/usb_device.c: 787:     if(UIEbits.TRNIE)
  3401  0273  003D               	movlb	29	; select bank29
  3402  0274  1D92               	btfss	18,3	;volatile
  3403  0275  2A77               	goto	u3741
  3404  0276  2A78               	goto	u3740
  3405  0277                     u3741:
  3406  0277  2AD7               	goto	l183
  3407  0278                     u3740:
  3408  0278                     l4853:
  3409                           
  3410                           ;lib/usb/usb_device.c: 788:     {;lib/usb/usb_device.c: 789:         for(i = 0; i < 4u; 
      +                          i++)
  3411  0278  0021               	movlb	1	; select bank1
  3412  0279  01ED               	clrf	USBDeviceTasks@i^(0+128)
  3413  027A                     l184:
  3414                           
  3415                           ;lib/usb/usb_device.c: 790:         {;lib/usb/usb_device.c: 791:             if(UIRbits.
      +                          TRNIF)
  3416  027A  003D               	movlb	29	; select bank29
  3417  027B  1D90               	btfss	16,3	;volatile
  3418  027C  2A7E               	goto	u3751
  3419  027D  2A7F               	goto	u3750
  3420  027E                     u3751:
  3421  027E  2AD7               	goto	l183
  3422  027F                     u3750:
  3423  027F                     l4859:
  3424                           
  3425                           ;lib/usb/usb_device.c: 792:             {;lib/usb/usb_device.c: 794:                 UST
      +                          ATcopy.Val = USTAT;
  3426  027F  080F               	movf	15,w	;volatile
  3427  0280  0021               	movlb	1	; select bank1
  3428  0281  00EB               	movwf	??_USBDeviceTasks^(0+128)
  3429  0282  086B               	movf	??_USBDeviceTasks^(0+128),w
  3430  0283  00D7               	movwf	_USTATcopy^(0+128)
  3431  0284                     l4861:
  3432                           
  3433                           ;lib/usb/usb_device.c: 795:                 endpoint_number = USTATcopy.endpoint_number;
  3434  0284  0C57               	rrf	_USTATcopy^(0+128),w
  3435  0285  00EB               	movwf	??_USBDeviceTasks^(0+128)
  3436  0286  0CEB               	rrf	??_USBDeviceTasks^(0+128),f
  3437  0287  0C6B               	rrf	??_USBDeviceTasks^(0+128),w
  3438  0288  390F               	andlw	15
  3439  0289  00EC               	movwf	(??_USBDeviceTasks+1)^(0+128)
  3440  028A  086C               	movf	(??_USBDeviceTasks+1)^(0+128),w
  3441  028B  00CD               	movwf	_endpoint_number^(0+128)
  3442  028C                     l4863:
  3443                           
  3444                           ;lib/usb/usb_device.c: 797:                 (UIR &= 0xF7);
  3445  028C  30F7               	movlw	247
  3446  028D  00EB               	movwf	??_USBDeviceTasks^(0+128)
  3447  028E  086B               	movf	??_USBDeviceTasks^(0+128),w
  3448  028F  003D               	movlb	29	; select bank29
  3449  0290  0590               	andwf	16,f	;volatile
  3450  0291                     l4865:
  3451                           
  3452                           ;lib/usb/usb_device.c: 802:                 if(USTATcopy.direction == 0)
  3453  0291  0021               	movlb	1	; select bank1
  3454  0292  1957               	btfsc	_USTATcopy^(0+128),2
  3455  0293  2A95               	goto	u3761
  3456  0294  2A96               	goto	u3760
  3457  0295                     u3761:
  3458  0295  2AA6               	goto	l4869
  3459  0296                     u3760:
  3460  0296                     l4867:
  3461                           
  3462                           ;lib/usb/usb_device.c: 803:                 {;lib/usb/usb_device.c: 804:                
      +                               ep_data_out[endpoint_number].bits.ping_pong_state ^= 1;
  3463  0296  084D               	movf	_endpoint_number^(0+128),w
  3464  0297  3EAC               	addlw	(low (_ep_data_out| (0+256)))& (0+255)
  3465  0298  0086               	movwf	6
  3466  0299  3001               	movlw	1	; select bank3/4
  3467  029A  0087               	movwf	7
  3468  029B  0801               	movf	1,w
  3469  029C  3901               	andlw	1
  3470  029D  00EB               	movwf	??_USBDeviceTasks^(0+128)
  3471  029E  3001               	movlw	1
  3472  029F  06EB               	xorwf	??_USBDeviceTasks^(0+128),f
  3473  02A0  0801               	movf	1,w
  3474  02A1  066B               	xorwf	??_USBDeviceTasks^(0+128),w
  3475  02A2  39FE               	andlw	-2
  3476  02A3  066B               	xorwf	??_USBDeviceTasks^(0+128),w
  3477  02A4  0081               	movwf	1
  3478                           
  3479                           ;lib/usb/usb_device.c: 805:                 }
  3480  02A5  2AB5               	goto	l4871
  3481  02A6                     l4869:
  3482                           
  3483                           ;lib/usb/usb_device.c: 807:                 {;lib/usb/usb_device.c: 808:                
      +                               ep_data_in[endpoint_number].bits.ping_pong_state ^= 1;
  3484  02A6  084D               	movf	_endpoint_number^(0+128),w
  3485  02A7  3EB0               	addlw	(low (_ep_data_in| (0+256)))& (0+255)
  3486  02A8  0086               	movwf	6
  3487  02A9  3001               	movlw	1	; select bank3/4
  3488  02AA  0087               	movwf	7
  3489  02AB  0801               	movf	1,w
  3490  02AC  3901               	andlw	1
  3491  02AD  00EB               	movwf	??_USBDeviceTasks^(0+128)
  3492  02AE  3001               	movlw	1
  3493  02AF  06EB               	xorwf	??_USBDeviceTasks^(0+128),f
  3494  02B0  0801               	movf	1,w
  3495  02B1  066B               	xorwf	??_USBDeviceTasks^(0+128),w
  3496  02B2  39FE               	andlw	-2
  3497  02B3  066B               	xorwf	??_USBDeviceTasks^(0+128),w
  3498  02B4  0081               	movwf	1
  3499  02B5                     l4871:
  3500                           
  3501                           ;lib/usb/usb_device.c: 814:                 if(endpoint_number == 0)
  3502  02B5  084D               	movf	_endpoint_number^(0+128),w
  3503  02B6  1D03               	btfss	3,2
  3504  02B7  2AB9               	goto	u3771
  3505  02B8  2ABA               	goto	u3770
  3506  02B9                     u3771:
  3507  02B9  2ABE               	goto	l4875
  3508  02BA                     u3770:
  3509  02BA                     l4873:
  3510                           
  3511                           ;lib/usb/usb_device.c: 815:                 {;lib/usb/usb_device.c: 816:                
      +                               USBCtrlEPService();
  3512  02BA  318B  232C  3181   	fcall	_USBCtrlEPService
  3513                           
  3514                           ;lib/usb/usb_device.c: 817:                 }
  3515  02BD  2ACC               	goto	l4877
  3516  02BE                     l4875:
  3517                           
  3518                           ;lib/usb/usb_device.c: 819:                 {;lib/usb/usb_device.c: 820:                
      +                               USER_USB_CALLBACK_EVENT_HANDLER((USB_EVENT)EVENT_TRANSFER,(uint8_t*)&USTATcopy.Val,
      +                          0);
  3519  02BE  3072               	movlw	114
  3520  02BF  00D9               	movwf	USER_USB_CALLBACK_EVENT_HANDLER@event^(0+128)
  3521  02C0  3000               	movlw	0
  3522  02C1  00DA               	movwf	(USER_USB_CALLBACK_EVENT_HANDLER@event^(0+128)+1)
  3523  02C2  30D7               	movlw	low _USTATcopy
  3524  02C3  00DB               	movwf	USER_USB_CALLBACK_EVENT_HANDLER@pdata^(0+128)
  3525  02C4  3000               	movlw	high _USTATcopy
  3526  02C5  00DC               	movwf	(USER_USB_CALLBACK_EVENT_HANDLER@pdata+1)^(0+128)
  3527  02C6  3000               	movlw	0
  3528  02C7  00DD               	movwf	USER_USB_CALLBACK_EVENT_HANDLER@size^(0+128)
  3529  02C8  00DE               	movwf	(USER_USB_CALLBACK_EVENT_HANDLER@size+1)^(0+128)
  3530  02C9  318A  229E  3181   	fcall	_USER_USB_CALLBACK_EVENT_HANDLER
  3531  02CC                     l4877:
  3532                           
  3533                           ;lib/usb/usb_device.c: 827:         }
  3534  02CC  3001               	movlw	1
  3535  02CD  0021               	movlb	1	; select bank1
  3536  02CE  00EB               	movwf	??_USBDeviceTasks^(0+128)
  3537  02CF  086B               	movf	??_USBDeviceTasks^(0+128),w
  3538  02D0  07ED               	addwf	USBDeviceTasks@i^(0+128),f
  3539  02D1                     l4879:
  3540  02D1  3004               	movlw	4
  3541  02D2  026D               	subwf	USBDeviceTasks@i^(0+128),w
  3542  02D3  1C03               	skipc
  3543  02D4  2AD6               	goto	u3781
  3544  02D5  2AD7               	goto	u3780
  3545  02D6                     u3781:
  3546  02D6  2A7A               	goto	l184
  3547  02D7                     u3780:
  3548  02D7                     l183:	
  3549                           ;lib/usb/usb_device.c: 828:     }
  3550                           
  3551                           
  3552                           ;lib/usb/usb_device.c: 830:     PIR2bits.USBIF = 0;;
  3553  02D7  0020               	movlb	0	; select bank0
  3554  02D8  1112               	bcf	18,2	;volatile
  3555  02D9                     l165:
  3556  02D9  0008               	return
  3557  02DA                     __end_of_USBDeviceTasks:
  3558                           
  3559                           	psect	text3
  3560  08B8                     __ptext3:	
  3561 ;; *************** function _USBWakeFromSuspend *****************
  3562 ;; Defined at:
  3563 ;;		line 2310 in file "lib/usb/usb_device.c"
  3564 ;; Parameters:    Size  Location     Type
  3565 ;;		None
  3566 ;; Auto vars:     Size  Location     Type
  3567 ;;		None
  3568 ;; Return value:  Size  Location     Type
  3569 ;;                  1    wreg      void 
  3570 ;; Registers used:
  3571 ;;		wreg, fsr0l, fsr0h, fsr1l, fsr1h, status,2, status,0, pclath, cstack
  3572 ;; Tracked objects:
  3573 ;;		On entry : 0/0
  3574 ;;		On exit  : 0/0
  3575 ;;		Unchanged: 0/0
  3576 ;; Data sizes:     COMMON   BANK1   BANK2   BANK3   BANK4   BANK5   BANK6   BANK7   BANK8   BANK9  BANK10  BANK11  BANK1
      +2
  3577 ;;      Params:         0       0       0       0       0       0       0       0       0       0       0       0       
      +0
  3578 ;;      Locals:         0       0       0       0       0       0       0       0       0       0       0       0       
      +0
  3579 ;;      Temps:          0       1       0       0       0       0       0       0       0       0       0       0       
      +0
  3580 ;;      Totals:         0       1       0       0       0       0       0       0       0       0       0       0       
      +0
  3581 ;;Total ram usage:        1 bytes
  3582 ;; Hardware stack levels used: 1
  3583 ;; Hardware stack levels required when called: 5
  3584 ;; This function calls:
  3585 ;;		_USER_USB_CALLBACK_EVENT_HANDLER
  3586 ;; This function is called by:
  3587 ;;		_USBDeviceTasks
  3588 ;; This function uses a non-reentrant model
  3589 ;;
  3590                           
  3591  08B8                     _USBWakeFromSuspend:	
  3592                           ;psect for function _USBWakeFromSuspend
  3593                           
  3594  08B8                     l3903:	
  3595                           ;incstack = 0
  3596                           ; Regs used in _USBWakeFromSuspend: [wreg-fsr1h+status,2+status,0+pclath+cstack]
  3597                           
  3598                           
  3599                           ;lib/usb/usb_device.c: 2312:     USBBusIsSuspended = 0;
  3600  08B8  0021               	movlb	1	; select bank1
  3601  08B9  01CE               	clrf	_USBBusIsSuspended^(0+128)
  3602  08BA                     l3905:
  3603                           
  3604                           ;lib/usb/usb_device.c: 2318:     USER_USB_CALLBACK_EVENT_HANDLER((USB_EVENT)EVENT_RESUME
      +                          ,0,0);
  3605  08BA  3074               	movlw	116
  3606  08BB  00D9               	movwf	USER_USB_CALLBACK_EVENT_HANDLER@event^(0+128)
  3607  08BC  3000               	movlw	0
  3608  08BD  00DA               	movwf	(USER_USB_CALLBACK_EVENT_HANDLER@event^(0+128)+1)
  3609  08BE  3000               	movlw	0
  3610  08BF  00DB               	movwf	USER_USB_CALLBACK_EVENT_HANDLER@pdata^(0+128)
  3611  08C0  3000               	movlw	0
  3612  08C1  00DC               	movwf	(USER_USB_CALLBACK_EVENT_HANDLER@pdata+1)^(0+128)
  3613  08C2  3000               	movlw	0
  3614  08C3  00DD               	movwf	USER_USB_CALLBACK_EVENT_HANDLER@size^(0+128)
  3615  08C4  00DE               	movwf	(USER_USB_CALLBACK_EVENT_HANDLER@size+1)^(0+128)
  3616  08C5  318A  229E  3188   	fcall	_USER_USB_CALLBACK_EVENT_HANDLER
  3617  08C8                     l3907:
  3618                           
  3619                           ;lib/usb/usb_device.c: 2325:         UCONbits.SUSPND = 0;
  3620  08C8  003D               	movlb	29	; select bank29
  3621  08C9  108E               	bcf	14,1	;volatile
  3622  08CA                     l3909:
  3623                           
  3624                           ;lib/usb/usb_device.c: 2330:     UIEbits.ACTVIE = 0;
  3625  08CA  1112               	bcf	18,2	;volatile
  3626                           
  3627                           ;lib/usb/usb_device.c: 2348:     while(UIRbits.ACTVIF)
  3628  08CB  28D2               	goto	l3913
  3629  08CC                     l3911:
  3630                           
  3631                           ;lib/usb/usb_device.c: 2350:     {;lib/usb/usb_device.c: 2351:         (UIR &= 0xFB);
  3632  08CC  30FB               	movlw	251
  3633  08CD  0021               	movlb	1	; select bank1
  3634  08CE  00DF               	movwf	??_USBWakeFromSuspend^(0+128)
  3635  08CF  085F               	movf	??_USBWakeFromSuspend^(0+128),w
  3636  08D0  003D               	movlb	29	; select bank29
  3637  08D1  0590               	andwf	16,f	;volatile
  3638  08D2                     l3913:
  3639                           
  3640                           ;lib/usb/usb_device.c: 2348:     while(UIRbits.ACTVIF)
  3641  08D2  1910               	btfsc	16,2	;volatile
  3642  08D3  28D5               	goto	u2721
  3643  08D4  28D6               	goto	u2720
  3644  08D5                     u2721:
  3645  08D5  28CC               	goto	l3911
  3646  08D6                     u2720:
  3647  08D6                     l3915:
  3648                           
  3649                           ;lib/usb/usb_device.c: 2354:     USBTicksSinceSuspendEnd = 0;
  3650  08D6  0021               	movlb	1	; select bank1
  3651  08D7  01C5               	clrf	_USBTicksSinceSuspendEnd^(0+128)
  3652  08D8                     l325:
  3653  08D8  0008               	return
  3654  08D9                     __end_of_USBWakeFromSuspend:
  3655                           
  3656                           	psect	text4
  3657  085E                     __ptext4:	
  3658 ;; *************** function _USBSuspend *****************
  3659 ;; Defined at:
  3660 ;;		line 2252 in file "lib/usb/usb_device.c"
  3661 ;; Parameters:    Size  Location     Type
  3662 ;;		None
  3663 ;; Auto vars:     Size  Location     Type
  3664 ;;		None
  3665 ;; Return value:  Size  Location     Type
  3666 ;;                  1    wreg      void 
  3667 ;; Registers used:
  3668 ;;		wreg, fsr0l, fsr0h, fsr1l, fsr1h, status,2, status,0, pclath, cstack
  3669 ;; Tracked objects:
  3670 ;;		On entry : 0/0
  3671 ;;		On exit  : 0/0
  3672 ;;		Unchanged: 0/0
  3673 ;; Data sizes:     COMMON   BANK1   BANK2   BANK3   BANK4   BANK5   BANK6   BANK7   BANK8   BANK9  BANK10  BANK11  BANK1
      +2
  3674 ;;      Params:         0       0       0       0       0       0       0       0       0       0       0       0       
      +0
  3675 ;;      Locals:         0       0       0       0       0       0       0       0       0       0       0       0       
      +0
  3676 ;;      Temps:          0       1       0       0       0       0       0       0       0       0       0       0       
      +0
  3677 ;;      Totals:         0       1       0       0       0       0       0       0       0       0       0       0       
      +0
  3678 ;;Total ram usage:        1 bytes
  3679 ;; Hardware stack levels used: 1
  3680 ;; Hardware stack levels required when called: 5
  3681 ;; This function calls:
  3682 ;;		_USER_USB_CALLBACK_EVENT_HANDLER
  3683 ;; This function is called by:
  3684 ;;		_USBDeviceTasks
  3685 ;; This function uses a non-reentrant model
  3686 ;;
  3687                           
  3688  085E                     _USBSuspend:	
  3689                           ;psect for function _USBSuspend
  3690                           
  3691  085E                     l3917:	
  3692                           ;incstack = 0
  3693                           ; Regs used in _USBSuspend: [wreg-fsr1h+status,2+status,0+pclath+cstack]
  3694                           
  3695                           
  3696                           ;lib/usb/usb_device.c: 2277:     UIEbits.ACTVIE = 1;
  3697  085E  003D               	movlb	29	; select bank29
  3698  085F  1512               	bsf	18,2	;volatile
  3699  0860                     l3919:
  3700                           
  3701                           ;lib/usb/usb_device.c: 2278:     (UIR &= 0xEF);
  3702  0860  30EF               	movlw	239
  3703  0861  0021               	movlb	1	; select bank1
  3704  0862  00DF               	movwf	??_USBSuspend^(0+128)
  3705  0863  085F               	movf	??_USBSuspend^(0+128),w
  3706  0864  003D               	movlb	29	; select bank29
  3707  0865  0590               	andwf	16,f	;volatile
  3708  0866                     l3921:
  3709                           
  3710                           ;lib/usb/usb_device.c: 2281:         UCONbits.SUSPND = 1;
  3711  0866  148E               	bsf	14,1	;volatile
  3712  0867                     l3923:
  3713                           
  3714                           ;lib/usb/usb_device.c: 2284:     USBBusIsSuspended = 1;
  3715  0867  0021               	movlb	1	; select bank1
  3716  0868  01CE               	clrf	_USBBusIsSuspended^(0+128)
  3717  0869  0ACE               	incf	_USBBusIsSuspended^(0+128),f
  3718  086A                     l3925:
  3719                           
  3720                           ;lib/usb/usb_device.c: 2285:     USBTicksSinceSuspendEnd = 0;
  3721  086A  01C5               	clrf	_USBTicksSinceSuspendEnd^(0+128)
  3722  086B                     l3927:
  3723                           
  3724                           ;lib/usb/usb_device.c: 2292:     USER_USB_CALLBACK_EVENT_HANDLER((USB_EVENT)EVENT_SUSPEN
      +                          D,0,0);
  3725  086B  3075               	movlw	117
  3726  086C  00D9               	movwf	USER_USB_CALLBACK_EVENT_HANDLER@event^(0+128)
  3727  086D  3000               	movlw	0
  3728  086E  00DA               	movwf	(USER_USB_CALLBACK_EVENT_HANDLER@event^(0+128)+1)
  3729  086F  3000               	movlw	0
  3730  0870  00DB               	movwf	USER_USB_CALLBACK_EVENT_HANDLER@pdata^(0+128)
  3731  0871  3000               	movlw	0
  3732  0872  00DC               	movwf	(USER_USB_CALLBACK_EVENT_HANDLER@pdata+1)^(0+128)
  3733  0873  3000               	movlw	0
  3734  0874  00DD               	movwf	USER_USB_CALLBACK_EVENT_HANDLER@size^(0+128)
  3735  0875  00DE               	movwf	(USER_USB_CALLBACK_EVENT_HANDLER@size+1)^(0+128)
  3736  0876  318A  229E  3188   	fcall	_USER_USB_CALLBACK_EVENT_HANDLER
  3737  0879                     l319:
  3738  0879  0008               	return
  3739  087A                     __end_of_USBSuspend:
  3740                           
  3741                           	psect	text5
  3742  098C                     __ptext5:	
  3743 ;; *************** function _USBStallHandler *****************
  3744 ;; Defined at:
  3745 ;;		line 2209 in file "lib/usb/usb_device.c"
  3746 ;; Parameters:    Size  Location     Type
  3747 ;;		None
  3748 ;; Auto vars:     Size  Location     Type
  3749 ;;		None
  3750 ;; Return value:  Size  Location     Type
  3751 ;;                  1    wreg      void 
  3752 ;; Registers used:
  3753 ;;		wreg, fsr1l, fsr1h, status,2, status,0
  3754 ;; Tracked objects:
  3755 ;;		On entry : 0/0
  3756 ;;		On exit  : 0/0
  3757 ;;		Unchanged: 0/0
  3758 ;; Data sizes:     COMMON   BANK1   BANK2   BANK3   BANK4   BANK5   BANK6   BANK7   BANK8   BANK9  BANK10  BANK11  BANK1
      +2
  3759 ;;      Params:         0       0       0       0       0       0       0       0       0       0       0       0       
      +0
  3760 ;;      Locals:         0       0       0       0       0       0       0       0       0       0       0       0       
      +0
  3761 ;;      Temps:          1       0       0       0       0       0       0       0       0       0       0       0       
      +0
  3762 ;;      Totals:         1       0       0       0       0       0       0       0       0       0       0       0       
      +0
  3763 ;;Total ram usage:        1 bytes
  3764 ;; Hardware stack levels used: 1
  3765 ;; Hardware stack levels required when called: 1
  3766 ;; This function calls:
  3767 ;;		Nothing
  3768 ;; This function is called by:
  3769 ;;		_USBDeviceTasks
  3770 ;; This function uses a non-reentrant model
  3771 ;;
  3772                           
  3773  098C                     _USBStallHandler:	
  3774                           ;psect for function _USBStallHandler
  3775                           
  3776  098C                     l3937:	
  3777                           ;incstack = 0
  3778                           ; Regs used in _USBStallHandler: [wreg+fsr1l+fsr1h+status,2+status,0]
  3779                           
  3780                           
  3781                           ;lib/usb/usb_device.c: 2221:     if(UEP0bits.EPSTALL == 1)
  3782  098C  003D               	movlb	29	; select bank29
  3783  098D  1C18               	btfss	24,0	;volatile
  3784  098E  2990               	goto	u2751
  3785  098F  2991               	goto	u2750
  3786  0990                     u2751:
  3787  0990  29B2               	goto	l3947
  3788  0991                     u2750:
  3789  0991                     l3939:
  3790                           
  3791                           ;lib/usb/usb_device.c: 2222:     {;lib/usb/usb_device.c: 2224:         if((pBDTEntryEP0O
      +                          utCurrent->STAT.Val == 0x80) && (pBDTEntryIn[0]->STAT.Val == (0x80|0x04)))
  3792  0991  0021               	movlb	1	; select bank1
  3793  0992  0853               	movf	_pBDTEntryEP0OutCurrent^(0+128),w
  3794  0993  0086               	movwf	6
  3795  0994  0187               	clrf	7
  3796  0995  3080               	movlw	128
  3797  0996  0601               	xorwf	1,w
  3798  0997  1D03               	btfss	3,2
  3799  0998  299A               	goto	u2761
  3800  0999  299B               	goto	u2760
  3801  099A                     u2761:
  3802  099A  29B0               	goto	l3945
  3803  099B                     u2760:
  3804  099B                     l3941:
  3805  099B  0830               	movf	_pBDTEntryIn^(0+128),w
  3806  099C  0086               	movwf	6
  3807  099D  0831               	movf	(_pBDTEntryIn+1)^(0+128),w
  3808  099E  0087               	movwf	7
  3809  099F  3084               	movlw	132
  3810  09A0  0601               	xorwf	1,w
  3811  09A1  1D03               	btfss	3,2
  3812  09A2  29A4               	goto	u2771
  3813  09A3  29A5               	goto	u2770
  3814  09A4                     u2771:
  3815  09A4  29B0               	goto	l3945
  3816  09A5                     u2770:
  3817  09A5                     l3943:
  3818                           
  3819                           ;lib/usb/usb_device.c: 2225:         {;lib/usb/usb_device.c: 2227:             pBDTEntry
      +                          EP0OutCurrent->STAT.Val = 0x00|(0x08 & 0x08)|0x04;
  3820  09A5  300C               	movlw	12
  3821  09A6  00F0               	movwf	??_USBStallHandler
  3822  09A7  0853               	movf	_pBDTEntryEP0OutCurrent^(0+128),w
  3823  09A8  0086               	movwf	6
  3824  09A9  0187               	clrf	7
  3825  09AA  0870               	movf	??_USBStallHandler,w
  3826  09AB  0081               	movwf	1
  3827                           
  3828                           ;lib/usb/usb_device.c: 2228:             pBDTEntryEP0OutCurrent->STAT.Val |= 0x80;
  3829  09AC  0853               	movf	_pBDTEntryEP0OutCurrent^(0+128),w
  3830  09AD  0086               	movwf	6
  3831  09AE  0187               	clrf	7
  3832  09AF  1781               	bsf	1,7
  3833  09B0                     l3945:
  3834                           
  3835                           ;lib/usb/usb_device.c: 2230:         UEP0bits.EPSTALL = 0;
  3836  09B0  003D               	movlb	29	; select bank29
  3837  09B1  1018               	bcf	24,0	;volatile
  3838  09B2                     l3947:
  3839                           
  3840                           ;lib/usb/usb_device.c: 2233:     (UIR &= 0xDF);
  3841  09B2  30DF               	movlw	223
  3842  09B3  00F0               	movwf	??_USBStallHandler
  3843  09B4  0870               	movf	??_USBStallHandler,w
  3844  09B5  0590               	andwf	16,f	;volatile
  3845  09B6                     l316:
  3846  09B6  0008               	return
  3847  09B7                     __end_of_USBStallHandler:
  3848                           
  3849                           	psect	text6
  3850  087A                     __ptext6:	
  3851 ;; *************** function _USBIncrement1msInternalTimers *****************
  3852 ;; Defined at:
  3853 ;;		line 2998 in file "lib/usb/usb_device.c"
  3854 ;; Parameters:    Size  Location     Type
  3855 ;;		None
  3856 ;; Auto vars:     Size  Location     Type
  3857 ;;		None
  3858 ;; Return value:  Size  Location     Type
  3859 ;;                  1    wreg      void 
  3860 ;; Registers used:
  3861 ;;		wreg, status,2, status,0
  3862 ;; Tracked objects:
  3863 ;;		On entry : 0/0
  3864 ;;		On exit  : 0/0
  3865 ;;		Unchanged: 0/0
  3866 ;; Data sizes:     COMMON   BANK1   BANK2   BANK3   BANK4   BANK5   BANK6   BANK7   BANK8   BANK9  BANK10  BANK11  BANK1
      +2
  3867 ;;      Params:         0       0       0       0       0       0       0       0       0       0       0       0       
      +0
  3868 ;;      Locals:         0       0       0       0       0       0       0       0       0       0       0       0       
      +0
  3869 ;;      Temps:          1       0       0       0       0       0       0       0       0       0       0       0       
      +0
  3870 ;;      Totals:         1       0       0       0       0       0       0       0       0       0       0       0       
      +0
  3871 ;;Total ram usage:        1 bytes
  3872 ;; Hardware stack levels used: 1
  3873 ;; Hardware stack levels required when called: 1
  3874 ;; This function calls:
  3875 ;;		Nothing
  3876 ;; This function is called by:
  3877 ;;		_USBDeviceTasks
  3878 ;; This function uses a non-reentrant model
  3879 ;;
  3880                           
  3881  087A                     _USBIncrement1msInternalTimers:	
  3882                           ;psect for function _USBIncrement1msInternalTimers
  3883                           
  3884  087A                     l3929:	
  3885                           ;incstack = 0
  3886                           ; Regs used in _USBIncrement1msInternalTimers: [wreg+status,2+status,0]
  3887                           
  3888                           
  3889                           ;lib/usb/usb_device.c: 3006:     USB1msTickCount++;
  3890  087A  3001               	movlw	1
  3891  087B  0023               	movlb	3	; select bank3
  3892  087C  07A8               	addwf	_USB1msTickCount^(0+384),f
  3893  087D  3000               	movlw	0
  3894  087E  3DA9               	addwfc	(_USB1msTickCount+1)^(0+384),f
  3895  087F  3000               	movlw	0
  3896  0880  3DAA               	addwfc	(_USB1msTickCount+2)^(0+384),f
  3897  0881  3000               	movlw	0
  3898  0882  3DAB               	addwfc	(_USB1msTickCount+3)^(0+384),f
  3899  0883                     l3931:
  3900                           
  3901                           ;lib/usb/usb_device.c: 3007:     if(USBBusIsSuspended == 0)
  3902  0883  0021               	movlb	1	; select bank1
  3903  0884  084E               	movf	_USBBusIsSuspended^(0+128),w
  3904  0885  1D03               	btfss	3,2
  3905  0886  2888               	goto	u2731
  3906  0887  2889               	goto	u2730
  3907  0888                     u2731:
  3908  0888  2896               	goto	l406
  3909  0889                     u2730:
  3910  0889                     l3933:
  3911                           
  3912                           ;lib/usb/usb_device.c: 3008:     {;lib/usb/usb_device.c: 3009:         USBTicksSinceSusp
      +                          endEnd++;
  3913  0889  3001               	movlw	1
  3914  088A  00F0               	movwf	??_USBIncrement1msInternalTimers
  3915  088B  0870               	movf	??_USBIncrement1msInternalTimers,w
  3916  088C  07C5               	addwf	_USBTicksSinceSuspendEnd^(0+128),f
  3917                           
  3918                           ;lib/usb/usb_device.c: 3011:         if(USBTicksSinceSuspendEnd == 0)
  3919  088D  0845               	movf	_USBTicksSinceSuspendEnd^(0+128),w
  3920  088E  1D03               	btfss	3,2
  3921  088F  2891               	goto	u2741
  3922  0890  2892               	goto	u2740
  3923  0891                     u2741:
  3924  0891  2896               	goto	l406
  3925  0892                     u2740:
  3926  0892                     l3935:
  3927                           
  3928                           ;lib/usb/usb_device.c: 3012:         {;lib/usb/usb_device.c: 3013:             USBTicksS
      +                          inceSuspendEnd = 255;
  3929  0892  30FF               	movlw	255
  3930  0893  00F0               	movwf	??_USBIncrement1msInternalTimers
  3931  0894  0870               	movf	??_USBIncrement1msInternalTimers,w
  3932  0895  00C5               	movwf	_USBTicksSinceSuspendEnd^(0+128)
  3933  0896                     l406:
  3934  0896  0008               	return
  3935  0897                     __end_of_USBIncrement1msInternalTimers:
  3936                           
  3937                           	psect	text7
  3938  0592                     __ptext7:	
  3939 ;; *************** function _USBDeviceInit *****************
  3940 ;; Defined at:
  3941 ;;		line 281 in file "lib/usb/usb_device.c"
  3942 ;; Parameters:    Size  Location     Type
  3943 ;;		None
  3944 ;; Auto vars:     Size  Location     Type
  3945 ;;  p               2    1[COMMON] PTR unsigned char 
  3946 ;;		 -> UEP1(1), 
  3947 ;;  i               1    3[COMMON] unsigned char 
  3948 ;;  i               1    4[COMMON] unsigned char 
  3949 ;; Return value:  Size  Location     Type
  3950 ;;                  1    wreg      void 
  3951 ;; Registers used:
  3952 ;;		wreg, fsr1l, fsr1h, status,2, status,0
  3953 ;; Tracked objects:
  3954 ;;		On entry : 0/0
  3955 ;;		On exit  : 0/0
  3956 ;;		Unchanged: 0/0
  3957 ;; Data sizes:     COMMON   BANK1   BANK2   BANK3   BANK4   BANK5   BANK6   BANK7   BANK8   BANK9  BANK10  BANK11  BANK1
      +2
  3958 ;;      Params:         0       0       0       0       0       0       0       0       0       0       0       0       
      +0
  3959 ;;      Locals:         4       0       0       0       0       0       0       0       0       0       0       0       
      +0
  3960 ;;      Temps:          1       0       0       0       0       0       0       0       0       0       0       0       
      +0
  3961 ;;      Totals:         5       0       0       0       0       0       0       0       0       0       0       0       
      +0
  3962 ;;Total ram usage:        5 bytes
  3963 ;; Hardware stack levels used: 1
  3964 ;; Hardware stack levels required when called: 1
  3965 ;; This function calls:
  3966 ;;		Nothing
  3967 ;; This function is called by:
  3968 ;;		_USBDeviceTasks
  3969 ;;		_main
  3970 ;; This function uses a non-reentrant model
  3971 ;;
  3972                           
  3973  0592                     _USBDeviceInit:	
  3974                           ;psect for function _USBDeviceInit
  3975                           
  3976  0592                     l3817:	
  3977                           ;incstack = 0
  3978                           ; Regs used in _USBDeviceInit: [wreg+fsr1l+fsr1h+status,2+status,0]
  3979                           
  3980                           
  3981                           ;lib/usb/usb_device.c: 283:     uint8_t i;;lib/usb/usb_device.c: 285:     {PIE2bits.USBI
      +                          E = 0;};
  3982  0592  0021               	movlb	1	; select bank1
  3983  0593  1112               	bcf	18,2	;volatile
  3984  0594                     l3819:
  3985                           
  3986                           ;lib/usb/usb_device.c: 292:     {UEIR = 0;};
  3987  0594  003D               	movlb	29	; select bank29
  3988  0595  0193               	clrf	19	;volatile
  3989                           
  3990                           ;lib/usb/usb_device.c: 295:     {UIR = 0;};
  3991  0596  0190               	clrf	16	;volatile
  3992                           
  3993                           ;lib/usb/usb_device.c: 298:     UEP0 = 0;
  3994  0597  0198               	clrf	24	;volatile
  3995  0598                     l3821:
  3996                           
  3997                           ;lib/usb/usb_device.c: 300:     { uint8_t i; uint8_t* p = (uint8_t*)&UEP1; for(i=0;i<3;i
      +                          ++) *p++ = 0; };
  3998  0598  300E               	movlw	14
  3999  0599  00F2               	movwf	USBDeviceInit@p+1
  4000  059A  3099               	movlw	153
  4001  059B  00F1               	movwf	USBDeviceInit@p
  4002  059C  01F3               	clrf	USBDeviceInit@i_722
  4003  059D                     l3827:
  4004  059D  0871               	movf	USBDeviceInit@p,w
  4005  059E  0086               	movwf	6
  4006  059F  0872               	movf	USBDeviceInit@p+1,w
  4007  05A0  0087               	movwf	7
  4008  05A1  0181               	clrf	1
  4009  05A2                     l3829:
  4010  05A2  3001               	movlw	1
  4011  05A3  07F1               	addwf	USBDeviceInit@p,f
  4012  05A4  3000               	movlw	0
  4013  05A5  3DF2               	addwfc	USBDeviceInit@p+1,f
  4014  05A6                     l3831:
  4015  05A6  3001               	movlw	1
  4016  05A7  00F0               	movwf	??_USBDeviceInit
  4017  05A8  0870               	movf	??_USBDeviceInit,w
  4018  05A9  07F3               	addwf	USBDeviceInit@i_722,f
  4019  05AA                     l3833:
  4020  05AA  3003               	movlw	3
  4021  05AB  0273               	subwf	USBDeviceInit@i_722,w
  4022  05AC  1C03               	skipc
  4023  05AD  2DAF               	goto	u2671
  4024  05AE  2DB0               	goto	u2670
  4025  05AF                     u2671:
  4026  05AF  2D9D               	goto	l3827
  4027  05B0                     u2670:
  4028  05B0                     l3835:
  4029                           
  4030                           ;lib/usb/usb_device.c: 302:     { UCFG = 0x10 | 0x00 | 0x04 | 0x02; UEIE = 0x9F; UIE = 0
      +                          x39 | 0x40 | 0x02; };
  4031  05B0  3016               	movlw	22
  4032  05B1  003D               	movlb	29	; select bank29
  4033  05B2  0091               	movwf	17	;volatile
  4034  05B3  309F               	movlw	159
  4035  05B4  0097               	movwf	23	;volatile
  4036  05B5  307B               	movlw	123
  4037  05B6  0092               	movwf	18	;volatile
  4038  05B7                     l3837:
  4039                           
  4040                           ;lib/usb/usb_device.c: 311:     for(i = 0; i < (sizeof(BDT)/sizeof(BDT_ENTRY)); i++)
  4041  05B7  01F4               	clrf	USBDeviceInit@i
  4042  05B8                     l3843:
  4043                           
  4044                           ;lib/usb/usb_device.c: 312:     {;lib/usb/usb_device.c: 313:         BDT[i].Val = 0x00;
  4045  05B8  0874               	movf	USBDeviceInit@i,w
  4046  05B9  00F0               	movwf	??_USBDeviceInit
  4047  05BA  3001               	movlw	1
  4048  05BB                     u2685:
  4049  05BB  35F0               	lslf	??_USBDeviceInit,f
  4050  05BC  3EFF               	addlw	-1
  4051  05BD  1D03               	skipz
  4052  05BE  2DBB               	goto	u2685
  4053  05BF  3570               	lslf	??_USBDeviceInit,w
  4054  05C0  3E20               	addlw	32
  4055  05C1  0086               	movwf	6
  4056  05C2  0187               	clrf	7
  4057  05C3  3000               	movlw	0
  4058  05C4  3FC0               	movwi [0]fsr1
  4059  05C5  3000               	movlw	0
  4060  05C6  3FC1               	movwi [1]fsr1
  4061  05C7  3FC2               	movwi [2]fsr1
  4062  05C8  3FC3               	movwi [3]fsr1
  4063  05C9                     l3845:
  4064                           
  4065                           ;lib/usb/usb_device.c: 314:     }
  4066  05C9  3001               	movlw	1
  4067  05CA  00F0               	movwf	??_USBDeviceInit
  4068  05CB  0870               	movf	??_USBDeviceInit,w
  4069  05CC  07F4               	addwf	USBDeviceInit@i,f
  4070  05CD                     l3847:
  4071  05CD  3010               	movlw	16
  4072  05CE  0274               	subwf	USBDeviceInit@i,w
  4073  05CF  1C03               	skipc
  4074  05D0  2DD2               	goto	u2691
  4075  05D1  2DD3               	goto	u2690
  4076  05D2                     u2691:
  4077  05D2  2DB8               	goto	l3843
  4078  05D3                     u2690:
  4079  05D3                     l156:
  4080                           
  4081                           ;lib/usb/usb_device.c: 317:     UCONbits.PPBRST = 1;
  4082  05D3  003D               	movlb	29	; select bank29
  4083  05D4  170E               	bsf	14,6	;volatile
  4084  05D5                     l3849:
  4085                           
  4086                           ;lib/usb/usb_device.c: 320:     UADDR = 0x00;
  4087  05D5  0196               	clrf	22	;volatile
  4088  05D6                     l3851:
  4089                           
  4090                           ;lib/usb/usb_device.c: 323:     UCONbits.PKTDIS = 0;
  4091  05D6  120E               	bcf	14,4	;volatile
  4092  05D7                     l3853:
  4093                           
  4094                           ;lib/usb/usb_device.c: 326:     UCONbits.PPBRST = 0;
  4095  05D7  130E               	bcf	14,6	;volatile
  4096  05D8                     l3855:
  4097                           
  4098                           ;lib/usb/usb_device.c: 330:     {;lib/usb/usb_device.c: 331:         (UIR &= 0xF7);
  4099  05D8  30F7               	movlw	247
  4100  05D9  00F0               	movwf	??_USBDeviceInit
  4101  05DA  0870               	movf	??_USBDeviceInit,w
  4102  05DB  0590               	andwf	16,f	;volatile
  4103  05DC                     l3857:
  4104                           
  4105                           ;lib/usb/usb_device.c: 333:         inPipes[0].info.Val = 0;
  4106  05DC  0021               	movlb	1	; select bank1
  4107  05DD  01BA               	clrf	(_inPipes^(0+128)+2)
  4108  05DE                     l3859:
  4109                           
  4110                           ;lib/usb/usb_device.c: 334:         outPipes[0].info.Val = 0;
  4111  05DE  0022               	movlb	2	; select bank2
  4112  05DF  01A2               	clrf	(_outPipes^(0+256)+2)
  4113  05E0                     l3861:
  4114                           
  4115                           ;lib/usb/usb_device.c: 335:         outPipes[0].wCount.Val = 0;
  4116  05E0  01A3               	clrf	(_outPipes^(0+256)+3)
  4117  05E1  01A4               	clrf	((_outPipes+1)^(0+256)+3)
  4118  05E2                     l3863:
  4119                           
  4120                           ;lib/usb/usb_device.c: 336:     }while(UIRbits.TRNIF == 1);
  4121  05E2  003D               	movlb	29	; select bank29
  4122  05E3  1990               	btfsc	16,3	;volatile
  4123  05E4  2DE6               	goto	u2701
  4124  05E5  2DE7               	goto	u2700
  4125  05E6                     u2701:
  4126  05E6  2DD8               	goto	l3855
  4127  05E7                     u2700:
  4128  05E7                     l3865:
  4129                           
  4130                           ;lib/usb/usb_device.c: 340:     USBStatusStageEnabledFlag1 = 1;
  4131  05E7  3001               	movlw	1
  4132  05E8  00F0               	movwf	??_USBDeviceInit
  4133  05E9  0870               	movf	??_USBDeviceInit,w
  4134  05EA  0021               	movlb	1	; select bank1
  4135  05EB  00C9               	movwf	_USBStatusStageEnabledFlag1^(0+128)	;volatile
  4136                           
  4137                           ;lib/usb/usb_device.c: 341:     USBStatusStageEnabledFlag2 = 1;
  4138  05EC  3001               	movlw	1
  4139  05ED  00F0               	movwf	??_USBDeviceInit
  4140  05EE  0870               	movf	??_USBDeviceInit,w
  4141  05EF  00C8               	movwf	_USBStatusStageEnabledFlag2^(0+128)	;volatile
  4142  05F0                     l3867:
  4143                           
  4144                           ;lib/usb/usb_device.c: 343:     USBDeferINDataStagePackets = 0;
  4145  05F0  01C7               	clrf	_USBDeferINDataStagePackets^(0+128)	;volatile
  4146  05F1                     l3869:
  4147                           
  4148                           ;lib/usb/usb_device.c: 344:     USBDeferOUTDataStagePackets = 0;
  4149  05F1  01C6               	clrf	_USBDeferOUTDataStagePackets^(0+128)	;volatile
  4150  05F2                     l3871:
  4151                           
  4152                           ;lib/usb/usb_device.c: 345:     USBBusIsSuspended = 0;
  4153  05F2  01CE               	clrf	_USBBusIsSuspended^(0+128)
  4154  05F3                     l3873:
  4155                           
  4156                           ;lib/usb/usb_device.c: 349:     for(i = 0; i < (uint8_t)(3 +1u); i++)
  4157  05F3  01F4               	clrf	USBDeviceInit@i
  4158  05F4                     l3877:
  4159                           
  4160                           ;lib/usb/usb_device.c: 350:     {;lib/usb/usb_device.c: 351:         pBDTEntryIn[i] = 0u
      +                          ;
  4161  05F4  3574               	lslf	USBDeviceInit@i,w
  4162  05F5  3EB0               	addlw	(low (_pBDTEntryIn| 0))& (0+255)
  4163  05F6  0086               	movwf	6
  4164  05F7  0187               	clrf	7
  4165  05F8  3000               	movlw	0
  4166  05F9  3FC0               	movwi [0]fsr1
  4167  05FA  3FC1               	movwi [1]fsr1
  4168                           
  4169                           ;lib/usb/usb_device.c: 352:         pBDTEntryOut[i] = 0u;
  4170  05FB  3574               	lslf	USBDeviceInit@i,w
  4171  05FC  3EA0               	addlw	(low (_pBDTEntryOut| (0+256)))& (0+255)
  4172  05FD  0086               	movwf	6
  4173  05FE  3001               	movlw	1	; select bank3/4
  4174  05FF  0087               	movwf	7
  4175  0600  3000               	movlw	0
  4176  0601  3FC0               	movwi [0]fsr1
  4177  0602  3FC1               	movwi [1]fsr1
  4178                           
  4179                           ;lib/usb/usb_device.c: 353:         ep_data_in[i].Val = 0u;
  4180  0603  0874               	movf	USBDeviceInit@i,w
  4181  0604  3EB0               	addlw	(low (_ep_data_in| (0+256)))& (0+255)
  4182  0605  0086               	movwf	6
  4183  0606  3001               	movlw	1	; select bank3/4
  4184  0607  0087               	movwf	7
  4185  0608  0181               	clrf	1
  4186                           
  4187                           ;lib/usb/usb_device.c: 354:         ep_data_out[i].Val = 0u;
  4188  0609  0874               	movf	USBDeviceInit@i,w
  4189  060A  3EAC               	addlw	(low (_ep_data_out| (0+256)))& (0+255)
  4190  060B  0086               	movwf	6
  4191  060C  3001               	movlw	1	; select bank3/4
  4192  060D  0087               	movwf	7
  4193  060E  0181               	clrf	1
  4194  060F                     l3879:
  4195                           
  4196                           ;lib/usb/usb_device.c: 355:     }
  4197  060F  3001               	movlw	1
  4198  0610  00F0               	movwf	??_USBDeviceInit
  4199  0611  0870               	movf	??_USBDeviceInit,w
  4200  0612  07F4               	addwf	USBDeviceInit@i,f
  4201  0613                     l3881:
  4202  0613  3004               	movlw	4
  4203  0614  0274               	subwf	USBDeviceInit@i,w
  4204  0615  1C03               	skipc
  4205  0616  2E18               	goto	u2711
  4206  0617  2E19               	goto	u2710
  4207  0618                     u2711:
  4208  0618  2DF4               	goto	l3877
  4209  0619                     u2710:
  4210  0619                     l3883:
  4211                           
  4212                           ;lib/usb/usb_device.c: 358:     pBDTEntryIn[0] = (volatile BDT_ENTRY*)&BDT[2];
  4213  0619  3028               	movlw	40
  4214  061A  0021               	movlb	1	; select bank1
  4215  061B  00B0               	movwf	_pBDTEntryIn^(0+128)
  4216  061C  3000               	movlw	0
  4217  061D  00B1               	movwf	(_pBDTEntryIn+1)^(0+128)
  4218  061E                     l3885:
  4219                           
  4220                           ;lib/usb/usb_device.c: 360:     UEP0 = 0x06|0x10;
  4221  061E  3016               	movlw	22
  4222  061F  003D               	movlb	29	; select bank29
  4223  0620  0098               	movwf	24	;volatile
  4224  0621                     l3887:
  4225                           
  4226                           ;lib/usb/usb_device.c: 362:     BDT[0].ADR = (((uint16_t)(&SetupPkt)) & 0x7FFF);
  4227  0621  3000               	movlw	0
  4228  0622  0020               	movlb	0	; select bank0
  4229  0623  00A3               	movwf	35	;volatile
  4230  0624  3060               	movlw	96
  4231  0625  00A2               	movwf	34	;volatile
  4232  0626                     l3889:
  4233                           
  4234                           ;lib/usb/usb_device.c: 363:     BDT[0].CNT = 8;
  4235  0626  3008               	movlw	8
  4236  0627  00A1               	movwf	33	;volatile
  4237  0628                     l3891:
  4238                           
  4239                           ;lib/usb/usb_device.c: 364:     BDT[0].STAT.Val = 0x00|0x04;
  4240  0628  3004               	movlw	4
  4241  0629  00F0               	movwf	??_USBDeviceInit
  4242  062A  0870               	movf	??_USBDeviceInit,w
  4243  062B  00A0               	movwf	32	;volatile
  4244  062C                     l3893:
  4245                           
  4246                           ;lib/usb/usb_device.c: 365:     BDT[0].STAT.Val |= 0x80;
  4247  062C  17A0               	bsf	32,7	;volatile
  4248  062D                     l3895:
  4249                           
  4250                           ;lib/usb/usb_device.c: 368:     USBActiveConfiguration = 0;
  4251  062D  0021               	movlb	1	; select bank1
  4252  062E  01D8               	clrf	_USBActiveConfiguration^(0+128)
  4253  062F                     l3897:
  4254                           
  4255                           ;lib/usb/usb_device.c: 370:     USB1msTickCount = 0;
  4256  062F  3000               	movlw	0
  4257  0630  0023               	movlb	3	; select bank3
  4258  0631  00AB               	movwf	(_USB1msTickCount+3)^(0+384)
  4259  0632  3000               	movlw	0
  4260  0633  00AA               	movwf	(_USB1msTickCount+2)^(0+384)
  4261  0634  3000               	movlw	0
  4262  0635  00A9               	movwf	(_USB1msTickCount+1)^(0+384)
  4263  0636  3000               	movlw	0
  4264  0637  00A8               	movwf	_USB1msTickCount^(0+384)
  4265  0638                     l3899:
  4266                           
  4267                           ;lib/usb/usb_device.c: 371:     USBTicksSinceSuspendEnd = 0;
  4268  0638  0021               	movlb	1	; select bank1
  4269  0639  01C5               	clrf	_USBTicksSinceSuspendEnd^(0+128)
  4270  063A                     l3901:
  4271                           
  4272                           ;lib/usb/usb_device.c: 374:     USBDeviceState = DETACHED_STATE;
  4273  063A  01D4               	clrf	_USBDeviceState^(0+128)
  4274  063B                     l161:
  4275  063B  0008               	return
  4276  063C                     __end_of_USBDeviceInit:
  4277                           
  4278                           	psect	text8
  4279  0B2C                     __ptext8:	
  4280 ;; *************** function _USBCtrlEPService *****************
  4281 ;; Defined at:
  4282 ;;		line 2379 in file "lib/usb/usb_device.c"
  4283 ;; Parameters:    Size  Location     Type
  4284 ;;		None
  4285 ;; Auto vars:     Size  Location     Type
  4286 ;;		None
  4287 ;; Return value:  Size  Location     Type
  4288 ;;                  1    wreg      void 
  4289 ;; Registers used:
  4290 ;;		wreg, fsr0l, fsr0h, fsr1l, fsr1h, status,2, status,0, pclath, cstack
  4291 ;; Tracked objects:
  4292 ;;		On entry : 0/0
  4293 ;;		On exit  : 0/0
  4294 ;;		Unchanged: 0/0
  4295 ;; Data sizes:     COMMON   BANK1   BANK2   BANK3   BANK4   BANK5   BANK6   BANK7   BANK8   BANK9  BANK10  BANK11  BANK1
      +2
  4296 ;;      Params:         0       0       0       0       0       0       0       0       0       0       0       0       
      +0
  4297 ;;      Locals:         0       0       0       0       0       0       0       0       0       0       0       0       
      +0
  4298 ;;      Temps:          0       2       0       0       0       0       0       0       0       0       0       0       
      +0
  4299 ;;      Totals:         0       2       0       0       0       0       0       0       0       0       0       0       
      +0
  4300 ;;Total ram usage:        2 bytes
  4301 ;; Hardware stack levels used: 1
  4302 ;; Hardware stack levels required when called: 8
  4303 ;; This function calls:
  4304 ;;		_USBCtrlTrfInHandler
  4305 ;;		_USBCtrlTrfOutHandler
  4306 ;;		_USBCtrlTrfSetupHandler
  4307 ;;		_memcpy
  4308 ;; This function is called by:
  4309 ;;		_USBDeviceTasks
  4310 ;; This function uses a non-reentrant model
  4311 ;;
  4312                           
  4313  0B2C                     _USBCtrlEPService:	
  4314                           ;psect for function _USBCtrlEPService
  4315                           
  4316  0B2C                     l4741:	
  4317                           ;incstack = 0
  4318                           ; Regs used in _USBCtrlEPService: [wreg-fsr1h+status,2+status,0+pclath+cstack]
  4319                           
  4320                           
  4321                           ;lib/usb/usb_device.c: 2385:         USBStatusStageTimeoutCounter = (uint8_t)45;
  4322  0B2C  302D               	movlw	45
  4323  0B2D  0021               	movlb	1	; select bank1
  4324  0B2E  00E9               	movwf	??_USBCtrlEPService^(0+128)
  4325  0B2F  0869               	movf	??_USBCtrlEPService^(0+128),w
  4326  0B30  00CB               	movwf	_USBStatusStageTimeoutCounter^(0+128)
  4327  0B31                     l4743:
  4328                           
  4329                           ;lib/usb/usb_device.c: 2389:     if((USTATcopy.Val & ~0x02) == 0x00)
  4330  0B31  0857               	movf	_USTATcopy^(0+128),w
  4331  0B32  39FD               	andlw	253
  4332  0B33  1D03               	btfss	3,2
  4333  0B34  2B36               	goto	u3501
  4334  0B35  2B37               	goto	u3500
  4335  0B36                     u3501:
  4336  0B36  2B73               	goto	l4759
  4337  0B37                     u3500:
  4338  0B37                     l4745:
  4339                           
  4340                           ;lib/usb/usb_device.c: 2390:     {;lib/usb/usb_device.c: 2393:             pBDTEntryEP0O
      +                          utCurrent = (volatile BDT_ENTRY*)&BDT[(USTATcopy.Val & 0x7E)>>1];
  4341  0B37  3657               	lsrf	_USTATcopy^(0+128),w
  4342  0B38  393F               	andlw	63
  4343  0B39  00E9               	movwf	??_USBCtrlEPService^(0+128)
  4344  0B3A  3001               	movlw	1
  4345  0B3B                     u3515:
  4346  0B3B  35E9               	lslf	??_USBCtrlEPService^(0+128),f
  4347  0B3C  3EFF               	addlw	-1
  4348  0B3D  1D03               	skipz
  4349  0B3E  2B3B               	goto	u3515
  4350  0B3F  3569               	lslf	??_USBCtrlEPService^(0+128),w
  4351  0B40  3E20               	addlw	32
  4352  0B41  00EA               	movwf	(??_USBCtrlEPService+1)^(0+128)
  4353  0B42  086A               	movf	(??_USBCtrlEPService+1)^(0+128),w
  4354  0B43  00D3               	movwf	_pBDTEntryEP0OutCurrent^(0+128)
  4355  0B44                     l4747:
  4356                           
  4357                           ;lib/usb/usb_device.c: 2401:         pBDTEntryEP0OutNext = pBDTEntryEP0OutCurrent;
  4358  0B44  0853               	movf	_pBDTEntryEP0OutCurrent^(0+128),w
  4359  0B45  00BF               	movwf	_pBDTEntryEP0OutNext^(0+128)
  4360  0B46  39FF               	andlw	255
  4361  0B47  1D03               	skipz
  4362  0B48  3000               	movlw	0
  4363  0B49  00C0               	movwf	(_pBDTEntryEP0OutNext+1)^(0+128)
  4364  0B4A                     l4749:
  4365                           
  4366                           ;lib/usb/usb_device.c: 2403:         pBDTEntryEP0OutNext = (volatile BDT_ENTRY*)(((uint1
      +                          6_t)pBDTEntryEP0OutNext) ^ 0x0004);
  4367  0B4A  3004               	movlw	4
  4368  0B4B  063F               	xorwf	_pBDTEntryEP0OutNext^(0+128),w
  4369  0B4C  00BF               	movwf	_pBDTEntryEP0OutNext^(0+128)
  4370  0B4D  3000               	movlw	0
  4371  0B4E  0640               	xorwf	(_pBDTEntryEP0OutNext+1)^(0+128),w
  4372  0B4F  00C0               	movwf	(_pBDTEntryEP0OutNext+1)^(0+128)
  4373  0B50                     l4751:
  4374                           
  4375                           ;lib/usb/usb_device.c: 2406:         if(pBDTEntryEP0OutCurrent->STAT.PID == 0xD)
  4376  0B50  0853               	movf	_pBDTEntryEP0OutCurrent^(0+128),w
  4377  0B51  0086               	movwf	6
  4378  0B52  0187               	clrf	7
  4379  0B53  0C01               	rrf	1,w
  4380  0B54  0C89               	rrf	9,f
  4381  0B55  390F               	andlw	15
  4382  0B56  3A0D               	xorlw	13
  4383  0B57  1D03               	skipz
  4384  0B58  2B5A               	goto	u3521
  4385  0B59  2B5B               	goto	u3520
  4386  0B5A                     u3521:
  4387  0B5A  2B6F               	goto	l4757
  4388  0B5B                     u3520:
  4389  0B5B                     l4753:
  4390                           
  4391                           ;lib/usb/usb_device.c: 2407:         {;lib/usb/usb_device.c: 2412:             memcpy((u
      +                          int8_t*)&SetupPkt, (uint8_t*)((void *)(pBDTEntryEP0OutCurrent->ADR)), 8);
  4392  0B5B  0853               	movf	_pBDTEntryEP0OutCurrent^(0+128),w
  4393  0B5C  3E02               	addlw	2
  4394  0B5D  0086               	movwf	6
  4395  0B5E  0187               	clrf	7
  4396  0B5F  3F40               	moviw [0]fsr1
  4397  0B60  00F0               	movwf	memcpy@s1
  4398  0B61  3F41               	moviw [1]fsr1
  4399  0B62  00F1               	movwf	memcpy@s1+1
  4400  0B63  3008               	movlw	8
  4401  0B64  00F2               	movwf	memcpy@n
  4402  0B65  3000               	movlw	0
  4403  0B66  00F3               	movwf	memcpy@n+1
  4404  0B67  3060               	movlw	96
  4405  0B68  3189  21B7  318B   	fcall	_memcpy
  4406  0B6B                     l4755:
  4407                           
  4408                           ;lib/usb/usb_device.c: 2415:             USBCtrlTrfSetupHandler();
  4409  0B6B  318A  22E4  318B   	fcall	_USBCtrlTrfSetupHandler
  4410                           
  4411                           ;lib/usb/usb_device.c: 2416:         }
  4412  0B6E  2B7F               	goto	l333
  4413  0B6F                     l4757:
  4414                           
  4415                           ;lib/usb/usb_device.c: 2418:         {;lib/usb/usb_device.c: 2420:             USBCtrlTr
      +                          fOutHandler();
  4416  0B6F  3189  21E5  318B   	fcall	_USBCtrlTrfOutHandler
  4417  0B72  2B7F               	goto	l333
  4418  0B73                     l4759:
  4419  0B73  30FD               	movlw	253
  4420  0B74  0557               	andwf	_USTATcopy^(0+128),w
  4421  0B75  00E9               	movwf	??_USBCtrlEPService^(0+128)
  4422  0B76  3004               	movlw	4
  4423  0B77  0669               	xorwf	??_USBCtrlEPService^(0+128),w
  4424  0B78  1D03               	btfss	3,2
  4425  0B79  2B7B               	goto	u3531
  4426  0B7A  2B7C               	goto	u3530
  4427  0B7B                     u3531:
  4428  0B7B  2B7F               	goto	l333
  4429  0B7C                     u3530:
  4430  0B7C                     l4761:
  4431                           
  4432                           ;lib/usb/usb_device.c: 2424:     {;lib/usb/usb_device.c: 2427:         USBCtrlTrfInHandl
      +                          er();
  4433  0B7C  318D  25F6  318B   	fcall	_USBCtrlTrfInHandler
  4434  0B7F                     l333:
  4435  0B7F  0008               	return
  4436  0B80                     __end_of_USBCtrlEPService:
  4437                           
  4438                           	psect	text9
  4439  09B7                     __ptext9:	
  4440 ;; *************** function _memcpy *****************
  4441 ;; Defined at:
  4442 ;;		line 4 in file "E:\Atmel Studio\Comp-istall\pic\sources\c99\common\memcpy.c"
  4443 ;; Parameters:    Size  Location     Type
  4444 ;;  d1              1    wreg     PTR void 
  4445 ;;		 -> SetupPkt(8), 
  4446 ;;  s1              2    0[COMMON] PTR const void 
  4447 ;;		 -> CtrlTrfData(8), RAM(4096), SetupPkt(8), 
  4448 ;;  n               2    2[COMMON] unsigned int 
  4449 ;; Auto vars:     Size  Location     Type
  4450 ;;  d1              1    8[COMMON] PTR void 
  4451 ;;		 -> SetupPkt(8), 
  4452 ;;  s               2    5[COMMON] PTR const unsigned char 
  4453 ;;		 -> CtrlTrfData(8), RAM(4096), SetupPkt(8), 
  4454 ;;  d               1    9[COMMON] PTR unsigned char 
  4455 ;;		 -> SetupPkt(8), 
  4456 ;;  tmp             1    7[COMMON] unsigned char 
  4457 ;; Return value:  Size  Location     Type
  4458 ;;                  1    wreg      PTR void 
  4459 ;; Registers used:
  4460 ;;		wreg, fsr1l, fsr1h, status,2, status,0
  4461 ;; Tracked objects:
  4462 ;;		On entry : 0/0
  4463 ;;		On exit  : 0/0
  4464 ;;		Unchanged: 0/0
  4465 ;; Data sizes:     COMMON   BANK1   BANK2   BANK3   BANK4   BANK5   BANK6   BANK7   BANK8   BANK9  BANK10  BANK11  BANK1
      +2
  4466 ;;      Params:         4       0       0       0       0       0       0       0       0       0       0       0       
      +0
  4467 ;;      Locals:         5       0       0       0       0       0       0       0       0       0       0       0       
      +0
  4468 ;;      Temps:          1       0       0       0       0       0       0       0       0       0       0       0       
      +0
  4469 ;;      Totals:        10       0       0       0       0       0       0       0       0       0       0       0       
      +0
  4470 ;;Total ram usage:       10 bytes
  4471 ;; Hardware stack levels used: 1
  4472 ;; Hardware stack levels required when called: 1
  4473 ;; This function calls:
  4474 ;;		Nothing
  4475 ;; This function is called by:
  4476 ;;		_USBCtrlEPService
  4477 ;; This function uses a non-reentrant model
  4478 ;;
  4479                           
  4480  09B7                     _memcpy:	
  4481                           ;psect for function _memcpy
  4482                           
  4483                           
  4484                           ;incstack = 0
  4485                           ; Regs used in _memcpy: [wreg+fsr1l+fsr1h+status,2+status,0]
  4486                           ;memcpy@d1 stored from wreg
  4487  09B7  00F8               	movwf	memcpy@d1
  4488  09B8                     l3727:
  4489  09B8  0871               	movf	memcpy@s1+1,w
  4490  09B9  00F6               	movwf	memcpy@s+1
  4491  09BA  0870               	movf	memcpy@s1,w
  4492  09BB  00F5               	movwf	memcpy@s
  4493  09BC  0878               	movf	memcpy@d1,w
  4494  09BD  00F4               	movwf	??_memcpy
  4495  09BE  0874               	movf	??_memcpy,w
  4496  09BF  00F9               	movwf	memcpy@d
  4497  09C0  29D8               	goto	l3737
  4498  09C1                     l3729:
  4499  09C1  0875               	movf	memcpy@s,w
  4500  09C2  0086               	movwf	6
  4501  09C3  0876               	movf	memcpy@s+1,w
  4502  09C4  0087               	movwf	7
  4503  09C5  0801               	movf	1,w
  4504  09C6  00F4               	movwf	??_memcpy
  4505  09C7  0874               	movf	??_memcpy,w
  4506  09C8  00F7               	movwf	memcpy@tmp
  4507  09C9                     l3731:
  4508  09C9  3001               	movlw	1
  4509  09CA  07F5               	addwf	memcpy@s,f
  4510  09CB  3000               	movlw	0
  4511  09CC  3DF6               	addwfc	memcpy@s+1,f
  4512  09CD                     l3733:
  4513  09CD  0877               	movf	memcpy@tmp,w
  4514  09CE  00F4               	movwf	??_memcpy
  4515  09CF  0879               	movf	memcpy@d,w
  4516  09D0  0086               	movwf	6
  4517  09D1  0187               	clrf	7
  4518  09D2  0874               	movf	??_memcpy,w
  4519  09D3  0081               	movwf	1
  4520  09D4                     l3735:
  4521  09D4  3001               	movlw	1
  4522  09D5  00F4               	movwf	??_memcpy
  4523  09D6  0874               	movf	??_memcpy,w
  4524  09D7  07F9               	addwf	memcpy@d,f
  4525  09D8                     l3737:
  4526  09D8  3001               	movlw	1
  4527  09D9  02F2               	subwf	memcpy@n,f
  4528  09DA  3000               	movlw	0
  4529  09DB  3BF3               	subwfb	memcpy@n+1,f
  4530  09DC  0A72               	incf	memcpy@n,w
  4531  09DD  1D03               	skipz
  4532  09DE  29E3               	goto	u2581
  4533  09DF  0A73               	incf	memcpy@n+1,w
  4534  09E0  1D03               	btfss	3,2
  4535  09E1  29E3               	goto	u2581
  4536  09E2  29E4               	goto	u2580
  4537  09E3                     u2581:
  4538  09E3  29C1               	goto	l3729
  4539  09E4                     u2580:
  4540  09E4                     l1313:
  4541  09E4  0008               	return
  4542  09E5                     __end_of_memcpy:
  4543                           
  4544                           	psect	text10
  4545  0AE4                     __ptext10:	
  4546 ;; *************** function _USBCtrlTrfSetupHandler *****************
  4547 ;; Defined at:
  4548 ;;		line 2472 in file "lib/usb/usb_device.c"
  4549 ;; Parameters:    Size  Location     Type
  4550 ;;		None
  4551 ;; Auto vars:     Size  Location     Type
  4552 ;;		None
  4553 ;; Return value:  Size  Location     Type
  4554 ;;                  1    wreg      void 
  4555 ;; Registers used:
  4556 ;;		wreg, fsr0l, fsr0h, fsr1l, fsr1h, status,2, status,0, pclath, cstack
  4557 ;; Tracked objects:
  4558 ;;		On entry : 0/0
  4559 ;;		On exit  : 0/0
  4560 ;;		Unchanged: 0/0
  4561 ;; Data sizes:     COMMON   BANK1   BANK2   BANK3   BANK4   BANK5   BANK6   BANK7   BANK8   BANK9  BANK10  BANK11  BANK1
      +2
  4562 ;;      Params:         0       0       0       0       0       0       0       0       0       0       0       0       
      +0
  4563 ;;      Locals:         0       0       0       0       0       0       0       0       0       0       0       0       
      +0
  4564 ;;      Temps:          0       1       0       0       0       0       0       0       0       0       0       0       
      +0
  4565 ;;      Totals:         0       1       0       0       0       0       0       0       0       0       0       0       
      +0
  4566 ;;Total ram usage:        1 bytes
  4567 ;; Hardware stack levels used: 1
  4568 ;; Hardware stack levels required when called: 7
  4569 ;; This function calls:
  4570 ;;		_USBCheckStdRequest
  4571 ;;		_USBCtrlEPServiceComplete
  4572 ;;		_USER_USB_CALLBACK_EVENT_HANDLER
  4573 ;; This function is called by:
  4574 ;;		_USBCtrlEPService
  4575 ;; This function uses a non-reentrant model
  4576 ;;
  4577                           
  4578  0AE4                     _USBCtrlTrfSetupHandler:	
  4579                           ;psect for function _USBCtrlTrfSetupHandler
  4580                           
  4581  0AE4                     l4715:	
  4582                           ;incstack = 0
  4583                           ; Regs used in _USBCtrlTrfSetupHandler: [wreg-fsr1h+status,2+status,0+pclath+cstack]
  4584                           
  4585                           
  4586                           ;lib/usb/usb_device.c: 2477:     shortPacketStatus = 0;
  4587  0AE4  0021               	movlb	1	; select bank1
  4588  0AE5  01D2               	clrf	_shortPacketStatus^(0+128)
  4589                           
  4590                           ;lib/usb/usb_device.c: 2478:     USBDeferStatusStagePacket = 0;
  4591  0AE6  01CA               	clrf	_USBDeferStatusStagePacket^(0+128)	;volatile
  4592                           
  4593                           ;lib/usb/usb_device.c: 2479:     USBDeferINDataStagePackets = 0;
  4594  0AE7  01C7               	clrf	_USBDeferINDataStagePackets^(0+128)	;volatile
  4595                           
  4596                           ;lib/usb/usb_device.c: 2480:     USBDeferOUTDataStagePackets = 0;
  4597  0AE8  01C6               	clrf	_USBDeferOUTDataStagePackets^(0+128)	;volatile
  4598                           
  4599                           ;lib/usb/usb_device.c: 2481:     BothEP0OutUOWNsSet = 0;
  4600  0AE9  01CC               	clrf	_BothEP0OutUOWNsSet^(0+128)
  4601                           
  4602                           ;lib/usb/usb_device.c: 2482:     controlTransferState = 0;
  4603  0AEA  01D1               	clrf	_controlTransferState^(0+128)
  4604  0AEB                     l4717:
  4605                           
  4606                           ;lib/usb/usb_device.c: 2491:     pBDTEntryIn[0]->STAT.Val &= ~(0x80);
  4607  0AEB  307F               	movlw	127
  4608  0AEC  00E8               	movwf	??_USBCtrlTrfSetupHandler^(0+128)
  4609  0AED  0830               	movf	_pBDTEntryIn^(0+128),w
  4610  0AEE  0086               	movwf	6
  4611  0AEF  0831               	movf	(_pBDTEntryIn+1)^(0+128),w
  4612  0AF0  0087               	movwf	7
  4613  0AF1  0868               	movf	??_USBCtrlTrfSetupHandler^(0+128),w
  4614  0AF2  0581               	andwf	1,f
  4615  0AF3                     l4719:
  4616                           
  4617                           ;lib/usb/usb_device.c: 2493:     pBDTEntryIn[0] = (volatile BDT_ENTRY*)(((uint16_t)pBDTE
      +                          ntryIn[0]) ^ 0x0004);
  4618  0AF3  3004               	movlw	4
  4619  0AF4  0630               	xorwf	_pBDTEntryIn^(0+128),w
  4620  0AF5  00B0               	movwf	_pBDTEntryIn^(0+128)
  4621  0AF6  3000               	movlw	0
  4622  0AF7  0631               	xorwf	(_pBDTEntryIn+1)^(0+128),w
  4623  0AF8  00B1               	movwf	(_pBDTEntryIn+1)^(0+128)
  4624  0AF9                     l4721:
  4625                           
  4626                           ;lib/usb/usb_device.c: 2494:     pBDTEntryIn[0]->STAT.Val &= ~(0x80);
  4627  0AF9  307F               	movlw	127
  4628  0AFA  00E8               	movwf	??_USBCtrlTrfSetupHandler^(0+128)
  4629  0AFB  0830               	movf	_pBDTEntryIn^(0+128),w
  4630  0AFC  0086               	movwf	6
  4631  0AFD  0831               	movf	(_pBDTEntryIn+1)^(0+128),w
  4632  0AFE  0087               	movwf	7
  4633  0AFF  0868               	movf	??_USBCtrlTrfSetupHandler^(0+128),w
  4634  0B00  0581               	andwf	1,f
  4635  0B01                     l4723:
  4636                           
  4637                           ;lib/usb/usb_device.c: 2495:     pBDTEntryIn[0] = (volatile BDT_ENTRY*)(((uint16_t)pBDTE
      +                          ntryIn[0]) ^ 0x0004);
  4638  0B01  3004               	movlw	4
  4639  0B02  0630               	xorwf	_pBDTEntryIn^(0+128),w
  4640  0B03  00B0               	movwf	_pBDTEntryIn^(0+128)
  4641  0B04  3000               	movlw	0
  4642  0B05  0631               	xorwf	(_pBDTEntryIn+1)^(0+128),w
  4643  0B06  00B1               	movwf	(_pBDTEntryIn+1)^(0+128)
  4644  0B07                     l4725:
  4645                           
  4646                           ;lib/usb/usb_device.c: 2496:     pBDTEntryEP0OutNext->STAT.Val &= ~(0x80);
  4647  0B07  307F               	movlw	127
  4648  0B08  00E8               	movwf	??_USBCtrlTrfSetupHandler^(0+128)
  4649  0B09  083F               	movf	_pBDTEntryEP0OutNext^(0+128),w
  4650  0B0A  0086               	movwf	6
  4651  0B0B  0840               	movf	(_pBDTEntryEP0OutNext+1)^(0+128),w
  4652  0B0C  0087               	movwf	7
  4653  0B0D  0868               	movf	??_USBCtrlTrfSetupHandler^(0+128),w
  4654  0B0E  0581               	andwf	1,f
  4655  0B0F                     l4727:
  4656                           
  4657                           ;lib/usb/usb_device.c: 2498:     inPipes[0].info.Val = 0;
  4658  0B0F  01BA               	clrf	(_inPipes^(0+128)+2)
  4659  0B10                     l4729:
  4660                           
  4661                           ;lib/usb/usb_device.c: 2499:     inPipes[0].wCount.Val = 0;
  4662  0B10  01BB               	clrf	(_inPipes^(0+128)+3)
  4663  0B11  01BC               	clrf	((_inPipes+1)^(0+128)+3)
  4664  0B12                     l4731:
  4665                           
  4666                           ;lib/usb/usb_device.c: 2500:     outPipes[0].info.Val = 0;
  4667  0B12  0022               	movlb	2	; select bank2
  4668  0B13  01A2               	clrf	(_outPipes^(0+256)+2)
  4669  0B14                     l4733:
  4670                           
  4671                           ;lib/usb/usb_device.c: 2501:     outPipes[0].wCount.Val = 0;
  4672  0B14  01A3               	clrf	(_outPipes^(0+256)+3)
  4673  0B15  01A4               	clrf	((_outPipes+1)^(0+256)+3)
  4674  0B16                     l4735:
  4675                           
  4676                           ;lib/usb/usb_device.c: 2507:     USBCheckStdRequest();
  4677  0B16  3187  2782  318A   	fcall	_USBCheckStdRequest
  4678  0B19                     l4737:
  4679                           
  4680                           ;lib/usb/usb_device.c: 2508:     USER_USB_CALLBACK_EVENT_HANDLER((USB_EVENT)EVENT_EP0_RE
      +                          QUEST,0,0);
  4681  0B19  3003               	movlw	3
  4682  0B1A  0021               	movlb	1	; select bank1
  4683  0B1B  00D9               	movwf	USER_USB_CALLBACK_EVENT_HANDLER@event^(0+128)
  4684  0B1C  3000               	movlw	0
  4685  0B1D  00DA               	movwf	(USER_USB_CALLBACK_EVENT_HANDLER@event^(0+128)+1)
  4686  0B1E  3000               	movlw	0
  4687  0B1F  00DB               	movwf	USER_USB_CALLBACK_EVENT_HANDLER@pdata^(0+128)
  4688  0B20  3000               	movlw	0
  4689  0B21  00DC               	movwf	(USER_USB_CALLBACK_EVENT_HANDLER@pdata+1)^(0+128)
  4690  0B22  3000               	movlw	0
  4691  0B23  00DD               	movwf	USER_USB_CALLBACK_EVENT_HANDLER@size^(0+128)
  4692  0B24  00DE               	movwf	(USER_USB_CALLBACK_EVENT_HANDLER@size+1)^(0+128)
  4693  0B25  318A  229E  318A   	fcall	_USER_USB_CALLBACK_EVENT_HANDLER
  4694  0B28                     l4739:
  4695                           
  4696                           ;lib/usb/usb_device.c: 2521:     USBCtrlEPServiceComplete();
  4697  0B28  3186  26E6  318A   	fcall	_USBCtrlEPServiceComplete
  4698  0B2B                     l336:
  4699  0B2B  0008               	return
  4700  0B2C                     __end_of_USBCtrlTrfSetupHandler:
  4701                           
  4702                           	psect	text11
  4703  06E6                     __ptext11:	
  4704 ;; *************** function _USBCtrlEPServiceComplete *****************
  4705 ;; Defined at:
  4706 ;;		line 1620 in file "lib/usb/usb_device.c"
  4707 ;; Parameters:    Size  Location     Type
  4708 ;;		None
  4709 ;; Auto vars:     Size  Location     Type
  4710 ;;		None
  4711 ;; Return value:  Size  Location     Type
  4712 ;;                  1    wreg      void 
  4713 ;; Registers used:
  4714 ;;		wreg, fsr0l, fsr0h, fsr1l, fsr1h, status,2, status,0, pclath, cstack
  4715 ;; Tracked objects:
  4716 ;;		On entry : 0/0
  4717 ;;		On exit  : 0/0
  4718 ;;		Unchanged: 0/0
  4719 ;; Data sizes:     COMMON   BANK1   BANK2   BANK3   BANK4   BANK5   BANK6   BANK7   BANK8   BANK9  BANK10  BANK11  BANK1
      +2
  4720 ;;      Params:         0       0       0       0       0       0       0       0       0       0       0       0       
      +0
  4721 ;;      Locals:         0       0       0       0       0       0       0       0       0       0       0       0       
      +0
  4722 ;;      Temps:          2       0       0       0       0       0       0       0       0       0       0       0       
      +0
  4723 ;;      Totals:         2       0       0       0       0       0       0       0       0       0       0       0       
      +0
  4724 ;;Total ram usage:        2 bytes
  4725 ;; Hardware stack levels used: 1
  4726 ;; Hardware stack levels required when called: 3
  4727 ;; This function calls:
  4728 ;;		_USBCtrlEPAllowDataStage
  4729 ;;		_USBCtrlEPAllowStatusStage
  4730 ;; This function is called by:
  4731 ;;		_USBCtrlTrfSetupHandler
  4732 ;; This function uses a non-reentrant model
  4733 ;;
  4734                           
  4735  06E6                     _USBCtrlEPServiceComplete:	
  4736                           ;psect for function _USBCtrlEPServiceComplete
  4737                           
  4738  06E6                     l3585:	
  4739                           ;incstack = 0
  4740                           ; Regs used in _USBCtrlEPServiceComplete: [wreg-fsr1h+status,2+status,0+pclath+cstack]
  4741                           
  4742                           
  4743                           ;lib/usb/usb_device.c: 1626:     UCONbits.PKTDIS = 0;
  4744  06E6  003D               	movlb	29	; select bank29
  4745  06E7  120E               	bcf	14,4	;volatile
  4746                           
  4747                           ;lib/usb/usb_device.c: 1632:     if(inPipes[0].info.bits.busy == 0)
  4748  06E8  0021               	movlb	1	; select bank1
  4749  06E9  1BBA               	btfsc	(_inPipes^(0+128)+2),7
  4750  06EA  2EEC               	goto	u2451
  4751  06EB  2EED               	goto	u2450
  4752  06EC                     u2451:
  4753  06EC  2F34               	goto	l235
  4754  06ED                     u2450:
  4755  06ED                     l3587:
  4756                           
  4757                           ;lib/usb/usb_device.c: 1633:     {;lib/usb/usb_device.c: 1634:         if(outPipes[0].in
      +                          fo.bits.busy == 1)
  4758  06ED  0022               	movlb	2	; select bank2
  4759  06EE  1FA2               	btfss	(_outPipes^(0+256)+2),7
  4760  06EF  2EF1               	goto	u2461
  4761  06F0  2EF2               	goto	u2460
  4762  06F1                     u2461:
  4763  06F1  2F03               	goto	l3599
  4764  06F2                     u2460:
  4765  06F2                     l3589:
  4766                           
  4767                           ;lib/usb/usb_device.c: 1635:         {;lib/usb/usb_device.c: 1636:             controlTr
      +                          ansferState = 2;
  4768  06F2  3002               	movlw	2
  4769  06F3  00F5               	movwf	??_USBCtrlEPServiceComplete
  4770  06F4  0875               	movf	??_USBCtrlEPServiceComplete,w
  4771  06F5  0021               	movlb	1	; select bank1
  4772  06F6  00D1               	movwf	_controlTransferState^(0+128)
  4773  06F7                     l3591:
  4774                           
  4775                           ;lib/usb/usb_device.c: 1647:             if(USBDeferOUTDataStagePackets == 0)
  4776  06F7  0846               	movf	_USBDeferOUTDataStagePackets^(0+128),w	;volatile
  4777  06F8  1D03               	btfss	3,2
  4778  06F9  2EFB               	goto	u2471
  4779  06FA  2EFC               	goto	u2470
  4780  06FB                     u2471:
  4781  06FB  2EFF               	goto	l3595
  4782  06FC                     u2470:
  4783  06FC                     l3593:
  4784                           
  4785                           ;lib/usb/usb_device.c: 1648:             {;lib/usb/usb_device.c: 1649:                 U
      +                          SBCtrlEPAllowDataStage();
  4786  06FC  318B  2380  3186   	fcall	_USBCtrlEPAllowDataStage
  4787  06FF                     l3595:
  4788                           
  4789                           ;lib/usb/usb_device.c: 1654:             USBStatusStageEnabledFlag2 = 0;
  4790  06FF  0021               	movlb	1	; select bank1
  4791  0700  01C8               	clrf	_USBStatusStageEnabledFlag2^(0+128)	;volatile
  4792  0701                     l3597:
  4793                           
  4794                           ;lib/usb/usb_device.c: 1655:             USBStatusStageEnabledFlag1 = 0;
  4795  0701  01C9               	clrf	_USBStatusStageEnabledFlag1^(0+128)	;volatile
  4796                           
  4797                           ;lib/usb/usb_device.c: 1656:         }
  4798  0702  2F81               	goto	l245
  4799  0703                     l3599:
  4800                           
  4801                           ;lib/usb/usb_device.c: 1658:         {;lib/usb/usb_device.c: 1663:             pBDTEntry
      +                          EP0OutNext->CNT = 8;
  4802  0703  0021               	movlb	1	; select bank1
  4803  0704  083F               	movf	_pBDTEntryEP0OutNext^(0+128),w
  4804  0705  3E01               	addlw	1
  4805  0706  00F5               	movwf	??_USBCtrlEPServiceComplete
  4806  0707  3000               	movlw	0
  4807  0708  3D40               	addwfc	(_pBDTEntryEP0OutNext+1)^(0+128),w
  4808  0709  00F6               	movwf	??_USBCtrlEPServiceComplete+1
  4809  070A  0875               	movf	??_USBCtrlEPServiceComplete,w
  4810  070B  0086               	movwf	6
  4811  070C  0876               	movf	??_USBCtrlEPServiceComplete+1,w
  4812  070D  0087               	movwf	7
  4813  070E  3008               	movlw	8
  4814  070F  0081               	movwf	1
  4815  0710                     l3601:
  4816                           
  4817                           ;lib/usb/usb_device.c: 1664:             pBDTEntryEP0OutNext->ADR = (((uint16_t)(&SetupP
      +                          kt)) & 0x7FFF);
  4818  0710  3060               	movlw	96
  4819  0711  00F5               	movwf	??_USBCtrlEPServiceComplete
  4820  0712  3000               	movlw	0
  4821  0713  00F6               	movwf	??_USBCtrlEPServiceComplete+1
  4822  0714  083F               	movf	_pBDTEntryEP0OutNext^(0+128),w
  4823  0715  0086               	movwf	6
  4824  0716  0840               	movf	(_pBDTEntryEP0OutNext+1)^(0+128),w
  4825  0717  0087               	movwf	7
  4826  0718  3142               	addfsr 1,2
  4827  0719  0875               	movf	??_USBCtrlEPServiceComplete,w
  4828  071A  3FC0               	movwi [0]fsr1
  4829  071B  0876               	movf	??_USBCtrlEPServiceComplete+1,w
  4830  071C  3FC1               	movwi [1]fsr1
  4831  071D                     l3603:
  4832                           
  4833                           ;lib/usb/usb_device.c: 1665:             pBDTEntryEP0OutNext->STAT.Val = 0x00|(0x08 & 0x
      +                          08)|0x04;
  4834  071D  083F               	movf	_pBDTEntryEP0OutNext^(0+128),w
  4835  071E  0086               	movwf	6
  4836  071F  0840               	movf	(_pBDTEntryEP0OutNext+1)^(0+128),w
  4837  0720  0087               	movwf	7
  4838  0721  300C               	movlw	12
  4839  0722  0081               	movwf	1
  4840  0723                     l3605:
  4841                           
  4842                           ;lib/usb/usb_device.c: 1666:             pBDTEntryEP0OutNext->STAT.Val |= 0x80;
  4843  0723  083F               	movf	_pBDTEntryEP0OutNext^(0+128),w
  4844  0724  0086               	movwf	6
  4845  0725  0840               	movf	(_pBDTEntryEP0OutNext+1)^(0+128),w
  4846  0726  0087               	movwf	7
  4847  0727  1781               	bsf	1,7
  4848  0728                     l3607:
  4849                           
  4850                           ;lib/usb/usb_device.c: 1667:             pBDTEntryIn[0]->STAT.Val = 0x04;
  4851  0728  0830               	movf	_pBDTEntryIn^(0+128),w
  4852  0729  0086               	movwf	6
  4853  072A  0831               	movf	(_pBDTEntryIn+1)^(0+128),w
  4854  072B  0087               	movwf	7
  4855  072C  3004               	movlw	4
  4856  072D  0081               	movwf	1
  4857  072E                     l3609:
  4858                           
  4859                           ;lib/usb/usb_device.c: 1668:             pBDTEntryIn[0]->STAT.Val |= 0x80;
  4860  072E  0830               	movf	_pBDTEntryIn^(0+128),w
  4861  072F  0086               	movwf	6
  4862  0730  0831               	movf	(_pBDTEntryIn+1)^(0+128),w
  4863  0731  0087               	movwf	7
  4864  0732  1781               	bsf	1,7
  4865  0733  2F81               	goto	l245
  4866  0734                     l235:	
  4867                           ;lib/usb/usb_device.c: 1671:     else
  4868                           
  4869                           
  4870                           ;lib/usb/usb_device.c: 1672:     {;lib/usb/usb_device.c: 1673:   if(SetupPkt.DataDir == 
      +                          (0x80>>7))
  4871  0734  0020               	movlb	0	; select bank0
  4872  0735  1FE0               	btfss	96,7	;volatile
  4873  0736  2F38               	goto	u2481
  4874  0737  2F39               	goto	u2480
  4875  0738                     u2481:
  4876  0738  2F50               	goto	l3625
  4877  0739                     u2480:
  4878  0739                     l3611:
  4879                           
  4880                           ;lib/usb/usb_device.c: 1674:   {;lib/usb/usb_device.c: 1675:    controlTransferState = 1
      +                          ;
  4881  0739  0021               	movlb	1	; select bank1
  4882  073A  01D1               	clrf	_controlTransferState^(0+128)
  4883  073B  0AD1               	incf	_controlTransferState^(0+128),f
  4884  073C                     l3613:
  4885                           
  4886                           ;lib/usb/usb_device.c: 1689:    if(USBDeferINDataStagePackets == 0)
  4887  073C  0847               	movf	_USBDeferINDataStagePackets^(0+128),w	;volatile
  4888  073D  1D03               	btfss	3,2
  4889  073E  2F40               	goto	u2491
  4890  073F  2F41               	goto	u2490
  4891  0740                     u2491:
  4892  0740  2F44               	goto	l3617
  4893  0741                     u2490:
  4894  0741                     l3615:
  4895                           
  4896                           ;lib/usb/usb_device.c: 1690:             {;lib/usb/usb_device.c: 1691:                 U
      +                          SBCtrlEPAllowDataStage();
  4897  0741  318B  2380  3186   	fcall	_USBCtrlEPAllowDataStage
  4898  0744                     l3617:
  4899                           
  4900                           ;lib/usb/usb_device.c: 1714:             USBStatusStageEnabledFlag2 = 0;
  4901  0744  0021               	movlb	1	; select bank1
  4902  0745  01C8               	clrf	_USBStatusStageEnabledFlag2^(0+128)	;volatile
  4903  0746                     l3619:
  4904                           
  4905                           ;lib/usb/usb_device.c: 1715:             USBStatusStageEnabledFlag1 = 0;
  4906  0746  01C9               	clrf	_USBStatusStageEnabledFlag1^(0+128)	;volatile
  4907  0747                     l3621:
  4908                           
  4909                           ;lib/usb/usb_device.c: 1716:             if(USBDeferStatusStagePacket == 0)
  4910  0747  084A               	movf	_USBDeferStatusStagePacket^(0+128),w	;volatile
  4911  0748  1D03               	btfss	3,2
  4912  0749  2F4B               	goto	u2501
  4913  074A  2F4C               	goto	u2500
  4914  074B                     u2501:
  4915  074B  2F81               	goto	l245
  4916  074C                     u2500:
  4917  074C                     l3623:
  4918                           
  4919                           ;lib/usb/usb_device.c: 1717:             {;lib/usb/usb_device.c: 1718:                 U
      +                          SBCtrlEPAllowStatusStage();
  4920  074C  318D  250F  3186   	fcall	_USBCtrlEPAllowStatusStage
  4921  074F  2F81               	goto	l245
  4922  0750                     l3625:
  4923                           
  4924                           ;lib/usb/usb_device.c: 1722:   {;lib/usb/usb_device.c: 1733:    controlTransferState = 2
      +                          ;
  4925  0750  3002               	movlw	2
  4926  0751  00F5               	movwf	??_USBCtrlEPServiceComplete
  4927  0752  0875               	movf	??_USBCtrlEPServiceComplete,w
  4928  0753  0021               	movlb	1	; select bank1
  4929  0754  00D1               	movwf	_controlTransferState^(0+128)
  4930  0755                     l3627:
  4931                           
  4932                           ;lib/usb/usb_device.c: 1736:    pBDTEntryEP0OutNext->CNT = 8;
  4933  0755  083F               	movf	_pBDTEntryEP0OutNext^(0+128),w
  4934  0756  3E01               	addlw	1
  4935  0757  00F5               	movwf	??_USBCtrlEPServiceComplete
  4936  0758  3000               	movlw	0
  4937  0759  3D40               	addwfc	(_pBDTEntryEP0OutNext+1)^(0+128),w
  4938  075A  00F6               	movwf	??_USBCtrlEPServiceComplete+1
  4939  075B  0875               	movf	??_USBCtrlEPServiceComplete,w
  4940  075C  0086               	movwf	6
  4941  075D  0876               	movf	??_USBCtrlEPServiceComplete+1,w
  4942  075E  0087               	movwf	7
  4943  075F  3008               	movlw	8
  4944  0760  0081               	movwf	1
  4945  0761                     l3629:
  4946                           
  4947                           ;lib/usb/usb_device.c: 1737:    pBDTEntryEP0OutNext->ADR = (((uint16_t)(&SetupPkt)) & 0x
      +                          7FFF);
  4948  0761  3060               	movlw	96
  4949  0762  00F5               	movwf	??_USBCtrlEPServiceComplete
  4950  0763  3000               	movlw	0
  4951  0764  00F6               	movwf	??_USBCtrlEPServiceComplete+1
  4952  0765  083F               	movf	_pBDTEntryEP0OutNext^(0+128),w
  4953  0766  0086               	movwf	6
  4954  0767  0840               	movf	(_pBDTEntryEP0OutNext+1)^(0+128),w
  4955  0768  0087               	movwf	7
  4956  0769  3142               	addfsr 1,2
  4957  076A  0875               	movf	??_USBCtrlEPServiceComplete,w
  4958  076B  3FC0               	movwi [0]fsr1
  4959  076C  0876               	movf	??_USBCtrlEPServiceComplete+1,w
  4960  076D  3FC1               	movwi [1]fsr1
  4961  076E                     l3631:
  4962                           
  4963                           ;lib/usb/usb_device.c: 1738:    pBDTEntryEP0OutNext->STAT.Val = 0x04;
  4964  076E  083F               	movf	_pBDTEntryEP0OutNext^(0+128),w
  4965  076F  0086               	movwf	6
  4966  0770  0840               	movf	(_pBDTEntryEP0OutNext+1)^(0+128),w
  4967  0771  0087               	movwf	7
  4968  0772  3004               	movlw	4
  4969  0773  0081               	movwf	1
  4970  0774                     l3633:
  4971                           
  4972                           ;lib/usb/usb_device.c: 1739:             pBDTEntryEP0OutNext->STAT.Val |= 0x80;
  4973  0774  083F               	movf	_pBDTEntryEP0OutNext^(0+128),w
  4974  0775  0086               	movwf	6
  4975  0776  0840               	movf	(_pBDTEntryEP0OutNext+1)^(0+128),w
  4976  0777  0087               	movwf	7
  4977  0778  1781               	bsf	1,7
  4978  0779                     l3635:
  4979                           
  4980                           ;lib/usb/usb_device.c: 1742:             USBStatusStageEnabledFlag2 = 0;
  4981  0779  01C8               	clrf	_USBStatusStageEnabledFlag2^(0+128)	;volatile
  4982  077A                     l3637:
  4983                           
  4984                           ;lib/usb/usb_device.c: 1743:             USBStatusStageEnabledFlag1 = 0;
  4985  077A  01C9               	clrf	_USBStatusStageEnabledFlag1^(0+128)	;volatile
  4986                           
  4987                           ;lib/usb/usb_device.c: 1744:    if(USBDeferStatusStagePacket == 0)
  4988  077B  084A               	movf	_USBDeferStatusStagePacket^(0+128),w	;volatile
  4989  077C  1D03               	btfss	3,2
  4990  077D  2F7F               	goto	u2511
  4991  077E  2F80               	goto	u2510
  4992  077F                     u2511:
  4993  077F  2F81               	goto	l245
  4994  0780                     u2510:
  4995  0780  2F4C               	goto	l3623
  4996  0781                     l245:
  4997  0781  0008               	return
  4998  0782                     __end_of_USBCtrlEPServiceComplete:
  4999                           
  5000                           	psect	text12
  5001  0B80                     __ptext12:	
  5002 ;; *************** function _USBCtrlEPAllowDataStage *****************
  5003 ;; Defined at:
  5004 ;;		line 1492 in file "lib/usb/usb_device.c"
  5005 ;; Parameters:    Size  Location     Type
  5006 ;;		None
  5007 ;; Auto vars:     Size  Location     Type
  5008 ;;		None
  5009 ;; Return value:  Size  Location     Type
  5010 ;;                  1    wreg      void 
  5011 ;; Registers used:
  5012 ;;		wreg, fsr0l, fsr0h, fsr1l, fsr1h, status,2, status,0, pclath, cstack
  5013 ;; Tracked objects:
  5014 ;;		On entry : 0/0
  5015 ;;		On exit  : 0/0
  5016 ;;		Unchanged: 0/0
  5017 ;; Data sizes:     COMMON   BANK1   BANK2   BANK3   BANK4   BANK5   BANK6   BANK7   BANK8   BANK9  BANK10  BANK11  BANK1
      +2
  5018 ;;      Params:         0       0       0       0       0       0       0       0       0       0       0       0       
      +0
  5019 ;;      Locals:         0       0       0       0       0       0       0       0       0       0       0       0       
      +0
  5020 ;;      Temps:          2       0       0       0       0       0       0       0       0       0       0       0       
      +0
  5021 ;;      Totals:         2       0       0       0       0       0       0       0       0       0       0       0       
      +0
  5022 ;;Total ram usage:        2 bytes
  5023 ;; Hardware stack levels used: 1
  5024 ;; Hardware stack levels required when called: 2
  5025 ;; This function calls:
  5026 ;;		_USBCtrlTrfTxService
  5027 ;; This function is called by:
  5028 ;;		_USBCtrlEPServiceComplete
  5029 ;; This function uses a non-reentrant model
  5030 ;;
  5031                           
  5032  0B80                     _USBCtrlEPAllowDataStage:	
  5033                           ;psect for function _USBCtrlEPAllowDataStage
  5034                           
  5035  0B80                     l3355:	
  5036                           ;incstack = 0
  5037                           ; Regs used in _USBCtrlEPAllowDataStage: [wreg-fsr1h+status,2+status,0+pclath+cstack]
  5038                           
  5039                           
  5040                           ;lib/usb/usb_device.c: 1494:     USBDeferINDataStagePackets = 0;
  5041  0B80  0021               	movlb	1	; select bank1
  5042  0B81  01C7               	clrf	_USBDeferINDataStagePackets^(0+128)	;volatile
  5043                           
  5044                           ;lib/usb/usb_device.c: 1495:     USBDeferOUTDataStagePackets = 0;
  5045  0B82  01C6               	clrf	_USBDeferOUTDataStagePackets^(0+128)	;volatile
  5046  0B83                     l3357:
  5047                           
  5048                           ;lib/usb/usb_device.c: 1497:     if(controlTransferState == 2)
  5049  0B83  3002               	movlw	2
  5050  0B84  0651               	xorwf	_controlTransferState^(0+128),w
  5051  0B85  1D03               	btfss	3,2
  5052  0B86  2B88               	goto	u2131
  5053  0B87  2B89               	goto	u2130
  5054  0B88                     u2131:
  5055  0B88  2BAE               	goto	l3367
  5056  0B89                     u2130:
  5057  0B89                     l3359:
  5058                           
  5059                           ;lib/usb/usb_device.c: 1498:     {;lib/usb/usb_device.c: 1500:         pBDTEntryEP0OutNe
      +                          xt->CNT = 8;
  5060  0B89  083F               	movf	_pBDTEntryEP0OutNext^(0+128),w
  5061  0B8A  3E01               	addlw	1
  5062  0B8B  00F3               	movwf	??_USBCtrlEPAllowDataStage
  5063  0B8C  3000               	movlw	0
  5064  0B8D  3D40               	addwfc	(_pBDTEntryEP0OutNext+1)^(0+128),w
  5065  0B8E  00F4               	movwf	??_USBCtrlEPAllowDataStage+1
  5066  0B8F  0873               	movf	??_USBCtrlEPAllowDataStage,w
  5067  0B90  0086               	movwf	6
  5068  0B91  0874               	movf	??_USBCtrlEPAllowDataStage+1,w
  5069  0B92  0087               	movwf	7
  5070  0B93  3008               	movlw	8
  5071  0B94  0081               	movwf	1
  5072  0B95                     l3361:
  5073                           
  5074                           ;lib/usb/usb_device.c: 1501:         pBDTEntryEP0OutNext->ADR = (((uint16_t)(&CtrlTrfDat
      +                          a)) & 0x7FFF);
  5075  0B95  3068               	movlw	104
  5076  0B96  00F3               	movwf	??_USBCtrlEPAllowDataStage
  5077  0B97  3000               	movlw	0
  5078  0B98  00F4               	movwf	??_USBCtrlEPAllowDataStage+1
  5079  0B99  083F               	movf	_pBDTEntryEP0OutNext^(0+128),w
  5080  0B9A  0086               	movwf	6
  5081  0B9B  0840               	movf	(_pBDTEntryEP0OutNext+1)^(0+128),w
  5082  0B9C  0087               	movwf	7
  5083  0B9D  3142               	addfsr 1,2
  5084  0B9E  0873               	movf	??_USBCtrlEPAllowDataStage,w
  5085  0B9F  3FC0               	movwi [0]fsr1
  5086  0BA0  0874               	movf	??_USBCtrlEPAllowDataStage+1,w
  5087  0BA1  3FC1               	movwi [1]fsr1
  5088  0BA2                     l3363:
  5089                           
  5090                           ;lib/usb/usb_device.c: 1502:         pBDTEntryEP0OutNext->STAT.Val = 0x40|(0x08 & 0x08);
  5091  0BA2  083F               	movf	_pBDTEntryEP0OutNext^(0+128),w
  5092  0BA3  0086               	movwf	6
  5093  0BA4  0840               	movf	(_pBDTEntryEP0OutNext+1)^(0+128),w
  5094  0BA5  0087               	movwf	7
  5095  0BA6  3048               	movlw	72
  5096  0BA7  0081               	movwf	1
  5097  0BA8                     l3365:
  5098                           
  5099                           ;lib/usb/usb_device.c: 1503:         pBDTEntryEP0OutNext->STAT.Val |= 0x80;
  5100  0BA8  083F               	movf	_pBDTEntryEP0OutNext^(0+128),w
  5101  0BA9  0086               	movwf	6
  5102  0BAA  0840               	movf	(_pBDTEntryEP0OutNext+1)^(0+128),w
  5103  0BAB  0087               	movwf	7
  5104  0BAC  1781               	bsf	1,7
  5105                           
  5106                           ;lib/usb/usb_device.c: 1504:     }
  5107  0BAD  2BDE               	goto	l227
  5108  0BAE                     l3367:
  5109                           
  5110                           ;lib/usb/usb_device.c: 1506:     {;lib/usb/usb_device.c: 1509:   if(SetupPkt.wLength < i
      +                          nPipes[0].wCount.Val)
  5111  0BAE  083C               	movf	((_inPipes+1)^(0+128)+3),w
  5112  0BAF  0020               	movlb	0	; select bank0
  5113  0BB0  0267               	subwf	103,w	;volatile
  5114  0BB1  1D03               	skipz
  5115  0BB2  2BB7               	goto	u2145
  5116  0BB3  0021               	movlb	1	; select bank1
  5117  0BB4  083B               	movf	(_inPipes^(0+128)+3),w
  5118  0BB5  0020               	movlb	0	; select bank0
  5119  0BB6  0266               	subwf	102,w	;volatile
  5120  0BB7                     u2145:
  5121  0BB7  1803               	skipnc
  5122  0BB8  2BBA               	goto	u2141
  5123  0BB9  2BBB               	goto	u2140
  5124  0BBA                     u2141:
  5125  0BBA  2BC2               	goto	l3371
  5126  0BBB                     u2140:
  5127  0BBB                     l3369:
  5128                           
  5129                           ;lib/usb/usb_device.c: 1510:   {;lib/usb/usb_device.c: 1511:    inPipes[0].wCount.Val = 
      +                          SetupPkt.wLength;
  5130  0BBB  0867               	movf	103,w	;volatile
  5131  0BBC  0021               	movlb	1	; select bank1
  5132  0BBD  00BC               	movwf	((_inPipes+1)^(0+128)+3)
  5133  0BBE  0020               	movlb	0	; select bank0
  5134  0BBF  0866               	movf	102,w	;volatile
  5135  0BC0  0021               	movlb	1	; select bank1
  5136  0BC1  00BB               	movwf	(_inPipes^(0+128)+3)
  5137  0BC2                     l3371:
  5138                           
  5139                           ;lib/usb/usb_device.c: 1513:   USBCtrlTrfTxService();
  5140  0BC2  318D  2581  318B   	fcall	_USBCtrlTrfTxService
  5141  0BC5                     l3373:
  5142                           
  5143                           ;lib/usb/usb_device.c: 1518:   pBDTEntryIn[0]->ADR = (((uint16_t)(&CtrlTrfData)) & 0x7FF
      +                          F);
  5144  0BC5  3068               	movlw	104
  5145  0BC6  00F3               	movwf	??_USBCtrlEPAllowDataStage
  5146  0BC7  3000               	movlw	0
  5147  0BC8  00F4               	movwf	??_USBCtrlEPAllowDataStage+1
  5148  0BC9  0021               	movlb	1	; select bank1
  5149  0BCA  0830               	movf	_pBDTEntryIn^(0+128),w
  5150  0BCB  0086               	movwf	6
  5151  0BCC  0831               	movf	(_pBDTEntryIn+1)^(0+128),w
  5152  0BCD  0087               	movwf	7
  5153  0BCE  3142               	addfsr 1,2
  5154  0BCF  0873               	movf	??_USBCtrlEPAllowDataStage,w
  5155  0BD0  3FC0               	movwi [0]fsr1
  5156  0BD1  0874               	movf	??_USBCtrlEPAllowDataStage+1,w
  5157  0BD2  3FC1               	movwi [1]fsr1
  5158  0BD3                     l3375:
  5159                           
  5160                           ;lib/usb/usb_device.c: 1519:   pBDTEntryIn[0]->STAT.Val = 0x40|(0x08 & 0x08);
  5161  0BD3  0830               	movf	_pBDTEntryIn^(0+128),w
  5162  0BD4  0086               	movwf	6
  5163  0BD5  0831               	movf	(_pBDTEntryIn+1)^(0+128),w
  5164  0BD6  0087               	movwf	7
  5165  0BD7  3048               	movlw	72
  5166  0BD8  0081               	movwf	1
  5167  0BD9                     l3377:
  5168                           
  5169                           ;lib/usb/usb_device.c: 1520:         pBDTEntryIn[0]->STAT.Val |= 0x80;
  5170  0BD9  0830               	movf	_pBDTEntryIn^(0+128),w
  5171  0BDA  0086               	movwf	6
  5172  0BDB  0831               	movf	(_pBDTEntryIn+1)^(0+128),w
  5173  0BDC  0087               	movwf	7
  5174  0BDD  1781               	bsf	1,7
  5175  0BDE                     l227:
  5176  0BDE  0008               	return
  5177  0BDF                     __end_of_USBCtrlEPAllowDataStage:
  5178                           
  5179                           	psect	text13
  5180  0782                     __ptext13:	
  5181 ;; *************** function _USBCheckStdRequest *****************
  5182 ;; Defined at:
  5183 ;;		line 2693 in file "lib/usb/usb_device.c"
  5184 ;; Parameters:    Size  Location     Type
  5185 ;;		None
  5186 ;; Auto vars:     Size  Location     Type
  5187 ;;		None
  5188 ;; Return value:  Size  Location     Type
  5189 ;;                  1    wreg      void 
  5190 ;; Registers used:
  5191 ;;		wreg, fsr0l, fsr0h, fsr1l, fsr1h, status,2, status,0, pclath, cstack
  5192 ;; Tracked objects:
  5193 ;;		On entry : 0/0
  5194 ;;		On exit  : 0/0
  5195 ;;		Unchanged: 0/0
  5196 ;; Data sizes:     COMMON   BANK1   BANK2   BANK3   BANK4   BANK5   BANK6   BANK7   BANK8   BANK9  BANK10  BANK11  BANK1
      +2
  5197 ;;      Params:         0       0       0       0       0       0       0       0       0       0       0       0       
      +0
  5198 ;;      Locals:         0       0       0       0       0       0       0       0       0       0       0       0       
      +0
  5199 ;;      Temps:          0       2       0       0       0       0       0       0       0       0       0       0       
      +0
  5200 ;;      Totals:         0       2       0       0       0       0       0       0       0       0       0       0       
      +0
  5201 ;;Total ram usage:        2 bytes
  5202 ;; Hardware stack levels used: 1
  5203 ;; Hardware stack levels required when called: 6
  5204 ;; This function calls:
  5205 ;;		_USBStdFeatureReqHandler
  5206 ;;		_USBStdGetDscHandler
  5207 ;;		_USBStdGetStatusHandler
  5208 ;;		_USBStdSetCfgHandler
  5209 ;;		_USER_USB_CALLBACK_EVENT_HANDLER
  5210 ;; This function is called by:
  5211 ;;		_USBCtrlTrfSetupHandler
  5212 ;; This function uses a non-reentrant model
  5213 ;;
  5214                           
  5215  0782                     _USBCheckStdRequest:	
  5216                           ;psect for function _USBCheckStdRequest
  5217                           
  5218  0782                     l4671:	
  5219                           ;incstack = 0
  5220                           ; Regs used in _USBCheckStdRequest: [wreg-fsr1h+status,2+status,0+pclath+cstack]
  5221                           
  5222                           
  5223                           ;lib/usb/usb_device.c: 2695:     if(SetupPkt.RequestType != (0x00>>5)) return;
  5224  0782  0020               	movlb	0	; select bank0
  5225  0783  0E60               	swapf	96,w	;volatile
  5226  0784  0C89               	rrf	9,f
  5227  0785  3903               	andlw	3
  5228  0786  3A00               	xorlw	0
  5229  0787  1903               	skipnz
  5230  0788  2F8A               	goto	u3491
  5231  0789  2F8B               	goto	u3490
  5232  078A                     u3491:
  5233  078A  2FD1               	goto	l4707
  5234  078B                     u3490:
  5235  078B  2FFD               	goto	l361
  5236  078C                     l363:	
  5237                           ;lib/usb/usb_device.c: 2698:     {;lib/usb/usb_device.c: 2699:         case 5:
  5238                           
  5239                           
  5240                           ;lib/usb/usb_device.c: 2700:             inPipes[0].info.bits.busy = 1;
  5241  078C  17BA               	bsf	(_inPipes^(0+128)+2),7
  5242  078D                     l4675:
  5243                           
  5244                           ;lib/usb/usb_device.c: 2701:             USBDeviceState = ADR_PENDING_STATE;
  5245  078D  3008               	movlw	8
  5246  078E  00E6               	movwf	??_USBCheckStdRequest^(0+128)
  5247  078F  0866               	movf	??_USBCheckStdRequest^(0+128),w
  5248  0790  00D4               	movwf	_USBDeviceState^(0+128)
  5249                           
  5250                           ;lib/usb/usb_device.c: 2703:             break;
  5251  0791  2FFD               	goto	l361
  5252  0792                     l4677:
  5253                           
  5254                           ;lib/usb/usb_device.c: 2705:             USBStdGetDscHandler();
  5255  0792  318E  266E  3187   	fcall	_USBStdGetDscHandler
  5256                           
  5257                           ;lib/usb/usb_device.c: 2706:             break;
  5258  0795  2FFD               	goto	l361
  5259  0796                     l4679:
  5260                           
  5261                           ;lib/usb/usb_device.c: 2708:             USBStdSetCfgHandler();
  5262  0796  318E  26F3  3187   	fcall	_USBStdSetCfgHandler
  5263                           
  5264                           ;lib/usb/usb_device.c: 2709:             break;
  5265  0799  2FFD               	goto	l361
  5266  079A                     l4681:
  5267                           
  5268                           ;lib/usb/usb_device.c: 2711:             inPipes[0].pSrc.bRam = (uint8_t*)&USBActiveConf
      +                          iguration;
  5269  079A  30D8               	movlw	low _USBActiveConfiguration
  5270  079B  00B8               	movwf	_inPipes^(0+128)
  5271  079C  3000               	movlw	high _USBActiveConfiguration
  5272  079D  00B9               	movwf	(_inPipes+1)^(0+128)
  5273  079E                     l4683:
  5274                           
  5275                           ;lib/usb/usb_device.c: 2712:             inPipes[0].info.bits.ctrl_trf_mem = 0x01;
  5276  079E  143A               	bsf	(_inPipes^(0+128)+2),0
  5277  079F                     l4685:
  5278                           
  5279                           ;lib/usb/usb_device.c: 2713:             inPipes[0].wCount.v[0] = 1;
  5280  079F  01BB               	clrf	(_inPipes^(0+128)+3)
  5281  07A0  0ABB               	incf	(_inPipes^(0+128)+3),f
  5282  07A1                     l4687:
  5283                           
  5284                           ;lib/usb/usb_device.c: 2714:             inPipes[0].info.bits.busy = 1;
  5285  07A1  17BA               	bsf	(_inPipes^(0+128)+2),7
  5286                           
  5287                           ;lib/usb/usb_device.c: 2715:             break;
  5288  07A2  2FFD               	goto	l361
  5289  07A3                     l4689:
  5290                           
  5291                           ;lib/usb/usb_device.c: 2717:             USBStdGetStatusHandler();
  5292  07A3  318C  24A2  3187   	fcall	_USBStdGetStatusHandler
  5293                           
  5294                           ;lib/usb/usb_device.c: 2718:             break;
  5295  07A6  2FFD               	goto	l361
  5296  07A7                     l4691:
  5297                           
  5298                           ;lib/usb/usb_device.c: 2721:             USBStdFeatureReqHandler();
  5299  07A7  3180  2044  3187   	fcall	_USBStdFeatureReqHandler
  5300                           
  5301                           ;lib/usb/usb_device.c: 2722:             break;
  5302  07AA  2FFD               	goto	l361
  5303  07AB                     l4693:
  5304                           
  5305                           ;lib/usb/usb_device.c: 2724:             inPipes[0].pSrc.bRam = (uint8_t*)&USBAlternateI
      +                          nterface[SetupPkt.bIntfID];
  5306  07AB  0020               	movlb	0	; select bank0
  5307  07AC  0864               	movf	100,w	;volatile
  5308  07AD  3EBE               	addlw	(low (_USBAlternateInterface| (0+256)))& (0+255)
  5309  07AE  0021               	movlb	1	; select bank1
  5310  07AF  00B8               	movwf	_inPipes^(0+128)
  5311  07B0  3001               	movlw	1
  5312  07B1  00B9               	movwf	(_inPipes+1)^(0+128)
  5313  07B2  2F9E               	goto	l4683
  5314  07B3                     l372:	
  5315                           ;lib/usb/usb_device.c: 2729:         case 11:
  5316                           
  5317                           
  5318                           ;lib/usb/usb_device.c: 2730:             inPipes[0].info.bits.busy = 1;
  5319  07B3  17BA               	bsf	(_inPipes^(0+128)+2),7
  5320  07B4                     l4701:
  5321                           
  5322                           ;lib/usb/usb_device.c: 2731:             USBAlternateInterface[SetupPkt.bIntfID] = Setup
      +                          Pkt.bAltID;
  5323  07B4  0020               	movlb	0	; select bank0
  5324  07B5  0862               	movf	98,w	;volatile
  5325  07B6  0021               	movlb	1	; select bank1
  5326  07B7  00E6               	movwf	??_USBCheckStdRequest^(0+128)
  5327  07B8  0020               	movlb	0	; select bank0
  5328  07B9  0864               	movf	100,w	;volatile
  5329  07BA  3EBE               	addlw	(low (_USBAlternateInterface| (0+256)))& (0+255)
  5330  07BB  0086               	movwf	6
  5331  07BC  3001               	movlw	1	; select bank3/4
  5332  07BD  0087               	movwf	7
  5333  07BE  0021               	movlb	1	; select bank1
  5334  07BF  0866               	movf	??_USBCheckStdRequest^(0+128),w
  5335  07C0  0081               	movwf	1
  5336                           
  5337                           ;lib/usb/usb_device.c: 2732:             break;
  5338  07C1  2FFD               	goto	l361
  5339  07C2                     l4703:
  5340                           
  5341                           ;lib/usb/usb_device.c: 2734:             USER_USB_CALLBACK_EVENT_HANDLER((USB_EVENT)EVEN
      +                          T_SET_DESCRIPTOR,0,0);
  5342  07C2  3002               	movlw	2
  5343  07C3  00D9               	movwf	USER_USB_CALLBACK_EVENT_HANDLER@event^(0+128)
  5344  07C4  3000               	movlw	0
  5345  07C5  00DA               	movwf	(USER_USB_CALLBACK_EVENT_HANDLER@event^(0+128)+1)
  5346  07C6  3000               	movlw	0
  5347  07C7  00DB               	movwf	USER_USB_CALLBACK_EVENT_HANDLER@pdata^(0+128)
  5348  07C8  3000               	movlw	0
  5349  07C9  00DC               	movwf	(USER_USB_CALLBACK_EVENT_HANDLER@pdata+1)^(0+128)
  5350  07CA  3000               	movlw	0
  5351  07CB  00DD               	movwf	USER_USB_CALLBACK_EVENT_HANDLER@size^(0+128)
  5352  07CC  00DE               	movwf	(USER_USB_CALLBACK_EVENT_HANDLER@size+1)^(0+128)
  5353  07CD  318A  229E  3187   	fcall	_USER_USB_CALLBACK_EVENT_HANDLER
  5354                           
  5355                           ;lib/usb/usb_device.c: 2735:             break;
  5356  07D0  2FFD               	goto	l361
  5357  07D1                     l4707:
  5358  07D1  0861               	movf	97,w	;volatile
  5359  07D2  0021               	movlb	1	; select bank1
  5360  07D3  00E6               	movwf	??_USBCheckStdRequest^(0+128)
  5361  07D4  01E7               	clrf	(??_USBCheckStdRequest^(0+128)+1)
  5362                           
  5363                           ; Switch on 2 bytes has been partitioned into a top level switch of size 1, and 1 sub-sw
      +                          itches
  5364                           ; Switch size 1, requested type "simple"
  5365                           ; Number of cases is 1, Range of values is 0 to 0
  5366                           ; switch strategies available:
  5367                           ; Name         Instructions Cycles
  5368                           ; simple_byte            4     3 (average)
  5369                           ; direct_byte            8     6 (fixed)
  5370                           ; jumptable            260     6 (fixed)
  5371                           ;	Chosen strategy is simple_byte
  5372  07D5  0867               	movf	(??_USBCheckStdRequest+1)^(0+128),w
  5373  07D6  3A00               	xorlw	0	; case 0
  5374  07D7  1903               	skipnz
  5375  07D8  2FDA               	goto	l5205
  5376  07D9  2FFD               	goto	l361
  5377  07DA                     l5205:
  5378                           
  5379                           ; Switch size 1, requested type "simple"
  5380                           ; Number of cases is 11, Range of values is 0 to 12
  5381                           ; switch strategies available:
  5382                           ; Name         Instructions Cycles
  5383                           ; direct_byte           32     6 (fixed)
  5384                           ; simple_byte           34    18 (average)
  5385                           ; jumptable            260     6 (fixed)
  5386                           ;	Chosen strategy is simple_byte
  5387  07DA  0866               	movf	??_USBCheckStdRequest^(0+128),w
  5388  07DB  3A00               	xorlw	0	; case 0
  5389  07DC  1903               	skipnz
  5390  07DD  2FA3               	goto	l4689
  5391  07DE  3A01               	xorlw	1	; case 1
  5392  07DF  1903               	skipnz
  5393  07E0  2FA7               	goto	l4691
  5394  07E1  3A02               	xorlw	2	; case 3
  5395  07E2  1903               	skipnz
  5396  07E3  2FA7               	goto	l4691
  5397  07E4  3A06               	xorlw	6	; case 5
  5398  07E5  1903               	skipnz
  5399  07E6  2F8C               	goto	l363
  5400  07E7  3A03               	xorlw	3	; case 6
  5401  07E8  1903               	skipnz
  5402  07E9  2F92               	goto	l4677
  5403  07EA  3A01               	xorlw	1	; case 7
  5404  07EB  1903               	skipnz
  5405  07EC  2FC2               	goto	l4703
  5406  07ED  3A0F               	xorlw	15	; case 8
  5407  07EE  1903               	skipnz
  5408  07EF  2F9A               	goto	l4681
  5409  07F0  3A01               	xorlw	1	; case 9
  5410  07F1  1903               	skipnz
  5411  07F2  2F96               	goto	l4679
  5412  07F3  3A03               	xorlw	3	; case 10
  5413  07F4  1903               	skipnz
  5414  07F5  2FAB               	goto	l4693
  5415  07F6  3A01               	xorlw	1	; case 11
  5416  07F7  1903               	skipnz
  5417  07F8  2FB3               	goto	l372
  5418  07F9  3A07               	xorlw	7	; case 12
  5419  07FA  1903               	skipnz
  5420  07FB  2FFD               	goto	l361
  5421  07FC  2FFD               	goto	l361
  5422  07FD                     l361:
  5423  07FD  0008               	return
  5424  07FE                     __end_of_USBCheckStdRequest:
  5425                           
  5426                           	psect	text14
  5427  0EF3                     __ptext14:	
  5428 ;; *************** function _USBStdSetCfgHandler *****************
  5429 ;; Defined at:
  5430 ;;		line 1972 in file "lib/usb/usb_device.c"
  5431 ;; Parameters:    Size  Location     Type
  5432 ;;		None
  5433 ;; Auto vars:     Size  Location     Type
  5434 ;;  p               2    7[BANK1 ] PTR unsigned char 
  5435 ;;		 -> UEP1(1), 
  5436 ;;  i               1    9[BANK1 ] unsigned char 
  5437 ;;  i               1   10[BANK1 ] unsigned char 
  5438 ;; Return value:  Size  Location     Type
  5439 ;;                  1    wreg      void 
  5440 ;; Registers used:
  5441 ;;		wreg, fsr0l, fsr0h, fsr1l, fsr1h, status,2, status,0, pclath, cstack
  5442 ;; Tracked objects:
  5443 ;;		On entry : 0/0
  5444 ;;		On exit  : 0/0
  5445 ;;		Unchanged: 0/0
  5446 ;; Data sizes:     COMMON   BANK1   BANK2   BANK3   BANK4   BANK5   BANK6   BANK7   BANK8   BANK9  BANK10  BANK11  BANK1
      +2
  5447 ;;      Params:         0       0       0       0       0       0       0       0       0       0       0       0       
      +0
  5448 ;;      Locals:         0       4       0       0       0       0       0       0       0       0       0       0       
      +0
  5449 ;;      Temps:          0       1       0       0       0       0       0       0       0       0       0       0       
      +0
  5450 ;;      Totals:         0       5       0       0       0       0       0       0       0       0       0       0       
      +0
  5451 ;;Total ram usage:        5 bytes
  5452 ;; Hardware stack levels used: 1
  5453 ;; Hardware stack levels required when called: 5
  5454 ;; This function calls:
  5455 ;;		_USER_USB_CALLBACK_EVENT_HANDLER
  5456 ;;		_memset
  5457 ;; This function is called by:
  5458 ;;		_USBCheckStdRequest
  5459 ;; This function uses a non-reentrant model
  5460 ;;
  5461                           
  5462  0EF3                     _USBStdSetCfgHandler:	
  5463                           ;psect for function _USBStdSetCfgHandler
  5464                           
  5465  0EF3                     l4619:	
  5466                           ;incstack = 0
  5467                           ; Regs used in _USBStdSetCfgHandler: [wreg-fsr1h+status,2+status,0+pclath+cstack]
  5468                           
  5469                           
  5470                           ;lib/usb/usb_device.c: 1974:     uint8_t i;;lib/usb/usb_device.c: 1977:     inPipes[0].i
      +                          nfo.bits.busy = 1;
  5471  0EF3  0021               	movlb	1	; select bank1
  5472  0EF4  17BA               	bsf	(_inPipes^(0+128)+2),7
  5473                           
  5474                           ;lib/usb/usb_device.c: 1980:     { uint8_t i; uint8_t* p = (uint8_t*)&UEP1; for(i=0;i<3;
      +                          i++) *p++ = 0; };
  5475  0EF5  300E               	movlw	14
  5476  0EF6  00E1               	movwf	(USBStdSetCfgHandler@p+1)^(0+128)
  5477  0EF7  3099               	movlw	153
  5478  0EF8  00E0               	movwf	USBStdSetCfgHandler@p^(0+128)
  5479  0EF9                     l4621:
  5480  0EF9  01E2               	clrf	USBStdSetCfgHandler@i_1457^(0+128)
  5481  0EFA                     l4627:
  5482  0EFA  0860               	movf	USBStdSetCfgHandler@p^(0+128),w
  5483  0EFB  0086               	movwf	6
  5484  0EFC  0861               	movf	(USBStdSetCfgHandler@p+1)^(0+128),w
  5485  0EFD  0087               	movwf	7
  5486  0EFE  0181               	clrf	1
  5487  0EFF                     l4629:
  5488  0EFF  3001               	movlw	1
  5489  0F00  07E0               	addwf	USBStdSetCfgHandler@p^(0+128),f
  5490  0F01  3000               	movlw	0
  5491  0F02  3DE1               	addwfc	(USBStdSetCfgHandler@p+1)^(0+128),f
  5492  0F03                     l4631:
  5493  0F03  3001               	movlw	1
  5494  0F04  00DF               	movwf	??_USBStdSetCfgHandler^(0+128)
  5495  0F05  085F               	movf	??_USBStdSetCfgHandler^(0+128),w
  5496  0F06  07E2               	addwf	USBStdSetCfgHandler@i_1457^(0+128),f
  5497  0F07                     l4633:
  5498  0F07  3003               	movlw	3
  5499  0F08  0262               	subwf	USBStdSetCfgHandler@i_1457^(0+128),w
  5500  0F09  1C03               	skipc
  5501  0F0A  2F0C               	goto	u3461
  5502  0F0B  2F0D               	goto	u3460
  5503  0F0C                     u3461:
  5504  0F0C  2EFA               	goto	l4627
  5505  0F0D                     u3460:
  5506  0F0D                     l4635:
  5507                           
  5508                           ;lib/usb/usb_device.c: 1983:     memset((void*)&BDT[0], 0x00, sizeof(BDT));
  5509  0F0D  3020               	movlw	32
  5510  0F0E  00F0               	movwf	memset@dest
  5511  0F0F  3000               	movlw	0
  5512  0F10  00F1               	movwf	memset@dest+1
  5513  0F11  3000               	movlw	0
  5514  0F12  00F2               	movwf	memset@c
  5515  0F13  00F3               	movwf	memset@c+1
  5516  0F14  3040               	movlw	64
  5517  0F15  00F4               	movwf	memset@n
  5518  0F16  3000               	movlw	0
  5519  0F17  00F5               	movwf	memset@n+1
  5520  0F18  3184  24C8  318E   	fcall	_memset
  5521  0F1B                     l4637:
  5522                           
  5523                           ;lib/usb/usb_device.c: 1986:     UCONbits.PPBRST = 1;
  5524  0F1B  003D               	movlb	29	; select bank29
  5525  0F1C  170E               	bsf	14,6	;volatile
  5526  0F1D                     l4639:
  5527                           
  5528                           ;lib/usb/usb_device.c: 1991:  for(i = 0; i < (uint8_t)(3 +1u); i++)
  5529  0F1D  0021               	movlb	1	; select bank1
  5530  0F1E  01E3               	clrf	USBStdSetCfgHandler@i^(0+128)
  5531  0F1F                     l4645:
  5532                           
  5533                           ;lib/usb/usb_device.c: 1992:  {;lib/usb/usb_device.c: 1993:   ep_data_in[i].Val = 0u;
  5534  0F1F  0863               	movf	USBStdSetCfgHandler@i^(0+128),w
  5535  0F20  3EB0               	addlw	(low (_ep_data_in| (0+256)))& (0+255)
  5536  0F21  0086               	movwf	6
  5537  0F22  3001               	movlw	1	; select bank3/4
  5538  0F23  0087               	movwf	7
  5539  0F24  0181               	clrf	1
  5540                           
  5541                           ;lib/usb/usb_device.c: 1994:         ep_data_out[i].Val = 0u;
  5542  0F25  0863               	movf	USBStdSetCfgHandler@i^(0+128),w
  5543  0F26  3EAC               	addlw	(low (_ep_data_out| (0+256)))& (0+255)
  5544  0F27  0086               	movwf	6
  5545  0F28  3001               	movlw	1	; select bank3/4
  5546  0F29  0087               	movwf	7
  5547  0F2A  0181               	clrf	1
  5548  0F2B                     l4647:
  5549                           
  5550                           ;lib/usb/usb_device.c: 1995:  }
  5551  0F2B  3001               	movlw	1
  5552  0F2C  00DF               	movwf	??_USBStdSetCfgHandler^(0+128)
  5553  0F2D  085F               	movf	??_USBStdSetCfgHandler^(0+128),w
  5554  0F2E  07E3               	addwf	USBStdSetCfgHandler@i^(0+128),f
  5555  0F2F                     l4649:
  5556  0F2F  3004               	movlw	4
  5557  0F30  0263               	subwf	USBStdSetCfgHandler@i^(0+128),w
  5558  0F31  1C03               	skipc
  5559  0F32  2F34               	goto	u3471
  5560  0F33  2F35               	goto	u3470
  5561  0F34                     u3471:
  5562  0F34  2F1F               	goto	l4645
  5563  0F35                     u3470:
  5564  0F35                     l4651:
  5565                           
  5566                           ;lib/usb/usb_device.c: 1998:     memset((void*)&USBAlternateInterface,0x00,3);
  5567  0F35  30BE               	movlw	low _USBAlternateInterface
  5568  0F36  00F0               	movwf	memset@dest
  5569  0F37  3001               	movlw	high _USBAlternateInterface
  5570  0F38  00F1               	movwf	memset@dest+1
  5571  0F39  3000               	movlw	0
  5572  0F3A  00F2               	movwf	memset@c
  5573  0F3B  00F3               	movwf	memset@c+1
  5574  0F3C  3003               	movlw	3
  5575  0F3D  00F4               	movwf	memset@n
  5576  0F3E  3000               	movlw	0
  5577  0F3F  00F5               	movwf	memset@n+1
  5578  0F40  3184  24C8  318E   	fcall	_memset
  5579  0F43                     l4653:
  5580                           
  5581                           ;lib/usb/usb_device.c: 2001:     UCONbits.PPBRST = 0;
  5582  0F43  003D               	movlb	29	; select bank29
  5583  0F44  130E               	bcf	14,6	;volatile
  5584  0F45                     l4655:
  5585                           
  5586                           ;lib/usb/usb_device.c: 2003:     pBDTEntryIn[0] = (volatile BDT_ENTRY*)&BDT[2];
  5587  0F45  3028               	movlw	40
  5588  0F46  0021               	movlb	1	; select bank1
  5589  0F47  00B0               	movwf	_pBDTEntryIn^(0+128)
  5590  0F48  3000               	movlw	0
  5591  0F49  00B1               	movwf	(_pBDTEntryIn+1)^(0+128)
  5592  0F4A                     l4657:
  5593                           
  5594                           ;lib/usb/usb_device.c: 2006:     pBDTEntryEP0OutCurrent = (volatile BDT_ENTRY*)&BDT[0];
  5595  0F4A  3020               	movlw	32
  5596  0F4B  00DF               	movwf	??_USBStdSetCfgHandler^(0+128)
  5597  0F4C  085F               	movf	??_USBStdSetCfgHandler^(0+128),w
  5598  0F4D  00D3               	movwf	_pBDTEntryEP0OutCurrent^(0+128)
  5599  0F4E                     l4659:
  5600                           
  5601                           ;lib/usb/usb_device.c: 2007:     pBDTEntryEP0OutNext = pBDTEntryEP0OutCurrent;
  5602  0F4E  0853               	movf	_pBDTEntryEP0OutCurrent^(0+128),w
  5603  0F4F  00BF               	movwf	_pBDTEntryEP0OutNext^(0+128)
  5604  0F50  39FF               	andlw	255
  5605  0F51  1D03               	skipz
  5606  0F52  3000               	movlw	0
  5607  0F53  00C0               	movwf	(_pBDTEntryEP0OutNext+1)^(0+128)
  5608  0F54                     l4661:
  5609                           
  5610                           ;lib/usb/usb_device.c: 2010:     USBActiveConfiguration = SetupPkt.bConfigurationValue;
  5611  0F54  0020               	movlb	0	; select bank0
  5612  0F55  0862               	movf	98,w	;volatile
  5613  0F56  0021               	movlb	1	; select bank1
  5614  0F57  00DF               	movwf	??_USBStdSetCfgHandler^(0+128)
  5615  0F58  085F               	movf	??_USBStdSetCfgHandler^(0+128),w
  5616  0F59  00D8               	movwf	_USBActiveConfiguration^(0+128)
  5617  0F5A                     l4663:
  5618                           
  5619                           ;lib/usb/usb_device.c: 2013:     if(USBActiveConfiguration == 0)
  5620  0F5A  0858               	movf	_USBActiveConfiguration^(0+128),w
  5621  0F5B  1D03               	btfss	3,2
  5622  0F5C  2F5E               	goto	u3481
  5623  0F5D  2F5F               	goto	u3480
  5624  0F5E                     u3481:
  5625  0F5E  2F64               	goto	l4667
  5626  0F5F                     u3480:
  5627  0F5F                     l4665:
  5628                           
  5629                           ;lib/usb/usb_device.c: 2014:     {;lib/usb/usb_device.c: 2016:         USBDeviceState = 
      +                          ADDRESS_STATE;
  5630  0F5F  3010               	movlw	16
  5631  0F60  00DF               	movwf	??_USBStdSetCfgHandler^(0+128)
  5632  0F61  085F               	movf	??_USBStdSetCfgHandler^(0+128),w
  5633  0F62  00D4               	movwf	_USBDeviceState^(0+128)
  5634                           
  5635                           ;lib/usb/usb_device.c: 2017:     }
  5636  0F63  2F78               	goto	l282
  5637  0F64                     l4667:
  5638                           
  5639                           ;lib/usb/usb_device.c: 2019:     {;lib/usb/usb_device.c: 2021:         USER_USB_CALLBACK
      +                          _EVENT_HANDLER((USB_EVENT)EVENT_CONFIGURED,(void*)&USBActiveConfiguration,1);
  5640  0F64  3001               	movlw	1
  5641  0F65  00D9               	movwf	USER_USB_CALLBACK_EVENT_HANDLER@event^(0+128)
  5642  0F66  3000               	movlw	0
  5643  0F67  00DA               	movwf	(USER_USB_CALLBACK_EVENT_HANDLER@event^(0+128)+1)
  5644  0F68  30D8               	movlw	low _USBActiveConfiguration
  5645  0F69  00DB               	movwf	USER_USB_CALLBACK_EVENT_HANDLER@pdata^(0+128)
  5646  0F6A  3000               	movlw	high _USBActiveConfiguration
  5647  0F6B  00DC               	movwf	(USER_USB_CALLBACK_EVENT_HANDLER@pdata+1)^(0+128)
  5648  0F6C  3001               	movlw	1
  5649  0F6D  00DD               	movwf	USER_USB_CALLBACK_EVENT_HANDLER@size^(0+128)
  5650  0F6E  3000               	movlw	0
  5651  0F6F  00DE               	movwf	(USER_USB_CALLBACK_EVENT_HANDLER@size^(0+128)+1)
  5652  0F70  318A  229E  318E   	fcall	_USER_USB_CALLBACK_EVENT_HANDLER
  5653  0F73                     l4669:
  5654                           
  5655                           ;lib/usb/usb_device.c: 2026:         USBDeviceState = CONFIGURED_STATE;
  5656  0F73  3020               	movlw	32
  5657  0F74  0021               	movlb	1	; select bank1
  5658  0F75  00DF               	movwf	??_USBStdSetCfgHandler^(0+128)
  5659  0F76  085F               	movf	??_USBStdSetCfgHandler^(0+128),w
  5660  0F77  00D4               	movwf	_USBDeviceState^(0+128)
  5661  0F78                     l282:
  5662  0F78  0008               	return
  5663  0F79                     __end_of_USBStdSetCfgHandler:
  5664                           
  5665                           	psect	text15
  5666  04C8                     __ptext15:	
  5667 ;; *************** function _memset *****************
  5668 ;; Defined at:
  5669 ;;		line 4 in file "E:\Atmel Studio\Comp-istall\pic\sources\c99\common\memset.c"
  5670 ;; Parameters:    Size  Location     Type
  5671 ;;  dest            2    0[COMMON] PTR void 
  5672 ;;		 -> USBAlternateInterface(3), BDT(64), 
  5673 ;;  c               2    2[COMMON] int 
  5674 ;;  n               2    4[COMMON] unsigned int 
  5675 ;; Auto vars:     Size  Location     Type
  5676 ;;  s               2   12[COMMON] PTR unsigned char 
  5677 ;;		 -> USBAlternateInterface(3), BDT(64), 
  5678 ;;  k               2   10[COMMON] unsigned int 
  5679 ;; Return value:  Size  Location     Type
  5680 ;;                  2    0[COMMON] PTR void 
  5681 ;; Registers used:
  5682 ;;		wreg, fsr1l, fsr1h, status,2, status,0
  5683 ;; Tracked objects:
  5684 ;;		On entry : 0/0
  5685 ;;		On exit  : 0/0
  5686 ;;		Unchanged: 0/0
  5687 ;; Data sizes:     COMMON   BANK1   BANK2   BANK3   BANK4   BANK5   BANK6   BANK7   BANK8   BANK9  BANK10  BANK11  BANK1
      +2
  5688 ;;      Params:         6       0       0       0       0       0       0       0       0       0       0       0       
      +0
  5689 ;;      Locals:         4       0       0       0       0       0       0       0       0       0       0       0       
      +0
  5690 ;;      Temps:          4       0       0       0       0       0       0       0       0       0       0       0       
      +0
  5691 ;;      Totals:        14       0       0       0       0       0       0       0       0       0       0       0       
      +0
  5692 ;;Total ram usage:       14 bytes
  5693 ;; Hardware stack levels used: 1
  5694 ;; Hardware stack levels required when called: 1
  5695 ;; This function calls:
  5696 ;;		Nothing
  5697 ;; This function is called by:
  5698 ;;		_USBStdSetCfgHandler
  5699 ;; This function uses a non-reentrant model
  5700 ;;
  5701                           
  5702  04C8                     _memset:	
  5703                           ;psect for function _memset
  5704                           
  5705  04C8                     l4577:	
  5706                           ;incstack = 0
  5707                           ; Regs used in _memset: [wreg+fsr1l+fsr1h+status,2+status,0]
  5708                           
  5709  04C8  0871               	movf	memset@dest+1,w
  5710  04C9  00FD               	movwf	memset@s+1
  5711  04CA  0870               	movf	memset@dest,w
  5712  04CB  00FC               	movwf	memset@s
  5713  04CC                     l4579:
  5714  04CC  0874               	movf	memset@n,w
  5715  04CD  0475               	iorwf	memset@n+1,w
  5716  04CE  1D03               	btfss	3,2
  5717  04CF  2CD1               	goto	u3411
  5718  04D0  2CD2               	goto	u3410
  5719  04D1                     u3411:
  5720  04D1  2CD3               	goto	l4583
  5721  04D2                     u3410:
  5722  04D2  2D91               	goto	l1317
  5723  04D3                     l4583:
  5724  04D3  087C               	movf	memset@s,w
  5725  04D4  0086               	movwf	6
  5726  04D5  087D               	movf	memset@s+1,w
  5727  04D6  0087               	movwf	7
  5728  04D7  0872               	movf	memset@c,w
  5729  04D8  0081               	movwf	1
  5730  04D9                     l4585:
  5731  04D9  0874               	movf	memset@n,w
  5732  04DA  077C               	addwf	memset@s,w
  5733  04DB  00F6               	movwf	??_memset
  5734  04DC  0875               	movf	memset@n+1,w
  5735  04DD  3D7D               	addwfc	memset@s+1,w
  5736  04DE  00F7               	movwf	??_memset+1
  5737  04DF  0876               	movf	??_memset,w
  5738  04E0  3EFF               	addlw	255
  5739  04E1  00F8               	movwf	??_memset+2
  5740  04E2  30FF               	movlw	255
  5741  04E3  3D77               	addwfc	??_memset+1,w
  5742  04E4  00F9               	movwf	??_memset+3
  5743  04E5  0878               	movf	??_memset+2,w
  5744  04E6  0086               	movwf	6
  5745  04E7  0879               	movf	??_memset+3,w
  5746  04E8  0087               	movwf	7
  5747  04E9  0872               	movf	memset@c,w
  5748  04EA  0081               	movwf	1
  5749  04EB                     l4587:
  5750  04EB  3000               	movlw	0
  5751  04EC  0275               	subwf	memset@n+1,w
  5752  04ED  3003               	movlw	3
  5753  04EE  1903               	skipnz
  5754  04EF  0274               	subwf	memset@n,w
  5755  04F0  1803               	skipnc
  5756  04F1  2CF3               	goto	u3421
  5757  04F2  2CF4               	goto	u3420
  5758  04F3                     u3421:
  5759  04F3  2CF5               	goto	l4591
  5760  04F4                     u3420:
  5761  04F4  2D91               	goto	l1317
  5762  04F5                     l4591:
  5763  04F5  087C               	movf	memset@s,w
  5764  04F6  3E01               	addlw	1
  5765  04F7  00F6               	movwf	??_memset
  5766  04F8  3000               	movlw	0
  5767  04F9  3D7D               	addwfc	memset@s+1,w
  5768  04FA  00F7               	movwf	??_memset+1
  5769  04FB  0876               	movf	??_memset,w
  5770  04FC  0086               	movwf	6
  5771  04FD  0877               	movf	??_memset+1,w
  5772  04FE  0087               	movwf	7
  5773  04FF  0872               	movf	memset@c,w
  5774  0500  0081               	movwf	1
  5775  0501  087C               	movf	memset@s,w
  5776  0502  3E02               	addlw	2
  5777  0503  00F6               	movwf	??_memset
  5778  0504  3000               	movlw	0
  5779  0505  3D7D               	addwfc	memset@s+1,w
  5780  0506  00F7               	movwf	??_memset+1
  5781  0507  0876               	movf	??_memset,w
  5782  0508  0086               	movwf	6
  5783  0509  0877               	movf	??_memset+1,w
  5784  050A  0087               	movwf	7
  5785  050B  0872               	movf	memset@c,w
  5786  050C  0081               	movwf	1
  5787  050D  0874               	movf	memset@n,w
  5788  050E  077C               	addwf	memset@s,w
  5789  050F  00F6               	movwf	??_memset
  5790  0510  0875               	movf	memset@n+1,w
  5791  0511  3D7D               	addwfc	memset@s+1,w
  5792  0512  00F7               	movwf	??_memset+1
  5793  0513  0876               	movf	??_memset,w
  5794  0514  3EFE               	addlw	254
  5795  0515  00F8               	movwf	??_memset+2
  5796  0516  30FF               	movlw	255
  5797  0517  3D77               	addwfc	??_memset+1,w
  5798  0518  00F9               	movwf	??_memset+3
  5799  0519  0878               	movf	??_memset+2,w
  5800  051A  0086               	movwf	6
  5801  051B  0879               	movf	??_memset+3,w
  5802  051C  0087               	movwf	7
  5803  051D  0872               	movf	memset@c,w
  5804  051E  0081               	movwf	1
  5805  051F  0874               	movf	memset@n,w
  5806  0520  077C               	addwf	memset@s,w
  5807  0521  00F6               	movwf	??_memset
  5808  0522  0875               	movf	memset@n+1,w
  5809  0523  3D7D               	addwfc	memset@s+1,w
  5810  0524  00F7               	movwf	??_memset+1
  5811  0525  0876               	movf	??_memset,w
  5812  0526  3EFD               	addlw	253
  5813  0527  00F8               	movwf	??_memset+2
  5814  0528  30FF               	movlw	255
  5815  0529  3D77               	addwfc	??_memset+1,w
  5816  052A  00F9               	movwf	??_memset+3
  5817  052B  0878               	movf	??_memset+2,w
  5818  052C  0086               	movwf	6
  5819  052D  0879               	movf	??_memset+3,w
  5820  052E  0087               	movwf	7
  5821  052F  0872               	movf	memset@c,w
  5822  0530  0081               	movwf	1
  5823  0531                     l4593:
  5824  0531  3000               	movlw	0
  5825  0532  0275               	subwf	memset@n+1,w
  5826  0533  3007               	movlw	7
  5827  0534  1903               	skipnz
  5828  0535  0274               	subwf	memset@n,w
  5829  0536  1803               	skipnc
  5830  0537  2D39               	goto	u3431
  5831  0538  2D3A               	goto	u3430
  5832  0539                     u3431:
  5833  0539  2D3B               	goto	l4597
  5834  053A                     u3430:
  5835  053A  2D91               	goto	l1317
  5836  053B                     l4597:
  5837  053B  087C               	movf	memset@s,w
  5838  053C  3E03               	addlw	3
  5839  053D  00F6               	movwf	??_memset
  5840  053E  3000               	movlw	0
  5841  053F  3D7D               	addwfc	memset@s+1,w
  5842  0540  00F7               	movwf	??_memset+1
  5843  0541  0876               	movf	??_memset,w
  5844  0542  0086               	movwf	6
  5845  0543  0877               	movf	??_memset+1,w
  5846  0544  0087               	movwf	7
  5847  0545  0872               	movf	memset@c,w
  5848  0546  0081               	movwf	1
  5849  0547  0874               	movf	memset@n,w
  5850  0548  077C               	addwf	memset@s,w
  5851  0549  00F6               	movwf	??_memset
  5852  054A  0875               	movf	memset@n+1,w
  5853  054B  3D7D               	addwfc	memset@s+1,w
  5854  054C  00F7               	movwf	??_memset+1
  5855  054D  0876               	movf	??_memset,w
  5856  054E  3EFC               	addlw	252
  5857  054F  00F8               	movwf	??_memset+2
  5858  0550  30FF               	movlw	255
  5859  0551  3D77               	addwfc	??_memset+1,w
  5860  0552  00F9               	movwf	??_memset+3
  5861  0553  0878               	movf	??_memset+2,w
  5862  0554  0086               	movwf	6
  5863  0555  0879               	movf	??_memset+3,w
  5864  0556  0087               	movwf	7
  5865  0557  0872               	movf	memset@c,w
  5866  0558  0081               	movwf	1
  5867  0559                     l4599:
  5868  0559  3000               	movlw	0
  5869  055A  0275               	subwf	memset@n+1,w
  5870  055B  3009               	movlw	9
  5871  055C  1903               	skipnz
  5872  055D  0274               	subwf	memset@n,w
  5873  055E  1803               	skipnc
  5874  055F  2D61               	goto	u3441
  5875  0560  2D62               	goto	u3440
  5876  0561                     u3441:
  5877  0561  2D63               	goto	l4603
  5878  0562                     u3440:
  5879  0562  2D91               	goto	l1317
  5880  0563                     l4603:
  5881  0563  097C               	comf	memset@s,w
  5882  0564  00F6               	movwf	??_memset
  5883  0565  097D               	comf	memset@s+1,w
  5884  0566  00F7               	movwf	??_memset+1
  5885  0567  0AF6               	incf	??_memset,f
  5886  0568  1903               	skipnz
  5887  0569  0AF7               	incf	??_memset+1,f
  5888  056A  3003               	movlw	3
  5889  056B  0576               	andwf	??_memset,w
  5890  056C  00FA               	movwf	memset@k
  5891  056D  3000               	movlw	0
  5892  056E  0577               	andwf	??_memset+1,w
  5893  056F  00FB               	movwf	memset@k+1
  5894  0570                     l4605:
  5895  0570  087A               	movf	memset@k,w
  5896  0571  07FC               	addwf	memset@s,f
  5897  0572  087B               	movf	memset@k+1,w
  5898  0573  3DFD               	addwfc	memset@s+1,f
  5899  0574                     l4607:
  5900  0574  087A               	movf	memset@k,w
  5901  0575  02F4               	subwf	memset@n,f
  5902  0576  087B               	movf	memset@k+1,w
  5903  0577  3BF5               	subwfb	memset@n+1,f
  5904  0578                     l4609:
  5905  0578  30FC               	movlw	252
  5906  0579  05F4               	andwf	memset@n,f
  5907  057A  30FF               	movlw	255
  5908  057B  05F5               	andwf	memset@n+1,f
  5909  057C  2D8B               	goto	l4617
  5910  057D                     l4611:
  5911  057D  087C               	movf	memset@s,w
  5912  057E  0086               	movwf	6
  5913  057F  087D               	movf	memset@s+1,w
  5914  0580  0087               	movwf	7
  5915  0581  0872               	movf	memset@c,w
  5916  0582  0081               	movwf	1
  5917  0583                     l4613:
  5918  0583  3001               	movlw	1
  5919  0584  02F4               	subwf	memset@n,f
  5920  0585  3000               	movlw	0
  5921  0586  3BF5               	subwfb	memset@n+1,f
  5922  0587                     l4615:
  5923  0587  3001               	movlw	1
  5924  0588  07FC               	addwf	memset@s,f
  5925  0589  3000               	movlw	0
  5926  058A  3DFD               	addwfc	memset@s+1,f
  5927  058B                     l4617:
  5928  058B  0874               	movf	memset@n,w
  5929  058C  0475               	iorwf	memset@n+1,w
  5930  058D  1D03               	btfss	3,2
  5931  058E  2D90               	goto	u3451
  5932  058F  2D91               	goto	u3450
  5933  0590                     u3451:
  5934  0590  2D7D               	goto	l4611
  5935  0591                     u3450:
  5936  0591                     l1317:
  5937  0591  0008               	return
  5938  0592                     __end_of_memset:
  5939                           
  5940                           	psect	text16
  5941  0CA2                     __ptext16:	
  5942 ;; *************** function _USBStdGetStatusHandler *****************
  5943 ;; Defined at:
  5944 ;;		line 2133 in file "lib/usb/usb_device.c"
  5945 ;; Parameters:    Size  Location     Type
  5946 ;;		None
  5947 ;; Auto vars:     Size  Location     Type
  5948 ;;  p               2    2[COMMON] PTR struct __BDT
  5949 ;;		 -> RAM(4096), NULL(0), BDT(64), 
  5950 ;; Return value:  Size  Location     Type
  5951 ;;                  1    wreg      void 
  5952 ;; Registers used:
  5953 ;;		wreg, fsr0l, fsr0h, fsr1l, fsr1h, status,2, status,0
  5954 ;; Tracked objects:
  5955 ;;		On entry : 0/0
  5956 ;;		On exit  : 0/0
  5957 ;;		Unchanged: 0/0
  5958 ;; Data sizes:     COMMON   BANK1   BANK2   BANK3   BANK4   BANK5   BANK6   BANK7   BANK8   BANK9  BANK10  BANK11  BANK1
      +2
  5959 ;;      Params:         0       0       0       0       0       0       0       0       0       0       0       0       
      +0
  5960 ;;      Locals:         2       0       0       0       0       0       0       0       0       0       0       0       
      +0
  5961 ;;      Temps:          2       0       0       0       0       0       0       0       0       0       0       0       
      +0
  5962 ;;      Totals:         4       0       0       0       0       0       0       0       0       0       0       0       
      +0
  5963 ;;Total ram usage:        4 bytes
  5964 ;; Hardware stack levels used: 1
  5965 ;; Hardware stack levels required when called: 1
  5966 ;; This function calls:
  5967 ;;		Nothing
  5968 ;; This function is called by:
  5969 ;;		_USBCheckStdRequest
  5970 ;; This function uses a non-reentrant model
  5971 ;;
  5972                           
  5973  0CA2                     _USBStdGetStatusHandler:	
  5974                           ;psect for function _USBStdGetStatusHandler
  5975                           
  5976  0CA2                     l3465:	
  5977                           ;incstack = 0
  5978                           ; Regs used in _USBStdGetStatusHandler: [wreg-fsr1h+status,2+status,0]
  5979                           
  5980                           
  5981                           ;lib/usb/usb_device.c: 2135:     CtrlTrfData[0] = 0;
  5982  0CA2  0020               	movlb	0	; select bank0
  5983  0CA3  01E8               	clrf	104	;volatile
  5984                           
  5985                           ;lib/usb/usb_device.c: 2136:     CtrlTrfData[1] = 0;
  5986  0CA4  01E9               	clrf	105	;volatile
  5987                           
  5988                           ;lib/usb/usb_device.c: 2138:     switch(SetupPkt.Recipient)
  5989  0CA5  2CEC               	goto	l3489
  5990  0CA6                     l300:	
  5991                           ;lib/usb/usb_device.c: 2139:     {;lib/usb/usb_device.c: 2140:         case (0x00):
  5992                           
  5993                           
  5994                           ;lib/usb/usb_device.c: 2141:             inPipes[0].info.bits.busy = 1;
  5995  0CA6  0021               	movlb	1	; select bank1
  5996  0CA7  17BA               	bsf	(_inPipes^(0+128)+2),7
  5997  0CA8                     l3469:	
  5998                           ;lib/usb/usb_device.c: 2146:             if(0 == 1)
  5999                           
  6000                           
  6001                           ;lib/usb/usb_device.c: 2151:             if(RemoteWakeup == 1)
  6002  0CA8  034F               	decf	_RemoteWakeup^(0+128),w
  6003  0CA9  1D03               	btfss	3,2
  6004  0CAA  2CAC               	goto	u2211
  6005  0CAB  2CAD               	goto	u2210
  6006  0CAC                     u2211:
  6007  0CAC  2D00               	goto	l303
  6008  0CAD                     u2210:
  6009  0CAD                     l3471:
  6010                           
  6011                           ;lib/usb/usb_device.c: 2152:             {;lib/usb/usb_device.c: 2153:                 C
      +                          trlTrfData[0]|=0x02;
  6012  0CAD  0020               	movlb	0	; select bank0
  6013  0CAE  14E8               	bsf	104,1	;volatile
  6014  0CAF  2D00               	goto	l303
  6015  0CB0                     l304:	
  6016                           ;lib/usb/usb_device.c: 2156:         case (0x01):
  6017                           
  6018                           
  6019                           ;lib/usb/usb_device.c: 2157:             inPipes[0].info.bits.busy = 1;
  6020  0CB0  0021               	movlb	1	; select bank1
  6021  0CB1  17BA               	bsf	(_inPipes^(0+128)+2),7
  6022                           
  6023                           ;lib/usb/usb_device.c: 2158:             break;
  6024  0CB2  2D00               	goto	l303
  6025  0CB3                     l305:	
  6026                           ;lib/usb/usb_device.c: 2159:         case (0x02):
  6027                           
  6028                           
  6029                           ;lib/usb/usb_device.c: 2160:             inPipes[0].info.bits.busy = 1;
  6030  0CB3  0021               	movlb	1	; select bank1
  6031  0CB4  17BA               	bsf	(_inPipes^(0+128)+2),7
  6032  0CB5                     l3473:
  6033                           
  6034                           ;lib/usb/usb_device.c: 2164:             if(SetupPkt.EPNum != 0)
  6035  0CB5  0020               	movlb	0	; select bank0
  6036  0CB6  0864               	movf	100,w	;volatile
  6037  0CB7  390F               	andlw	15
  6038  0CB8  3A00               	xorlw	0
  6039  0CB9  1903               	skipnz
  6040  0CBA  2CBC               	goto	u2221
  6041  0CBB  2CBD               	goto	u2220
  6042  0CBC                     u2221:
  6043  0CBC  2D00               	goto	l303
  6044  0CBD                     u2220:
  6045  0CBD                     l3475:
  6046                           
  6047                           ;lib/usb/usb_device.c: 2165:             {;lib/usb/usb_device.c: 2166:                 B
      +                          DT_ENTRY *p;;lib/usb/usb_device.c: 2168:                 if(SetupPkt.EPDir == 0)
  6048  0CBD  1BE4               	btfsc	100,7	;volatile
  6049  0CBE  2CC0               	goto	u2231
  6050  0CBF  2CC1               	goto	u2230
  6051  0CC0                     u2231:
  6052  0CC0  2CCD               	goto	l3479
  6053  0CC1                     u2230:
  6054  0CC1                     l3477:
  6055                           
  6056                           ;lib/usb/usb_device.c: 2169:                 {;lib/usb/usb_device.c: 2170:              
      +                                 p = (BDT_ENTRY*)pBDTEntryOut[SetupPkt.EPNum];
  6057  0CC1  0864               	movf	100,w	;volatile
  6058  0CC2  390F               	andlw	15
  6059  0CC3  0709               	addwf	9,w
  6060  0CC4  3EA0               	addlw	(low (_pBDTEntryOut| (0+256)))& (0+255)
  6061  0CC5  0086               	movwf	6
  6062  0CC6  3001               	movlw	1	; select bank3/4
  6063  0CC7  0087               	movwf	7
  6064  0CC8  3F40               	moviw [0]fsr1
  6065  0CC9  00F2               	movwf	USBStdGetStatusHandler@p
  6066  0CCA  3F41               	moviw [1]fsr1
  6067  0CCB  00F3               	movwf	USBStdGetStatusHandler@p+1
  6068                           
  6069                           ;lib/usb/usb_device.c: 2171:                 }
  6070  0CCC  2CD7               	goto	l3481
  6071  0CCD                     l3479:
  6072                           
  6073                           ;lib/usb/usb_device.c: 2173:                 {;lib/usb/usb_device.c: 2174:              
      +                                 p = (BDT_ENTRY*)pBDTEntryIn[SetupPkt.EPNum];
  6074  0CCD  0864               	movf	100,w	;volatile
  6075  0CCE  390F               	andlw	15
  6076  0CCF  0709               	addwf	9,w
  6077  0CD0  3EB0               	addlw	(low (_pBDTEntryIn| 0))& (0+255)
  6078  0CD1  0086               	movwf	6
  6079  0CD2  0187               	clrf	7
  6080  0CD3  3F40               	moviw [0]fsr1
  6081  0CD4  00F2               	movwf	USBStdGetStatusHandler@p
  6082  0CD5  3F41               	moviw [1]fsr1
  6083  0CD6  00F3               	movwf	USBStdGetStatusHandler@p+1
  6084  0CD7                     l3481:
  6085                           
  6086                           ;lib/usb/usb_device.c: 2177:                 if((p->STAT.UOWN == 1) && (p->STAT.BSTALL =
      +                          = 1))
  6087  0CD7  0872               	movf	USBStdGetStatusHandler@p,w
  6088  0CD8  0086               	movwf	6
  6089  0CD9  0873               	movf	USBStdGetStatusHandler@p+1,w
  6090  0CDA  0087               	movwf	7
  6091  0CDB  1F81               	btfss	1,7
  6092  0CDC  2CDE               	goto	u2241
  6093  0CDD  2CDF               	goto	u2240
  6094  0CDE                     u2241:
  6095  0CDE  2D00               	goto	l303
  6096  0CDF                     u2240:
  6097  0CDF                     l3483:
  6098  0CDF  0872               	movf	USBStdGetStatusHandler@p,w
  6099  0CE0  0086               	movwf	6
  6100  0CE1  0873               	movf	USBStdGetStatusHandler@p+1,w
  6101  0CE2  0087               	movwf	7
  6102  0CE3  1D01               	btfss	1,2
  6103  0CE4  2CE6               	goto	u2251
  6104  0CE5  2CE7               	goto	u2250
  6105  0CE6                     u2251:
  6106  0CE6  2D00               	goto	l303
  6107  0CE7                     u2250:
  6108  0CE7                     l3485:
  6109                           
  6110                           ;lib/usb/usb_device.c: 2178:                 {;lib/usb/usb_device.c: 2179:              
      +                                 CtrlTrfData[0]=0x01;
  6111  0CE7  3001               	movlw	1
  6112  0CE8  00F0               	movwf	??_USBStdGetStatusHandler
  6113  0CE9  0870               	movf	??_USBStdGetStatusHandler,w
  6114  0CEA  00E8               	movwf	104	;volatile
  6115  0CEB  2D00               	goto	l303
  6116  0CEC                     l3489:
  6117  0CEC  0860               	movf	96,w	;volatile
  6118  0CED  391F               	andlw	31
  6119  0CEE  00F0               	movwf	??_USBStdGetStatusHandler
  6120  0CEF  01F1               	clrf	??_USBStdGetStatusHandler+1
  6121                           
  6122                           ; Switch on 2 bytes has been partitioned into a top level switch of size 1, and 1 sub-sw
      +                          itches
  6123                           ; Switch size 1, requested type "simple"
  6124                           ; Number of cases is 1, Range of values is 0 to 0
  6125                           ; switch strategies available:
  6126                           ; Name         Instructions Cycles
  6127                           ; simple_byte            4     3 (average)
  6128                           ; direct_byte            8     6 (fixed)
  6129                           ; jumptable            260     6 (fixed)
  6130                           ;	Chosen strategy is simple_byte
  6131  0CF0  0871               	movf	??_USBStdGetStatusHandler+1,w
  6132  0CF1  3A00               	xorlw	0	; case 0
  6133  0CF2  1903               	skipnz
  6134  0CF3  2CF5               	goto	l5207
  6135  0CF4  2D00               	goto	l303
  6136  0CF5                     l5207:
  6137                           
  6138                           ; Switch size 1, requested type "simple"
  6139                           ; Number of cases is 3, Range of values is 0 to 2
  6140                           ; switch strategies available:
  6141                           ; Name         Instructions Cycles
  6142                           ; simple_byte           10     6 (average)
  6143                           ; direct_byte           12     6 (fixed)
  6144                           ; jumptable            260     6 (fixed)
  6145                           ;	Chosen strategy is simple_byte
  6146  0CF5  0870               	movf	??_USBStdGetStatusHandler,w
  6147  0CF6  3A00               	xorlw	0	; case 0
  6148  0CF7  1903               	skipnz
  6149  0CF8  2CA6               	goto	l300
  6150  0CF9  3A01               	xorlw	1	; case 1
  6151  0CFA  1903               	skipnz
  6152  0CFB  2CB0               	goto	l304
  6153  0CFC  3A03               	xorlw	3	; case 2
  6154  0CFD  1903               	skipnz
  6155  0CFE  2CB3               	goto	l305
  6156  0CFF  2D00               	goto	l303
  6157  0D00                     l303:
  6158                           
  6159                           ;lib/usb/usb_device.c: 2185:     if(inPipes[0].info.bits.busy == 1)
  6160  0D00  0021               	movlb	1	; select bank1
  6161  0D01  1FBA               	btfss	(_inPipes^(0+128)+2),7
  6162  0D02  2D04               	goto	u2261
  6163  0D03  2D05               	goto	u2260
  6164  0D04                     u2261:
  6165  0D04  2D0E               	goto	l311
  6166  0D05                     u2260:
  6167  0D05                     l3491:
  6168                           
  6169                           ;lib/usb/usb_device.c: 2186:     {;lib/usb/usb_device.c: 2187:         inPipes[0].pSrc.b
      +                          Ram = (uint8_t*)&CtrlTrfData;
  6170  0D05  3068               	movlw	104
  6171  0D06  00B8               	movwf	_inPipes^(0+128)
  6172  0D07  3000               	movlw	0
  6173  0D08  00B9               	movwf	(_inPipes+1)^(0+128)
  6174  0D09                     l3493:
  6175                           
  6176                           ;lib/usb/usb_device.c: 2188:         inPipes[0].info.bits.ctrl_trf_mem = 0x01;
  6177  0D09  143A               	bsf	(_inPipes^(0+128)+2),0
  6178  0D0A                     l3495:
  6179                           
  6180                           ;lib/usb/usb_device.c: 2189:         inPipes[0].wCount.v[0] = 2;
  6181  0D0A  3002               	movlw	2
  6182  0D0B  00F0               	movwf	??_USBStdGetStatusHandler
  6183  0D0C  0870               	movf	??_USBStdGetStatusHandler,w
  6184  0D0D  00BB               	movwf	(_inPipes^(0+128)+3)
  6185  0D0E                     l311:
  6186  0D0E  0008               	return
  6187  0D0F                     __end_of_USBStdGetStatusHandler:
  6188                           
  6189                           	psect	text17
  6190  0E6E                     __ptext17:	
  6191 ;; *************** function _USBStdGetDscHandler *****************
  6192 ;; Defined at:
  6193 ;;		line 2047 in file "lib/usb/usb_device.c"
  6194 ;; Parameters:    Size  Location     Type
  6195 ;;		None
  6196 ;; Auto vars:     Size  Location     Type
  6197 ;;		None
  6198 ;; Return value:  Size  Location     Type
  6199 ;;                  1    wreg      void 
  6200 ;; Registers used:
  6201 ;;		wreg, fsr0l, fsr0h, status,2, status,0, pclath
  6202 ;; Tracked objects:
  6203 ;;		On entry : 0/0
  6204 ;;		On exit  : 0/0
  6205 ;;		Unchanged: 0/0
  6206 ;; Data sizes:     COMMON   BANK1   BANK2   BANK3   BANK4   BANK5   BANK6   BANK7   BANK8   BANK9  BANK10  BANK11  BANK1
      +2
  6207 ;;      Params:         0       0       0       0       0       0       0       0       0       0       0       0       
      +0
  6208 ;;      Locals:         0       0       0       0       0       0       0       0       0       0       0       0       
      +0
  6209 ;;      Temps:          3       0       0       0       0       0       0       0       0       0       0       0       
      +0
  6210 ;;      Totals:         3       0       0       0       0       0       0       0       0       0       0       0       
      +0
  6211 ;;Total ram usage:        3 bytes
  6212 ;; Hardware stack levels used: 1
  6213 ;; Hardware stack levels required when called: 1
  6214 ;; This function calls:
  6215 ;;		Nothing
  6216 ;; This function is called by:
  6217 ;;		_USBCheckStdRequest
  6218 ;; This function uses a non-reentrant model
  6219 ;;
  6220                           
  6221  0E6E                     _USBStdGetDscHandler:	
  6222                           ;psect for function _USBStdGetDscHandler
  6223                           
  6224  0E6E                     l3431:	
  6225                           ;incstack = 0
  6226                           ; Regs used in _USBStdGetDscHandler: [wreg-fsr0h+status,2+status,0+pclath]
  6227                           
  6228                           
  6229                           ;lib/usb/usb_device.c: 2049:     if(SetupPkt.bmRequestType == 0x80)
  6230  0E6E  3080               	movlw	128
  6231  0E6F  0020               	movlb	0	; select bank0
  6232  0E70  0660               	xorwf	96,w	;volatile
  6233  0E71  1D03               	btfss	3,2
  6234  0E72  2E74               	goto	u2181
  6235  0E73  2E75               	goto	u2180
  6236  0E74                     u2181:
  6237  0E74  2EF2               	goto	l296
  6238  0E75                     u2180:
  6239  0E75                     l3433:
  6240                           
  6241                           ;lib/usb/usb_device.c: 2050:     {;lib/usb/usb_device.c: 2051:         inPipes[0].info.V
      +                          al = 0x00 | 0x80 | 0x40;
  6242  0E75  30C0               	movlw	192
  6243  0E76  00F0               	movwf	??_USBStdGetDscHandler
  6244  0E77  0870               	movf	??_USBStdGetDscHandler,w
  6245  0E78  0021               	movlb	1	; select bank1
  6246  0E79  00BA               	movwf	(_inPipes^(0+128)+2)
  6247                           
  6248                           ;lib/usb/usb_device.c: 2053:         switch(SetupPkt.bDescriptorType)
  6249  0E7A  2EDE               	goto	l3459
  6250  0E7B                     l3435:
  6251                           
  6252                           ;lib/usb/usb_device.c: 2059:                     inPipes[0].pSrc.bRom = (const uint8_t*)
      +                          &device_dsc;
  6253  0E7B  3042               	movlw	low (_device_dsc| (0+32768))
  6254  0E7C  0021               	movlb	1	; select bank1
  6255  0E7D  00B8               	movwf	_inPipes^(0+128)
  6256  0E7E  3091               	movlw	high (_device_dsc| (0+32768))
  6257  0E7F  00B9               	movwf	(_inPipes^(0+128)+1)
  6258                           
  6259                           ;lib/usb/usb_device.c: 2061:                 inPipes[0].wCount.Val = sizeof(device_dsc);
  6260  0E80  3012               	movlw	18
  6261  0E81  00BB               	movwf	(_inPipes^(0+128)+3)
  6262  0E82  3000               	movlw	0
  6263  0E83  00BC               	movwf	(_inPipes^(0+128)+4)
  6264                           
  6265                           ;lib/usb/usb_device.c: 2062:                 break;
  6266  0E84  2EF2               	goto	l296
  6267  0E85                     l3437:
  6268                           
  6269                           ;lib/usb/usb_device.c: 2067:                 if(SetupPkt.bDscIndex < 1)
  6270  0E85  0862               	movf	98,w	;volatile
  6271  0E86  1D03               	btfss	3,2
  6272  0E87  2E89               	goto	u2191
  6273  0E88  2E8A               	goto	u2190
  6274  0E89                     u2191:
  6275  0E89  2EB9               	goto	l3445
  6276  0E8A                     u2190:
  6277  0E8A                     l3439:
  6278                           
  6279                           ;lib/usb/usb_device.c: 2068:                 {;lib/usb/usb_device.c: 2072:              
      +                                     inPipes[0].pSrc.bRom = *(USB_CD_Ptr+SetupPkt.bDscIndex);
  6280  0E8A  0862               	movf	98,w	;volatile
  6281  0E8B  00F0               	movwf	??_USBStdGetDscHandler
  6282  0E8C  01F1               	clrf	??_USBStdGetDscHandler+1
  6283  0E8D  35F0               	lslf	??_USBStdGetDscHandler,f
  6284  0E8E  0DF1               	rlf	??_USBStdGetDscHandler+1,f
  6285  0E8F  305E               	movlw	low (_USB_CD_Ptr| (0+32768))
  6286  0E90  0770               	addwf	??_USBStdGetDscHandler,w
  6287  0E91  0084               	movwf	4
  6288  0E92  3091               	movlw	high (_USB_CD_Ptr| (0+32768))
  6289  0E93  3D71               	addwfc	??_USBStdGetDscHandler+1,w
  6290  0E94  0085               	movwf	5
  6291  0E95  3F00               	moviw [0]fsr0
  6292  0E96  0021               	movlb	1	; select bank1
  6293  0E97  00B8               	movwf	_inPipes^(0+128)
  6294  0E98  3F01               	moviw [1]fsr0
  6295  0E99  00B9               	movwf	(_inPipes+1)^(0+128)
  6296  0E9A                     l3441:
  6297                           
  6298                           ;lib/usb/usb_device.c: 2078:                     inPipes[0].wCount.byte.LB = *(inPipes[0
      +                          ].pSrc.bRom+2);
  6299  0E9A  0839               	movf	(_inPipes+1)^(0+128),w
  6300  0E9B  00F1               	movwf	??_USBStdGetDscHandler+1
  6301  0E9C  0838               	movf	_inPipes^(0+128),w
  6302  0E9D  00F0               	movwf	??_USBStdGetDscHandler
  6303  0E9E  3002               	movlw	2
  6304  0E9F  0770               	addwf	??_USBStdGetDscHandler,w
  6305  0EA0  0084               	movwf	4
  6306  0EA1  0871               	movf	??_USBStdGetDscHandler+1,w
  6307  0EA2  1803               	skipnc
  6308  0EA3  0A71               	incf	??_USBStdGetDscHandler+1,w
  6309  0EA4  0085               	movwf	5
  6310  0EA5  0800               	movf	0,w	;code access
  6311  0EA6  00F2               	movwf	??_USBStdGetDscHandler+2
  6312  0EA7  0872               	movf	??_USBStdGetDscHandler+2,w
  6313  0EA8  00BB               	movwf	(_inPipes^(0+128)+3)
  6314  0EA9                     l3443:
  6315                           
  6316                           ;lib/usb/usb_device.c: 2079:                     inPipes[0].wCount.byte.HB = *(inPipes[0
      +                          ].pSrc.bRom+3);
  6317  0EA9  0839               	movf	(_inPipes+1)^(0+128),w
  6318  0EAA  00F1               	movwf	??_USBStdGetDscHandler+1
  6319  0EAB  0838               	movf	_inPipes^(0+128),w
  6320  0EAC  00F0               	movwf	??_USBStdGetDscHandler
  6321  0EAD  3003               	movlw	3
  6322  0EAE  0770               	addwf	??_USBStdGetDscHandler,w
  6323  0EAF  0084               	movwf	4
  6324  0EB0  0871               	movf	??_USBStdGetDscHandler+1,w
  6325  0EB1  1803               	skipnc
  6326  0EB2  0A71               	incf	??_USBStdGetDscHandler+1,w
  6327  0EB3  0085               	movwf	5
  6328  0EB4  0800               	movf	0,w	;code access
  6329  0EB5  00F2               	movwf	??_USBStdGetDscHandler+2
  6330  0EB6  0872               	movf	??_USBStdGetDscHandler+2,w
  6331  0EB7  00BC               	movwf	(_inPipes^(0+128)+4)
  6332                           
  6333                           ;lib/usb/usb_device.c: 2080:                 }
  6334  0EB8  2EF2               	goto	l296
  6335  0EB9                     l3445:
  6336                           
  6337                           ;lib/usb/usb_device.c: 2082:     {;lib/usb/usb_device.c: 2083:      inPipes[0].info.Val 
      +                          = 0;
  6338  0EB9  0021               	movlb	1	; select bank1
  6339  0EBA  01BA               	clrf	(_inPipes^(0+128)+2)
  6340  0EBB  2EF2               	goto	l296
  6341  0EBC                     l3447:
  6342                           
  6343                           ;lib/usb/usb_device.c: 2090:                 if(SetupPkt.bDscIndex<3)
  6344  0EBC  3003               	movlw	3
  6345  0EBD  0262               	subwf	98,w	;volatile
  6346  0EBE  1803               	skipnc
  6347  0EBF  2EC1               	goto	u2201
  6348  0EC0  2EC2               	goto	u2200
  6349  0EC1                     u2201:
  6350  0EC1  2EB9               	goto	l3445
  6351  0EC2                     u2200:
  6352  0EC2                     l3449:
  6353                           
  6354                           ;lib/usb/usb_device.c: 2091:                 {;lib/usb/usb_device.c: 2093:              
      +                                 inPipes[0].pSrc.bRom = *(USB_SD_Ptr+SetupPkt.bDscIndex);
  6355  0EC2  0862               	movf	98,w	;volatile
  6356  0EC3  00F0               	movwf	??_USBStdGetDscHandler
  6357  0EC4  01F1               	clrf	??_USBStdGetDscHandler+1
  6358  0EC5  35F0               	lslf	??_USBStdGetDscHandler,f
  6359  0EC6  0DF1               	rlf	??_USBStdGetDscHandler+1,f
  6360  0EC7  3054               	movlw	low (_USB_SD_Ptr| (0+32768))
  6361  0EC8  0770               	addwf	??_USBStdGetDscHandler,w
  6362  0EC9  0084               	movwf	4
  6363  0ECA  3091               	movlw	high (_USB_SD_Ptr| (0+32768))
  6364  0ECB  3D71               	addwfc	??_USBStdGetDscHandler+1,w
  6365  0ECC  0085               	movwf	5
  6366  0ECD  3F00               	moviw [0]fsr0
  6367  0ECE  0021               	movlb	1	; select bank1
  6368  0ECF  00B8               	movwf	_inPipes^(0+128)
  6369  0ED0  3F01               	moviw [1]fsr0
  6370  0ED1  00B9               	movwf	(_inPipes+1)^(0+128)
  6371  0ED2                     l3451:
  6372                           
  6373                           ;lib/usb/usb_device.c: 2095:                     inPipes[0].wCount.Val = *inPipes[0].pSr
      +                          c.bRom;
  6374  0ED2  0838               	movf	_inPipes^(0+128),w
  6375  0ED3  0084               	movwf	4
  6376  0ED4  0839               	movf	(_inPipes+1)^(0+128),w
  6377  0ED5  0085               	movwf	5
  6378  0ED6  0800               	movf	0,w	;code access
  6379  0ED7  00F0               	movwf	??_USBStdGetDscHandler
  6380  0ED8  01F1               	clrf	??_USBStdGetDscHandler+1
  6381  0ED9  0870               	movf	??_USBStdGetDscHandler,w
  6382  0EDA  00BB               	movwf	(_inPipes^(0+128)+3)
  6383  0EDB  0871               	movf	??_USBStdGetDscHandler+1,w
  6384  0EDC  00BC               	movwf	((_inPipes+1)^(0+128)+3)
  6385                           
  6386                           ;lib/usb/usb_device.c: 2096:                 }
  6387  0EDD  2EF2               	goto	l296
  6388  0EDE                     l3459:
  6389  0EDE  0020               	movlb	0	; select bank0
  6390  0EDF  0863               	movf	99,w	;volatile
  6391  0EE0  00F0               	movwf	??_USBStdGetDscHandler
  6392  0EE1  01F1               	clrf	??_USBStdGetDscHandler+1
  6393                           
  6394                           ; Switch on 2 bytes has been partitioned into a top level switch of size 1, and 1 sub-sw
      +                          itches
  6395                           ; Switch size 1, requested type "simple"
  6396                           ; Number of cases is 1, Range of values is 0 to 0
  6397                           ; switch strategies available:
  6398                           ; Name         Instructions Cycles
  6399                           ; simple_byte            4     3 (average)
  6400                           ; direct_byte            8     6 (fixed)
  6401                           ; jumptable            260     6 (fixed)
  6402                           ;	Chosen strategy is simple_byte
  6403  0EE2  0871               	movf	??_USBStdGetDscHandler+1,w
  6404  0EE3  3A00               	xorlw	0	; case 0
  6405  0EE4  1903               	skipnz
  6406  0EE5  2EE7               	goto	l5209
  6407  0EE6  2EB9               	goto	l3445
  6408  0EE7                     l5209:
  6409                           
  6410                           ; Switch size 1, requested type "simple"
  6411                           ; Number of cases is 3, Range of values is 1 to 3
  6412                           ; switch strategies available:
  6413                           ; Name         Instructions Cycles
  6414                           ; simple_byte           10     6 (average)
  6415                           ; direct_byte           15     9 (fixed)
  6416                           ; jumptable            263     9 (fixed)
  6417                           ;	Chosen strategy is simple_byte
  6418  0EE7  0870               	movf	??_USBStdGetDscHandler,w
  6419  0EE8  3A01               	xorlw	1	; case 1
  6420  0EE9  1903               	skipnz
  6421  0EEA  2E7B               	goto	l3435
  6422  0EEB  3A03               	xorlw	3	; case 2
  6423  0EEC  1903               	skipnz
  6424  0EED  2E85               	goto	l3437
  6425  0EEE  3A01               	xorlw	1	; case 3
  6426  0EEF  1903               	skipnz
  6427  0EF0  2EBC               	goto	l3447
  6428  0EF1  2EB9               	goto	l3445
  6429  0EF2                     l296:
  6430  0EF2  0008               	return
  6431  0EF3                     __end_of_USBStdGetDscHandler:
  6432                           
  6433                           	psect	text18
  6434  0044                     __ptext18:	
  6435 ;; *************** function _USBStdFeatureReqHandler *****************
  6436 ;; Defined at:
  6437 ;;		line 2761 in file "lib/usb/usb_device.c"
  6438 ;; Parameters:    Size  Location     Type
  6439 ;;		None
  6440 ;; Auto vars:     Size  Location     Type
  6441 ;;  p               2   11[BANK1 ] PTR struct __BDT
  6442 ;;		 -> RAM(4096), NULL(0), BDT(64), 
  6443 ;;  pUEP            2    8[BANK1 ] PTR unsigned char 
  6444 ;;		 -> UEP0(1), 
  6445 ;;  current_ep_d    1   10[BANK1 ] struct .
  6446 ;; Return value:  Size  Location     Type
  6447 ;;                  1    wreg      void 
  6448 ;; Registers used:
  6449 ;;		wreg, fsr0l, fsr0h, fsr1l, fsr1h, status,2, status,0, pclath, cstack
  6450 ;; Tracked objects:
  6451 ;;		On entry : 0/0
  6452 ;;		On exit  : 0/0
  6453 ;;		Unchanged: 0/0
  6454 ;; Data sizes:     COMMON   BANK1   BANK2   BANK3   BANK4   BANK5   BANK6   BANK7   BANK8   BANK9  BANK10  BANK11  BANK1
      +2
  6455 ;;      Params:         0       0       0       0       0       0       0       0       0       0       0       0       
      +0
  6456 ;;      Locals:         0       5       0       0       0       0       0       0       0       0       0       0       
      +0
  6457 ;;      Temps:          0       2       0       0       0       0       0       0       0       0       0       0       
      +0
  6458 ;;      Totals:         0       7       0       0       0       0       0       0       0       0       0       0       
      +0
  6459 ;;Total ram usage:        7 bytes
  6460 ;; Hardware stack levels used: 1
  6461 ;; Hardware stack levels required when called: 5
  6462 ;; This function calls:
  6463 ;;		_USER_USB_CALLBACK_EVENT_HANDLER
  6464 ;; This function is called by:
  6465 ;;		_USBCheckStdRequest
  6466 ;; This function uses a non-reentrant model
  6467 ;;
  6468                           
  6469  0044                     _USBStdFeatureReqHandler:	
  6470                           ;psect for function _USBStdFeatureReqHandler
  6471                           
  6472  0044                     l3501:	
  6473                           ;incstack = 0
  6474                           ; Regs used in _USBStdFeatureReqHandler: [wreg-fsr1h+status,2+status,0+pclath+cstack]
  6475                           
  6476                           
  6477                           ;lib/usb/usb_device.c: 2763:     BDT_ENTRY *p;;lib/usb/usb_device.c: 2764:     EP_STATUS
      +                           current_ep_data;;lib/usb/usb_device.c: 2768:         unsigned char* pUEP;;lib/usb/usb_d
      +                          evice.c: 2772:     if((SetupPkt.bFeature == 1)&&
  6478  0044  0020               	movlb	0	; select bank0
  6479  0045  0362               	decf	98,w	;volatile
  6480  0046  1D03               	btfss	3,2
  6481  0047  2849               	goto	u2271
  6482  0048  284A               	goto	u2270
  6483  0049                     u2271:
  6484  0049  2860               	goto	l3513
  6485  004A                     u2270:
  6486  004A                     l3503:
  6487  004A  0860               	movf	96,w	;volatile
  6488  004B  391F               	andlw	31
  6489  004C  3A00               	xorlw	0
  6490  004D  1D03               	skipz
  6491  004E  2850               	goto	u2281
  6492  004F  2851               	goto	u2280
  6493  0050                     u2281:
  6494  0050  2860               	goto	l3513
  6495  0051                     u2280:
  6496  0051                     l3505:
  6497                           
  6498                           ;lib/usb/usb_device.c: 2774:     {;lib/usb/usb_device.c: 2775:         inPipes[0].info.b
      +                          its.busy = 1;
  6499  0051  0021               	movlb	1	; select bank1
  6500  0052  17BA               	bsf	(_inPipes^(0+128)+2),7
  6501  0053                     l3507:
  6502                           
  6503                           ;lib/usb/usb_device.c: 2776:         if(SetupPkt.bRequest == 3)
  6504  0053  3003               	movlw	3
  6505  0054  0020               	movlb	0	; select bank0
  6506  0055  0661               	xorwf	97,w	;volatile
  6507  0056  1D03               	btfss	3,2
  6508  0057  2859               	goto	u2291
  6509  0058  285A               	goto	u2290
  6510  0059                     u2291:
  6511  0059  285E               	goto	l3511
  6512  005A                     u2290:
  6513  005A                     l3509:
  6514                           
  6515                           ;lib/usb/usb_device.c: 2777:             RemoteWakeup = 1;
  6516  005A  0021               	movlb	1	; select bank1
  6517  005B  01CF               	clrf	_RemoteWakeup^(0+128)
  6518  005C  0ACF               	incf	_RemoteWakeup^(0+128),f
  6519  005D  2860               	goto	l3513
  6520  005E                     l3511:
  6521                           
  6522                           ;lib/usb/usb_device.c: 2779:             RemoteWakeup = 0;
  6523  005E  0021               	movlb	1	; select bank1
  6524  005F  01CF               	clrf	_RemoteWakeup^(0+128)
  6525  0060                     l3513:
  6526                           
  6527                           ;lib/usb/usb_device.c: 2783:     if((SetupPkt.bFeature == 0)&&
  6528  0060  0020               	movlb	0	; select bank0
  6529  0061  0862               	movf	98,w	;volatile
  6530  0062  1D03               	btfss	3,2
  6531  0063  2865               	goto	u2301
  6532  0064  2866               	goto	u2300
  6533  0065                     u2301:
  6534  0065  29AA               	goto	l401
  6535  0066                     u2300:
  6536  0066                     l3515:
  6537  0066  0860               	movf	96,w	;volatile
  6538  0067  391F               	andlw	31
  6539  0068  3A02               	xorlw	2
  6540  0069  1D03               	skipz
  6541  006A  286C               	goto	u2311
  6542  006B  286D               	goto	u2310
  6543  006C                     u2311:
  6544  006C  29AA               	goto	l401
  6545  006D                     u2310:
  6546  006D                     l3517:
  6547  006D  0864               	movf	100,w	;volatile
  6548  006E  390F               	andlw	15
  6549  006F  3A00               	xorlw	0
  6550  0070  1903               	skipnz
  6551  0071  2873               	goto	u2321
  6552  0072  2874               	goto	u2320
  6553  0073                     u2321:
  6554  0073  29AA               	goto	l401
  6555  0074                     u2320:
  6556  0074                     l3519:
  6557  0074  0864               	movf	100,w	;volatile
  6558  0075  390F               	andlw	15
  6559  0076  0021               	movlb	1	; select bank1
  6560  0077  00DF               	movwf	??_USBStdFeatureReqHandler^(0+128)
  6561  0078  3004               	movlw	4
  6562  0079  025F               	subwf	??_USBStdFeatureReqHandler^(0+128),w
  6563  007A  1803               	skipnc
  6564  007B  287D               	goto	u2331
  6565  007C  287E               	goto	u2330
  6566  007D                     u2331:
  6567  007D  29AA               	goto	l401
  6568  007E                     u2330:
  6569  007E                     l3521:
  6570  007E  3020               	movlw	32
  6571  007F  0654               	xorwf	_USBDeviceState^(0+128),w
  6572  0080  1D03               	btfss	3,2
  6573  0081  2883               	goto	u2341
  6574  0082  2884               	goto	u2340
  6575  0083                     u2341:
  6576  0083  29AA               	goto	l401
  6577  0084                     u2340:
  6578  0084                     l3523:
  6579                           
  6580                           ;lib/usb/usb_device.c: 2787:     {;lib/usb/usb_device.c: 2790:   inPipes[0].info.bits.bu
      +                          sy = 1;
  6581  0084  17BA               	bsf	(_inPipes^(0+128)+2),7
  6582                           
  6583                           ;lib/usb/usb_device.c: 2793:         if(SetupPkt.EPDir == 0)
  6584  0085  0020               	movlb	0	; select bank0
  6585  0086  1BE4               	btfsc	100,7	;volatile
  6586  0087  2889               	goto	u2351
  6587  0088  288A               	goto	u2350
  6588  0089                     u2351:
  6589  0089  28A3               	goto	l3527
  6590  008A                     u2350:
  6591  008A                     l3525:
  6592                           
  6593                           ;lib/usb/usb_device.c: 2794:         {;lib/usb/usb_device.c: 2795:             p = (BDT_
      +                          ENTRY*)pBDTEntryOut[SetupPkt.EPNum];
  6594  008A  0864               	movf	100,w	;volatile
  6595  008B  390F               	andlw	15
  6596  008C  0709               	addwf	9,w
  6597  008D  3EA0               	addlw	(low (_pBDTEntryOut| (0+256)))& (0+255)
  6598  008E  0086               	movwf	6
  6599  008F  3001               	movlw	1	; select bank3/4
  6600  0090  0087               	movwf	7
  6601  0091  3F40               	moviw [0]fsr1
  6602  0092  0021               	movlb	1	; select bank1
  6603  0093  00E4               	movwf	USBStdFeatureReqHandler@p^(0+128)
  6604  0094  3F41               	moviw [1]fsr1
  6605  0095  00E5               	movwf	(USBStdFeatureReqHandler@p+1)^(0+128)
  6606                           
  6607                           ;lib/usb/usb_device.c: 2796:             current_ep_data.Val = ep_data_out[SetupPkt.EPNu
      +                          m].Val;
  6608  0096  0020               	movlb	0	; select bank0
  6609  0097  0864               	movf	100,w	;volatile
  6610  0098  390F               	andlw	15
  6611  0099  3EAC               	addlw	(low (_ep_data_out| (0+256)))& (0+255)
  6612  009A  0086               	movwf	6
  6613  009B  3001               	movlw	1	; select bank3/4
  6614  009C  0087               	movwf	7
  6615  009D  0801               	movf	1,w
  6616  009E  0021               	movlb	1	; select bank1
  6617  009F  00DF               	movwf	??_USBStdFeatureReqHandler^(0+128)
  6618  00A0  085F               	movf	??_USBStdFeatureReqHandler^(0+128),w
  6619  00A1  00E3               	movwf	USBStdFeatureReqHandler@current_ep_data^(0+128)
  6620                           
  6621                           ;lib/usb/usb_device.c: 2797:         }
  6622  00A2  28BA               	goto	l3529
  6623  00A3                     l3527:
  6624                           
  6625                           ;lib/usb/usb_device.c: 2799:         {;lib/usb/usb_device.c: 2800:             p = (BDT_
      +                          ENTRY*)pBDTEntryIn[SetupPkt.EPNum];
  6626  00A3  0864               	movf	100,w	;volatile
  6627  00A4  390F               	andlw	15
  6628  00A5  0709               	addwf	9,w
  6629  00A6  3EB0               	addlw	(low (_pBDTEntryIn| 0))& (0+255)
  6630  00A7  0086               	movwf	6
  6631  00A8  0187               	clrf	7
  6632  00A9  3F40               	moviw [0]fsr1
  6633  00AA  0021               	movlb	1	; select bank1
  6634  00AB  00E4               	movwf	USBStdFeatureReqHandler@p^(0+128)
  6635  00AC  3F41               	moviw [1]fsr1
  6636  00AD  00E5               	movwf	(USBStdFeatureReqHandler@p+1)^(0+128)
  6637                           
  6638                           ;lib/usb/usb_device.c: 2801:             current_ep_data.Val = ep_data_in[SetupPkt.EPNum
      +                          ].Val;
  6639  00AE  0020               	movlb	0	; select bank0
  6640  00AF  0864               	movf	100,w	;volatile
  6641  00B0  390F               	andlw	15
  6642  00B1  3EB0               	addlw	(low (_ep_data_in| (0+256)))& (0+255)
  6643  00B2  0086               	movwf	6
  6644  00B3  3001               	movlw	1	; select bank3/4
  6645  00B4  0087               	movwf	7
  6646  00B5  0801               	movf	1,w
  6647  00B6  0021               	movlb	1	; select bank1
  6648  00B7  00DF               	movwf	??_USBStdFeatureReqHandler^(0+128)
  6649  00B8  085F               	movf	??_USBStdFeatureReqHandler^(0+128),w
  6650  00B9  00E3               	movwf	USBStdFeatureReqHandler@current_ep_data^(0+128)
  6651  00BA                     l3529:
  6652                           
  6653                           ;lib/usb/usb_device.c: 2808:             if(current_ep_data.bits.ping_pong_state == 0)
  6654  00BA  1863               	btfsc	USBStdFeatureReqHandler@current_ep_data^(0+128),0
  6655  00BB  28BD               	goto	u2361
  6656  00BC  28BE               	goto	u2360
  6657  00BD                     u2361:
  6658  00BD  28C9               	goto	l3533
  6659  00BE                     u2360:
  6660  00BE                     l3531:
  6661                           
  6662                           ;lib/usb/usb_device.c: 2809:             {;lib/usb/usb_device.c: 2810:                 p
      +                           = (BDT_ENTRY*)(((uint16_t)(p)) & (~0x0004u));
  6663  00BE  30FB               	movlw	251
  6664  00BF  00DF               	movwf	??_USBStdFeatureReqHandler^(0+128)
  6665  00C0  30FF               	movlw	255
  6666  00C1  00E0               	movwf	(??_USBStdFeatureReqHandler^(0+128)+1)
  6667  00C2  0864               	movf	USBStdFeatureReqHandler@p^(0+128),w
  6668  00C3  055F               	andwf	??_USBStdFeatureReqHandler^(0+128),w
  6669  00C4  00E4               	movwf	USBStdFeatureReqHandler@p^(0+128)
  6670  00C5  0865               	movf	(USBStdFeatureReqHandler@p+1)^(0+128),w
  6671  00C6  0560               	andwf	(??_USBStdFeatureReqHandler+1)^(0+128),w
  6672  00C7  00E5               	movwf	(USBStdFeatureReqHandler@p+1)^(0+128)
  6673                           
  6674                           ;lib/usb/usb_device.c: 2811:             }
  6675  00C8  28CF               	goto	l3535
  6676  00C9                     l3533:
  6677                           
  6678                           ;lib/usb/usb_device.c: 2813:             {;lib/usb/usb_device.c: 2814:                 p
      +                           = (BDT_ENTRY*)(((uint16_t)p) | 0x0004u);
  6679  00C9  3004               	movlw	4
  6680  00CA  0464               	iorwf	USBStdFeatureReqHandler@p^(0+128),w
  6681  00CB  00E4               	movwf	USBStdFeatureReqHandler@p^(0+128)
  6682  00CC  3000               	movlw	0
  6683  00CD  0465               	iorwf	(USBStdFeatureReqHandler@p+1)^(0+128),w
  6684  00CE  00E5               	movwf	(USBStdFeatureReqHandler@p+1)^(0+128)
  6685  00CF                     l3535:
  6686                           
  6687                           ;lib/usb/usb_device.c: 2820:         if(SetupPkt.EPDir == 0)
  6688  00CF  0020               	movlb	0	; select bank0
  6689  00D0  1BE4               	btfsc	100,7	;volatile
  6690  00D1  28D3               	goto	u2371
  6691  00D2  28D4               	goto	u2370
  6692  00D3                     u2371:
  6693  00D3  28E1               	goto	l3539
  6694  00D4                     u2370:
  6695  00D4                     l3537:
  6696                           
  6697                           ;lib/usb/usb_device.c: 2821:         {;lib/usb/usb_device.c: 2822:             pBDTEntry
      +                          Out[SetupPkt.EPNum] = (volatile BDT_ENTRY *)p;
  6698  00D4  0864               	movf	100,w	;volatile
  6699  00D5  390F               	andlw	15
  6700  00D6  0709               	addwf	9,w
  6701  00D7  3EA0               	addlw	(low (_pBDTEntryOut| (0+256)))& (0+255)
  6702  00D8  0086               	movwf	6
  6703  00D9  3001               	movlw	1	; select bank3/4
  6704  00DA  0087               	movwf	7
  6705  00DB  0021               	movlb	1	; select bank1
  6706  00DC  0864               	movf	USBStdFeatureReqHandler@p^(0+128),w
  6707  00DD  3FC0               	movwi [0]fsr1
  6708  00DE  0865               	movf	(USBStdFeatureReqHandler@p+1)^(0+128),w
  6709  00DF  3FC1               	movwi [1]fsr1
  6710                           
  6711                           ;lib/usb/usb_device.c: 2823:         }
  6712  00E0  28EC               	goto	l3541
  6713  00E1                     l3539:
  6714                           
  6715                           ;lib/usb/usb_device.c: 2825:         {;lib/usb/usb_device.c: 2826:             pBDTEntry
      +                          In[SetupPkt.EPNum] = (volatile BDT_ENTRY *)p;
  6716  00E1  0864               	movf	100,w	;volatile
  6717  00E2  390F               	andlw	15
  6718  00E3  0709               	addwf	9,w
  6719  00E4  3EB0               	addlw	(low (_pBDTEntryIn| 0))& (0+255)
  6720  00E5  0086               	movwf	6
  6721  00E6  0187               	clrf	7
  6722  00E7  0021               	movlb	1	; select bank1
  6723  00E8  0864               	movf	USBStdFeatureReqHandler@p^(0+128),w
  6724  00E9  3FC0               	movwi [0]fsr1
  6725  00EA  0865               	movf	(USBStdFeatureReqHandler@p+1)^(0+128),w
  6726  00EB  3FC1               	movwi [1]fsr1
  6727  00EC                     l3541:
  6728                           
  6729                           ;lib/usb/usb_device.c: 2830:         if(SetupPkt.bRequest == 3)
  6730  00EC  3003               	movlw	3
  6731  00ED  0020               	movlb	0	; select bank0
  6732  00EE  0661               	xorwf	97,w	;volatile
  6733  00EF  1D03               	btfss	3,2
  6734  00F0  28F2               	goto	u2381
  6735  00F1  28F3               	goto	u2380
  6736  00F2                     u2381:
  6737  00F2  291C               	goto	l3555
  6738  00F3                     u2380:
  6739  00F3                     l3543:
  6740                           
  6741                           ;lib/usb/usb_device.c: 2831:         {;lib/usb/usb_device.c: 2832:             if(p->STA
      +                          T.UOWN == 1)
  6742  00F3  0021               	movlb	1	; select bank1
  6743  00F4  0864               	movf	USBStdFeatureReqHandler@p^(0+128),w
  6744  00F5  0086               	movwf	6
  6745  00F6  0865               	movf	(USBStdFeatureReqHandler@p+1)^(0+128),w
  6746  00F7  0087               	movwf	7
  6747  00F8  1F81               	btfss	1,7
  6748  00F9  28FB               	goto	u2391
  6749  00FA  28FC               	goto	u2390
  6750  00FB                     u2391:
  6751  00FB  2910               	goto	l3551
  6752  00FC                     u2390:
  6753  00FC                     l3545:
  6754                           
  6755                           ;lib/usb/usb_device.c: 2833:             {;lib/usb/usb_device.c: 2836:                 i
      +                          f(SetupPkt.EPDir == 0)
  6756  00FC  0020               	movlb	0	; select bank0
  6757  00FD  1BE4               	btfsc	100,7	;volatile
  6758  00FE  2900               	goto	u2401
  6759  00FF  2901               	goto	u2400
  6760  0100                     u2401:
  6761  0100  2909               	goto	l3549
  6762  0101                     u2400:
  6763  0101                     l3547:
  6764                           
  6765                           ;lib/usb/usb_device.c: 2837:                 {;lib/usb/usb_device.c: 2838:              
      +                                 ep_data_out[SetupPkt.EPNum].bits.transfer_terminated = 1;
  6766  0101  0864               	movf	100,w	;volatile
  6767  0102  390F               	andlw	15
  6768  0103  3EAC               	addlw	(low (_ep_data_out| (0+256)))& (0+255)
  6769  0104  0086               	movwf	6
  6770  0105  3001               	movlw	1	; select bank3/4
  6771  0106  0087               	movwf	7
  6772  0107  1481               	bsf	1,1
  6773                           
  6774                           ;lib/usb/usb_device.c: 2839:                 }
  6775  0108  2910               	goto	l3551
  6776  0109                     l3549:
  6777                           
  6778                           ;lib/usb/usb_device.c: 2841:                 {;lib/usb/usb_device.c: 2842:              
      +                                 ep_data_in[SetupPkt.EPNum].bits.transfer_terminated = 1;
  6779  0109  0864               	movf	100,w	;volatile
  6780  010A  390F               	andlw	15
  6781  010B  3EB0               	addlw	(low (_ep_data_in| (0+256)))& (0+255)
  6782  010C  0086               	movwf	6
  6783  010D  3001               	movlw	1	; select bank3/4
  6784  010E  0087               	movwf	7
  6785  010F  1481               	bsf	1,1
  6786  0110                     l3551:
  6787                           
  6788                           ;lib/usb/usb_device.c: 2847:             p->STAT.Val |= 0x04;
  6789  0110  0021               	movlb	1	; select bank1
  6790  0111  0864               	movf	USBStdFeatureReqHandler@p^(0+128),w
  6791  0112  0086               	movwf	6
  6792  0113  0865               	movf	(USBStdFeatureReqHandler@p+1)^(0+128),w
  6793  0114  0087               	movwf	7
  6794  0115  1501               	bsf	1,2
  6795  0116                     l3553:
  6796                           
  6797                           ;lib/usb/usb_device.c: 2848:             p->STAT.Val |= 0x80;
  6798  0116  0864               	movf	USBStdFeatureReqHandler@p^(0+128),w
  6799  0117  0086               	movwf	6
  6800  0118  0865               	movf	(USBStdFeatureReqHandler@p+1)^(0+128),w
  6801  0119  0087               	movwf	7
  6802  011A  1781               	bsf	1,7
  6803                           
  6804                           ;lib/usb/usb_device.c: 2849:         }
  6805  011B  29AA               	goto	l401
  6806  011C                     l3555:
  6807                           
  6808                           ;lib/usb/usb_device.c: 2851:         {;lib/usb/usb_device.c: 2855:                 p = (
      +                          BDT_ENTRY*)(((uint16_t)p) ^ 0x0004u);
  6809  011C  3004               	movlw	4
  6810  011D  0021               	movlb	1	; select bank1
  6811  011E  0664               	xorwf	USBStdFeatureReqHandler@p^(0+128),w
  6812  011F  00E4               	movwf	USBStdFeatureReqHandler@p^(0+128)
  6813  0120  3000               	movlw	0
  6814  0121  0665               	xorwf	(USBStdFeatureReqHandler@p+1)^(0+128),w
  6815  0122  00E5               	movwf	(USBStdFeatureReqHandler@p+1)^(0+128)
  6816  0123                     l3557:
  6817                           
  6818                           ;lib/usb/usb_device.c: 2857:                 if(p->STAT.UOWN == 1)
  6819  0123  0864               	movf	USBStdFeatureReqHandler@p^(0+128),w
  6820  0124  0086               	movwf	6
  6821  0125  0865               	movf	(USBStdFeatureReqHandler@p+1)^(0+128),w
  6822  0126  0087               	movwf	7
  6823  0127  1F81               	btfss	1,7
  6824  0128  292A               	goto	u2411
  6825  0129  292B               	goto	u2410
  6826  012A                     u2411:
  6827  012A  2948               	goto	l3565
  6828  012B                     u2410:
  6829  012B                     l3559:
  6830                           
  6831                           ;lib/usb/usb_device.c: 2858:                 {;lib/usb/usb_device.c: 2861:              
      +                                 p->STAT.Val &= (~0x80);
  6832  012B  307F               	movlw	127
  6833  012C  00DF               	movwf	??_USBStdFeatureReqHandler^(0+128)
  6834  012D  0864               	movf	USBStdFeatureReqHandler@p^(0+128),w
  6835  012E  0086               	movwf	6
  6836  012F  0865               	movf	(USBStdFeatureReqHandler@p+1)^(0+128),w
  6837  0130  0087               	movwf	7
  6838  0131  085F               	movf	??_USBStdFeatureReqHandler^(0+128),w
  6839  0132  0581               	andwf	1,f
  6840  0133                     l3561:
  6841                           
  6842                           ;lib/usb/usb_device.c: 2862:                     p->STAT.Val |= 0x40;
  6843  0133  0864               	movf	USBStdFeatureReqHandler@p^(0+128),w
  6844  0134  0086               	movwf	6
  6845  0135  0865               	movf	(USBStdFeatureReqHandler@p+1)^(0+128),w
  6846  0136  0087               	movwf	7
  6847  0137  1701               	bsf	1,6
  6848  0138                     l3563:
  6849                           
  6850                           ;lib/usb/usb_device.c: 2863:                     USER_USB_CALLBACK_EVENT_HANDLER((USB_EV
      +                          ENT)EVENT_TRANSFER_TERMINATED,p,sizeof(p));
  6851  0138  3005               	movlw	5
  6852  0139  00D9               	movwf	USER_USB_CALLBACK_EVENT_HANDLER@event^(0+128)
  6853  013A  3000               	movlw	0
  6854  013B  00DA               	movwf	(USER_USB_CALLBACK_EVENT_HANDLER@event^(0+128)+1)
  6855  013C  0865               	movf	(USBStdFeatureReqHandler@p+1)^(0+128),w
  6856  013D  00DC               	movwf	(USER_USB_CALLBACK_EVENT_HANDLER@pdata+1)^(0+128)
  6857  013E  0864               	movf	USBStdFeatureReqHandler@p^(0+128),w
  6858  013F  00DB               	movwf	USER_USB_CALLBACK_EVENT_HANDLER@pdata^(0+128)
  6859  0140  3002               	movlw	2
  6860  0141  00DD               	movwf	USER_USB_CALLBACK_EVENT_HANDLER@size^(0+128)
  6861  0142  3000               	movlw	0
  6862  0143  00DE               	movwf	(USER_USB_CALLBACK_EVENT_HANDLER@size^(0+128)+1)
  6863  0144  318A  229E  3180   	fcall	_USER_USB_CALLBACK_EVENT_HANDLER
  6864                           
  6865                           ;lib/usb/usb_device.c: 2864:                 }
  6866  0147  294D               	goto	l3567
  6867  0148                     l3565:
  6868                           
  6869                           ;lib/usb/usb_device.c: 2866:                 {;lib/usb/usb_device.c: 2868:      p->STAT.
      +                          Val |= 0x40;
  6870  0148  0864               	movf	USBStdFeatureReqHandler@p^(0+128),w
  6871  0149  0086               	movwf	6
  6872  014A  0865               	movf	(USBStdFeatureReqHandler@p+1)^(0+128),w
  6873  014B  0087               	movwf	7
  6874  014C  1701               	bsf	1,6
  6875  014D                     l3567:
  6876                           
  6877                           ;lib/usb/usb_device.c: 2873:                 p = (BDT_ENTRY*)(((uint16_t)p) ^ 0x0004u);
  6878  014D  3004               	movlw	4
  6879  014E  0021               	movlb	1	; select bank1
  6880  014F  0664               	xorwf	USBStdFeatureReqHandler@p^(0+128),w
  6881  0150  00E4               	movwf	USBStdFeatureReqHandler@p^(0+128)
  6882  0151  3000               	movlw	0
  6883  0152  0665               	xorwf	(USBStdFeatureReqHandler@p+1)^(0+128),w
  6884  0153  00E5               	movwf	(USBStdFeatureReqHandler@p+1)^(0+128)
  6885  0154                     l3569:
  6886                           
  6887                           ;lib/usb/usb_device.c: 2879:                 if((current_ep_data.bits.transfer_terminate
      +                          d != 0) || (p->STAT.UOWN == 1))
  6888  0154  18E3               	btfsc	USBStdFeatureReqHandler@current_ep_data^(0+128),1
  6889  0155  2957               	goto	u2421
  6890  0156  2958               	goto	u2420
  6891  0157                     u2421:
  6892  0157  2960               	goto	l397
  6893  0158                     u2420:
  6894  0158                     l3571:
  6895  0158  0864               	movf	USBStdFeatureReqHandler@p^(0+128),w
  6896  0159  0086               	movwf	6
  6897  015A  0865               	movf	(USBStdFeatureReqHandler@p+1)^(0+128),w
  6898  015B  0087               	movwf	7
  6899  015C  1F81               	btfss	1,7
  6900  015D  295F               	goto	u2431
  6901  015E  2960               	goto	u2430
  6902  015F                     u2431:
  6903  015F  298D               	goto	l3579
  6904  0160                     u2430:
  6905  0160                     l397:
  6906                           
  6907                           ;lib/usb/usb_device.c: 2880:                 {;lib/usb/usb_device.c: 2881:              
      +                                 if(SetupPkt.EPDir == 0)
  6908  0160  0020               	movlb	0	; select bank0
  6909  0161  1BE4               	btfsc	100,7	;volatile
  6910  0162  2964               	goto	u2441
  6911  0163  2965               	goto	u2440
  6912  0164                     u2441:
  6913  0164  296D               	goto	l3575
  6914  0165                     u2440:
  6915  0165                     l3573:
  6916                           
  6917                           ;lib/usb/usb_device.c: 2882:                     {;lib/usb/usb_device.c: 2883:          
      +                                         ep_data_out[SetupPkt.EPNum].bits.transfer_terminated = 0;
  6918  0165  0864               	movf	100,w	;volatile
  6919  0166  390F               	andlw	15
  6920  0167  3EAC               	addlw	(low (_ep_data_out| (0+256)))& (0+255)
  6921  0168  0086               	movwf	6
  6922  0169  3001               	movlw	1	; select bank3/4
  6923  016A  0087               	movwf	7
  6924  016B  1081               	bcf	1,1
  6925                           
  6926                           ;lib/usb/usb_device.c: 2884:                     }
  6927  016C  2974               	goto	l399
  6928  016D                     l3575:
  6929                           
  6930                           ;lib/usb/usb_device.c: 2886:                     {;lib/usb/usb_device.c: 2887:          
      +                                         ep_data_in[SetupPkt.EPNum].bits.transfer_terminated = 0;
  6931  016D  0864               	movf	100,w	;volatile
  6932  016E  390F               	andlw	15
  6933  016F  3EB0               	addlw	(low (_ep_data_in| (0+256)))& (0+255)
  6934  0170  0086               	movwf	6
  6935  0171  3001               	movlw	1	; select bank3/4
  6936  0172  0087               	movwf	7
  6937  0173  1081               	bcf	1,1
  6938  0174                     l399:	
  6939                           ;lib/usb/usb_device.c: 2888:                     }
  6940                           
  6941                           
  6942                           ;lib/usb/usb_device.c: 2890:                     p->STAT.Val &= ~(0x80 | 0x40 | 0x04);
  6943  0174  303B               	movlw	59
  6944  0175  0021               	movlb	1	; select bank1
  6945  0176  00DF               	movwf	??_USBStdFeatureReqHandler^(0+128)
  6946  0177  0864               	movf	USBStdFeatureReqHandler@p^(0+128),w
  6947  0178  0086               	movwf	6
  6948  0179  0865               	movf	(USBStdFeatureReqHandler@p+1)^(0+128),w
  6949  017A  0087               	movwf	7
  6950  017B  085F               	movf	??_USBStdFeatureReqHandler^(0+128),w
  6951  017C  0581               	andwf	1,f
  6952  017D                     l3577:
  6953                           
  6954                           ;lib/usb/usb_device.c: 2893:                     USER_USB_CALLBACK_EVENT_HANDLER((USB_EV
      +                          ENT)EVENT_TRANSFER_TERMINATED,p,sizeof(p));
  6955  017D  3005               	movlw	5
  6956  017E  00D9               	movwf	USER_USB_CALLBACK_EVENT_HANDLER@event^(0+128)
  6957  017F  3000               	movlw	0
  6958  0180  00DA               	movwf	(USER_USB_CALLBACK_EVENT_HANDLER@event^(0+128)+1)
  6959  0181  0865               	movf	(USBStdFeatureReqHandler@p+1)^(0+128),w
  6960  0182  00DC               	movwf	(USER_USB_CALLBACK_EVENT_HANDLER@pdata+1)^(0+128)
  6961  0183  0864               	movf	USBStdFeatureReqHandler@p^(0+128),w
  6962  0184  00DB               	movwf	USER_USB_CALLBACK_EVENT_HANDLER@pdata^(0+128)
  6963  0185  3002               	movlw	2
  6964  0186  00DD               	movwf	USER_USB_CALLBACK_EVENT_HANDLER@size^(0+128)
  6965  0187  3000               	movlw	0
  6966  0188  00DE               	movwf	(USER_USB_CALLBACK_EVENT_HANDLER@size^(0+128)+1)
  6967  0189  318A  229E  3180   	fcall	_USER_USB_CALLBACK_EVENT_HANDLER
  6968                           
  6969                           ;lib/usb/usb_device.c: 2894:                 }
  6970  018C  2995               	goto	l3581
  6971  018D                     l3579:
  6972                           
  6973                           ;lib/usb/usb_device.c: 2896:                 {;lib/usb/usb_device.c: 2898:              
      +                                 p->STAT.Val &= ~(0x80 | 0x40 | 0x04);
  6974  018D  303B               	movlw	59
  6975  018E  00DF               	movwf	??_USBStdFeatureReqHandler^(0+128)
  6976  018F  0864               	movf	USBStdFeatureReqHandler@p^(0+128),w
  6977  0190  0086               	movwf	6
  6978  0191  0865               	movf	(USBStdFeatureReqHandler@p+1)^(0+128),w
  6979  0192  0087               	movwf	7
  6980  0193  085F               	movf	??_USBStdFeatureReqHandler^(0+128),w
  6981  0194  0581               	andwf	1,f
  6982  0195                     l3581:
  6983                           
  6984                           ;lib/usb/usb_device.c: 2946:                 pUEP = (unsigned char*)(&UEP0+SetupPkt.EPNu
      +                          m);
  6985  0195  0020               	movlb	0	; select bank0
  6986  0196  0864               	movf	100,w	;volatile
  6987  0197  390F               	andlw	15
  6988  0198  3E98               	addlw	152
  6989  0199  0021               	movlb	1	; select bank1
  6990  019A  00DF               	movwf	??_USBStdFeatureReqHandler^(0+128)
  6991  019B  01E0               	clrf	(??_USBStdFeatureReqHandler^(0+128)+1)
  6992  019C  300E               	movlw	14
  6993  019D  3DE0               	addwfc	(??_USBStdFeatureReqHandler^(0+128)+1),f
  6994  019E  085F               	movf	??_USBStdFeatureReqHandler^(0+128),w
  6995  019F  00E1               	movwf	USBStdFeatureReqHandler@pUEP^(0+128)
  6996  01A0  0860               	movf	(??_USBStdFeatureReqHandler+1)^(0+128),w
  6997  01A1  00E2               	movwf	(USBStdFeatureReqHandler@pUEP+1)^(0+128)
  6998  01A2                     l3583:
  6999                           
  7000                           ;lib/usb/usb_device.c: 2950:             *pUEP &= ~0x0001;
  7001  01A2  30FE               	movlw	254
  7002  01A3  00DF               	movwf	??_USBStdFeatureReqHandler^(0+128)
  7003  01A4  0861               	movf	USBStdFeatureReqHandler@pUEP^(0+128),w
  7004  01A5  0086               	movwf	6
  7005  01A6  0862               	movf	(USBStdFeatureReqHandler@pUEP+1)^(0+128),w
  7006  01A7  0087               	movwf	7
  7007  01A8  085F               	movf	??_USBStdFeatureReqHandler^(0+128),w
  7008  01A9  0581               	andwf	1,f
  7009  01AA                     l401:
  7010  01AA  0008               	return
  7011  01AB                     __end_of_USBStdFeatureReqHandler:
  7012                           
  7013                           	psect	text19
  7014  0A9E                     __ptext19:	
  7015 ;; *************** function _USER_USB_CALLBACK_EVENT_HANDLER *****************
  7016 ;; Defined at:
  7017 ;;		line 50 in file "lib/usb/usb_events.c"
  7018 ;; Parameters:    Size  Location     Type
  7019 ;;  event           2    0[BANK1 ] enum E2426
  7020 ;;  pdata           2    2[BANK1 ] PTR void 
  7021 ;;		 -> RAM(4096), USTATcopy(1), USBActiveConfiguration(1), NULL(0), 
  7022 ;;		 -> BDT(64), 
  7023 ;;  size            2    4[BANK1 ] unsigned short 
  7024 ;; Auto vars:     Size  Location     Type
  7025 ;;		None
  7026 ;; Return value:  Size  Location     Type
  7027 ;;                  1    wreg      _Bool 
  7028 ;; Registers used:
  7029 ;;		wreg, fsr0l, fsr0h, fsr1l, fsr1h, status,2, status,0, pclath, cstack
  7030 ;; Tracked objects:
  7031 ;;		On entry : 0/0
  7032 ;;		On exit  : 0/0
  7033 ;;		Unchanged: 0/0
  7034 ;; Data sizes:     COMMON   BANK1   BANK2   BANK3   BANK4   BANK5   BANK6   BANK7   BANK8   BANK9  BANK10  BANK11  BANK1
      +2
  7035 ;;      Params:         0       6       0       0       0       0       0       0       0       0       0       0       
      +0
  7036 ;;      Locals:         0       0       0       0       0       0       0       0       0       0       0       0       
      +0
  7037 ;;      Temps:          0       0       0       0       0       0       0       0       0       0       0       0       
      +0
  7038 ;;      Totals:         0       6       0       0       0       0       0       0       0       0       0       0       
      +0
  7039 ;;Total ram usage:        6 bytes
  7040 ;; Hardware stack levels used: 1
  7041 ;; Hardware stack levels required when called: 4
  7042 ;; This function calls:
  7043 ;;		_APP_DeviceJoystickInitialize
  7044 ;;		_APP_LEDUpdateUSBStatus
  7045 ;;		_SYSTEM_Initialize
  7046 ;;		_USBCheckHIDRequest
  7047 ;; This function is called by:
  7048 ;;		_USBDeviceTasks
  7049 ;;		_USBStdSetCfgHandler
  7050 ;;		_USBSuspend
  7051 ;;		_USBWakeFromSuspend
  7052 ;;		_USBCtrlTrfSetupHandler
  7053 ;;		_USBCheckStdRequest
  7054 ;;		_USBStdFeatureReqHandler
  7055 ;; This function uses a non-reentrant model
  7056 ;;
  7057                           
  7058  0A9E                     _USER_USB_CALLBACK_EVENT_HANDLER:	
  7059                           ;psect for function _USER_USB_CALLBACK_EVENT_HANDLER
  7060                           
  7061  0A9E                     l3209:	
  7062                           ;incstack = 0
  7063                           ; Regs used in _USER_USB_CALLBACK_EVENT_HANDLER: [wreg-fsr1h+status,2+status,0+pclath+cs
      +                          tack]
  7064                           
  7065                           
  7066                           ;lib/usb/usb_events.c: 50: _Bool USER_USB_CALLBACK_EVENT_HANDLER(USB_EVENT event, void *
      +                          pdata, uint16_t size);lib/usb/usb_events.c: 51: {;lib/usb/usb_events.c: 52:     switch( 
      +                          (int) event )
  7067  0A9E  2ABB               	goto	l3223
  7068  0A9F                     l3211:
  7069                           
  7070                           ;lib/usb/usb_events.c: 60:             APP_LEDUpdateUSBStatus();
  7071  0A9F  318C  243F  318A   	fcall	_APP_LEDUpdateUSBStatus
  7072                           
  7073                           ;lib/usb/usb_events.c: 61:             break;
  7074  0AA2  2AE3               	goto	l486
  7075  0AA3                     l3213:
  7076                           
  7077                           ;lib/usb/usb_events.c: 65:             APP_LEDUpdateUSBStatus();
  7078  0AA3  318C  243F  318A   	fcall	_APP_LEDUpdateUSBStatus
  7079                           
  7080                           ;lib/usb/usb_events.c: 73:             SYSTEM_Initialize(SYSTEM_STATE_USB_SUSPEND);
  7081  0AA6  3001               	movlw	1
  7082  0AA7  3188  2097  318A   	fcall	_SYSTEM_Initialize
  7083                           
  7084                           ;lib/usb/usb_events.c: 74:             break;
  7085  0AAA  2AE3               	goto	l486
  7086  0AAB                     l3215:
  7087                           
  7088                           ;lib/usb/usb_events.c: 78:             APP_LEDUpdateUSBStatus();
  7089  0AAB  318C  243F  318A   	fcall	_APP_LEDUpdateUSBStatus
  7090                           
  7091                           ;lib/usb/usb_events.c: 84:             SYSTEM_Initialize(SYSTEM_STATE_USB_RESUME);
  7092  0AAE  3002               	movlw	2
  7093  0AAF  3188  2097  318A   	fcall	_SYSTEM_Initialize
  7094                           
  7095                           ;lib/usb/usb_events.c: 85:             break;
  7096  0AB2  2AE3               	goto	l486
  7097  0AB3                     l3217:
  7098                           
  7099                           ;lib/usb/usb_events.c: 90:             APP_DeviceJoystickInitialize();
  7100  0AB3  3189  2164  318A   	fcall	_APP_DeviceJoystickInitialize
  7101                           
  7102                           ;lib/usb/usb_events.c: 91:             break;
  7103  0AB6  2AE3               	goto	l486
  7104  0AB7                     l3219:
  7105                           
  7106                           ;lib/usb/usb_events.c: 99:             USBCheckHIDRequest();
  7107  0AB7  3182  22DA  318A   	fcall	_USBCheckHIDRequest
  7108                           
  7109                           ;lib/usb/usb_events.c: 100:             break;
  7110  0ABA  2AE3               	goto	l486
  7111  0ABB                     l3223:
  7112                           
  7113                           ; Switch on 2 bytes has been partitioned into a top level switch of size 1, and 2 sub-sw
      +                          itches
  7114                           ; Switch size 1, requested type "simple"
  7115                           ; Number of cases is 2, Range of values is 0 to 127
  7116                           ; switch strategies available:
  7117                           ; Name         Instructions Cycles
  7118                           ; simple_byte            7     4 (average)
  7119                           ; direct_byte          262     6 (fixed)
  7120                           ; jumptable            260     6 (fixed)
  7121                           ;	Chosen strategy is simple_byte
  7122  0ABB  0021               	movlb	1	; select bank1
  7123  0ABC  085A               	movf	(USER_USB_CALLBACK_EVENT_HANDLER@event+1)^(0+128),w
  7124  0ABD  3A00               	xorlw	0	; case 0
  7125  0ABE  1903               	skipnz
  7126  0ABF  2AC4               	goto	l5211
  7127  0AC0  3A7F               	xorlw	127	; case 127
  7128  0AC1  1903               	skipnz
  7129  0AC2  2ADE               	goto	l5213
  7130  0AC3  2AE3               	goto	l486
  7131  0AC4                     l5211:
  7132                           
  7133                           ; Switch size 1, requested type "simple"
  7134                           ; Number of cases is 8, Range of values is 1 to 117
  7135                           ; switch strategies available:
  7136                           ; Name         Instructions Cycles
  7137                           ; simple_byte           25    13 (average)
  7138                           ; direct_byte          243     9 (fixed)
  7139                           ; jumptable            263     9 (fixed)
  7140                           ;	Chosen strategy is simple_byte
  7141  0AC4  0859               	movf	USER_USB_CALLBACK_EVENT_HANDLER@event^(0+128),w
  7142  0AC5  3A01               	xorlw	1	; case 1
  7143  0AC6  1903               	skipnz
  7144  0AC7  2AB3               	goto	l3217
  7145  0AC8  3A03               	xorlw	3	; case 2
  7146  0AC9  1903               	skipnz
  7147  0ACA  2AE3               	goto	l486
  7148  0ACB  3A01               	xorlw	1	; case 3
  7149  0ACC  1903               	skipnz
  7150  0ACD  2AB7               	goto	l3219
  7151  0ACE  3A06               	xorlw	6	; case 5
  7152  0ACF  1903               	skipnz
  7153  0AD0  2AE3               	goto	l486
  7154  0AD1  3A77               	xorlw	119	; case 114
  7155  0AD2  1903               	skipnz
  7156  0AD3  2AE3               	goto	l486
  7157  0AD4  3A01               	xorlw	1	; case 115
  7158  0AD5  1903               	skipnz
  7159  0AD6  2A9F               	goto	l3211
  7160  0AD7  3A07               	xorlw	7	; case 116
  7161  0AD8  1903               	skipnz
  7162  0AD9  2AAB               	goto	l3215
  7163  0ADA  3A01               	xorlw	1	; case 117
  7164  0ADB  1903               	skipnz
  7165  0ADC  2AA3               	goto	l3213
  7166  0ADD  2AE3               	goto	l486
  7167  0ADE                     l5213:
  7168                           
  7169                           ; Switch size 1, requested type "simple"
  7170                           ; Number of cases is 1, Range of values is 255 to 255
  7171                           ; switch strategies available:
  7172                           ; Name         Instructions Cycles
  7173                           ; simple_byte            4     3 (average)
  7174                           ; direct_byte            7     5 (fixed)
  7175                           ; jumptable            263     9 (fixed)
  7176                           ;	Chosen strategy is simple_byte
  7177  0ADE  0859               	movf	USER_USB_CALLBACK_EVENT_HANDLER@event^(0+128),w
  7178  0ADF  3AFF               	xorlw	255	; case 255
  7179  0AE0  1903               	skipnz
  7180  0AE1  2AE3               	goto	l486
  7181  0AE2  2AE3               	goto	l486
  7182  0AE3                     l486:
  7183  0AE3  0008               	return
  7184  0AE4                     __end_of_USER_USB_CALLBACK_EVENT_HANDLER:
  7185                           
  7186                           	psect	text20
  7187  02DA                     __ptext20:	
  7188 ;; *************** function _USBCheckHIDRequest *****************
  7189 ;; Defined at:
  7190 ;;		line 163 in file "lib/usb/usb_device_hid.c"
  7191 ;; Parameters:    Size  Location     Type
  7192 ;;		None
  7193 ;; Auto vars:     Size  Location     Type
  7194 ;;		None
  7195 ;; Return value:  Size  Location     Type
  7196 ;;                  1    wreg      void 
  7197 ;; Registers used:
  7198 ;;		wreg, fsr0l, fsr0h, status,2, status,0
  7199 ;; Tracked objects:
  7200 ;;		On entry : 0/0
  7201 ;;		On exit  : 0/0
  7202 ;;		Unchanged: 0/0
  7203 ;; Data sizes:     COMMON   BANK1   BANK2   BANK3   BANK4   BANK5   BANK6   BANK7   BANK8   BANK9  BANK10  BANK11  BANK1
      +2
  7204 ;;      Params:         0       0       0       0       0       0       0       0       0       0       0       0       
      +0
  7205 ;;      Locals:         0       0       0       0       0       0       0       0       0       0       0       0       
      +0
  7206 ;;      Temps:          2       0       0       0       0       0       0       0       0       0       0       0       
      +0
  7207 ;;      Totals:         2       0       0       0       0       0       0       0       0       0       0       0       
      +0
  7208 ;;Total ram usage:        2 bytes
  7209 ;; Hardware stack levels used: 1
  7210 ;; Hardware stack levels required when called: 1
  7211 ;; This function calls:
  7212 ;;		Nothing
  7213 ;; This function is called by:
  7214 ;;		_USER_USB_CALLBACK_EVENT_HANDLER
  7215 ;; This function uses a non-reentrant model
  7216 ;;
  7217                           
  7218  02DA                     _USBCheckHIDRequest:	
  7219                           ;psect for function _USBCheckHIDRequest
  7220                           
  7221  02DA                     l3065:	
  7222                           ;incstack = 0
  7223                           ; Regs used in _USBCheckHIDRequest: [wreg-fsr0h+status,2+status,0]
  7224                           
  7225                           
  7226                           ;lib/usb/usb_device_hid.c: 165:     if(SetupPkt.Recipient != (0x01)) return;
  7227  02DA  0020               	movlb	0	; select bank0
  7228  02DB  0860               	movf	96,w	;volatile
  7229  02DC  391F               	andlw	31
  7230  02DD  3A01               	xorlw	1
  7231  02DE  1903               	skipnz
  7232  02DF  2AE1               	goto	u1771
  7233  02E0  2AE2               	goto	u1770
  7234  02E1                     u1771:
  7235  02E1  2AE3               	goto	l3069
  7236  02E2                     u1770:
  7237  02E2  2BF0               	goto	l431
  7238  02E3                     l3069:
  7239                           
  7240                           ;lib/usb/usb_device_hid.c: 166:     if(SetupPkt.bIntfID != 0x00 && SetupPkt.bIntfID != 0
      +                          x01 && SetupPkt.bIntfID != 0x02 ) return;
  7241  02E3  0864               	movf	100,w	;volatile
  7242  02E4  1903               	btfsc	3,2
  7243  02E5  2AE7               	goto	u1781
  7244  02E6  2AE8               	goto	u1780
  7245  02E7                     u1781:
  7246  02E7  2AF4               	goto	l3077
  7247  02E8                     u1780:
  7248  02E8                     l3071:
  7249  02E8  0364               	decf	100,w	;volatile
  7250  02E9  1903               	btfsc	3,2
  7251  02EA  2AEC               	goto	u1791
  7252  02EB  2AED               	goto	u1790
  7253  02EC                     u1791:
  7254  02EC  2AF4               	goto	l3077
  7255  02ED                     u1790:
  7256  02ED                     l3073:
  7257  02ED  3002               	movlw	2
  7258  02EE  0664               	xorwf	100,w	;volatile
  7259  02EF  1903               	btfsc	3,2
  7260  02F0  2AF2               	goto	u1801
  7261  02F1  2AF3               	goto	u1800
  7262  02F2                     u1801:
  7263  02F2  2AF4               	goto	l3077
  7264  02F3                     u1800:
  7265  02F3  2BF0               	goto	l431
  7266  02F4                     l3077:
  7267                           
  7268                           ;lib/usb/usb_device_hid.c: 173:     if(SetupPkt.bRequest == 6)
  7269  02F4  3006               	movlw	6
  7270  02F5  0661               	xorwf	97,w	;volatile
  7271  02F6  1D03               	btfss	3,2
  7272  02F7  2AF9               	goto	u1811
  7273  02F8  2AFA               	goto	u1810
  7274  02F9                     u1811:
  7275  02F9  2B96               	goto	l3113
  7276  02FA                     u1810:
  7277  02FA  2B83               	goto	l3111
  7278  02FB                     l3081:
  7279                           
  7280                           ;lib/usb/usb_device_hid.c: 178:                 if(USBActiveConfiguration == 1)
  7281  02FB  0021               	movlb	1	; select bank1
  7282  02FC  0358               	decf	_USBActiveConfiguration^(0+128),w
  7283  02FD  1D03               	btfss	3,2
  7284  02FE  2B00               	goto	u1821
  7285  02FF  2B01               	goto	u1820
  7286  0300                     u1821:
  7287  0300  2B96               	goto	l3113
  7288  0301                     u1820:
  7289  0301                     l3083:
  7290                           
  7291                           ;lib/usb/usb_device_hid.c: 179:                 {;lib/usb/usb_device_hid.c: 180:        
      +                                       if(SetupPkt.wIndex == 0x00)
  7292  0301  0020               	movlb	0	; select bank0
  7293  0302  0864               	movf	100,w	;volatile
  7294  0303  0465               	iorwf	101,w	;volatile
  7295  0304  1D03               	btfss	3,2
  7296  0305  2B07               	goto	u1831
  7297  0306  2B08               	goto	u1830
  7298  0307                     u1831:
  7299  0307  2B15               	goto	l3087
  7300  0308                     u1830:
  7301  0308                     l3085:
  7302                           
  7303                           ;lib/usb/usb_device_hid.c: 181:                         { inPipes[0].pSrc.bRom = (const 
      +                          uint8_t*)&configDescriptor1 + 18; inPipes[0].wCount.Val = sizeof(USB_HID_DSC)+3; inPipes
      +                          [0].info.Val = 0x40 | 0x80 | 0x00; };
  7304  0308  3012               	movlw	low ((_configDescriptor1| (0+32768)+18))
  7305  0309  0021               	movlb	1	; select bank1
  7306  030A  00B8               	movwf	_inPipes^(0+128)
  7307  030B  3090               	movlw	high ((_configDescriptor1| (0+32768)+18))
  7308  030C  00B9               	movwf	(_inPipes^(0+128)+1)
  7309  030D  3009               	movlw	9
  7310  030E  00BB               	movwf	(_inPipes^(0+128)+3)
  7311  030F  3000               	movlw	0
  7312  0310  00BC               	movwf	(_inPipes^(0+128)+4)
  7313  0311  30C0               	movlw	192
  7314  0312  00F0               	movwf	??_USBCheckHIDRequest
  7315  0313  0870               	movf	??_USBCheckHIDRequest,w
  7316  0314  00BA               	movwf	(_inPipes^(0+128)+2)
  7317  0315                     l3087:
  7318                           
  7319                           ;lib/usb/usb_device_hid.c: 185:                     if(SetupPkt.wIndex == 0x01)
  7320  0315  0020               	movlb	0	; select bank0
  7321  0316  0364               	decf	100,w	;volatile
  7322  0317  0465               	iorwf	101,w	;volatile
  7323  0318  1D03               	btfss	3,2
  7324  0319  2B1B               	goto	u1841
  7325  031A  2B1C               	goto	u1840
  7326  031B                     u1841:
  7327  031B  2B29               	goto	l3091
  7328  031C                     u1840:
  7329  031C                     l3089:
  7330                           
  7331                           ;lib/usb/usb_device_hid.c: 186:                         { inPipes[0].pSrc.bRom = (const 
      +                          uint8_t*)&configDescriptor1 + 50; inPipes[0].wCount.Val = sizeof(USB_HID_DSC)+3; inPipes
      +                          [0].info.Val = 0x40 | 0x80 | 0x00; };
  7332  031C  3032               	movlw	low ((_configDescriptor1| (0+32768)+50))
  7333  031D  0021               	movlb	1	; select bank1
  7334  031E  00B8               	movwf	_inPipes^(0+128)
  7335  031F  3090               	movlw	high ((_configDescriptor1| (0+32768)+50))
  7336  0320  00B9               	movwf	(_inPipes^(0+128)+1)
  7337  0321  3009               	movlw	9
  7338  0322  00BB               	movwf	(_inPipes^(0+128)+3)
  7339  0323  3000               	movlw	0
  7340  0324  00BC               	movwf	(_inPipes^(0+128)+4)
  7341  0325  30C0               	movlw	192
  7342  0326  00F0               	movwf	??_USBCheckHIDRequest
  7343  0327  0870               	movf	??_USBCheckHIDRequest,w
  7344  0328  00BA               	movwf	(_inPipes^(0+128)+2)
  7345  0329                     l3091:
  7346                           
  7347                           ;lib/usb/usb_device_hid.c: 190:                     if(SetupPkt.wIndex == 0x02)
  7348  0329  3002               	movlw	2
  7349  032A  0020               	movlb	0	; select bank0
  7350  032B  0664               	xorwf	100,w	;volatile
  7351  032C  0465               	iorwf	101,w	;volatile
  7352  032D  1D03               	btfss	3,2
  7353  032E  2B30               	goto	u1851
  7354  032F  2B31               	goto	u1850
  7355  0330                     u1851:
  7356  0330  2B96               	goto	l440
  7357  0331                     u1850:
  7358  0331                     l3093:
  7359                           
  7360                           ;lib/usb/usb_device_hid.c: 191:                         { inPipes[0].pSrc.bRom = (const 
      +                          uint8_t*)&configDescriptor1 + 82; inPipes[0].wCount.Val = sizeof(USB_HID_DSC)+3; inPipes
      +                          [0].info.Val = 0x40 | 0x80 | 0x00; };
  7361  0331  3052               	movlw	low ((_configDescriptor1| (0+32768)+82))
  7362  0332  0021               	movlb	1	; select bank1
  7363  0333  00B8               	movwf	_inPipes^(0+128)
  7364  0334  3090               	movlw	high ((_configDescriptor1| (0+32768)+82))
  7365  0335  00B9               	movwf	(_inPipes^(0+128)+1)
  7366  0336  3009               	movlw	9
  7367  0337  00BB               	movwf	(_inPipes^(0+128)+3)
  7368  0338  3000               	movlw	0
  7369  0339  00BC               	movwf	(_inPipes^(0+128)+4)
  7370  033A  30C0               	movlw	192
  7371  033B  00F0               	movwf	??_USBCheckHIDRequest
  7372  033C  0870               	movf	??_USBCheckHIDRequest,w
  7373  033D  00BA               	movwf	(_inPipes^(0+128)+2)
  7374  033E  2B96               	goto	l3113
  7375  033F                     l3095:
  7376                           
  7377                           ;lib/usb/usb_device_hid.c: 198:                 if(USBActiveConfiguration == 1)
  7378  033F  0021               	movlb	1	; select bank1
  7379  0340  0358               	decf	_USBActiveConfiguration^(0+128),w
  7380  0341  1D03               	btfss	3,2
  7381  0342  2B44               	goto	u1861
  7382  0343  2B45               	goto	u1860
  7383  0344                     u1861:
  7384  0344  2B96               	goto	l3113
  7385  0345                     u1860:
  7386  0345                     l3097:
  7387                           
  7388                           ;lib/usb/usb_device_hid.c: 199:                 {;lib/usb/usb_device_hid.c: 200:        
      +                                       if(SetupPkt.wIndex == 0x00)
  7389  0345  0020               	movlb	0	; select bank0
  7390  0346  0864               	movf	100,w	;volatile
  7391  0347  0465               	iorwf	101,w	;volatile
  7392  0348  1D03               	btfss	3,2
  7393  0349  2B4B               	goto	u1871
  7394  034A  2B4C               	goto	u1870
  7395  034B                     u1871:
  7396  034B  2B59               	goto	l3101
  7397  034C                     u1870:
  7398  034C                     l3099:
  7399                           
  7400                           ;lib/usb/usb_device_hid.c: 201:                         { inPipes[0].pSrc.bRom = (const 
      +                          uint8_t*)&HAPTIC_rpt; inPipes[0].wCount.Val = 87; inPipes[0].info.Val = 0x40 | 0x80 | 0x
      +                          00; };
  7401  034C  3069               	movlw	low (_HAPTIC_rpt| (0+32768))
  7402  034D  0021               	movlb	1	; select bank1
  7403  034E  00B8               	movwf	_inPipes^(0+128)
  7404  034F  3090               	movlw	high (_HAPTIC_rpt| (0+32768))
  7405  0350  00B9               	movwf	(_inPipes^(0+128)+1)
  7406  0351  3057               	movlw	87
  7407  0352  00BB               	movwf	(_inPipes^(0+128)+3)
  7408  0353  3000               	movlw	0
  7409  0354  00BC               	movwf	(_inPipes^(0+128)+4)
  7410  0355  30C0               	movlw	192
  7411  0356  00F0               	movwf	??_USBCheckHIDRequest
  7412  0357  0870               	movf	??_USBCheckHIDRequest,w
  7413  0358  00BA               	movwf	(_inPipes^(0+128)+2)
  7414  0359                     l3101:
  7415                           
  7416                           ;lib/usb/usb_device_hid.c: 206:                     if(SetupPkt.wIndex == 0x01)
  7417  0359  0020               	movlb	0	; select bank0
  7418  035A  0364               	decf	100,w	;volatile
  7419  035B  0465               	iorwf	101,w	;volatile
  7420  035C  1D03               	btfss	3,2
  7421  035D  2B5F               	goto	u1881
  7422  035E  2B60               	goto	u1880
  7423  035F                     u1881:
  7424  035F  2B6D               	goto	l3105
  7425  0360                     u1880:
  7426  0360                     l3103:
  7427                           
  7428                           ;lib/usb/usb_device_hid.c: 207:                         { inPipes[0].pSrc.bRom = (const 
      +                          uint8_t*)&LED_rpt; inPipes[0].wCount.Val = 28; inPipes[0].info.Val = 0x40 | 0x80 | 0x00;
      +                           };
  7429  0360  30F4               	movlw	low (_LED_rpt| (0+32768))
  7430  0361  0021               	movlb	1	; select bank1
  7431  0362  00B8               	movwf	_inPipes^(0+128)
  7432  0363  3090               	movlw	high (_LED_rpt| (0+32768))
  7433  0364  00B9               	movwf	(_inPipes^(0+128)+1)
  7434  0365  301C               	movlw	28
  7435  0366  00BB               	movwf	(_inPipes^(0+128)+3)
  7436  0367  3000               	movlw	0
  7437  0368  00BC               	movwf	(_inPipes^(0+128)+4)
  7438  0369  30C0               	movlw	192
  7439  036A  00F0               	movwf	??_USBCheckHIDRequest
  7440  036B  0870               	movf	??_USBCheckHIDRequest,w
  7441  036C  00BA               	movwf	(_inPipes^(0+128)+2)
  7442  036D                     l3105:
  7443                           
  7444                           ;lib/usb/usb_device_hid.c: 212:                     if(SetupPkt.wIndex == 0x02)
  7445  036D  3002               	movlw	2
  7446  036E  0020               	movlb	0	; select bank0
  7447  036F  0664               	xorwf	100,w	;volatile
  7448  0370  0465               	iorwf	101,w	;volatile
  7449  0371  1D03               	btfss	3,2
  7450  0372  2B74               	goto	u1891
  7451  0373  2B75               	goto	u1890
  7452  0374                     u1891:
  7453  0374  2B96               	goto	l440
  7454  0375                     u1890:
  7455  0375                     l3107:
  7456                           
  7457                           ;lib/usb/usb_device_hid.c: 213:                         { inPipes[0].pSrc.bRom = (const 
      +                          uint8_t*)&DISPLAY_rpt; inPipes[0].wCount.Val = 28; inPipes[0].info.Val = 0x40 | 0x80 | 0
      +                          x00; };
  7458  0375  302C               	movlw	low (_DISPLAY_rpt| (0+32768))
  7459  0376  0021               	movlb	1	; select bank1
  7460  0377  00B8               	movwf	_inPipes^(0+128)
  7461  0378  3091               	movlw	high (_DISPLAY_rpt| (0+32768))
  7462  0379  00B9               	movwf	(_inPipes^(0+128)+1)
  7463  037A  301C               	movlw	28
  7464  037B  00BB               	movwf	(_inPipes^(0+128)+3)
  7465  037C  3000               	movlw	0
  7466  037D  00BC               	movwf	(_inPipes^(0+128)+4)
  7467  037E  30C0               	movlw	192
  7468  037F  00F0               	movwf	??_USBCheckHIDRequest
  7469  0380  0870               	movf	??_USBCheckHIDRequest,w
  7470  0381  00BA               	movwf	(_inPipes^(0+128)+2)
  7471  0382  2B96               	goto	l3113
  7472  0383                     l3111:
  7473  0383  0863               	movf	99,w	;volatile
  7474  0384  00F0               	movwf	??_USBCheckHIDRequest
  7475  0385  01F1               	clrf	??_USBCheckHIDRequest+1
  7476                           
  7477                           ; Switch on 2 bytes has been partitioned into a top level switch of size 1, and 1 sub-sw
      +                          itches
  7478                           ; Switch size 1, requested type "simple"
  7479                           ; Number of cases is 1, Range of values is 0 to 0
  7480                           ; switch strategies available:
  7481                           ; Name         Instructions Cycles
  7482                           ; simple_byte            4     3 (average)
  7483                           ; direct_byte            8     6 (fixed)
  7484                           ; jumptable            260     6 (fixed)
  7485                           ;	Chosen strategy is simple_byte
  7486  0386  0871               	movf	??_USBCheckHIDRequest+1,w
  7487  0387  3A00               	xorlw	0	; case 0
  7488  0388  1903               	skipnz
  7489  0389  2B8B               	goto	l5215
  7490  038A  2B96               	goto	l3113
  7491  038B                     l5215:
  7492                           
  7493                           ; Switch size 1, requested type "simple"
  7494                           ; Number of cases is 3, Range of values is 33 to 35
  7495                           ; switch strategies available:
  7496                           ; Name         Instructions Cycles
  7497                           ; simple_byte           10     6 (average)
  7498                           ; direct_byte           15     9 (fixed)
  7499                           ; jumptable            263     9 (fixed)
  7500                           ;	Chosen strategy is simple_byte
  7501  038B  0870               	movf	??_USBCheckHIDRequest,w
  7502  038C  3A21               	xorlw	33	; case 33
  7503  038D  1903               	skipnz
  7504  038E  2AFB               	goto	l3081
  7505  038F  3A03               	xorlw	3	; case 34
  7506  0390  1903               	skipnz
  7507  0391  2B3F               	goto	l3095
  7508  0392  3A01               	xorlw	1	; case 35
  7509  0393  1903               	skipnz
  7510  0394  2B96               	goto	l3113
  7511  0395  2B96               	goto	l3113
  7512  0396                     l440:
  7513  0396                     l3113:
  7514                           
  7515                           ;lib/usb/usb_device_hid.c: 235:     if(SetupPkt.RequestType != (0x20>>5))
  7516  0396  0020               	movlb	0	; select bank0
  7517  0397  0E60               	swapf	96,w	;volatile
  7518  0398  0C89               	rrf	9,f
  7519  0399  3903               	andlw	3
  7520  039A  3A01               	xorlw	1
  7521  039B  1903               	skipnz
  7522  039C  2B9E               	goto	u1901
  7523  039D  2B9F               	goto	u1900
  7524  039E                     u1901:
  7525  039E  2BD4               	goto	l3135
  7526  039F                     u1900:
  7527  039F  2BF0               	goto	l431
  7528  03A0                     l3117:
  7529                           
  7530                           ;lib/usb/usb_device_hid.c: 253:             { inPipes[0].pSrc.bRam = (uint8_t*)&idle_rat
      +                          e; inPipes[0].wCount.Val = 1; inPipes[0].info.Val = 0x40 | 0x80 | 0x01; };
  7531  03A0  30D6               	movlw	low _idle_rate
  7532  03A1  0021               	movlb	1	; select bank1
  7533  03A2  00B8               	movwf	_inPipes^(0+128)
  7534  03A3  3000               	movlw	high _idle_rate
  7535  03A4  00B9               	movwf	(_inPipes+1)^(0+128)
  7536  03A5                     l3119:
  7537  03A5  3001               	movlw	1
  7538  03A6  00BB               	movwf	(_inPipes^(0+128)+3)
  7539  03A7  3000               	movlw	0
  7540  03A8  00BC               	movwf	(_inPipes^(0+128)+4)
  7541  03A9                     l3121:
  7542  03A9  30C1               	movlw	193
  7543  03AA  00F0               	movwf	??_USBCheckHIDRequest
  7544  03AB  0870               	movf	??_USBCheckHIDRequest,w
  7545  03AC  00BA               	movwf	(_inPipes^(0+128)+2)
  7546                           
  7547                           ;lib/usb/usb_device_hid.c: 257:             break;
  7548  03AD  2BF0               	goto	l431
  7549  03AE                     l3123:
  7550                           
  7551                           ;lib/usb/usb_device_hid.c: 259:             inPipes[0].info.Val = 0x00 | 0x80;
  7552  03AE  3080               	movlw	128
  7553  03AF  00F0               	movwf	??_USBCheckHIDRequest
  7554  03B0  0870               	movf	??_USBCheckHIDRequest,w
  7555  03B1  0021               	movlb	1	; select bank1
  7556  03B2  00BA               	movwf	(_inPipes^(0+128)+2)
  7557                           
  7558                           ;lib/usb/usb_device_hid.c: 260:             idle_rate = SetupPkt.W_Value.byte.HB;
  7559  03B3  0020               	movlb	0	; select bank0
  7560  03B4  0863               	movf	99,w	;volatile
  7561  03B5  00F0               	movwf	??_USBCheckHIDRequest
  7562  03B6  0870               	movf	??_USBCheckHIDRequest,w
  7563  03B7  0021               	movlb	1	; select bank1
  7564  03B8  00D6               	movwf	_idle_rate^(0+128)
  7565                           
  7566                           ;lib/usb/usb_device_hid.c: 262:             break;
  7567  03B9  2BF0               	goto	l431
  7568  03BA                     l3125:
  7569                           
  7570                           ;lib/usb/usb_device_hid.c: 264:             { inPipes[0].pSrc.bRam = (uint8_t*)&active_p
      +                          rotocol; inPipes[0].wCount.Val = 1; inPipes[0].info.Val = 0x00 | 0x80 | 0x01; };
  7571  03BA  30D5               	movlw	low _active_protocol
  7572  03BB  0021               	movlb	1	; select bank1
  7573  03BC  00B8               	movwf	_inPipes^(0+128)
  7574  03BD  3000               	movlw	high _active_protocol
  7575  03BE  00B9               	movwf	(_inPipes+1)^(0+128)
  7576  03BF                     l3127:
  7577  03BF  3001               	movlw	1
  7578  03C0  00BB               	movwf	(_inPipes^(0+128)+3)
  7579  03C1  3000               	movlw	0
  7580  03C2  00BC               	movwf	(_inPipes^(0+128)+4)
  7581  03C3                     l3129:
  7582  03C3  3081               	movlw	129
  7583  03C4  00F0               	movwf	??_USBCheckHIDRequest
  7584  03C5  0870               	movf	??_USBCheckHIDRequest,w
  7585  03C6  00BA               	movwf	(_inPipes^(0+128)+2)
  7586                           
  7587                           ;lib/usb/usb_device_hid.c: 268:             break;
  7588  03C7  2BF0               	goto	l431
  7589  03C8                     l3131:
  7590                           
  7591                           ;lib/usb/usb_device_hid.c: 270:             inPipes[0].info.Val = 0x00 | 0x80;
  7592  03C8  3080               	movlw	128
  7593  03C9  00F0               	movwf	??_USBCheckHIDRequest
  7594  03CA  0870               	movf	??_USBCheckHIDRequest,w
  7595  03CB  0021               	movlb	1	; select bank1
  7596  03CC  00BA               	movwf	(_inPipes^(0+128)+2)
  7597                           
  7598                           ;lib/usb/usb_device_hid.c: 271:             active_protocol = SetupPkt.W_Value.byte.LB;
  7599  03CD  0020               	movlb	0	; select bank0
  7600  03CE  0862               	movf	98,w	;volatile
  7601  03CF  00F0               	movwf	??_USBCheckHIDRequest
  7602  03D0  0870               	movf	??_USBCheckHIDRequest,w
  7603  03D1  0021               	movlb	1	; select bank1
  7604  03D2  00D5               	movwf	_active_protocol^(0+128)
  7605                           
  7606                           ;lib/usb/usb_device_hid.c: 272:             break;
  7607  03D3  2BF0               	goto	l431
  7608  03D4                     l3135:
  7609  03D4  0861               	movf	97,w	;volatile
  7610  03D5  00F0               	movwf	??_USBCheckHIDRequest
  7611  03D6  01F1               	clrf	??_USBCheckHIDRequest+1
  7612                           
  7613                           ; Switch on 2 bytes has been partitioned into a top level switch of size 1, and 1 sub-sw
      +                          itches
  7614                           ; Switch size 1, requested type "simple"
  7615                           ; Number of cases is 1, Range of values is 0 to 0
  7616                           ; switch strategies available:
  7617                           ; Name         Instructions Cycles
  7618                           ; simple_byte            4     3 (average)
  7619                           ; direct_byte            8     6 (fixed)
  7620                           ; jumptable            260     6 (fixed)
  7621                           ;	Chosen strategy is simple_byte
  7622  03D7  0871               	movf	??_USBCheckHIDRequest+1,w
  7623  03D8  3A00               	xorlw	0	; case 0
  7624  03D9  1903               	skipnz
  7625  03DA  2BDC               	goto	l5217
  7626  03DB  2BF0               	goto	l431
  7627  03DC                     l5217:
  7628                           
  7629                           ; Switch size 1, requested type "simple"
  7630                           ; Number of cases is 6, Range of values is 1 to 11
  7631                           ; switch strategies available:
  7632                           ; Name         Instructions Cycles
  7633                           ; simple_byte           19    10 (average)
  7634                           ; direct_byte           31     9 (fixed)
  7635                           ; jumptable            263     9 (fixed)
  7636                           ;	Chosen strategy is simple_byte
  7637  03DC  0870               	movf	??_USBCheckHIDRequest,w
  7638  03DD  3A01               	xorlw	1	; case 1
  7639  03DE  1903               	skipnz
  7640  03DF  2BF0               	goto	l431
  7641  03E0  3A03               	xorlw	3	; case 2
  7642  03E1  1903               	skipnz
  7643  03E2  2BA0               	goto	l3117
  7644  03E3  3A01               	xorlw	1	; case 3
  7645  03E4  1903               	skipnz
  7646  03E5  2BBA               	goto	l3125
  7647  03E6  3A0A               	xorlw	10	; case 9
  7648  03E7  1903               	skipnz
  7649  03E8  2BF0               	goto	l431
  7650  03E9  3A03               	xorlw	3	; case 10
  7651  03EA  1903               	skipnz
  7652  03EB  2BAE               	goto	l3123
  7653  03EC  3A01               	xorlw	1	; case 11
  7654  03ED  1903               	skipnz
  7655  03EE  2BC8               	goto	l3131
  7656  03EF  2BF0               	goto	l431
  7657  03F0                     l431:
  7658  03F0  0008               	return
  7659  03F1                     __end_of_USBCheckHIDRequest:
  7660                           
  7661                           	psect	text21
  7662  0897                     __ptext21:	
  7663 ;; *************** function _SYSTEM_Initialize *****************
  7664 ;; Defined at:
  7665 ;;		line 85 in file "lib/system.c"
  7666 ;; Parameters:    Size  Location     Type
  7667 ;;  state           1    wreg     enum E2217
  7668 ;; Auto vars:     Size  Location     Type
  7669 ;;  state           1    5[COMMON] enum E2217
  7670 ;; Return value:  Size  Location     Type
  7671 ;;                  1    wreg      void 
  7672 ;; Registers used:
  7673 ;;		wreg, fsr0l, fsr0h, status,2, status,0, pclath, cstack
  7674 ;; Tracked objects:
  7675 ;;		On entry : 0/0
  7676 ;;		On exit  : 0/0
  7677 ;;		Unchanged: 0/0
  7678 ;; Data sizes:     COMMON   BANK1   BANK2   BANK3   BANK4   BANK5   BANK6   BANK7   BANK8   BANK9  BANK10  BANK11  BANK1
      +2
  7679 ;;      Params:         0       0       0       0       0       0       0       0       0       0       0       0       
      +0
  7680 ;;      Locals:         1       0       0       0       0       0       0       0       0       0       0       0       
      +0
  7681 ;;      Temps:          2       0       0       0       0       0       0       0       0       0       0       0       
      +0
  7682 ;;      Totals:         3       0       0       0       0       0       0       0       0       0       0       0       
      +0
  7683 ;;Total ram usage:        3 bytes
  7684 ;; Hardware stack levels used: 1
  7685 ;; Hardware stack levels required when called: 2
  7686 ;; This function calls:
  7687 ;;		_BUTTON_Enable
  7688 ;;		_LED_Enable
  7689 ;; This function is called by:
  7690 ;;		_USER_USB_CALLBACK_EVENT_HANDLER
  7691 ;; This function uses a non-reentrant model
  7692 ;;
  7693                           
  7694  0897                     _SYSTEM_Initialize:	
  7695                           ;psect for function _SYSTEM_Initialize
  7696                           
  7697                           
  7698                           ;incstack = 0
  7699                           ; Regs used in _SYSTEM_Initialize: [wreg-fsr0h+status,2+status,0+pclath+cstack]
  7700                           ;SYSTEM_Initialize@state stored from wreg
  7701  0897  00F5               	movwf	SYSTEM_Initialize@state
  7702  0898                     l3185:
  7703                           
  7704                           ;lib/system.c: 85: void SYSTEM_Initialize( SYSTEM_STATE state );lib/system.c: 86: {;lib/
      +                          system.c: 87:     ANSELC = 0;
  7705  0898  0023               	movlb	3	; select bank3
  7706  0899  018E               	clrf	14	;volatile
  7707                           
  7708                           ;lib/system.c: 88:     switch(state)
  7709  089A  28A4               	goto	l3191
  7710  089B                     l3187:
  7711                           
  7712                           ;lib/system.c: 97:             LED_Enable(LED_D1);
  7713  089B  3001               	movlw	1
  7714  089C  3189  211D  3188   	fcall	_LED_Enable
  7715                           
  7716                           ;lib/system.c: 100:             BUTTON_Enable(BUTTON_S1);
  7717  089F  3001               	movlw	1
  7718  08A0  3188  204C  3188   	fcall	_BUTTON_Enable
  7719                           
  7720                           ;lib/system.c: 101:             break;
  7721  08A3  28B7               	goto	l703
  7722  08A4                     l3191:
  7723  08A4  0875               	movf	SYSTEM_Initialize@state,w
  7724  08A5  00F3               	movwf	??_SYSTEM_Initialize
  7725  08A6  01F4               	clrf	??_SYSTEM_Initialize+1
  7726                           
  7727                           ; Switch on 2 bytes has been partitioned into a top level switch of size 1, and 1 sub-sw
      +                          itches
  7728                           ; Switch size 1, requested type "simple"
  7729                           ; Number of cases is 1, Range of values is 0 to 0
  7730                           ; switch strategies available:
  7731                           ; Name         Instructions Cycles
  7732                           ; simple_byte            4     3 (average)
  7733                           ; direct_byte            8     6 (fixed)
  7734                           ; jumptable            260     6 (fixed)
  7735                           ;	Chosen strategy is simple_byte
  7736  08A7  0874               	movf	??_SYSTEM_Initialize+1,w
  7737  08A8  3A00               	xorlw	0	; case 0
  7738  08A9  1903               	skipnz
  7739  08AA  28AC               	goto	l5219
  7740  08AB  28B7               	goto	l703
  7741  08AC                     l5219:
  7742                           
  7743                           ; Switch size 1, requested type "simple"
  7744                           ; Number of cases is 3, Range of values is 0 to 2
  7745                           ; switch strategies available:
  7746                           ; Name         Instructions Cycles
  7747                           ; simple_byte           10     6 (average)
  7748                           ; direct_byte           12     6 (fixed)
  7749                           ; jumptable            260     6 (fixed)
  7750                           ;	Chosen strategy is simple_byte
  7751  08AC  0873               	movf	??_SYSTEM_Initialize,w
  7752  08AD  3A00               	xorlw	0	; case 0
  7753  08AE  1903               	skipnz
  7754  08AF  289B               	goto	l3187
  7755  08B0  3A01               	xorlw	1	; case 1
  7756  08B1  1903               	skipnz
  7757  08B2  28B7               	goto	l703
  7758  08B3  3A03               	xorlw	3	; case 2
  7759  08B4  1903               	skipnz
  7760  08B5  28B7               	goto	l703
  7761  08B6  28B7               	goto	l703
  7762  08B7                     l703:
  7763  08B7  0008               	return
  7764  08B8                     __end_of_SYSTEM_Initialize:
  7765                           
  7766                           	psect	text22
  7767  091D                     __ptext22:	
  7768 ;; *************** function _LED_Enable *****************
  7769 ;; Defined at:
  7770 ;;		line 220 in file "lib/leds.c"
  7771 ;; Parameters:    Size  Location     Type
  7772 ;;  led             1    wreg     enum E2
  7773 ;; Auto vars:     Size  Location     Type
  7774 ;;  led             1    2[COMMON] enum E2
  7775 ;; Return value:  Size  Location     Type
  7776 ;;                  1    wreg      void 
  7777 ;; Registers used:
  7778 ;;		wreg, fsr0l, fsr0h, status,2, status,0
  7779 ;; Tracked objects:
  7780 ;;		On entry : 0/0
  7781 ;;		On exit  : 0/0
  7782 ;;		Unchanged: 0/0
  7783 ;; Data sizes:     COMMON   BANK1   BANK2   BANK3   BANK4   BANK5   BANK6   BANK7   BANK8   BANK9  BANK10  BANK11  BANK1
      +2
  7784 ;;      Params:         0       0       0       0       0       0       0       0       0       0       0       0       
      +0
  7785 ;;      Locals:         1       0       0       0       0       0       0       0       0       0       0       0       
      +0
  7786 ;;      Temps:          2       0       0       0       0       0       0       0       0       0       0       0       
      +0
  7787 ;;      Totals:         3       0       0       0       0       0       0       0       0       0       0       0       
      +0
  7788 ;;Total ram usage:        3 bytes
  7789 ;; Hardware stack levels used: 1
  7790 ;; Hardware stack levels required when called: 1
  7791 ;; This function calls:
  7792 ;;		Nothing
  7793 ;; This function is called by:
  7794 ;;		_SYSTEM_Initialize
  7795 ;; This function uses a non-reentrant model
  7796 ;;
  7797                           
  7798  091D                     _LED_Enable:	
  7799                           ;psect for function _LED_Enable
  7800                           
  7801                           
  7802                           ;incstack = 0
  7803                           ; Regs used in _LED_Enable: [wreg-fsr0h+status,2+status,0]
  7804                           ;LED_Enable@led stored from wreg
  7805  091D  00F2               	movwf	LED_Enable@led
  7806  091E                     l3055:
  7807                           
  7808                           ;lib/leds.c: 220: void LED_Enable(LED led);lib/leds.c: 221: {;lib/leds.c: 222:     switc
      +                          h(led)
  7809  091E  2928               	goto	l3059
  7810  091F                     l684:	
  7811                           ;lib/leds.c: 223:     {;lib/leds.c: 224:         case LED_D1:
  7812                           
  7813                           
  7814                           ;lib/leds.c: 225:             TRISCbits.TRISC4 = 0;
  7815  091F  0021               	movlb	1	; select bank1
  7816  0920  120E               	bcf	14,4	;volatile
  7817                           
  7818                           ;lib/leds.c: 226:             break;
  7819  0921  293E               	goto	l689
  7820  0922                     l686:	
  7821                           ;lib/leds.c: 228:         case LED_D2:
  7822                           
  7823                           
  7824                           ;lib/leds.c: 229:             TRISCbits.TRISC1 = 0;
  7825  0922  0021               	movlb	1	; select bank1
  7826  0923  108E               	bcf	14,1	;volatile
  7827                           
  7828                           ;lib/leds.c: 230:             break;
  7829  0924  293E               	goto	l689
  7830  0925                     l687:	
  7831                           ;lib/leds.c: 232:         case LED_D3:
  7832                           
  7833                           
  7834                           ;lib/leds.c: 233:             TRISCbits.TRISC2 = 0;
  7835  0925  0021               	movlb	1	; select bank1
  7836  0926  110E               	bcf	14,2	;volatile
  7837                           
  7838                           ;lib/leds.c: 234:             break;
  7839  0927  293E               	goto	l689
  7840  0928                     l3059:
  7841  0928  0872               	movf	LED_Enable@led,w
  7842  0929  00F0               	movwf	??_LED_Enable
  7843  092A  01F1               	clrf	??_LED_Enable+1
  7844                           
  7845                           ; Switch on 2 bytes has been partitioned into a top level switch of size 1, and 1 sub-sw
      +                          itches
  7846                           ; Switch size 1, requested type "simple"
  7847                           ; Number of cases is 1, Range of values is 0 to 0
  7848                           ; switch strategies available:
  7849                           ; Name         Instructions Cycles
  7850                           ; simple_byte            4     3 (average)
  7851                           ; direct_byte            8     6 (fixed)
  7852                           ; jumptable            260     6 (fixed)
  7853                           ;	Chosen strategy is simple_byte
  7854  092B  0871               	movf	??_LED_Enable+1,w
  7855  092C  3A00               	xorlw	0	; case 0
  7856  092D  1903               	skipnz
  7857  092E  2930               	goto	l5221
  7858  092F  293E               	goto	l689
  7859  0930                     l5221:
  7860                           
  7861                           ; Switch size 1, requested type "simple"
  7862                           ; Number of cases is 4, Range of values is 0 to 3
  7863                           ; switch strategies available:
  7864                           ; Name         Instructions Cycles
  7865                           ; simple_byte           13     7 (average)
  7866                           ; direct_byte           14     6 (fixed)
  7867                           ; jumptable            260     6 (fixed)
  7868                           ;	Chosen strategy is simple_byte
  7869  0930  0870               	movf	??_LED_Enable,w
  7870  0931  3A00               	xorlw	0	; case 0
  7871  0932  1903               	skipnz
  7872  0933  293E               	goto	l689
  7873  0934  3A01               	xorlw	1	; case 1
  7874  0935  1903               	skipnz
  7875  0936  291F               	goto	l684
  7876  0937  3A03               	xorlw	3	; case 2
  7877  0938  1903               	skipnz
  7878  0939  2922               	goto	l686
  7879  093A  3A01               	xorlw	1	; case 3
  7880  093B  1903               	skipnz
  7881  093C  2925               	goto	l687
  7882  093D  293E               	goto	l689
  7883  093E                     l689:
  7884  093E  0008               	return
  7885  093F                     __end_of_LED_Enable:
  7886                           
  7887                           	psect	text23
  7888  084C                     __ptext23:	
  7889 ;; *************** function _BUTTON_Enable *****************
  7890 ;; Defined at:
  7891 ;;		line 86 in file "lib/buttons.c"
  7892 ;; Parameters:    Size  Location     Type
  7893 ;;  button          1    wreg     enum E2193
  7894 ;; Auto vars:     Size  Location     Type
  7895 ;;  button          1    2[COMMON] enum E2193
  7896 ;; Return value:  Size  Location     Type
  7897 ;;                  1    wreg      void 
  7898 ;; Registers used:
  7899 ;;		wreg, fsr0l, fsr0h, status,2, status,0
  7900 ;; Tracked objects:
  7901 ;;		On entry : 0/0
  7902 ;;		On exit  : 0/0
  7903 ;;		Unchanged: 0/0
  7904 ;; Data sizes:     COMMON   BANK1   BANK2   BANK3   BANK4   BANK5   BANK6   BANK7   BANK8   BANK9  BANK10  BANK11  BANK1
      +2
  7905 ;;      Params:         0       0       0       0       0       0       0       0       0       0       0       0       
      +0
  7906 ;;      Locals:         1       0       0       0       0       0       0       0       0       0       0       0       
      +0
  7907 ;;      Temps:          2       0       0       0       0       0       0       0       0       0       0       0       
      +0
  7908 ;;      Totals:         3       0       0       0       0       0       0       0       0       0       0       0       
      +0
  7909 ;;Total ram usage:        3 bytes
  7910 ;; Hardware stack levels used: 1
  7911 ;; Hardware stack levels required when called: 1
  7912 ;; This function calls:
  7913 ;;		Nothing
  7914 ;; This function is called by:
  7915 ;;		_SYSTEM_Initialize
  7916 ;; This function uses a non-reentrant model
  7917 ;;
  7918                           
  7919  084C                     _BUTTON_Enable:	
  7920                           ;psect for function _BUTTON_Enable
  7921                           
  7922                           
  7923                           ;incstack = 0
  7924                           ; Regs used in _BUTTON_Enable: [wreg-fsr0h+status,2+status,0]
  7925                           ;BUTTON_Enable@button stored from wreg
  7926  084C  00F2               	movwf	BUTTON_Enable@button
  7927  084D                     l3045:
  7928  084D                     l3049:	
  7929                           ;lib/buttons.c: 86: void BUTTON_Enable(BUTTON button);lib/buttons.c: 87: {;lib/buttons.c
      +                          : 88:     switch(button)
  7930                           
  7931  084D  0872               	movf	BUTTON_Enable@button,w
  7932  084E  00F0               	movwf	??_BUTTON_Enable
  7933  084F  01F1               	clrf	??_BUTTON_Enable+1
  7934                           
  7935                           ; Switch on 2 bytes has been partitioned into a top level switch of size 1, and 1 sub-sw
      +                          itches
  7936                           ; Switch size 1, requested type "simple"
  7937                           ; Number of cases is 1, Range of values is 0 to 0
  7938                           ; switch strategies available:
  7939                           ; Name         Instructions Cycles
  7940                           ; simple_byte            4     3 (average)
  7941                           ; direct_byte            8     6 (fixed)
  7942                           ; jumptable            260     6 (fixed)
  7943                           ;	Chosen strategy is simple_byte
  7944  0850  0871               	movf	??_BUTTON_Enable+1,w
  7945  0851  3A00               	xorlw	0	; case 0
  7946  0852  1903               	skipnz
  7947  0853  2855               	goto	l5223
  7948  0854  285D               	goto	l640
  7949  0855                     l5223:
  7950                           
  7951                           ; Switch size 1, requested type "simple"
  7952                           ; Number of cases is 2, Range of values is 0 to 1
  7953                           ; switch strategies available:
  7954                           ; Name         Instructions Cycles
  7955                           ; simple_byte            7     4 (average)
  7956                           ; direct_byte           10     6 (fixed)
  7957                           ; jumptable            260     6 (fixed)
  7958                           ;	Chosen strategy is simple_byte
  7959  0855  0870               	movf	??_BUTTON_Enable,w
  7960  0856  3A00               	xorlw	0	; case 0
  7961  0857  1903               	skipnz
  7962  0858  285D               	goto	l640
  7963  0859  3A01               	xorlw	1	; case 1
  7964  085A  1903               	skipnz
  7965  085B  285D               	goto	l640
  7966  085C  285D               	goto	l640
  7967  085D                     l640:
  7968  085D  0008               	return
  7969  085E                     __end_of_BUTTON_Enable:
  7970                           
  7971                           	psect	text24
  7972  0C3F                     __ptext24:	
  7973 ;; *************** function _APP_LEDUpdateUSBStatus *****************
  7974 ;; Defined at:
  7975 ;;		line 50 in file "lib/app_led_usb_status.c"
  7976 ;; Parameters:    Size  Location     Type
  7977 ;;		None
  7978 ;; Auto vars:     Size  Location     Type
  7979 ;;		None
  7980 ;; Return value:  Size  Location     Type
  7981 ;;                  1    wreg      void 
  7982 ;; Registers used:
  7983 ;;		wreg, fsr0l, fsr0h, status,2, status,0, pclath, cstack
  7984 ;; Tracked objects:
  7985 ;;		On entry : 0/0
  7986 ;;		On exit  : 0/0
  7987 ;;		Unchanged: 0/0
  7988 ;; Data sizes:     COMMON   BANK1   BANK2   BANK3   BANK4   BANK5   BANK6   BANK7   BANK8   BANK9  BANK10  BANK11  BANK1
      +2
  7989 ;;      Params:         0       0       0       0       0       0       0       0       0       0       0       0       
      +0
  7990 ;;      Locals:         0       0       0       0       0       0       0       0       0       0       0       0       
      +0
  7991 ;;      Temps:          2       0       0       0       0       0       0       0       0       0       0       0       
      +0
  7992 ;;      Totals:         2       0       0       0       0       0       0       0       0       0       0       0       
      +0
  7993 ;;Total ram usage:        2 bytes
  7994 ;; Hardware stack levels used: 1
  7995 ;; Hardware stack levels required when called: 2
  7996 ;; This function calls:
  7997 ;;		_LED_Off
  7998 ;;		_LED_On
  7999 ;; This function is called by:
  8000 ;;		_USER_USB_CALLBACK_EVENT_HANDLER
  8001 ;; This function uses a non-reentrant model
  8002 ;;
  8003                           
  8004  0C3F                     _APP_LEDUpdateUSBStatus:	
  8005                           ;psect for function _APP_LEDUpdateUSBStatus
  8006                           
  8007  0C3F                     l3145:	
  8008                           ;incstack = 0
  8009                           ; Regs used in _APP_LEDUpdateUSBStatus: [wreg-fsr0h+status,2+status,0+pclath+cstack]
  8010                           
  8011                           
  8012                           ;lib/app_led_usb_status.c: 52:     static uint16_t ledCount = 0;;lib/app_led_usb_status.
      +                          c: 54:     if(UCONbits.SUSPND == 1)
  8013  0C3F  003D               	movlb	29	; select bank29
  8014  0C40  1C8E               	btfss	14,1	;volatile
  8015  0C41  2C43               	goto	u1911
  8016  0C42  2C44               	goto	u1910
  8017  0C43                     u1911:
  8018  0C43  2C8E               	goto	l3177
  8019  0C44                     u1910:
  8020  0C44                     l3147:
  8021                           
  8022                           ;lib/app_led_usb_status.c: 55:     {;lib/app_led_usb_status.c: 56:         LED_Off(LED_D
      +                          1);
  8023  0C44  3001               	movlw	1
  8024  0C45  3188  20D9  318C   	fcall	_LED_Off
  8025  0C48  2CA1               	goto	l608
  8026  0C49                     l3151:
  8027                           
  8028                           ;lib/app_led_usb_status.c: 65:             if(ledCount == 1)
  8029  0C49  033D               	decf	APP_LEDUpdateUSBStatus@ledCount^(0+128),w
  8030  0C4A  043E               	iorwf	(APP_LEDUpdateUSBStatus@ledCount+1)^(0+128),w
  8031  0C4B  1D03               	btfss	3,2
  8032  0C4C  2C4E               	goto	u1921
  8033  0C4D  2C4F               	goto	u1920
  8034  0C4E                     u1921:
  8035  0C4E  2C54               	goto	l3155
  8036  0C4F                     u1920:
  8037  0C4F                     l3153:
  8038                           
  8039                           ;lib/app_led_usb_status.c: 66:             {;lib/app_led_usb_status.c: 67:              
      +                             LED_On(LED_D1);
  8040  0C4F  3001               	movlw	1
  8041  0C50  3188  20FB  318C   	fcall	_LED_On
  8042                           
  8043                           ;lib/app_led_usb_status.c: 68:             }
  8044  0C53  2C9C               	goto	l3179
  8045  0C54                     l3155:
  8046  0C54  304B               	movlw	75
  8047  0C55  063D               	xorwf	APP_LEDUpdateUSBStatus@ledCount^(0+128),w
  8048  0C56  043E               	iorwf	(APP_LEDUpdateUSBStatus@ledCount+1)^(0+128),w
  8049  0C57  1D03               	btfss	3,2
  8050  0C58  2C5A               	goto	u1931
  8051  0C59  2C5B               	goto	u1930
  8052  0C5A                     u1931:
  8053  0C5A  2C60               	goto	l3159
  8054  0C5B                     u1930:
  8055  0C5B                     l3157:
  8056                           
  8057                           ;lib/app_led_usb_status.c: 70:             {;lib/app_led_usb_status.c: 71:              
      +                             LED_Off(LED_D1);
  8058  0C5B  3001               	movlw	1
  8059  0C5C  3188  20D9  318C   	fcall	_LED_Off
  8060                           
  8061                           ;lib/app_led_usb_status.c: 72:             }
  8062  0C5F  2C9C               	goto	l3179
  8063  0C60                     l3159:
  8064  0C60  3000               	movlw	0
  8065  0C61  023E               	subwf	(APP_LEDUpdateUSBStatus@ledCount+1)^(0+128),w
  8066  0C62  3097               	movlw	151
  8067  0C63  1903               	skipnz
  8068  0C64  023D               	subwf	APP_LEDUpdateUSBStatus@ledCount^(0+128),w
  8069  0C65  1C03               	skipc
  8070  0C66  2C68               	goto	u1941
  8071  0C67  2C69               	goto	u1940
  8072  0C68                     u1941:
  8073  0C68  2C6C               	goto	l612
  8074  0C69                     u1940:
  8075  0C69                     l3161:
  8076                           
  8077                           ;lib/app_led_usb_status.c: 74:             {;lib/app_led_usb_status.c: 75:              
      +                             ledCount = 0;
  8078  0C69  01BD               	clrf	APP_LEDUpdateUSBStatus@ledCount^(0+128)
  8079  0C6A  01BE               	clrf	(APP_LEDUpdateUSBStatus@ledCount+1)^(0+128)
  8080  0C6B  2C9C               	goto	l3179
  8081  0C6C                     l612:
  8082                           
  8083                           ;lib/app_led_usb_status.c: 77:             break;
  8084  0C6C  2C9C               	goto	l3179
  8085  0C6D                     l3163:
  8086                           
  8087                           ;lib/app_led_usb_status.c: 82:             if(ledCount == 1)
  8088  0C6D  033D               	decf	APP_LEDUpdateUSBStatus@ledCount^(0+128),w
  8089  0C6E  043E               	iorwf	(APP_LEDUpdateUSBStatus@ledCount+1)^(0+128),w
  8090  0C6F  1D03               	btfss	3,2
  8091  0C70  2C72               	goto	u1951
  8092  0C71  2C73               	goto	u1950
  8093  0C72                     u1951:
  8094  0C72  2C78               	goto	l3167
  8095  0C73                     u1950:
  8096  0C73                     l3165:
  8097                           
  8098                           ;lib/app_led_usb_status.c: 83:             {;lib/app_led_usb_status.c: 84:              
      +                             LED_On(LED_D1);
  8099  0C73  3001               	movlw	1
  8100  0C74  3188  20FB  318C   	fcall	_LED_On
  8101                           
  8102                           ;lib/app_led_usb_status.c: 85:             }
  8103  0C77  2C9C               	goto	l3179
  8104  0C78                     l3167:
  8105  0C78  3032               	movlw	50
  8106  0C79  063D               	xorwf	APP_LEDUpdateUSBStatus@ledCount^(0+128),w
  8107  0C7A  043E               	iorwf	(APP_LEDUpdateUSBStatus@ledCount+1)^(0+128),w
  8108  0C7B  1D03               	btfss	3,2
  8109  0C7C  2C7E               	goto	u1961
  8110  0C7D  2C7F               	goto	u1960
  8111  0C7E                     u1961:
  8112  0C7E  2C84               	goto	l3171
  8113  0C7F                     u1960:
  8114  0C7F                     l3169:
  8115                           
  8116                           ;lib/app_led_usb_status.c: 87:             {;lib/app_led_usb_status.c: 88:              
      +                             LED_Off(LED_D1);
  8117  0C7F  3001               	movlw	1
  8118  0C80  3188  20D9  318C   	fcall	_LED_Off
  8119                           
  8120                           ;lib/app_led_usb_status.c: 89:             }
  8121  0C83  2C9C               	goto	l3179
  8122  0C84                     l3171:
  8123  0C84  3003               	movlw	3
  8124  0C85  023E               	subwf	(APP_LEDUpdateUSBStatus@ledCount+1)^(0+128),w
  8125  0C86  30B7               	movlw	183
  8126  0C87  1903               	skipnz
  8127  0C88  023D               	subwf	APP_LEDUpdateUSBStatus@ledCount^(0+128),w
  8128  0C89  1C03               	skipc
  8129  0C8A  2C8C               	goto	u1971
  8130  0C8B  2C8D               	goto	u1970
  8131  0C8C                     u1971:
  8132  0C8C  2C9C               	goto	l3179
  8133  0C8D                     u1970:
  8134  0C8D  2C69               	goto	l3161
  8135  0C8E                     l3177:
  8136  0C8E  0021               	movlb	1	; select bank1
  8137  0C8F  0854               	movf	_USBDeviceState^(0+128),w
  8138  0C90  00F3               	movwf	??_APP_LEDUpdateUSBStatus
  8139  0C91  01F4               	clrf	??_APP_LEDUpdateUSBStatus+1
  8140                           
  8141                           ; Switch on 2 bytes has been partitioned into a top level switch of size 1, and 1 sub-sw
      +                          itches
  8142                           ; Switch size 1, requested type "simple"
  8143                           ; Number of cases is 1, Range of values is 0 to 0
  8144                           ; switch strategies available:
  8145                           ; Name         Instructions Cycles
  8146                           ; simple_byte            4     3 (average)
  8147                           ; direct_byte            8     6 (fixed)
  8148                           ; jumptable            260     6 (fixed)
  8149                           ;	Chosen strategy is simple_byte
  8150  0C92  0874               	movf	??_APP_LEDUpdateUSBStatus+1,w
  8151  0C93  3A00               	xorlw	0	; case 0
  8152  0C94  1903               	skipnz
  8153  0C95  2C97               	goto	l5225
  8154  0C96  2C6D               	goto	l3163
  8155  0C97                     l5225:
  8156                           
  8157                           ; Switch size 1, requested type "simple"
  8158                           ; Number of cases is 1, Range of values is 32 to 32
  8159                           ; switch strategies available:
  8160                           ; Name         Instructions Cycles
  8161                           ; simple_byte            4     3 (average)
  8162                           ; direct_byte           11     9 (fixed)
  8163                           ; jumptable            263     9 (fixed)
  8164                           ;	Chosen strategy is simple_byte
  8165  0C97  0873               	movf	??_APP_LEDUpdateUSBStatus,w
  8166  0C98  3A20               	xorlw	32	; case 32
  8167  0C99  1903               	skipnz
  8168  0C9A  2C49               	goto	l3151
  8169  0C9B  2C6D               	goto	l3163
  8170  0C9C                     l3179:
  8171                           
  8172                           ;lib/app_led_usb_status.c: 98:     ledCount++;
  8173  0C9C  3001               	movlw	1
  8174  0C9D  0021               	movlb	1	; select bank1
  8175  0C9E  07BD               	addwf	APP_LEDUpdateUSBStatus@ledCount^(0+128),f
  8176  0C9F  3000               	movlw	0
  8177  0CA0  3DBE               	addwfc	(APP_LEDUpdateUSBStatus@ledCount+1)^(0+128),f
  8178  0CA1                     l608:
  8179  0CA1  0008               	return
  8180  0CA2                     __end_of_APP_LEDUpdateUSBStatus:
  8181                           
  8182                           	psect	text25
  8183  08FB                     __ptext25:	
  8184 ;; *************** function _LED_On *****************
  8185 ;; Defined at:
  8186 ;;		line 59 in file "lib/leds.c"
  8187 ;; Parameters:    Size  Location     Type
  8188 ;;  led             1    wreg     enum E2
  8189 ;; Auto vars:     Size  Location     Type
  8190 ;;  led             1    2[COMMON] enum E2
  8191 ;; Return value:  Size  Location     Type
  8192 ;;                  1    wreg      void 
  8193 ;; Registers used:
  8194 ;;		wreg, fsr0l, fsr0h, status,2, status,0
  8195 ;; Tracked objects:
  8196 ;;		On entry : 0/0
  8197 ;;		On exit  : 0/0
  8198 ;;		Unchanged: 0/0
  8199 ;; Data sizes:     COMMON   BANK1   BANK2   BANK3   BANK4   BANK5   BANK6   BANK7   BANK8   BANK9  BANK10  BANK11  BANK1
      +2
  8200 ;;      Params:         0       0       0       0       0       0       0       0       0       0       0       0       
      +0
  8201 ;;      Locals:         1       0       0       0       0       0       0       0       0       0       0       0       
      +0
  8202 ;;      Temps:          2       0       0       0       0       0       0       0       0       0       0       0       
      +0
  8203 ;;      Totals:         3       0       0       0       0       0       0       0       0       0       0       0       
      +0
  8204 ;;Total ram usage:        3 bytes
  8205 ;; Hardware stack levels used: 1
  8206 ;; Hardware stack levels required when called: 1
  8207 ;; This function calls:
  8208 ;;		Nothing
  8209 ;; This function is called by:
  8210 ;;		_APP_LEDUpdateUSBStatus
  8211 ;; This function uses a non-reentrant model
  8212 ;;
  8213                           
  8214  08FB                     _LED_On:	
  8215                           ;psect for function _LED_On
  8216                           
  8217                           
  8218                           ;incstack = 0
  8219                           ; Regs used in _LED_On: [wreg-fsr0h+status,2+status,0]
  8220                           ;LED_On@led stored from wreg
  8221  08FB  00F2               	movwf	LED_On@led
  8222  08FC                     l3035:
  8223                           
  8224                           ;lib/leds.c: 59: void LED_On(LED led);lib/leds.c: 60: {;lib/leds.c: 61:     switch(led)
  8225  08FC  2906               	goto	l3039
  8226  08FD                     l648:	
  8227                           ;lib/leds.c: 62:     {;lib/leds.c: 63:         case LED_D1:
  8228                           
  8229                           
  8230                           ;lib/leds.c: 64:             LATCbits.LATC4 = 1;
  8231  08FD  0022               	movlb	2	; select bank2
  8232  08FE  160E               	bsf	14,4	;volatile
  8233                           
  8234                           ;lib/leds.c: 65:             break;
  8235  08FF  291C               	goto	l653
  8236  0900                     l650:	
  8237                           ;lib/leds.c: 67:         case LED_D2:
  8238                           
  8239                           
  8240                           ;lib/leds.c: 68:             LATCbits.LATC1 = 1;
  8241  0900  0022               	movlb	2	; select bank2
  8242  0901  148E               	bsf	14,1	;volatile
  8243                           
  8244                           ;lib/leds.c: 69:             break;
  8245  0902  291C               	goto	l653
  8246  0903                     l651:	
  8247                           ;lib/leds.c: 71:         case LED_D3:
  8248                           
  8249                           
  8250                           ;lib/leds.c: 72:             LATCbits.LATC2 = 1;
  8251  0903  0022               	movlb	2	; select bank2
  8252  0904  150E               	bsf	14,2	;volatile
  8253                           
  8254                           ;lib/leds.c: 73:             break;
  8255  0905  291C               	goto	l653
  8256  0906                     l3039:
  8257  0906  0872               	movf	LED_On@led,w
  8258  0907  00F0               	movwf	??_LED_On
  8259  0908  01F1               	clrf	??_LED_On+1
  8260                           
  8261                           ; Switch on 2 bytes has been partitioned into a top level switch of size 1, and 1 sub-sw
      +                          itches
  8262                           ; Switch size 1, requested type "simple"
  8263                           ; Number of cases is 1, Range of values is 0 to 0
  8264                           ; switch strategies available:
  8265                           ; Name         Instructions Cycles
  8266                           ; simple_byte            4     3 (average)
  8267                           ; direct_byte            8     6 (fixed)
  8268                           ; jumptable            260     6 (fixed)
  8269                           ;	Chosen strategy is simple_byte
  8270  0909  0871               	movf	??_LED_On+1,w
  8271  090A  3A00               	xorlw	0	; case 0
  8272  090B  1903               	skipnz
  8273  090C  290E               	goto	l5227
  8274  090D  291C               	goto	l653
  8275  090E                     l5227:
  8276                           
  8277                           ; Switch size 1, requested type "simple"
  8278                           ; Number of cases is 4, Range of values is 0 to 3
  8279                           ; switch strategies available:
  8280                           ; Name         Instructions Cycles
  8281                           ; simple_byte           13     7 (average)
  8282                           ; direct_byte           14     6 (fixed)
  8283                           ; jumptable            260     6 (fixed)
  8284                           ;	Chosen strategy is simple_byte
  8285  090E  0870               	movf	??_LED_On,w
  8286  090F  3A00               	xorlw	0	; case 0
  8287  0910  1903               	skipnz
  8288  0911  291C               	goto	l653
  8289  0912  3A01               	xorlw	1	; case 1
  8290  0913  1903               	skipnz
  8291  0914  28FD               	goto	l648
  8292  0915  3A03               	xorlw	3	; case 2
  8293  0916  1903               	skipnz
  8294  0917  2900               	goto	l650
  8295  0918  3A01               	xorlw	1	; case 3
  8296  0919  1903               	skipnz
  8297  091A  2903               	goto	l651
  8298  091B  291C               	goto	l653
  8299  091C                     l653:
  8300  091C  0008               	return
  8301  091D                     __end_of_LED_On:
  8302                           
  8303                           	psect	text26
  8304  08D9                     __ptext26:	
  8305 ;; *************** function _LED_Off *****************
  8306 ;; Defined at:
  8307 ;;		line 100 in file "lib/leds.c"
  8308 ;; Parameters:    Size  Location     Type
  8309 ;;  led             1    wreg     enum E2
  8310 ;; Auto vars:     Size  Location     Type
  8311 ;;  led             1    2[COMMON] enum E2
  8312 ;; Return value:  Size  Location     Type
  8313 ;;                  1    wreg      void 
  8314 ;; Registers used:
  8315 ;;		wreg, fsr0l, fsr0h, status,2, status,0
  8316 ;; Tracked objects:
  8317 ;;		On entry : 0/0
  8318 ;;		On exit  : 0/0
  8319 ;;		Unchanged: 0/0
  8320 ;; Data sizes:     COMMON   BANK1   BANK2   BANK3   BANK4   BANK5   BANK6   BANK7   BANK8   BANK9  BANK10  BANK11  BANK1
      +2
  8321 ;;      Params:         0       0       0       0       0       0       0       0       0       0       0       0       
      +0
  8322 ;;      Locals:         1       0       0       0       0       0       0       0       0       0       0       0       
      +0
  8323 ;;      Temps:          2       0       0       0       0       0       0       0       0       0       0       0       
      +0
  8324 ;;      Totals:         3       0       0       0       0       0       0       0       0       0       0       0       
      +0
  8325 ;;Total ram usage:        3 bytes
  8326 ;; Hardware stack levels used: 1
  8327 ;; Hardware stack levels required when called: 1
  8328 ;; This function calls:
  8329 ;;		Nothing
  8330 ;; This function is called by:
  8331 ;;		_APP_LEDUpdateUSBStatus
  8332 ;; This function uses a non-reentrant model
  8333 ;;
  8334                           
  8335  08D9                     _LED_Off:	
  8336                           ;psect for function _LED_Off
  8337                           
  8338                           
  8339                           ;incstack = 0
  8340                           ; Regs used in _LED_Off: [wreg-fsr0h+status,2+status,0]
  8341                           ;LED_Off@led stored from wreg
  8342  08D9  00F2               	movwf	LED_Off@led
  8343  08DA                     l3025:
  8344                           
  8345                           ;lib/leds.c: 100: void LED_Off(LED led);lib/leds.c: 101: {;lib/leds.c: 102:     switch(l
      +                          ed)
  8346  08DA  28E4               	goto	l3029
  8347  08DB                     l657:	
  8348                           ;lib/leds.c: 103:     {;lib/leds.c: 104:         case LED_D1:
  8349                           
  8350                           
  8351                           ;lib/leds.c: 105:             LATCbits.LATC4 = 0;
  8352  08DB  0022               	movlb	2	; select bank2
  8353  08DC  120E               	bcf	14,4	;volatile
  8354                           
  8355                           ;lib/leds.c: 106:             break;
  8356  08DD  28FA               	goto	l662
  8357  08DE                     l659:	
  8358                           ;lib/leds.c: 108:         case LED_D2:
  8359                           
  8360                           
  8361                           ;lib/leds.c: 109:             LATCbits.LATC1 = 0;
  8362  08DE  0022               	movlb	2	; select bank2
  8363  08DF  108E               	bcf	14,1	;volatile
  8364                           
  8365                           ;lib/leds.c: 110:             break;
  8366  08E0  28FA               	goto	l662
  8367  08E1                     l660:	
  8368                           ;lib/leds.c: 112:         case LED_D3:
  8369                           
  8370                           
  8371                           ;lib/leds.c: 113:             LATCbits.LATC2 = 0;
  8372  08E1  0022               	movlb	2	; select bank2
  8373  08E2  110E               	bcf	14,2	;volatile
  8374                           
  8375                           ;lib/leds.c: 114:             break;
  8376  08E3  28FA               	goto	l662
  8377  08E4                     l3029:
  8378  08E4  0872               	movf	LED_Off@led,w
  8379  08E5  00F0               	movwf	??_LED_Off
  8380  08E6  01F1               	clrf	??_LED_Off+1
  8381                           
  8382                           ; Switch on 2 bytes has been partitioned into a top level switch of size 1, and 1 sub-sw
      +                          itches
  8383                           ; Switch size 1, requested type "simple"
  8384                           ; Number of cases is 1, Range of values is 0 to 0
  8385                           ; switch strategies available:
  8386                           ; Name         Instructions Cycles
  8387                           ; simple_byte            4     3 (average)
  8388                           ; direct_byte            8     6 (fixed)
  8389                           ; jumptable            260     6 (fixed)
  8390                           ;	Chosen strategy is simple_byte
  8391  08E7  0871               	movf	??_LED_Off+1,w
  8392  08E8  3A00               	xorlw	0	; case 0
  8393  08E9  1903               	skipnz
  8394  08EA  28EC               	goto	l5229
  8395  08EB  28FA               	goto	l662
  8396  08EC                     l5229:
  8397                           
  8398                           ; Switch size 1, requested type "simple"
  8399                           ; Number of cases is 4, Range of values is 0 to 3
  8400                           ; switch strategies available:
  8401                           ; Name         Instructions Cycles
  8402                           ; simple_byte           13     7 (average)
  8403                           ; direct_byte           14     6 (fixed)
  8404                           ; jumptable            260     6 (fixed)
  8405                           ;	Chosen strategy is simple_byte
  8406  08EC  0870               	movf	??_LED_Off,w
  8407  08ED  3A00               	xorlw	0	; case 0
  8408  08EE  1903               	skipnz
  8409  08EF  28FA               	goto	l662
  8410  08F0  3A01               	xorlw	1	; case 1
  8411  08F1  1903               	skipnz
  8412  08F2  28DB               	goto	l657
  8413  08F3  3A03               	xorlw	3	; case 2
  8414  08F4  1903               	skipnz
  8415  08F5  28DE               	goto	l659
  8416  08F6  3A01               	xorlw	1	; case 3
  8417  08F7  1903               	skipnz
  8418  08F8  28E1               	goto	l660
  8419  08F9  28FA               	goto	l662
  8420  08FA                     l662:
  8421  08FA  0008               	return
  8422  08FB                     __end_of_LED_Off:
  8423                           
  8424                           	psect	text27
  8425  0964                     __ptext27:	
  8426 ;; *************** function _APP_DeviceJoystickInitialize *****************
  8427 ;; Defined at:
  8428 ;;		line 58 in file "lib/app_device_joystick.c"
  8429 ;; Parameters:    Size  Location     Type
  8430 ;;		None
  8431 ;; Auto vars:     Size  Location     Type
  8432 ;;		None
  8433 ;; Return value:  Size  Location     Type
  8434 ;;                  1    wreg      void 
  8435 ;; Registers used:
  8436 ;;		wreg, fsr1l, fsr1h, status,2, status,0, pclath, cstack
  8437 ;; Tracked objects:
  8438 ;;		On entry : 0/0
  8439 ;;		On exit  : 0/0
  8440 ;;		Unchanged: 0/0
  8441 ;; Data sizes:     COMMON   BANK1   BANK2   BANK3   BANK4   BANK5   BANK6   BANK7   BANK8   BANK9  BANK10  BANK11  BANK1
      +2
  8442 ;;      Params:         0       0       0       0       0       0       0       0       0       0       0       0       
      +0
  8443 ;;      Locals:         0       0       0       0       0       0       0       0       0       0       0       0       
      +0
  8444 ;;      Temps:          1       0       0       0       0       0       0       0       0       0       0       0       
      +0
  8445 ;;      Totals:         1       0       0       0       0       0       0       0       0       0       0       0       
      +0
  8446 ;;Total ram usage:        1 bytes
  8447 ;; Hardware stack levels used: 1
  8448 ;; Hardware stack levels required when called: 3
  8449 ;; This function calls:
  8450 ;;		_USBEnableEndpoint
  8451 ;; This function is called by:
  8452 ;;		_USER_USB_CALLBACK_EVENT_HANDLER
  8453 ;; This function uses a non-reentrant model
  8454 ;;
  8455                           
  8456  0964                     _APP_DeviceJoystickInitialize:	
  8457                           ;psect for function _APP_DeviceJoystickInitialize
  8458                           
  8459  0964                     l3199:	
  8460                           ;incstack = 0
  8461                           ; Regs used in _APP_DeviceJoystickInitialize: [wreg+fsr1l+fsr1h+status,2+status,0+pclath
      +                          +cstack]
  8462                           
  8463                           
  8464                           ;lib/app_device_joystick.c: 62:     last_HAP_IN = 0;
  8465  0964  0023               	movlb	3	; select bank3
  8466  0965  01BC               	clrf	_last_HAP_IN^(0+384)
  8467  0966  01BD               	clrf	(_last_HAP_IN+1)^(0+384)
  8468                           
  8469                           ;lib/app_device_joystick.c: 63:     last_HAP_OUT = 0;
  8470  0967  01BA               	clrf	_last_HAP_OUT^(0+384)
  8471  0968  01BB               	clrf	(_last_HAP_OUT+1)^(0+384)
  8472                           
  8473                           ;lib/app_device_joystick.c: 64:     last_LED_OUT = 0;
  8474  0969  01B8               	clrf	_last_LED_OUT^(0+384)
  8475  096A  01B9               	clrf	(_last_LED_OUT+1)^(0+384)
  8476                           
  8477                           ;lib/app_device_joystick.c: 65:     last_DSP_OUT = 0;
  8478  096B  01B6               	clrf	_last_DSP_OUT^(0+384)
  8479  096C  01B7               	clrf	(_last_DSP_OUT+1)^(0+384)
  8480                           
  8481                           ;lib/app_device_joystick.c: 68:     display_pkt_ready=0;
  8482  096D  0021               	movlb	1	; select bank1
  8483  096E  01C4               	clrf	_display_pkt_ready^(0+128)
  8484                           
  8485                           ;lib/app_device_joystick.c: 69:     LED_pkt_ready=0;
  8486  096F  01C3               	clrf	_LED_pkt_ready^(0+128)
  8487  0970                     l3201:
  8488                           
  8489                           ;lib/app_device_joystick.c: 70:     hap_IN_pkt_sent=1;
  8490  0970  01C2               	clrf	_hap_IN_pkt_sent^(0+128)
  8491  0971  0AC2               	incf	_hap_IN_pkt_sent^(0+128),f
  8492                           
  8493                           ;lib/app_device_joystick.c: 71:     hap_OUT_pkt_ready=0;
  8494  0972  01C1               	clrf	_hap_OUT_pkt_ready^(0+128)
  8495  0973                     l3203:
  8496                           
  8497                           ;lib/app_device_joystick.c: 74:     USBEnableEndpoint(1,0x04|0x02|0x10|0x08);
  8498  0973  301E               	movlw	30
  8499  0974  00FD               	movwf	??_APP_DeviceJoystickInitialize
  8500  0975  087D               	movf	??_APP_DeviceJoystickInitialize,w
  8501  0976  00F7               	movwf	USBEnableEndpoint@options
  8502  0977  3001               	movlw	1
  8503  0978  3189  213F  3189   	fcall	_USBEnableEndpoint
  8504  097B                     l3205:
  8505                           
  8506                           ;lib/app_device_joystick.c: 75:     USBEnableEndpoint(2 ,0x04|0x02|0x10|0x08);
  8507  097B  301E               	movlw	30
  8508  097C  00FD               	movwf	??_APP_DeviceJoystickInitialize
  8509  097D  087D               	movf	??_APP_DeviceJoystickInitialize,w
  8510  097E  00F7               	movwf	USBEnableEndpoint@options
  8511  097F  3002               	movlw	2
  8512  0980  3189  213F  3189   	fcall	_USBEnableEndpoint
  8513  0983                     l3207:
  8514                           
  8515                           ;lib/app_device_joystick.c: 76:     USBEnableEndpoint(3 ,0x04|0x02|0x10|0x08);
  8516  0983  301E               	movlw	30
  8517  0984  00FD               	movwf	??_APP_DeviceJoystickInitialize
  8518  0985  087D               	movf	??_APP_DeviceJoystickInitialize,w
  8519  0986  00F7               	movwf	USBEnableEndpoint@options
  8520  0987  3003               	movlw	3
  8521  0988  3189  213F  3189   	fcall	_USBEnableEndpoint
  8522  098B                     l575:
  8523  098B  0008               	return
  8524  098C                     __end_of_APP_DeviceJoystickInitialize:
  8525                           
  8526                           	psect	text28
  8527  093F                     __ptext28:	
  8528 ;; *************** function _USBEnableEndpoint *****************
  8529 ;; Defined at:
  8530 ;;		line 882 in file "lib/usb/usb_device.c"
  8531 ;; Parameters:    Size  Location     Type
  8532 ;;  ep              1    wreg     unsigned char 
  8533 ;;  options         1    7[COMMON] unsigned char 
  8534 ;; Auto vars:     Size  Location     Type
  8535 ;;  ep              1   12[COMMON] unsigned char 
  8536 ;;  p               2   10[COMMON] PTR unsigned char 
  8537 ;;		 -> UEP0(1), 
  8538 ;; Return value:  Size  Location     Type
  8539 ;;                  1    wreg      void 
  8540 ;; Registers used:
  8541 ;;		wreg, fsr1l, fsr1h, status,2, status,0, pclath, cstack
  8542 ;; Tracked objects:
  8543 ;;		On entry : 0/0
  8544 ;;		On exit  : 0/0
  8545 ;;		Unchanged: 0/0
  8546 ;; Data sizes:     COMMON   BANK1   BANK2   BANK3   BANK4   BANK5   BANK6   BANK7   BANK8   BANK9  BANK10  BANK11  BANK1
      +2
  8547 ;;      Params:         1       0       0       0       0       0       0       0       0       0       0       0       
      +0
  8548 ;;      Locals:         3       0       0       0       0       0       0       0       0       0       0       0       
      +0
  8549 ;;      Temps:          2       0       0       0       0       0       0       0       0       0       0       0       
      +0
  8550 ;;      Totals:         6       0       0       0       0       0       0       0       0       0       0       0       
      +0
  8551 ;;Total ram usage:        6 bytes
  8552 ;; Hardware stack levels used: 1
  8553 ;; Hardware stack levels required when called: 2
  8554 ;; This function calls:
  8555 ;;		_USBConfigureEndpoint
  8556 ;; This function is called by:
  8557 ;;		_APP_DeviceJoystickInitialize
  8558 ;; This function uses a non-reentrant model
  8559 ;;
  8560                           
  8561  093F                     _USBEnableEndpoint:	
  8562                           ;psect for function _USBEnableEndpoint
  8563                           
  8564                           
  8565                           ;incstack = 0
  8566                           ; Regs used in _USBEnableEndpoint: [wreg+fsr1l+fsr1h+status,2+status,0+pclath+cstack]
  8567                           ;USBEnableEndpoint@ep stored from wreg
  8568  093F  00FC               	movwf	USBEnableEndpoint@ep
  8569  0940                     l3013:
  8570                           
  8571                           ;lib/usb/usb_device.c: 882: void USBEnableEndpoint(uint8_t ep, uint8_t options);lib/usb/
      +                          usb_device.c: 883: {;lib/usb/usb_device.c: 884:     unsigned char* p;;lib/usb/usb_device
      +                          .c: 888:     if(options & 0x04)
  8572  0940  1D77               	btfss	USBEnableEndpoint@options,2
  8573  0941  2943               	goto	u1751
  8574  0942  2944               	goto	u1750
  8575  0943                     u1751:
  8576  0943  2949               	goto	l3017
  8577  0944                     u1750:
  8578  0944                     l3015:
  8579                           
  8580                           ;lib/usb/usb_device.c: 889:     {;lib/usb/usb_device.c: 890:         USBConfigureEndpoin
      +                          t(ep, 0);
  8581  0944  01F0               	clrf	USBConfigureEndpoint@direction
  8582  0945  087C               	movf	USBEnableEndpoint@ep,w
  8583  0946  318A  225B  3189   	fcall	_USBConfigureEndpoint
  8584  0949                     l3017:
  8585                           
  8586                           ;lib/usb/usb_device.c: 892:     if(options & 0x02)
  8587  0949  1CF7               	btfss	USBEnableEndpoint@options,1
  8588  094A  294C               	goto	u1761
  8589  094B  294D               	goto	u1760
  8590  094C                     u1761:
  8591  094C  2953               	goto	l3021
  8592  094D                     u1760:
  8593  094D                     l3019:
  8594                           
  8595                           ;lib/usb/usb_device.c: 893:     {;lib/usb/usb_device.c: 894:         USBConfigureEndpoin
      +                          t(ep, 1);
  8596  094D  01F0               	clrf	USBConfigureEndpoint@direction
  8597  094E  0AF0               	incf	USBConfigureEndpoint@direction,f
  8598  094F  087C               	movf	USBEnableEndpoint@ep,w
  8599  0950  318A  225B  3189   	fcall	_USBConfigureEndpoint
  8600  0953                     l3021:
  8601                           
  8602                           ;lib/usb/usb_device.c: 903:         p = (unsigned char*)(&UEP0+ep);
  8603  0953  087C               	movf	USBEnableEndpoint@ep,w
  8604  0954  3E98               	addlw	152
  8605  0955  00F8               	movwf	??_USBEnableEndpoint
  8606  0956  01F9               	clrf	??_USBEnableEndpoint+1
  8607  0957  300E               	movlw	14
  8608  0958  3DF9               	addwfc	??_USBEnableEndpoint+1,f
  8609  0959  0878               	movf	??_USBEnableEndpoint,w
  8610  095A  00FA               	movwf	USBEnableEndpoint@p
  8611  095B  0879               	movf	??_USBEnableEndpoint+1,w
  8612  095C  00FB               	movwf	USBEnableEndpoint@p+1
  8613  095D                     l3023:
  8614                           
  8615                           ;lib/usb/usb_device.c: 905:     *p = options;
  8616  095D  087A               	movf	USBEnableEndpoint@p,w
  8617  095E  0086               	movwf	6
  8618  095F  087B               	movf	USBEnableEndpoint@p+1,w
  8619  0960  0087               	movwf	7
  8620  0961  0877               	movf	USBEnableEndpoint@options,w
  8621  0962  0081               	movwf	1
  8622  0963                     l196:
  8623  0963  0008               	return
  8624  0964                     __end_of_USBEnableEndpoint:
  8625                           
  8626                           	psect	text29
  8627  0A5B                     __ptext29:	
  8628 ;; *************** function _USBConfigureEndpoint *****************
  8629 ;; Defined at:
  8630 ;;		line 1547 in file "lib/usb/usb_device.c"
  8631 ;; Parameters:    Size  Location     Type
  8632 ;;  EPNum           1    wreg     unsigned char 
  8633 ;;  direction       1    0[COMMON] unsigned char 
  8634 ;; Auto vars:     Size  Location     Type
  8635 ;;  EPNum           1    5[COMMON] unsigned char 
  8636 ;;  handle          1    6[COMMON] PTR volatile struct __BD
  8637 ;;		 -> BDT(64), 
  8638 ;; Return value:  Size  Location     Type
  8639 ;;                  1    wreg      void 
  8640 ;; Registers used:
  8641 ;;		wreg, fsr1l, fsr1h, status,2, status,0
  8642 ;; Tracked objects:
  8643 ;;		On entry : 0/0
  8644 ;;		On exit  : 0/0
  8645 ;;		Unchanged: 0/0
  8646 ;; Data sizes:     COMMON   BANK1   BANK2   BANK3   BANK4   BANK5   BANK6   BANK7   BANK8   BANK9  BANK10  BANK11  BANK1
      +2
  8647 ;;      Params:         1       0       0       0       0       0       0       0       0       0       0       0       
      +0
  8648 ;;      Locals:         2       0       0       0       0       0       0       0       0       0       0       0       
      +0
  8649 ;;      Temps:          4       0       0       0       0       0       0       0       0       0       0       0       
      +0
  8650 ;;      Totals:         7       0       0       0       0       0       0       0       0       0       0       0       
      +0
  8651 ;;Total ram usage:        7 bytes
  8652 ;; Hardware stack levels used: 1
  8653 ;; Hardware stack levels required when called: 1
  8654 ;; This function calls:
  8655 ;;		Nothing
  8656 ;; This function is called by:
  8657 ;;		_USBEnableEndpoint
  8658 ;; This function uses a non-reentrant model
  8659 ;;
  8660                           
  8661  0A5B                     _USBConfigureEndpoint:	
  8662                           ;psect for function _USBConfigureEndpoint
  8663                           
  8664                           
  8665                           ;incstack = 0
  8666                           ; Regs used in _USBConfigureEndpoint: [wreg+fsr1l+fsr1h+status,2+status,0]
  8667                           ;USBConfigureEndpoint@EPNum stored from wreg
  8668  0A5B  00F5               	movwf	USBConfigureEndpoint@EPNum
  8669  0A5C                     l2997:
  8670                           
  8671                           ;lib/usb/usb_device.c: 1547: static void USBConfigureEndpoint(uint8_t EPNum, uint8_t dir
      +                          ection);lib/usb/usb_device.c: 1548: {;lib/usb/usb_device.c: 1549:     volatile BDT_ENTRY
      +                          * handle;;lib/usb/usb_device.c: 1553:     handle = (volatile BDT_ENTRY*)&BDT[0];
  8672  0A5C  3020               	movlw	32
  8673  0A5D  00F1               	movwf	??_USBConfigureEndpoint
  8674  0A5E  0871               	movf	??_USBConfigureEndpoint,w
  8675  0A5F  00F6               	movwf	USBConfigureEndpoint@handle
  8676  0A60                     l2999:
  8677                           
  8678                           ;lib/usb/usb_device.c: 1554:     handle += (4*EPNum+2*direction+0u);
  8679  0A60  0870               	movf	USBConfigureEndpoint@direction,w
  8680  0A61  00F1               	movwf	??_USBConfigureEndpoint
  8681  0A62  3001               	movlw	1
  8682  0A63                     u1715:
  8683  0A63  35F1               	lslf	??_USBConfigureEndpoint,f
  8684  0A64  0B89               	decfsz	9,f
  8685  0A65  2A63               	goto	u1715
  8686  0A66  0875               	movf	USBConfigureEndpoint@EPNum,w
  8687  0A67  00F2               	movwf	??_USBConfigureEndpoint+1
  8688  0A68  3001               	movlw	1
  8689  0A69                     u1725:
  8690  0A69  35F2               	lslf	??_USBConfigureEndpoint+1,f
  8691  0A6A  3EFF               	addlw	-1
  8692  0A6B  1D03               	skipz
  8693  0A6C  2A69               	goto	u1725
  8694  0A6D  3572               	lslf	??_USBConfigureEndpoint+1,w
  8695  0A6E  0771               	addwf	??_USBConfigureEndpoint,w
  8696  0A6F  00F3               	movwf	??_USBConfigureEndpoint+2
  8697  0A70  3001               	movlw	1
  8698  0A71                     u1735:
  8699  0A71  35F3               	lslf	??_USBConfigureEndpoint+2,f
  8700  0A72  3EFF               	addlw	-1
  8701  0A73  1D03               	skipz
  8702  0A74  2A71               	goto	u1735
  8703  0A75  3573               	lslf	??_USBConfigureEndpoint+2,w
  8704  0A76  00F4               	movwf	??_USBConfigureEndpoint+3
  8705  0A77  0874               	movf	??_USBConfigureEndpoint+3,w
  8706  0A78  07F6               	addwf	USBConfigureEndpoint@handle,f
  8707  0A79                     l3001:
  8708                           
  8709                           ;lib/usb/usb_device.c: 1556:     handle->STAT.UOWN = 0;
  8710  0A79  0876               	movf	USBConfigureEndpoint@handle,w
  8711  0A7A  0086               	movwf	6
  8712  0A7B  0187               	clrf	7
  8713  0A7C  1381               	bcf	1,7
  8714  0A7D                     l3003:
  8715                           
  8716                           ;lib/usb/usb_device.c: 1561:     if(direction == 0)
  8717  0A7D  0870               	movf	USBConfigureEndpoint@direction,w
  8718  0A7E  1D03               	btfss	3,2
  8719  0A7F  2A81               	goto	u1741
  8720  0A80  2A82               	goto	u1740
  8721  0A81                     u1741:
  8722  0A81  2A8C               	goto	l3007
  8723  0A82                     u1740:
  8724  0A82                     l3005:
  8725                           
  8726                           ;lib/usb/usb_device.c: 1562:     {;lib/usb/usb_device.c: 1563:         pBDTEntryOut[EPNu
      +                          m] = handle;
  8727  0A82  3575               	lslf	USBConfigureEndpoint@EPNum,w
  8728  0A83  3EA0               	addlw	(low (_pBDTEntryOut| (0+256)))& (0+255)
  8729  0A84  0086               	movwf	6
  8730  0A85  3001               	movlw	1	; select bank3/4
  8731  0A86  0087               	movwf	7
  8732  0A87  0876               	movf	USBConfigureEndpoint@handle,w
  8733  0A88  3FC0               	movwi [0]fsr1
  8734  0A89  3000               	movlw	0
  8735  0A8A  3FC1               	movwi [1]fsr1
  8736                           
  8737                           ;lib/usb/usb_device.c: 1564:     }
  8738  0A8B  2A94               	goto	l3009
  8739  0A8C                     l3007:
  8740                           
  8741                           ;lib/usb/usb_device.c: 1566:     {;lib/usb/usb_device.c: 1567:         pBDTEntryIn[EPNum
      +                          ] = handle;
  8742  0A8C  3575               	lslf	USBConfigureEndpoint@EPNum,w
  8743  0A8D  3EB0               	addlw	(low (_pBDTEntryIn| 0))& (0+255)
  8744  0A8E  0086               	movwf	6
  8745  0A8F  0187               	clrf	7
  8746  0A90  0876               	movf	USBConfigureEndpoint@handle,w
  8747  0A91  3FC0               	movwi [0]fsr1
  8748  0A92  3000               	movlw	0
  8749  0A93  3FC1               	movwi [1]fsr1
  8750  0A94                     l3009:
  8751                           
  8752                           ;lib/usb/usb_device.c: 1571:         handle->STAT.DTS = 0;
  8753  0A94  0876               	movf	USBConfigureEndpoint@handle,w
  8754  0A95  0086               	movwf	6
  8755  0A96  0187               	clrf	7
  8756  0A97  1301               	bcf	1,6
  8757  0A98                     l3011:
  8758                           
  8759                           ;lib/usb/usb_device.c: 1572:         (handle+1)->STAT.DTS = 1;
  8760  0A98  0876               	movf	USBConfigureEndpoint@handle,w
  8761  0A99  3E04               	addlw	4
  8762  0A9A  0086               	movwf	6
  8763  0A9B  0187               	clrf	7
  8764  0A9C  1701               	bsf	1,6
  8765  0A9D                     l232:
  8766  0A9D  0008               	return
  8767  0A9E                     __end_of_USBConfigureEndpoint:
  8768                           
  8769                           	psect	text30
  8770  09E5                     __ptext30:	
  8771 ;; *************** function _USBCtrlTrfOutHandler *****************
  8772 ;; Defined at:
  8773 ;;		line 2545 in file "lib/usb/usb_device.c"
  8774 ;; Parameters:    Size  Location     Type
  8775 ;;		None
  8776 ;; Auto vars:     Size  Location     Type
  8777 ;;		None
  8778 ;; Return value:  Size  Location     Type
  8779 ;;                  1    wreg      void 
  8780 ;; Registers used:
  8781 ;;		wreg, fsr1l, fsr1h, status,2, status,0, pclath, cstack
  8782 ;; Tracked objects:
  8783 ;;		On entry : 0/0
  8784 ;;		On exit  : 0/0
  8785 ;;		Unchanged: 0/0
  8786 ;; Data sizes:     COMMON   BANK1   BANK2   BANK3   BANK4   BANK5   BANK6   BANK7   BANK8   BANK9  BANK10  BANK11  BANK1
      +2
  8787 ;;      Params:         0       0       0       0       0       0       0       0       0       0       0       0       
      +0
  8788 ;;      Locals:         0       0       0       0       0       0       0       0       0       0       0       0       
      +0
  8789 ;;      Temps:          2       0       0       0       0       0       0       0       0       0       0       0       
      +0
  8790 ;;      Totals:         2       0       0       0       0       0       0       0       0       0       0       0       
      +0
  8791 ;;Total ram usage:        2 bytes
  8792 ;; Hardware stack levels used: 1
  8793 ;; Hardware stack levels required when called: 3
  8794 ;; This function calls:
  8795 ;;		_USBCtrlTrfRxService
  8796 ;; This function is called by:
  8797 ;;		_USBCtrlEPService
  8798 ;; This function uses a non-reentrant model
  8799 ;;
  8800                           
  8801  09E5                     _USBCtrlTrfOutHandler:	
  8802                           ;psect for function _USBCtrlTrfOutHandler
  8803                           
  8804  09E5                     l3765:	
  8805                           ;incstack = 0
  8806                           ; Regs used in _USBCtrlTrfOutHandler: [wreg+fsr1l+fsr1h+status,2+status,0+pclath+cstack]
  8807                           
  8808                           
  8809                           ;lib/usb/usb_device.c: 2547:     if(controlTransferState == 2)
  8810  09E5  3002               	movlw	2
  8811  09E6  0021               	movlb	1	; select bank1
  8812  09E7  0651               	xorwf	_controlTransferState^(0+128),w
  8813  09E8  1D03               	btfss	3,2
  8814  09E9  29EB               	goto	u2591
  8815  09EA  29EC               	goto	u2590
  8816  09EB                     u2591:
  8817  09EB  29F0               	goto	l3769
  8818  09EC                     u2590:
  8819  09EC                     l3767:
  8820                           
  8821                           ;lib/usb/usb_device.c: 2548:     {;lib/usb/usb_device.c: 2549:         USBCtrlTrfRxServi
      +                          ce();
  8822  09EC  3186  263C  3189   	fcall	_USBCtrlTrfRxService
  8823                           
  8824                           ;lib/usb/usb_device.c: 2550:     }
  8825  09EF  2A1C               	goto	l343
  8826  09F0                     l3769:
  8827                           
  8828                           ;lib/usb/usb_device.c: 2552:     {;lib/usb/usb_device.c: 2555:         controlTransferSt
      +                          ate = 0;
  8829  09F0  01D1               	clrf	_controlTransferState^(0+128)
  8830  09F1                     l3771:
  8831                           
  8832                           ;lib/usb/usb_device.c: 2562:         if(BothEP0OutUOWNsSet == 0)
  8833  09F1  084C               	movf	_BothEP0OutUOWNsSet^(0+128),w
  8834  09F2  1D03               	btfss	3,2
  8835  09F3  29F5               	goto	u2601
  8836  09F4  29F6               	goto	u2600
  8837  09F5                     u2601:
  8838  09F5  2A1B               	goto	l3781
  8839  09F6                     u2600:
  8840  09F6                     l3773:
  8841                           
  8842                           ;lib/usb/usb_device.c: 2563:         {;lib/usb/usb_device.c: 2564:             pBDTEntry
      +                          EP0OutNext->CNT = 8;
  8843  09F6  083F               	movf	_pBDTEntryEP0OutNext^(0+128),w
  8844  09F7  3E01               	addlw	1
  8845  09F8  00F6               	movwf	??_USBCtrlTrfOutHandler
  8846  09F9  3000               	movlw	0
  8847  09FA  3D40               	addwfc	(_pBDTEntryEP0OutNext+1)^(0+128),w
  8848  09FB  00F7               	movwf	??_USBCtrlTrfOutHandler+1
  8849  09FC  0876               	movf	??_USBCtrlTrfOutHandler,w
  8850  09FD  0086               	movwf	6
  8851  09FE  0877               	movf	??_USBCtrlTrfOutHandler+1,w
  8852  09FF  0087               	movwf	7
  8853  0A00  3008               	movlw	8
  8854  0A01  0081               	movwf	1
  8855  0A02                     l3775:
  8856                           
  8857                           ;lib/usb/usb_device.c: 2565:             pBDTEntryEP0OutNext->ADR = (((uint16_t)(&SetupP
      +                          kt)) & 0x7FFF);
  8858  0A02  3060               	movlw	96
  8859  0A03  00F6               	movwf	??_USBCtrlTrfOutHandler
  8860  0A04  3000               	movlw	0
  8861  0A05  00F7               	movwf	??_USBCtrlTrfOutHandler+1
  8862  0A06  083F               	movf	_pBDTEntryEP0OutNext^(0+128),w
  8863  0A07  0086               	movwf	6
  8864  0A08  0840               	movf	(_pBDTEntryEP0OutNext+1)^(0+128),w
  8865  0A09  0087               	movwf	7
  8866  0A0A  3142               	addfsr 1,2
  8867  0A0B  0876               	movf	??_USBCtrlTrfOutHandler,w
  8868  0A0C  3FC0               	movwi [0]fsr1
  8869  0A0D  0877               	movf	??_USBCtrlTrfOutHandler+1,w
  8870  0A0E  3FC1               	movwi [1]fsr1
  8871  0A0F                     l3777:
  8872                           
  8873                           ;lib/usb/usb_device.c: 2566:             pBDTEntryEP0OutNext->STAT.Val = 0x00|(0x08 & 0x
      +                          08)|0x04;
  8874  0A0F  083F               	movf	_pBDTEntryEP0OutNext^(0+128),w
  8875  0A10  0086               	movwf	6
  8876  0A11  0840               	movf	(_pBDTEntryEP0OutNext+1)^(0+128),w
  8877  0A12  0087               	movwf	7
  8878  0A13  300C               	movlw	12
  8879  0A14  0081               	movwf	1
  8880  0A15                     l3779:
  8881                           
  8882                           ;lib/usb/usb_device.c: 2567:             pBDTEntryEP0OutNext->STAT.Val |= 0x80;
  8883  0A15  083F               	movf	_pBDTEntryEP0OutNext^(0+128),w
  8884  0A16  0086               	movwf	6
  8885  0A17  0840               	movf	(_pBDTEntryEP0OutNext+1)^(0+128),w
  8886  0A18  0087               	movwf	7
  8887  0A19  1781               	bsf	1,7
  8888                           
  8889                           ;lib/usb/usb_device.c: 2568:         }
  8890  0A1A  2A1C               	goto	l343
  8891  0A1B                     l3781:
  8892                           
  8893                           ;lib/usb/usb_device.c: 2570:         {;lib/usb/usb_device.c: 2571:             BothEP0Ou
      +                          tUOWNsSet = 0;
  8894  0A1B  01CC               	clrf	_BothEP0OutUOWNsSet^(0+128)
  8895  0A1C                     l343:
  8896  0A1C  0008               	return
  8897  0A1D                     __end_of_USBCtrlTrfOutHandler:
  8898                           
  8899                           	psect	text31
  8900  063C                     __ptext31:	
  8901 ;; *************** function _USBCtrlTrfRxService *****************
  8902 ;; Defined at:
  8903 ;;		line 1856 in file "lib/usb/usb_device.c"
  8904 ;; Parameters:    Size  Location     Type
  8905 ;;		None
  8906 ;; Auto vars:     Size  Location     Type
  8907 ;;  byteToRead      1    5[COMMON] unsigned char 
  8908 ;;  i               1    4[COMMON] unsigned char 
  8909 ;; Return value:  Size  Location     Type
  8910 ;;                  1    wreg      void 
  8911 ;; Registers used:
  8912 ;;		wreg, fsr1l, fsr1h, status,2, status,0, pclath, cstack
  8913 ;; Tracked objects:
  8914 ;;		On entry : 0/0
  8915 ;;		On exit  : 0/0
  8916 ;;		Unchanged: 0/0
  8917 ;; Data sizes:     COMMON   BANK1   BANK2   BANK3   BANK4   BANK5   BANK6   BANK7   BANK8   BANK9  BANK10  BANK11  BANK1
      +2
  8918 ;;      Params:         0       0       0       0       0       0       0       0       0       0       0       0       
      +0
  8919 ;;      Locals:         2       0       0       0       0       0       0       0       0       0       0       0       
      +0
  8920 ;;      Temps:          2       0       0       0       0       0       0       0       0       0       0       0       
      +0
  8921 ;;      Totals:         4       0       0       0       0       0       0       0       0       0       0       0       
      +0
  8922 ;;Total ram usage:        4 bytes
  8923 ;; Hardware stack levels used: 1
  8924 ;; Hardware stack levels required when called: 2
  8925 ;; This function calls:
  8926 ;;		_USBCtrlEPAllowStatusStage
  8927 ;; This function is called by:
  8928 ;;		_USBCtrlTrfOutHandler
  8929 ;; This function uses a non-reentrant model
  8930 ;;
  8931                           
  8932  063C                     _USBCtrlTrfRxService:	
  8933                           ;psect for function _USBCtrlTrfRxService
  8934                           
  8935  063C                     l3641:	
  8936                           ;incstack = 0
  8937                           ; Regs used in _USBCtrlTrfRxService: [wreg+fsr1l+fsr1h+status,2+status,0+pclath+cstack]
  8938                           
  8939                           
  8940                           ;lib/usb/usb_device.c: 1858:     uint8_t byteToRead;;lib/usb/usb_device.c: 1859:     uin
      +                          t8_t i;;lib/usb/usb_device.c: 1863:     byteToRead = pBDTEntryEP0OutCurrent->CNT;
  8941  063C  0021               	movlb	1	; select bank1
  8942  063D  0853               	movf	_pBDTEntryEP0OutCurrent^(0+128),w
  8943  063E  0086               	movwf	6
  8944  063F  0187               	clrf	7
  8945  0640  3F41               	moviw [1]fsr1
  8946  0641  00F5               	movwf	USBCtrlTrfRxService@byteToRead
  8947  0642                     l3643:
  8948                           
  8949                           ;lib/usb/usb_device.c: 1869:     if(byteToRead > outPipes[0].wCount.Val)
  8950  0642  0875               	movf	USBCtrlTrfRxService@byteToRead,w
  8951  0643  00F2               	movwf	??_USBCtrlTrfRxService
  8952  0644  01F3               	clrf	??_USBCtrlTrfRxService+1
  8953  0645  0873               	movf	??_USBCtrlTrfRxService+1,w
  8954  0646  0022               	movlb	2	; select bank2
  8955  0647  0224               	subwf	((_outPipes+1)^(0+256)+3),w
  8956  0648  1D03               	skipz
  8957  0649  2E4C               	goto	u2525
  8958  064A  0872               	movf	??_USBCtrlTrfRxService,w
  8959  064B  0223               	subwf	(_outPipes^(0+256)+3),w
  8960  064C                     u2525:
  8961  064C  1803               	skipnc
  8962  064D  2E4F               	goto	u2521
  8963  064E  2E50               	goto	u2520
  8964  064F                     u2521:
  8965  064F  2E54               	goto	l263
  8966  0650                     u2520:
  8967  0650                     l3645:
  8968                           
  8969                           ;lib/usb/usb_device.c: 1870:     {;lib/usb/usb_device.c: 1871:         byteToRead = (uin
      +                          t8_t)(outPipes[0].wCount.Val);
  8970  0650  0823               	movf	(_outPipes^(0+256)+3),w
  8971  0651  00F2               	movwf	??_USBCtrlTrfRxService
  8972  0652  0872               	movf	??_USBCtrlTrfRxService,w
  8973  0653  00F5               	movwf	USBCtrlTrfRxService@byteToRead
  8974  0654                     l263:	
  8975                           ;lib/usb/usb_device.c: 1872:     }
  8976                           
  8977                           
  8978                           ;lib/usb/usb_device.c: 1874:     outPipes[0].wCount.Val -= byteToRead;
  8979  0654  0875               	movf	USBCtrlTrfRxService@byteToRead,w
  8980  0655  00F2               	movwf	??_USBCtrlTrfRxService
  8981  0656  01F3               	clrf	??_USBCtrlTrfRxService+1
  8982  0657  0872               	movf	??_USBCtrlTrfRxService,w
  8983  0658  02A3               	subwf	(_outPipes^(0+256)+3),f
  8984  0659  0873               	movf	??_USBCtrlTrfRxService+1,w
  8985  065A  3BA4               	subwfb	((_outPipes+1)^(0+256)+3),f
  8986  065B                     l3647:
  8987                           
  8988                           ;lib/usb/usb_device.c: 1878:     for(i=0;i<byteToRead;i++)
  8989  065B  01F4               	clrf	USBCtrlTrfRxService@i
  8990  065C  2E70               	goto	l3655
  8991  065D                     l3649:
  8992                           
  8993                           ;lib/usb/usb_device.c: 1879:     {;lib/usb/usb_device.c: 1880:         *outPipes[0].pDst
      +                          .bRam++ = CtrlTrfData[i];
  8994  065D  0874               	movf	USBCtrlTrfRxService@i,w
  8995  065E  3E68               	addlw	104
  8996  065F  0086               	movwf	6
  8997  0660  0187               	clrf	7
  8998  0661  0801               	movf	1,w
  8999  0662  00F2               	movwf	??_USBCtrlTrfRxService
  9000  0663  0820               	movf	_outPipes^(0+256),w
  9001  0664  0086               	movwf	6
  9002  0665  0187               	clrf	7
  9003  0666  0872               	movf	??_USBCtrlTrfRxService,w
  9004  0667  0081               	movwf	1
  9005  0668                     l3651:
  9006  0668  3001               	movlw	1
  9007  0669  00F2               	movwf	??_USBCtrlTrfRxService
  9008  066A  0872               	movf	??_USBCtrlTrfRxService,w
  9009  066B  07A0               	addwf	_outPipes^(0+256),f
  9010  066C                     l3653:
  9011                           
  9012                           ;lib/usb/usb_device.c: 1881:     }
  9013  066C  3001               	movlw	1
  9014  066D  00F2               	movwf	??_USBCtrlTrfRxService
  9015  066E  0872               	movf	??_USBCtrlTrfRxService,w
  9016  066F  07F4               	addwf	USBCtrlTrfRxService@i,f
  9017  0670                     l3655:
  9018  0670  0875               	movf	USBCtrlTrfRxService@byteToRead,w
  9019  0671  0274               	subwf	USBCtrlTrfRxService@i,w
  9020  0672  1C03               	skipc
  9021  0673  2E75               	goto	u2531
  9022  0674  2E76               	goto	u2530
  9023  0675                     u2531:
  9024  0675  2E5D               	goto	l3649
  9025  0676                     u2530:
  9026  0676                     l3657:
  9027                           
  9028                           ;lib/usb/usb_device.c: 1885:     if(outPipes[0].wCount.Val > 0)
  9029  0676  0823               	movf	(_outPipes^(0+256)+3),w
  9030  0677  0424               	iorwf	((_outPipes+1)^(0+256)+3),w
  9031  0678  1903               	btfsc	3,2
  9032  0679  2E7B               	goto	u2541
  9033  067A  2E7C               	goto	u2540
  9034  067B                     u2541:
  9035  067B  2EB5               	goto	l3669
  9036  067C                     u2540:
  9037  067C                     l3659:
  9038                           
  9039                           ;lib/usb/usb_device.c: 1886:     {;lib/usb/usb_device.c: 1887:         pBDTEntryEP0OutNe
      +                          xt->CNT = 8;
  9040  067C  0021               	movlb	1	; select bank1
  9041  067D  083F               	movf	_pBDTEntryEP0OutNext^(0+128),w
  9042  067E  3E01               	addlw	1
  9043  067F  00F2               	movwf	??_USBCtrlTrfRxService
  9044  0680  3000               	movlw	0
  9045  0681  3D40               	addwfc	(_pBDTEntryEP0OutNext+1)^(0+128),w
  9046  0682  00F3               	movwf	??_USBCtrlTrfRxService+1
  9047  0683  0872               	movf	??_USBCtrlTrfRxService,w
  9048  0684  0086               	movwf	6
  9049  0685  0873               	movf	??_USBCtrlTrfRxService+1,w
  9050  0686  0087               	movwf	7
  9051  0687  3008               	movlw	8
  9052  0688  0081               	movwf	1
  9053  0689                     l3661:
  9054                           
  9055                           ;lib/usb/usb_device.c: 1888:         pBDTEntryEP0OutNext->ADR = (((uint16_t)(&CtrlTrfDat
      +                          a)) & 0x7FFF);
  9056  0689  3068               	movlw	104
  9057  068A  00F2               	movwf	??_USBCtrlTrfRxService
  9058  068B  3000               	movlw	0
  9059  068C  00F3               	movwf	??_USBCtrlTrfRxService+1
  9060  068D  083F               	movf	_pBDTEntryEP0OutNext^(0+128),w
  9061  068E  0086               	movwf	6
  9062  068F  0840               	movf	(_pBDTEntryEP0OutNext+1)^(0+128),w
  9063  0690  0087               	movwf	7
  9064  0691  3142               	addfsr 1,2
  9065  0692  0872               	movf	??_USBCtrlTrfRxService,w
  9066  0693  3FC0               	movwi [0]fsr1
  9067  0694  0873               	movf	??_USBCtrlTrfRxService+1,w
  9068  0695  3FC1               	movwi [1]fsr1
  9069  0696                     l3663:
  9070                           
  9071                           ;lib/usb/usb_device.c: 1889:         if(pBDTEntryEP0OutCurrent->STAT.DTS == 0)
  9072  0696  0853               	movf	_pBDTEntryEP0OutCurrent^(0+128),w
  9073  0697  0086               	movwf	6
  9074  0698  0187               	clrf	7
  9075  0699  1B01               	btfsc	1,6
  9076  069A  2E9C               	goto	u2551
  9077  069B  2E9D               	goto	u2550
  9078  069C                     u2551:
  9079  069C  2EA9               	goto	l3667
  9080  069D                     u2550:
  9081  069D                     l3665:
  9082                           
  9083                           ;lib/usb/usb_device.c: 1890:         {;lib/usb/usb_device.c: 1891:             pBDTEntry
      +                          EP0OutNext->STAT.Val = 0x40|(0x08 & 0x08);
  9084  069D  083F               	movf	_pBDTEntryEP0OutNext^(0+128),w
  9085  069E  0086               	movwf	6
  9086  069F  0840               	movf	(_pBDTEntryEP0OutNext+1)^(0+128),w
  9087  06A0  0087               	movwf	7
  9088  06A1  3048               	movlw	72
  9089  06A2  0081               	movwf	1
  9090                           
  9091                           ;lib/usb/usb_device.c: 1892:             pBDTEntryEP0OutNext->STAT.Val |= 0x80;
  9092  06A3  083F               	movf	_pBDTEntryEP0OutNext^(0+128),w
  9093  06A4  0086               	movwf	6
  9094  06A5  0840               	movf	(_pBDTEntryEP0OutNext+1)^(0+128),w
  9095  06A6  0087               	movwf	7
  9096  06A7  1781               	bsf	1,7
  9097                           
  9098                           ;lib/usb/usb_device.c: 1893:         }
  9099  06A8  2EE5               	goto	l273
  9100  06A9                     l3667:
  9101                           
  9102                           ;lib/usb/usb_device.c: 1895:         {;lib/usb/usb_device.c: 1896:             pBDTEntry
      +                          EP0OutNext->STAT.Val = 0x00|(0x08 & 0x08);
  9103  06A9  083F               	movf	_pBDTEntryEP0OutNext^(0+128),w
  9104  06AA  0086               	movwf	6
  9105  06AB  0840               	movf	(_pBDTEntryEP0OutNext+1)^(0+128),w
  9106  06AC  0087               	movwf	7
  9107  06AD  3008               	movlw	8
  9108  06AE  0081               	movwf	1
  9109                           
  9110                           ;lib/usb/usb_device.c: 1897:             pBDTEntryEP0OutNext->STAT.Val |= 0x80;
  9111  06AF  083F               	movf	_pBDTEntryEP0OutNext^(0+128),w
  9112  06B0  0086               	movwf	6
  9113  06B1  0840               	movf	(_pBDTEntryEP0OutNext+1)^(0+128),w
  9114  06B2  0087               	movwf	7
  9115  06B3  1781               	bsf	1,7
  9116  06B4  2EE5               	goto	l273
  9117  06B5                     l3669:
  9118                           
  9119                           ;lib/usb/usb_device.c: 1901:     {;lib/usb/usb_device.c: 1905:         pBDTEntryEP0OutNe
      +                          xt->CNT = 8;
  9120  06B5  0021               	movlb	1	; select bank1
  9121  06B6  083F               	movf	_pBDTEntryEP0OutNext^(0+128),w
  9122  06B7  3E01               	addlw	1
  9123  06B8  00F2               	movwf	??_USBCtrlTrfRxService
  9124  06B9  3000               	movlw	0
  9125  06BA  3D40               	addwfc	(_pBDTEntryEP0OutNext+1)^(0+128),w
  9126  06BB  00F3               	movwf	??_USBCtrlTrfRxService+1
  9127  06BC  0872               	movf	??_USBCtrlTrfRxService,w
  9128  06BD  0086               	movwf	6
  9129  06BE  0873               	movf	??_USBCtrlTrfRxService+1,w
  9130  06BF  0087               	movwf	7
  9131  06C0  3008               	movlw	8
  9132  06C1  0081               	movwf	1
  9133  06C2                     l3671:
  9134                           
  9135                           ;lib/usb/usb_device.c: 1906:         pBDTEntryEP0OutNext->ADR = (((uint16_t)(&SetupPkt))
      +                           & 0x7FFF);
  9136  06C2  3060               	movlw	96
  9137  06C3  00F2               	movwf	??_USBCtrlTrfRxService
  9138  06C4  3000               	movlw	0
  9139  06C5  00F3               	movwf	??_USBCtrlTrfRxService+1
  9140  06C6  083F               	movf	_pBDTEntryEP0OutNext^(0+128),w
  9141  06C7  0086               	movwf	6
  9142  06C8  0840               	movf	(_pBDTEntryEP0OutNext+1)^(0+128),w
  9143  06C9  0087               	movwf	7
  9144  06CA  3142               	addfsr 1,2
  9145  06CB  0872               	movf	??_USBCtrlTrfRxService,w
  9146  06CC  3FC0               	movwi [0]fsr1
  9147  06CD  0873               	movf	??_USBCtrlTrfRxService+1,w
  9148  06CE  3FC1               	movwi [1]fsr1
  9149  06CF                     l3673:
  9150                           
  9151                           ;lib/usb/usb_device.c: 1910:         pBDTEntryEP0OutNext->STAT.Val = 0x04;
  9152  06CF  083F               	movf	_pBDTEntryEP0OutNext^(0+128),w
  9153  06D0  0086               	movwf	6
  9154  06D1  0840               	movf	(_pBDTEntryEP0OutNext+1)^(0+128),w
  9155  06D2  0087               	movwf	7
  9156  06D3  3004               	movlw	4
  9157  06D4  0081               	movwf	1
  9158  06D5                     l3675:
  9159                           
  9160                           ;lib/usb/usb_device.c: 1911:         pBDTEntryEP0OutNext->STAT.Val |= 0x80;
  9161  06D5  083F               	movf	_pBDTEntryEP0OutNext^(0+128),w
  9162  06D6  0086               	movwf	6
  9163  06D7  0840               	movf	(_pBDTEntryEP0OutNext+1)^(0+128),w
  9164  06D8  0087               	movwf	7
  9165  06D9  1781               	bsf	1,7
  9166  06DA                     l271:
  9167  06DA  0022               	movlb	2	; select bank2
  9168  06DB  13A2               	bcf	(_outPipes^(0+256)+2),7
  9169  06DC                     l3679:
  9170                           
  9171                           ;lib/usb/usb_device.c: 1945:         if(USBDeferStatusStagePacket == 0)
  9172  06DC  0021               	movlb	1	; select bank1
  9173  06DD  084A               	movf	_USBDeferStatusStagePacket^(0+128),w	;volatile
  9174  06DE  1D03               	btfss	3,2
  9175  06DF  2EE1               	goto	u2561
  9176  06E0  2EE2               	goto	u2560
  9177  06E1                     u2561:
  9178  06E1  2EE5               	goto	l273
  9179  06E2                     u2560:
  9180  06E2                     l3681:
  9181                           
  9182                           ;lib/usb/usb_device.c: 1946:         {;lib/usb/usb_device.c: 1947:             USBCtrlEP
      +                          AllowStatusStage();
  9183  06E2  318D  250F  3186   	fcall	_USBCtrlEPAllowStatusStage
  9184  06E5                     l273:
  9185  06E5  0008               	return
  9186  06E6                     __end_of_USBCtrlTrfRxService:
  9187                           
  9188                           	psect	text32
  9189  0D0F                     __ptext32:	
  9190 ;; *************** function _USBCtrlEPAllowStatusStage *****************
  9191 ;; Defined at:
  9192 ;;		line 1420 in file "lib/usb/usb_device.c"
  9193 ;; Parameters:    Size  Location     Type
  9194 ;;		None
  9195 ;; Auto vars:     Size  Location     Type
  9196 ;;		None
  9197 ;; Return value:  Size  Location     Type
  9198 ;;                  1    wreg      void 
  9199 ;; Registers used:
  9200 ;;		wreg, fsr1l, fsr1h, status,2, status,0
  9201 ;; Tracked objects:
  9202 ;;		On entry : 0/0
  9203 ;;		On exit  : 0/0
  9204 ;;		Unchanged: 0/0
  9205 ;; Data sizes:     COMMON   BANK1   BANK2   BANK3   BANK4   BANK5   BANK6   BANK7   BANK8   BANK9  BANK10  BANK11  BANK1
      +2
  9206 ;;      Params:         0       0       0       0       0       0       0       0       0       0       0       0       
      +0
  9207 ;;      Locals:         0       0       0       0       0       0       0       0       0       0       0       0       
      +0
  9208 ;;      Temps:          2       0       0       0       0       0       0       0       0       0       0       0       
      +0
  9209 ;;      Totals:         2       0       0       0       0       0       0       0       0       0       0       0       
      +0
  9210 ;;Total ram usage:        2 bytes
  9211 ;; Hardware stack levels used: 1
  9212 ;; Hardware stack levels required when called: 1
  9213 ;; This function calls:
  9214 ;;		Nothing
  9215 ;; This function is called by:
  9216 ;;		_USBDeviceTasks
  9217 ;;		_USBCtrlEPServiceComplete
  9218 ;;		_USBCtrlTrfRxService
  9219 ;; This function uses a non-reentrant model
  9220 ;;
  9221                           
  9222  0D0F                     _USBCtrlEPAllowStatusStage:	
  9223                           ;psect for function _USBCtrlEPAllowStatusStage
  9224                           
  9225  0D0F                     l3319:	
  9226                           ;incstack = 0
  9227                           ; Regs used in _USBCtrlEPAllowStatusStage: [wreg+fsr1l+fsr1h+status,2+status,0]
  9228                           
  9229                           
  9230                           ;lib/usb/usb_device.c: 1427:     if(USBStatusStageEnabledFlag1 == 0)
  9231  0D0F  0021               	movlb	1	; select bank1
  9232  0D10  0849               	movf	_USBStatusStageEnabledFlag1^(0+128),w	;volatile
  9233  0D11  1D03               	btfss	3,2
  9234  0D12  2D14               	goto	u2091
  9235  0D13  2D15               	goto	u2090
  9236  0D14                     u2091:
  9237  0D14  2D80               	goto	l221
  9238  0D15                     u2090:
  9239  0D15                     l3321:
  9240                           
  9241                           ;lib/usb/usb_device.c: 1428:     {;lib/usb/usb_device.c: 1429:         USBStatusStageEna
      +                          bledFlag1 = 1;
  9242  0D15  3001               	movlw	1
  9243  0D16  00F0               	movwf	??_USBCtrlEPAllowStatusStage
  9244  0D17  0870               	movf	??_USBCtrlEPAllowStatusStage,w
  9245  0D18  00C9               	movwf	_USBStatusStageEnabledFlag1^(0+128)	;volatile
  9246  0D19                     l3323:
  9247                           
  9248                           ;lib/usb/usb_device.c: 1430:         if(USBStatusStageEnabledFlag2 == 0)
  9249  0D19  0848               	movf	_USBStatusStageEnabledFlag2^(0+128),w	;volatile
  9250  0D1A  1D03               	btfss	3,2
  9251  0D1B  2D1D               	goto	u2101
  9252  0D1C  2D1E               	goto	u2100
  9253  0D1D                     u2101:
  9254  0D1D  2D80               	goto	l221
  9255  0D1E                     u2100:
  9256  0D1E                     l3325:
  9257                           
  9258                           ;lib/usb/usb_device.c: 1431:         {;lib/usb/usb_device.c: 1432:             USBStatus
      +                          StageEnabledFlag2 = 1;
  9259  0D1E  3001               	movlw	1
  9260  0D1F  00F0               	movwf	??_USBCtrlEPAllowStatusStage
  9261  0D20  0870               	movf	??_USBCtrlEPAllowStatusStage,w
  9262  0D21  00C8               	movwf	_USBStatusStageEnabledFlag2^(0+128)	;volatile
  9263  0D22                     l3327:
  9264                           
  9265                           ;lib/usb/usb_device.c: 1436:             if(controlTransferState == 2)
  9266  0D22  3002               	movlw	2
  9267  0D23  0651               	xorwf	_controlTransferState^(0+128),w
  9268  0D24  1D03               	btfss	3,2
  9269  0D25  2D27               	goto	u2111
  9270  0D26  2D28               	goto	u2110
  9271  0D27                     u2111:
  9272  0D27  2D3A               	goto	l3335
  9273  0D28                     u2110:
  9274  0D28                     l3329:
  9275                           
  9276                           ;lib/usb/usb_device.c: 1437:             {;lib/usb/usb_device.c: 1438:                 p
      +                          BDTEntryIn[0]->CNT = 0;
  9277  0D28  0830               	movf	_pBDTEntryIn^(0+128),w
  9278  0D29  0086               	movwf	6
  9279  0D2A  0831               	movf	(_pBDTEntryIn+1)^(0+128),w
  9280  0D2B  0087               	movwf	7
  9281  0D2C  3141               	addfsr 1,1
  9282  0D2D  0181               	clrf	1
  9283  0D2E                     l3331:
  9284                           
  9285                           ;lib/usb/usb_device.c: 1439:                 pBDTEntryIn[0]->STAT.Val = 0x40|(0x08 & 0x0
      +                          8);
  9286  0D2E  0830               	movf	_pBDTEntryIn^(0+128),w
  9287  0D2F  0086               	movwf	6
  9288  0D30  0831               	movf	(_pBDTEntryIn+1)^(0+128),w
  9289  0D31  0087               	movwf	7
  9290  0D32  3048               	movlw	72
  9291  0D33  0081               	movwf	1
  9292  0D34                     l3333:
  9293                           
  9294                           ;lib/usb/usb_device.c: 1440:                 pBDTEntryIn[0]->STAT.Val |= 0x80;
  9295  0D34  0830               	movf	_pBDTEntryIn^(0+128),w
  9296  0D35  0086               	movwf	6
  9297  0D36  0831               	movf	(_pBDTEntryIn+1)^(0+128),w
  9298  0D37  0087               	movwf	7
  9299  0D38  1781               	bsf	1,7
  9300                           
  9301                           ;lib/usb/usb_device.c: 1441:             }
  9302  0D39  2D80               	goto	l221
  9303  0D3A                     l3335:
  9304  0D3A  0351               	decf	_controlTransferState^(0+128),w
  9305  0D3B  1D03               	btfss	3,2
  9306  0D3C  2D3E               	goto	u2121
  9307  0D3D  2D3F               	goto	u2120
  9308  0D3E                     u2121:
  9309  0D3E  2D80               	goto	l217
  9310  0D3F                     u2120:
  9311  0D3F                     l3337:
  9312                           
  9313                           ;lib/usb/usb_device.c: 1443:             {;lib/usb/usb_device.c: 1444:                 B
      +                          othEP0OutUOWNsSet = 0;
  9314  0D3F  01CC               	clrf	_BothEP0OutUOWNsSet^(0+128)
  9315  0D40                     l3339:
  9316                           
  9317                           ;lib/usb/usb_device.c: 1449:                     pBDTEntryEP0OutCurrent->CNT = 8;
  9318  0D40  3008               	movlw	8
  9319  0D41  00F0               	movwf	??_USBCtrlEPAllowStatusStage
  9320  0D42  0A53               	incf	_pBDTEntryEP0OutCurrent^(0+128),w
  9321  0D43  0086               	movwf	6
  9322  0D44  0187               	clrf	7
  9323  0D45  0870               	movf	??_USBCtrlEPAllowStatusStage,w
  9324  0D46  0081               	movwf	1
  9325  0D47                     l3341:
  9326                           
  9327                           ;lib/usb/usb_device.c: 1450:                     pBDTEntryEP0OutCurrent->ADR = (((uint16
      +                          _t)(&SetupPkt)) & 0x7FFF);
  9328  0D47  3060               	movlw	96
  9329  0D48  00F0               	movwf	??_USBCtrlEPAllowStatusStage
  9330  0D49  3000               	movlw	0
  9331  0D4A  00F1               	movwf	??_USBCtrlEPAllowStatusStage+1
  9332  0D4B  0853               	movf	_pBDTEntryEP0OutCurrent^(0+128),w
  9333  0D4C  3E02               	addlw	2
  9334  0D4D  0086               	movwf	6
  9335  0D4E  0187               	clrf	7
  9336  0D4F  0870               	movf	??_USBCtrlEPAllowStatusStage,w
  9337  0D50  3FC0               	movwi [0]fsr1
  9338  0D51  0871               	movf	??_USBCtrlEPAllowStatusStage+1,w
  9339  0D52  3FC1               	movwi [1]fsr1
  9340  0D53                     l3343:
  9341                           
  9342                           ;lib/usb/usb_device.c: 1451:                     pBDTEntryEP0OutCurrent->STAT.Val = 0x04
      +                          ;
  9343  0D53  3004               	movlw	4
  9344  0D54  00F0               	movwf	??_USBCtrlEPAllowStatusStage
  9345  0D55  0853               	movf	_pBDTEntryEP0OutCurrent^(0+128),w
  9346  0D56  0086               	movwf	6
  9347  0D57  0187               	clrf	7
  9348  0D58  0870               	movf	??_USBCtrlEPAllowStatusStage,w
  9349  0D59  0081               	movwf	1
  9350  0D5A                     l3345:
  9351                           
  9352                           ;lib/usb/usb_device.c: 1452:                     pBDTEntryEP0OutCurrent->STAT.Val |= 0x8
      +                          0;
  9353  0D5A  0853               	movf	_pBDTEntryEP0OutCurrent^(0+128),w
  9354  0D5B  0086               	movwf	6
  9355  0D5C  0187               	clrf	7
  9356  0D5D  1781               	bsf	1,7
  9357  0D5E                     l3347:
  9358                           
  9359                           ;lib/usb/usb_device.c: 1453:                     BothEP0OutUOWNsSet = 1;
  9360  0D5E  01CC               	clrf	_BothEP0OutUOWNsSet^(0+128)
  9361  0D5F  0ACC               	incf	_BothEP0OutUOWNsSet^(0+128),f
  9362  0D60                     l3349:
  9363                           
  9364                           ;lib/usb/usb_device.c: 1457:                 pBDTEntryEP0OutNext->CNT = 8;
  9365  0D60  083F               	movf	_pBDTEntryEP0OutNext^(0+128),w
  9366  0D61  3E01               	addlw	1
  9367  0D62  00F0               	movwf	??_USBCtrlEPAllowStatusStage
  9368  0D63  3000               	movlw	0
  9369  0D64  3D40               	addwfc	(_pBDTEntryEP0OutNext+1)^(0+128),w
  9370  0D65  00F1               	movwf	??_USBCtrlEPAllowStatusStage+1
  9371  0D66  0870               	movf	??_USBCtrlEPAllowStatusStage,w
  9372  0D67  0086               	movwf	6
  9373  0D68  0871               	movf	??_USBCtrlEPAllowStatusStage+1,w
  9374  0D69  0087               	movwf	7
  9375  0D6A  3008               	movlw	8
  9376  0D6B  0081               	movwf	1
  9377  0D6C                     l3351:
  9378                           
  9379                           ;lib/usb/usb_device.c: 1458:                 pBDTEntryEP0OutNext->ADR = (((uint16_t)(&Se
      +                          tupPkt)) & 0x7FFF);
  9380  0D6C  3060               	movlw	96
  9381  0D6D  00F0               	movwf	??_USBCtrlEPAllowStatusStage
  9382  0D6E  3000               	movlw	0
  9383  0D6F  00F1               	movwf	??_USBCtrlEPAllowStatusStage+1
  9384  0D70  083F               	movf	_pBDTEntryEP0OutNext^(0+128),w
  9385  0D71  0086               	movwf	6
  9386  0D72  0840               	movf	(_pBDTEntryEP0OutNext+1)^(0+128),w
  9387  0D73  0087               	movwf	7
  9388  0D74  3142               	addfsr 1,2
  9389  0D75  0870               	movf	??_USBCtrlEPAllowStatusStage,w
  9390  0D76  3FC0               	movwi [0]fsr1
  9391  0D77  0871               	movf	??_USBCtrlEPAllowStatusStage+1,w
  9392  0D78  3FC1               	movwi [1]fsr1
  9393  0D79                     l3353:
  9394                           
  9395                           ;lib/usb/usb_device.c: 1459:                 pBDTEntryEP0OutNext->STAT.Val = 0x80;
  9396  0D79  083F               	movf	_pBDTEntryEP0OutNext^(0+128),w
  9397  0D7A  0086               	movwf	6
  9398  0D7B  0840               	movf	(_pBDTEntryEP0OutNext+1)^(0+128),w
  9399  0D7C  0087               	movwf	7
  9400  0D7D  3080               	movlw	128
  9401  0D7E  0081               	movwf	1
  9402  0D7F  2D80               	goto	l221
  9403  0D80                     l217:	
  9404                           ;lib/usb/usb_device.c: 1461:         }
  9405                           
  9406  0D80                     l221:
  9407  0D80  0008               	return
  9408  0D81                     __end_of_USBCtrlEPAllowStatusStage:
  9409                           
  9410                           	psect	text33
  9411  0DF6                     __ptext33:	
  9412 ;; *************** function _USBCtrlTrfInHandler *****************
  9413 ;; Defined at:
  9414 ;;		line 2599 in file "lib/usb/usb_device.c"
  9415 ;; Parameters:    Size  Location     Type
  9416 ;;		None
  9417 ;; Auto vars:     Size  Location     Type
  9418 ;;  lastDTS         1    5[COMMON] unsigned char 
  9419 ;; Return value:  Size  Location     Type
  9420 ;;                  1    wreg      void 
  9421 ;; Registers used:
  9422 ;;		wreg, fsr0l, fsr0h, fsr1l, fsr1h, status,2, status,0, pclath, cstack
  9423 ;; Tracked objects:
  9424 ;;		On entry : 0/0
  9425 ;;		On exit  : 0/0
  9426 ;;		Unchanged: 0/0
  9427 ;; Data sizes:     COMMON   BANK1   BANK2   BANK3   BANK4   BANK5   BANK6   BANK7   BANK8   BANK9  BANK10  BANK11  BANK1
      +2
  9428 ;;      Params:         0       0       0       0       0       0       0       0       0       0       0       0       
      +0
  9429 ;;      Locals:         1       0       0       0       0       0       0       0       0       0       0       0       
      +0
  9430 ;;      Temps:          2       0       0       0       0       0       0       0       0       0       0       0       
      +0
  9431 ;;      Totals:         3       0       0       0       0       0       0       0       0       0       0       0       
      +0
  9432 ;;Total ram usage:        3 bytes
  9433 ;; Hardware stack levels used: 1
  9434 ;; Hardware stack levels required when called: 2
  9435 ;; This function calls:
  9436 ;;		_USBCtrlTrfTxService
  9437 ;; This function is called by:
  9438 ;;		_USBCtrlEPService
  9439 ;; This function uses a non-reentrant model
  9440 ;;
  9441                           
  9442  0DF6                     _USBCtrlTrfInHandler:	
  9443                           ;psect for function _USBCtrlTrfInHandler
  9444                           
  9445  0DF6                     l3783:	
  9446                           ;incstack = 0
  9447                           ; Regs used in _USBCtrlTrfInHandler: [wreg-fsr1h+status,2+status,0+pclath+cstack]
  9448                           
  9449                           
  9450                           ;lib/usb/usb_device.c: 2601:     uint8_t lastDTS;;lib/usb/usb_device.c: 2603:     lastDT
      +                          S = pBDTEntryIn[0]->STAT.DTS;
  9451  0DF6  0021               	movlb	1	; select bank1
  9452  0DF7  0830               	movf	_pBDTEntryIn^(0+128),w
  9453  0DF8  0086               	movwf	6
  9454  0DF9  0831               	movf	(_pBDTEntryIn+1)^(0+128),w
  9455  0DFA  0087               	movwf	7
  9456  0DFB  3000               	movlw	0
  9457  0DFC  1B01               	btfsc	1,6
  9458  0DFD  3001               	movlw	1
  9459  0DFE  00F5               	movwf	USBCtrlTrfInHandler@lastDTS
  9460  0DFF                     l3785:
  9461                           
  9462                           ;lib/usb/usb_device.c: 2606:     pBDTEntryIn[0] = (volatile BDT_ENTRY*)(((uint16_t)pBDTE
      +                          ntryIn[0]) ^ 0x0004);
  9463  0DFF  3004               	movlw	4
  9464  0E00  0630               	xorwf	_pBDTEntryIn^(0+128),w
  9465  0E01  00B0               	movwf	_pBDTEntryIn^(0+128)
  9466  0E02  3000               	movlw	0
  9467  0E03  0631               	xorwf	(_pBDTEntryIn+1)^(0+128),w
  9468  0E04  00B1               	movwf	(_pBDTEntryIn+1)^(0+128)
  9469  0E05                     l3787:
  9470                           
  9471                           ;lib/usb/usb_device.c: 2611:     if(USBDeviceState == ADR_PENDING_STATE)
  9472  0E05  3008               	movlw	8
  9473  0E06  0654               	xorwf	_USBDeviceState^(0+128),w
  9474  0E07  1D03               	btfss	3,2
  9475  0E08  2E0A               	goto	u2611
  9476  0E09  2E0B               	goto	u2610
  9477  0E0A                     u2611:
  9478  0E0A  2E20               	goto	l3797
  9479  0E0B                     u2610:
  9480  0E0B                     l3789:
  9481                           
  9482                           ;lib/usb/usb_device.c: 2612:     {;lib/usb/usb_device.c: 2613:         UADDR = (SetupPkt
      +                          .bDevADR & 0x7F);
  9483  0E0B  0020               	movlb	0	; select bank0
  9484  0E0C  0862               	movf	98,w	;volatile
  9485  0E0D  397F               	andlw	127
  9486  0E0E  003D               	movlb	29	; select bank29
  9487  0E0F  0096               	movwf	22	;volatile
  9488  0E10                     l3791:
  9489                           
  9490                           ;lib/usb/usb_device.c: 2614:         if(UADDR != 0u)
  9491  0E10  0816               	movf	22,w	;volatile
  9492  0E11  1903               	btfsc	3,2
  9493  0E12  2E14               	goto	u2621
  9494  0E13  2E15               	goto	u2620
  9495  0E14                     u2621:
  9496  0E14  2E1B               	goto	l3795
  9497  0E15                     u2620:
  9498  0E15                     l3793:
  9499                           
  9500                           ;lib/usb/usb_device.c: 2615:         {;lib/usb/usb_device.c: 2616:             USBDevice
      +                          State=ADDRESS_STATE;
  9501  0E15  3010               	movlw	16
  9502  0E16  00F3               	movwf	??_USBCtrlTrfInHandler
  9503  0E17  0873               	movf	??_USBCtrlTrfInHandler,w
  9504  0E18  0021               	movlb	1	; select bank1
  9505  0E19  00D4               	movwf	_USBDeviceState^(0+128)
  9506                           
  9507                           ;lib/usb/usb_device.c: 2617:         }
  9508  0E1A  2E20               	goto	l3797
  9509  0E1B                     l3795:
  9510                           
  9511                           ;lib/usb/usb_device.c: 2619:         {;lib/usb/usb_device.c: 2620:             USBDevice
      +                          State=DEFAULT_STATE;
  9512  0E1B  3004               	movlw	4
  9513  0E1C  00F3               	movwf	??_USBCtrlTrfInHandler
  9514  0E1D  0873               	movf	??_USBCtrlTrfInHandler,w
  9515  0E1E  0021               	movlb	1	; select bank1
  9516  0E1F  00D4               	movwf	_USBDeviceState^(0+128)
  9517  0E20                     l3797:
  9518                           
  9519                           ;lib/usb/usb_device.c: 2625:     if(controlTransferState == 1)
  9520  0E20  0351               	decf	_controlTransferState^(0+128),w
  9521  0E21  1D03               	btfss	3,2
  9522  0E22  2E24               	goto	u2631
  9523  0E23  2E25               	goto	u2630
  9524  0E24                     u2631:
  9525  0E24  2E65               	goto	l349
  9526  0E25                     u2630:
  9527  0E25                     l3799:
  9528                           
  9529                           ;lib/usb/usb_device.c: 2626:     {;lib/usb/usb_device.c: 2627:         pBDTEntryIn[0]->A
      +                          DR = (((uint16_t)(CtrlTrfData)) & 0x7FFF);
  9530  0E25  3068               	movlw	104
  9531  0E26  00F3               	movwf	??_USBCtrlTrfInHandler
  9532  0E27  3000               	movlw	0
  9533  0E28  00F4               	movwf	??_USBCtrlTrfInHandler+1
  9534  0E29  0830               	movf	_pBDTEntryIn^(0+128),w
  9535  0E2A  0086               	movwf	6
  9536  0E2B  0831               	movf	(_pBDTEntryIn+1)^(0+128),w
  9537  0E2C  0087               	movwf	7
  9538  0E2D  3142               	addfsr 1,2
  9539  0E2E  0873               	movf	??_USBCtrlTrfInHandler,w
  9540  0E2F  3FC0               	movwi [0]fsr1
  9541  0E30  0874               	movf	??_USBCtrlTrfInHandler+1,w
  9542  0E31  3FC1               	movwi [1]fsr1
  9543  0E32                     l3801:
  9544                           
  9545                           ;lib/usb/usb_device.c: 2628:         USBCtrlTrfTxService();
  9546  0E32  318D  2581  318D   	fcall	_USBCtrlTrfTxService
  9547  0E35                     l3803:
  9548                           
  9549                           ;lib/usb/usb_device.c: 2634:         if(shortPacketStatus == 2)
  9550  0E35  3002               	movlw	2
  9551  0E36  0021               	movlb	1	; select bank1
  9552  0E37  0652               	xorwf	_shortPacketStatus^(0+128),w
  9553  0E38  1D03               	btfss	3,2
  9554  0E39  2E3B               	goto	u2641
  9555  0E3A  2E3C               	goto	u2640
  9556  0E3B                     u2641:
  9557  0E3B  2E48               	goto	l3807
  9558  0E3C                     u2640:
  9559  0E3C                     l3805:
  9560                           
  9561                           ;lib/usb/usb_device.c: 2635:         {;lib/usb/usb_device.c: 2638:             pBDTEntry
      +                          In[0]->STAT.Val = 0x04;
  9562  0E3C  0830               	movf	_pBDTEntryIn^(0+128),w
  9563  0E3D  0086               	movwf	6
  9564  0E3E  0831               	movf	(_pBDTEntryIn+1)^(0+128),w
  9565  0E3F  0087               	movwf	7
  9566  0E40  3004               	movlw	4
  9567  0E41  0081               	movwf	1
  9568                           
  9569                           ;lib/usb/usb_device.c: 2639:             pBDTEntryIn[0]->STAT.Val |= 0x80;
  9570  0E42  0830               	movf	_pBDTEntryIn^(0+128),w
  9571  0E43  0086               	movwf	6
  9572  0E44  0831               	movf	(_pBDTEntryIn+1)^(0+128),w
  9573  0E45  0087               	movwf	7
  9574  0E46  1781               	bsf	1,7
  9575                           
  9576                           ;lib/usb/usb_device.c: 2640:         }
  9577  0E47  2E6D               	goto	l357
  9578  0E48                     l3807:
  9579                           
  9580                           ;lib/usb/usb_device.c: 2642:         {;lib/usb/usb_device.c: 2643:             if(lastDT
      +                          S == 0)
  9581  0E48  0875               	movf	USBCtrlTrfInHandler@lastDTS,w
  9582  0E49  1D03               	btfss	3,2
  9583  0E4A  2E4C               	goto	u2651
  9584  0E4B  2E4D               	goto	u2650
  9585  0E4C                     u2651:
  9586  0E4C  2E59               	goto	l3811
  9587  0E4D                     u2650:
  9588  0E4D                     l3809:
  9589                           
  9590                           ;lib/usb/usb_device.c: 2644:             {;lib/usb/usb_device.c: 2645:                 p
      +                          BDTEntryIn[0]->STAT.Val = 0x40|(0x08 & 0x08);
  9591  0E4D  0830               	movf	_pBDTEntryIn^(0+128),w
  9592  0E4E  0086               	movwf	6
  9593  0E4F  0831               	movf	(_pBDTEntryIn+1)^(0+128),w
  9594  0E50  0087               	movwf	7
  9595  0E51  3048               	movlw	72
  9596  0E52  0081               	movwf	1
  9597                           
  9598                           ;lib/usb/usb_device.c: 2646:                 pBDTEntryIn[0]->STAT.Val |= 0x80;
  9599  0E53  0830               	movf	_pBDTEntryIn^(0+128),w
  9600  0E54  0086               	movwf	6
  9601  0E55  0831               	movf	(_pBDTEntryIn+1)^(0+128),w
  9602  0E56  0087               	movwf	7
  9603  0E57  1781               	bsf	1,7
  9604                           
  9605                           ;lib/usb/usb_device.c: 2647:             }
  9606  0E58  2E6D               	goto	l357
  9607  0E59                     l3811:
  9608                           
  9609                           ;lib/usb/usb_device.c: 2649:             {;lib/usb/usb_device.c: 2650:                 p
      +                          BDTEntryIn[0]->STAT.Val = 0x00|(0x08 & 0x08);
  9610  0E59  0830               	movf	_pBDTEntryIn^(0+128),w
  9611  0E5A  0086               	movwf	6
  9612  0E5B  0831               	movf	(_pBDTEntryIn+1)^(0+128),w
  9613  0E5C  0087               	movwf	7
  9614  0E5D  3008               	movlw	8
  9615  0E5E  0081               	movwf	1
  9616                           
  9617                           ;lib/usb/usb_device.c: 2651:                 pBDTEntryIn[0]->STAT.Val |= 0x80;
  9618  0E5F  0830               	movf	_pBDTEntryIn^(0+128),w
  9619  0E60  0086               	movwf	6
  9620  0E61  0831               	movf	(_pBDTEntryIn+1)^(0+128),w
  9621  0E62  0087               	movwf	7
  9622  0E63  1781               	bsf	1,7
  9623  0E64  2E6D               	goto	l357
  9624  0E65                     l349:	
  9625                           ;lib/usb/usb_device.c: 2655:  else
  9626                           
  9627                           
  9628                           ;lib/usb/usb_device.c: 2656:  {;lib/usb/usb_device.c: 2660:         if(outPipes[0].info.
      +                          bits.busy == 1)
  9629  0E65  0022               	movlb	2	; select bank2
  9630  0E66  1FA2               	btfss	(_outPipes^(0+256)+2),7
  9631  0E67  2E69               	goto	u2661
  9632  0E68  2E6A               	goto	u2660
  9633  0E69                     u2661:
  9634  0E69  2E6B               	goto	l3815
  9635  0E6A                     u2660:
  9636  0E6A                     l356:	
  9637                           ;lib/usb/usb_device.c: 2665:             }
  9638                           
  9639                           
  9640                           ;lib/usb/usb_device.c: 2666:             outPipes[0].info.bits.busy = 0;
  9641  0E6A  13A2               	bcf	(_outPipes^(0+256)+2),7
  9642  0E6B                     l3815:
  9643                           
  9644                           ;lib/usb/usb_device.c: 2669:         controlTransferState = 0;
  9645  0E6B  0021               	movlb	1	; select bank1
  9646  0E6C  01D1               	clrf	_controlTransferState^(0+128)
  9647  0E6D                     l357:
  9648  0E6D  0008               	return
  9649  0E6E                     __end_of_USBCtrlTrfInHandler:
  9650                           
  9651                           	psect	text34
  9652  0D81                     __ptext34:	
  9653 ;; *************** function _USBCtrlTrfTxService *****************
  9654 ;; Defined at:
  9655 ;;		line 1775 in file "lib/usb/usb_device.c"
  9656 ;; Parameters:    Size  Location     Type
  9657 ;;		None
  9658 ;; Auto vars:     Size  Location     Type
  9659 ;;  byteToSend      1    2[COMMON] unsigned char 
  9660 ;; Return value:  Size  Location     Type
  9661 ;;                  1    wreg      void 
  9662 ;; Registers used:
  9663 ;;		wreg, fsr0l, fsr0h, fsr1l, fsr1h, status,2, status,0, pclath
  9664 ;; Tracked objects:
  9665 ;;		On entry : 0/0
  9666 ;;		On exit  : 0/0
  9667 ;;		Unchanged: 0/0
  9668 ;; Data sizes:     COMMON   BANK1   BANK2   BANK3   BANK4   BANK5   BANK6   BANK7   BANK8   BANK9  BANK10  BANK11  BANK1
      +2
  9669 ;;      Params:         0       0       0       0       0       0       0       0       0       0       0       0       
      +0
  9670 ;;      Locals:         1       0       0       0       0       0       0       0       0       0       0       0       
      +0
  9671 ;;      Temps:          2       0       0       0       0       0       0       0       0       0       0       0       
      +0
  9672 ;;      Totals:         3       0       0       0       0       0       0       0       0       0       0       0       
      +0
  9673 ;;Total ram usage:        3 bytes
  9674 ;; Hardware stack levels used: 1
  9675 ;; Hardware stack levels required when called: 1
  9676 ;; This function calls:
  9677 ;;		Nothing
  9678 ;; This function is called by:
  9679 ;;		_USBCtrlEPAllowDataStage
  9680 ;;		_USBCtrlTrfInHandler
  9681 ;; This function uses a non-reentrant model
  9682 ;;
  9683                           
  9684  0D81                     _USBCtrlTrfTxService:	
  9685                           ;psect for function _USBCtrlTrfTxService
  9686                           
  9687  0D81                     l3237:	
  9688                           ;incstack = 0
  9689                           ; Regs used in _USBCtrlTrfTxService: [wreg-fsr1h+status,2+status,0+pclath]
  9690                           
  9691                           
  9692                           ;lib/usb/usb_device.c: 1777:     uint8_t byteToSend;;lib/usb/usb_device.c: 1781:     byt
      +                          eToSend = 8;
  9693  0D81  3008               	movlw	8
  9694  0D82  00F0               	movwf	??_USBCtrlTrfTxService
  9695  0D83  0870               	movf	??_USBCtrlTrfTxService,w
  9696  0D84  00F2               	movwf	USBCtrlTrfTxService@byteToSend
  9697                           
  9698                           ;lib/usb/usb_device.c: 1782:     if(inPipes[0].wCount.Val < (uint8_t)8)
  9699  0D85  3000               	movlw	0
  9700  0D86  0021               	movlb	1	; select bank1
  9701  0D87  023C               	subwf	((_inPipes+1)^(0+128)+3),w
  9702  0D88  3008               	movlw	8
  9703  0D89  1903               	skipnz
  9704  0D8A  023B               	subwf	(_inPipes^(0+128)+3),w
  9705  0D8B  1803               	skipnc
  9706  0D8C  2D8E               	goto	u1981
  9707  0D8D  2D8F               	goto	u1980
  9708  0D8E                     u1981:
  9709  0D8E  2DA4               	goto	l248
  9710  0D8F                     u1980:
  9711  0D8F                     l3239:
  9712                           
  9713                           ;lib/usb/usb_device.c: 1783:     {;lib/usb/usb_device.c: 1784:         byteToSend = (uin
      +                          t8_t)(inPipes[0].wCount.Val);
  9714  0D8F  083B               	movf	(_inPipes^(0+128)+3),w
  9715  0D90  00F0               	movwf	??_USBCtrlTrfTxService
  9716  0D91  0870               	movf	??_USBCtrlTrfTxService,w
  9717  0D92  00F2               	movwf	USBCtrlTrfTxService@byteToSend
  9718  0D93                     l3241:
  9719                           
  9720                           ;lib/usb/usb_device.c: 1791:         if(shortPacketStatus == 0)
  9721  0D93  0852               	movf	_shortPacketStatus^(0+128),w
  9722  0D94  1D03               	btfss	3,2
  9723  0D95  2D97               	goto	u1991
  9724  0D96  2D98               	goto	u1990
  9725  0D97                     u1991:
  9726  0D97  2D9B               	goto	l3245
  9727  0D98                     u1990:
  9728  0D98                     l3243:
  9729                           
  9730                           ;lib/usb/usb_device.c: 1792:         {;lib/usb/usb_device.c: 1793:             shortPack
      +                          etStatus = 1;
  9731  0D98  01D2               	clrf	_shortPacketStatus^(0+128)
  9732  0D99  0AD2               	incf	_shortPacketStatus^(0+128),f
  9733                           
  9734                           ;lib/usb/usb_device.c: 1794:         }
  9735  0D9A  2DA4               	goto	l248
  9736  0D9B                     l3245:
  9737  0D9B  0352               	decf	_shortPacketStatus^(0+128),w
  9738  0D9C  1D03               	btfss	3,2
  9739  0D9D  2D9F               	goto	u2001
  9740  0D9E  2DA0               	goto	u2000
  9741  0D9F                     u2001:
  9742  0D9F  2DA4               	goto	l248
  9743  0DA0                     u2000:
  9744  0DA0                     l3247:
  9745                           
  9746                           ;lib/usb/usb_device.c: 1796:         {;lib/usb/usb_device.c: 1797:             shortPack
      +                          etStatus = 2;
  9747  0DA0  3002               	movlw	2
  9748  0DA1  00F0               	movwf	??_USBCtrlTrfTxService
  9749  0DA2  0870               	movf	??_USBCtrlTrfTxService,w
  9750  0DA3  00D2               	movwf	_shortPacketStatus^(0+128)
  9751  0DA4                     l248:	
  9752                           ;lib/usb/usb_device.c: 1799:     }
  9753                           
  9754                           
  9755                           ;lib/usb/usb_device.c: 1803:     inPipes[0].wCount.Val -= byteToSend;
  9756  0DA4  0872               	movf	USBCtrlTrfTxService@byteToSend,w
  9757  0DA5  00F0               	movwf	??_USBCtrlTrfTxService
  9758  0DA6  01F1               	clrf	??_USBCtrlTrfTxService+1
  9759  0DA7  0870               	movf	??_USBCtrlTrfTxService,w
  9760  0DA8  02BB               	subwf	(_inPipes^(0+128)+3),f
  9761  0DA9  0871               	movf	??_USBCtrlTrfTxService+1,w
  9762  0DAA  3BBC               	subwfb	((_inPipes+1)^(0+128)+3),f
  9763  0DAB                     l3249:
  9764                           
  9765                           ;lib/usb/usb_device.c: 1808:     pBDTEntryIn[0]->CNT = byteToSend;
  9766  0DAB  0830               	movf	_pBDTEntryIn^(0+128),w
  9767  0DAC  3E01               	addlw	1
  9768  0DAD  00F0               	movwf	??_USBCtrlTrfTxService
  9769  0DAE  3000               	movlw	0
  9770  0DAF  3D31               	addwfc	(_pBDTEntryIn+1)^(0+128),w
  9771  0DB0  00F1               	movwf	??_USBCtrlTrfTxService+1
  9772  0DB1  0870               	movf	??_USBCtrlTrfTxService,w
  9773  0DB2  0086               	movwf	6
  9774  0DB3  0871               	movf	??_USBCtrlTrfTxService+1,w
  9775  0DB4  0087               	movwf	7
  9776  0DB5  0872               	movf	USBCtrlTrfTxService@byteToSend,w
  9777  0DB6  0081               	movwf	1
  9778  0DB7                     l3251:
  9779                           
  9780                           ;lib/usb/usb_device.c: 1812:     pDst = ( uint8_t*)CtrlTrfData;
  9781  0DB7  3068               	movlw	104
  9782  0DB8  00F0               	movwf	??_USBCtrlTrfTxService
  9783  0DB9  0870               	movf	??_USBCtrlTrfTxService,w
  9784  0DBA  00D0               	movwf	_pDst^(0+128)
  9785  0DBB                     l3253:
  9786                           
  9787                           ;lib/usb/usb_device.c: 1813:     if(inPipes[0].info.bits.ctrl_trf_mem == 0x00)
  9788  0DBB  183A               	btfsc	(_inPipes^(0+128)+2),0
  9789  0DBC  2DBE               	goto	u2011
  9790  0DBD  2DBF               	goto	u2010
  9791  0DBE                     u2011:
  9792  0DBE  2DF0               	goto	l3275
  9793  0DBF                     u2010:
  9794  0DBF  2DD5               	goto	l3265
  9795  0DC0                     l3257:
  9796                           
  9797                           ;lib/usb/usb_device.c: 1816:         {;lib/usb/usb_device.c: 1817:             *pDst++ =
      +                           *inPipes[0].pSrc.bRom++;
  9798  0DC0  0838               	movf	_inPipes^(0+128),w
  9799  0DC1  0084               	movwf	4
  9800  0DC2  0839               	movf	(_inPipes+1)^(0+128),w
  9801  0DC3  0085               	movwf	5
  9802  0DC4  0800               	movf	0,w	;code access
  9803  0DC5  00F0               	movwf	??_USBCtrlTrfTxService
  9804  0DC6  0850               	movf	_pDst^(0+128),w
  9805  0DC7  0086               	movwf	6
  9806  0DC8  0187               	clrf	7
  9807  0DC9  0870               	movf	??_USBCtrlTrfTxService,w
  9808  0DCA  0081               	movwf	1
  9809  0DCB                     l3259:
  9810  0DCB  3001               	movlw	1
  9811  0DCC  07B8               	addwf	_inPipes^(0+128),f
  9812  0DCD  3000               	movlw	0
  9813  0DCE  3DB9               	addwfc	(_inPipes+1)^(0+128),f
  9814  0DCF                     l3261:
  9815  0DCF  3001               	movlw	1
  9816  0DD0  00F0               	movwf	??_USBCtrlTrfTxService
  9817  0DD1  0870               	movf	??_USBCtrlTrfTxService,w
  9818  0DD2  07D0               	addwf	_pDst^(0+128),f
  9819  0DD3                     l3263:
  9820                           
  9821                           ;lib/usb/usb_device.c: 1818:             byteToSend--;
  9822  0DD3  3001               	movlw	1
  9823  0DD4  02F2               	subwf	USBCtrlTrfTxService@byteToSend,f
  9824  0DD5                     l3265:
  9825                           
  9826                           ;lib/usb/usb_device.c: 1815:         while(byteToSend)
  9827  0DD5  0872               	movf	USBCtrlTrfTxService@byteToSend,w
  9828  0DD6  1D03               	btfss	3,2
  9829  0DD7  2DD9               	goto	u2021
  9830  0DD8  2DDA               	goto	u2020
  9831  0DD9                     u2021:
  9832  0DD9  2DC0               	goto	l3257
  9833  0DDA                     u2020:
  9834  0DDA  2DF5               	goto	l260
  9835  0DDB                     l3267:
  9836                           
  9837                           ;lib/usb/usb_device.c: 1824:         {;lib/usb/usb_device.c: 1825:             *pDst++ =
      +                           *inPipes[0].pSrc.bRam++;
  9838  0DDB  0838               	movf	_inPipes^(0+128),w
  9839  0DDC  0084               	movwf	4
  9840  0DDD  0839               	movf	(_inPipes+1)^(0+128),w
  9841  0DDE  0085               	movwf	5
  9842  0DDF  0800               	movf	0,w	;code access
  9843  0DE0  00F0               	movwf	??_USBCtrlTrfTxService
  9844  0DE1  0850               	movf	_pDst^(0+128),w
  9845  0DE2  0086               	movwf	6
  9846  0DE3  0187               	clrf	7
  9847  0DE4  0870               	movf	??_USBCtrlTrfTxService,w
  9848  0DE5  0081               	movwf	1
  9849  0DE6                     l3269:
  9850  0DE6  3001               	movlw	1
  9851  0DE7  07B8               	addwf	_inPipes^(0+128),f
  9852  0DE8  3000               	movlw	0
  9853  0DE9  3DB9               	addwfc	(_inPipes+1)^(0+128),f
  9854  0DEA                     l3271:
  9855  0DEA  3001               	movlw	1
  9856  0DEB  00F0               	movwf	??_USBCtrlTrfTxService
  9857  0DEC  0870               	movf	??_USBCtrlTrfTxService,w
  9858  0DED  07D0               	addwf	_pDst^(0+128),f
  9859  0DEE                     l3273:
  9860                           
  9861                           ;lib/usb/usb_device.c: 1826:             byteToSend--;
  9862  0DEE  3001               	movlw	1
  9863  0DEF  02F2               	subwf	USBCtrlTrfTxService@byteToSend,f
  9864  0DF0                     l3275:
  9865                           
  9866                           ;lib/usb/usb_device.c: 1823:         while(byteToSend)
  9867  0DF0  0872               	movf	USBCtrlTrfTxService@byteToSend,w
  9868  0DF1  1D03               	btfss	3,2
  9869  0DF2  2DF4               	goto	u2031
  9870  0DF3  2DF5               	goto	u2030
  9871  0DF4                     u2031:
  9872  0DF4  2DDB               	goto	l3267
  9873  0DF5                     u2030:
  9874  0DF5                     l260:
  9875  0DF5  0008               	return
  9876  0DF6                     __end_of_USBCtrlTrfTxService:
  9877                           
  9878                           	psect	text35
  9879  0837                     __ptext35:	
  9880 ;; *************** function _SlaveinitSPI *****************
  9881 ;; Defined at:
  9882 ;;		line 234 in file "lib/spi.c"
  9883 ;; Parameters:    Size  Location     Type
  9884 ;;		None
  9885 ;; Auto vars:     Size  Location     Type
  9886 ;;		None
  9887 ;; Return value:  Size  Location     Type
  9888 ;;                  1    wreg      void 
  9889 ;; Registers used:
  9890 ;;		wreg
  9891 ;; Tracked objects:
  9892 ;;		On entry : 0/0
  9893 ;;		On exit  : 0/0
  9894 ;;		Unchanged: 0/0
  9895 ;; Data sizes:     COMMON   BANK1   BANK2   BANK3   BANK4   BANK5   BANK6   BANK7   BANK8   BANK9  BANK10  BANK11  BANK1
      +2
  9896 ;;      Params:         0       0       0       0       0       0       0       0       0       0       0       0       
      +0
  9897 ;;      Locals:         0       0       0       0       0       0       0       0       0       0       0       0       
      +0
  9898 ;;      Temps:          0       0       0       0       0       0       0       0       0       0       0       0       
      +0
  9899 ;;      Totals:         0       0       0       0       0       0       0       0       0       0       0       0       
      +0
  9900 ;;Total ram usage:        0 bytes
  9901 ;; Hardware stack levels used: 1
  9902 ;; Hardware stack levels required when called: 1
  9903 ;; This function calls:
  9904 ;;		Nothing
  9905 ;; This function is called by:
  9906 ;;		_main
  9907 ;; This function uses a non-reentrant model
  9908 ;;
  9909                           
  9910  0837                     _SlaveinitSPI:	
  9911                           ;psect for function _SlaveinitSPI
  9912                           
  9913  0837                     l4117:	
  9914                           ;incstack = 0
  9915                           ; Regs used in _SlaveinitSPI: [wreg]
  9916                           
  9917                           
  9918                           ;lib/spi.c: 235:     TRISC3 = 1;TRISC0 = 1;
  9919  0837  0021               	movlb	1	; select bank1
  9920  0838  158E               	bsf	14,3	;volatile
  9921  0839  140E               	bsf	14,0	;volatile
  9922  083A                     l4119:
  9923                           
  9924                           ;lib/spi.c: 239:     SSPSTAT = SAMPLE_MIDDLE | ACTIVE_TO_IDLE;
  9925  083A  3040               	movlw	64
  9926  083B  0024               	movlb	4	; select bank4
  9927  083C  0094               	movwf	20	;volatile
  9928                           
  9929                           ;lib/spi.c: 240:     SSPCON = SLAVE_SS_EN | IDLE_LOW;
  9930  083D  3024               	movlw	36
  9931  083E  0095               	movwf	21	;volatile
  9932  083F                     l783:
  9933  083F  0008               	return
  9934  0840                     __end_of_SlaveinitSPI:
  9935                           
  9936                           	psect	text36
  9937  03F1                     __ptext36:	
  9938 ;; *************** function _APP_DeviceJoystickTasks *****************
  9939 ;; Defined at:
  9940 ;;		line 96 in file "lib/app_device_joystick.c"
  9941 ;; Parameters:    Size  Location     Type
  9942 ;;		None
  9943 ;; Auto vars:     Size  Location     Type
  9944 ;;		None
  9945 ;; Return value:  Size  Location     Type
  9946 ;;                  1    wreg      void 
  9947 ;; Registers used:
  9948 ;;		wreg, fsr1l, fsr1h, status,2, status,0, pclath, cstack
  9949 ;; Tracked objects:
  9950 ;;		On entry : 0/0
  9951 ;;		On exit  : 0/0
  9952 ;;		Unchanged: 0/0
  9953 ;; Data sizes:     COMMON   BANK1   BANK2   BANK3   BANK4   BANK5   BANK6   BANK7   BANK8   BANK9  BANK10  BANK11  BANK1
      +2
  9954 ;;      Params:         0       0       0       0       0       0       0       0       0       0       0       0       
      +0
  9955 ;;      Locals:         0       0       0       0       0       0       0       0       0       0       0       0       
      +0
  9956 ;;      Temps:          1       0       0       0       0       0       0       0       0       0       0       0       
      +0
  9957 ;;      Totals:         1       0       0       0       0       0       0       0       0       0       0       0       
      +0
  9958 ;;Total ram usage:        1 bytes
  9959 ;; Hardware stack levels used: 1
  9960 ;; Hardware stack levels required when called: 2
  9961 ;; This function calls:
  9962 ;;		_USBTransferOnePacket
  9963 ;; This function is called by:
  9964 ;;		_main
  9965 ;; This function uses a non-reentrant model
  9966 ;;
  9967                           
  9968  03F1                     _APP_DeviceJoystickTasks:	
  9969                           ;psect for function _APP_DeviceJoystickTasks
  9970                           
  9971  03F1                     l4153:	
  9972                           ;incstack = 0
  9973                           ; Regs used in _APP_DeviceJoystickTasks: [wreg+fsr1l+fsr1h+status,2+status,0+pclath+csta
      +                          ck]
  9974                           
  9975                           
  9976                           ;lib/app_device_joystick.c: 101:     if( USBDeviceState < CONFIGURED_STATE )
  9977  03F1  3020               	movlw	32
  9978  03F2  0021               	movlb	1	; select bank1
  9979  03F3  0254               	subwf	_USBDeviceState^(0+128),w
  9980  03F4  1803               	skipnc
  9981  03F5  2BF7               	goto	u3151
  9982  03F6  2BF8               	goto	u3150
  9983  03F7                     u3151:
  9984  03F7  2BF9               	goto	l580
  9985  03F8                     u3150:
  9986  03F8  2CC7               	goto	l581
  9987  03F9                     l580:	
  9988                           ;lib/app_device_joystick.c: 105:     }
  9989                           
  9990                           
  9991                           ;lib/app_device_joystick.c: 111:     if( UCONbits.SUSPND == 1 )
  9992  03F9  003D               	movlb	29	; select bank29
  9993  03FA  1C8E               	btfss	14,1	;volatile
  9994  03FB  2BFD               	goto	u3161
  9995  03FC  2BFE               	goto	u3160
  9996  03FD                     u3161:
  9997  03FD  2BFF               	goto	l4159
  9998  03FE                     u3160:
  9999  03FE  2CC7               	goto	l581
 10000  03FF                     l4159:
 10001                           
 10002                           ;lib/app_device_joystick.c: 118:     if(!((last_HAP_IN != 0x0000) && ((*(volatile uint8_
      +                          t*)last_HAP_IN & 0x80) != 0x00)) && (hap_IN_pkt_sent == 0))
 10003  03FF  0023               	movlb	3	; select bank3
 10004  0400  083C               	movf	_last_HAP_IN^(0+384),w
 10005  0401  043D               	iorwf	(_last_HAP_IN+1)^(0+384),w
 10006  0402  1903               	btfsc	3,2
 10007  0403  2C05               	goto	u3171
 10008  0404  2C06               	goto	u3170
 10009  0405                     u3171:
 10010  0405  2C0E               	goto	l4163
 10011  0406                     u3170:
 10012  0406                     l4161:
 10013  0406  083C               	movf	_last_HAP_IN^(0+384),w
 10014  0407  0086               	movwf	6
 10015  0408  083D               	movf	(_last_HAP_IN+1)^(0+384),w
 10016  0409  0087               	movwf	7
 10017  040A  1B81               	btfsc	1,7
 10018  040B  2C0D               	goto	u3181
 10019  040C  2C0E               	goto	u3180
 10020  040D                     u3181:
 10021  040D  2C4F               	goto	l4179
 10022  040E                     u3180:
 10023  040E                     l4163:
 10024  040E  0021               	movlb	1	; select bank1
 10025  040F  0842               	movf	_hap_IN_pkt_sent^(0+128),w
 10026  0410  1D03               	btfss	3,2
 10027  0411  2C13               	goto	u3191
 10028  0412  2C14               	goto	u3190
 10029  0413                     u3191:
 10030  0413  2C4F               	goto	l4179
 10031  0414                     u3190:
 10032  0414                     l4165:
 10033                           
 10034                           ;lib/app_device_joystick.c: 119:     {;lib/app_device_joystick.c: 122:         haptic_in
      +                          [0] = display_output[0];
 10035  0414  30B0               	movlw	176
 10036  0415  0086               	movwf	6
 10037  0416  3021               	movlw	33
 10038  0417  0087               	movwf	7
 10039  0418  0801               	movf	1,w
 10040  0419  00FB               	movwf	??_APP_DeviceJoystickTasks
 10041  041A  087B               	movf	??_APP_DeviceJoystickTasks,w
 10042  041B  00A0               	movwf	32
 10043                           
 10044                           ;lib/app_device_joystick.c: 123:         haptic_in[1] = display_output[1];
 10045  041C  30B0               	movlw	176
 10046  041D  0086               	movwf	6
 10047  041E  3021               	movlw	33
 10048  041F  0087               	movwf	7
 10049  0420  3141               	addfsr 1,1
 10050  0421  0801               	movf	1,w
 10051  0422  00FB               	movwf	??_APP_DeviceJoystickTasks
 10052  0423  087B               	movf	??_APP_DeviceJoystickTasks,w
 10053  0424  00A1               	movwf	33
 10054  0425                     l4167:
 10055                           
 10056                           ;lib/app_device_joystick.c: 124:         haptic_in[2] = TESTB;
 10057  0425  01A2               	clrf	34
 10058  0426                     l4169:
 10059                           
 10060                           ;lib/app_device_joystick.c: 125:         haptic_in[3] = SSPCON1;
 10061  0426  0024               	movlb	4	; select bank4
 10062  0427  0815               	movf	21,w	;volatile
 10063  0428  00FB               	movwf	??_APP_DeviceJoystickTasks
 10064  0429  087B               	movf	??_APP_DeviceJoystickTasks,w
 10065  042A  0021               	movlb	1	; select bank1
 10066  042B  00A3               	movwf	35
 10067  042C                     l4171:
 10068                           
 10069                           ;lib/app_device_joystick.c: 126:         haptic_in[4] = SSPSTAT;
 10070  042C  0024               	movlb	4	; select bank4
 10071  042D  0814               	movf	20,w	;volatile
 10072  042E  00FB               	movwf	??_APP_DeviceJoystickTasks
 10073  042F  087B               	movf	??_APP_DeviceJoystickTasks,w
 10074  0430  0021               	movlb	1	; select bank1
 10075  0431  00A4               	movwf	36
 10076  0432                     l4173:
 10077                           
 10078                           ;lib/app_device_joystick.c: 127:         haptic_in[5] = display_output[63];
 10079  0432  30EF               	movlw	239
 10080  0433  0086               	movwf	6
 10081  0434  3021               	movlw	33
 10082  0435  0087               	movwf	7
 10083  0436  0801               	movf	1,w
 10084  0437  00FB               	movwf	??_APP_DeviceJoystickTasks
 10085  0438  087B               	movf	??_APP_DeviceJoystickTasks,w
 10086  0439  00A5               	movwf	37
 10087  043A                     l4175:
 10088                           
 10089                           ;lib/app_device_joystick.c: 128:         hap_IN_pkt_sent = 1;
 10090  043A  01C2               	clrf	_hap_IN_pkt_sent^(0+128)
 10091  043B  0AC2               	incf	_hap_IN_pkt_sent^(0+128),f
 10092  043C                     l4177:
 10093                           
 10094                           ;lib/app_device_joystick.c: 130:         last_HAP_IN = USBTransferOnePacket(1,1,(uint8_t
      +                          *)&haptic_in,sizeof(haptic_in));
 10095  043C  01F0               	clrf	USBTransferOnePacket@dir
 10096  043D  0AF0               	incf	USBTransferOnePacket@dir,f
 10097  043E  30A0               	movlw	160
 10098  043F  00F1               	movwf	USBTransferOnePacket@data
 10099  0440  3000               	movlw	0
 10100  0441  00F2               	movwf	USBTransferOnePacket@data+1
 10101  0442  3010               	movlw	16
 10102  0443  00FB               	movwf	??_APP_DeviceJoystickTasks
 10103  0444  087B               	movf	??_APP_DeviceJoystickTasks,w
 10104  0445  00F3               	movwf	USBTransferOnePacket@len
 10105  0446  3001               	movlw	1
 10106  0447  318F  2779  3183   	fcall	_USBTransferOnePacket
 10107  044A  0871               	movf	?_USBTransferOnePacket+1,w
 10108  044B  0023               	movlb	3	; select bank3
 10109  044C  00BD               	movwf	(_last_HAP_IN+1)^(0+384)
 10110  044D  0870               	movf	?_USBTransferOnePacket,w
 10111  044E  00BC               	movwf	_last_HAP_IN^(0+384)
 10112  044F                     l4179:
 10113                           
 10114                           ;lib/app_device_joystick.c: 134:     if(!((last_HAP_OUT != 0x0000) && ((*(volatile uint8
      +                          _t*)last_HAP_OUT & 0x80) != 0x00)) && hap_OUT_pkt_ready){
 10115  044F  0023               	movlb	3	; select bank3
 10116  0450  083A               	movf	_last_HAP_OUT^(0+384),w
 10117  0451  043B               	iorwf	(_last_HAP_OUT+1)^(0+384),w
 10118  0452  1903               	btfsc	3,2
 10119  0453  2C55               	goto	u3201
 10120  0454  2C56               	goto	u3200
 10121  0455                     u3201:
 10122  0455  2C5E               	goto	l4183
 10123  0456                     u3200:
 10124  0456                     l4181:
 10125  0456  083A               	movf	_last_HAP_OUT^(0+384),w
 10126  0457  0086               	movwf	6
 10127  0458  083B               	movf	(_last_HAP_OUT+1)^(0+384),w
 10128  0459  0087               	movwf	7
 10129  045A  1B81               	btfsc	1,7
 10130  045B  2C5D               	goto	u3211
 10131  045C  2C5E               	goto	u3210
 10132  045D                     u3211:
 10133  045D  2C77               	goto	l4189
 10134  045E                     u3210:
 10135  045E                     l4183:
 10136  045E  0021               	movlb	1	; select bank1
 10137  045F  0841               	movf	_hap_OUT_pkt_ready^(0+128),w
 10138  0460  1903               	btfsc	3,2
 10139  0461  2C63               	goto	u3221
 10140  0462  2C64               	goto	u3220
 10141  0463                     u3221:
 10142  0463  2C77               	goto	l4189
 10143  0464                     u3220:
 10144  0464                     l4185:
 10145                           
 10146                           ;lib/app_device_joystick.c: 135:         hap_OUT_pkt_ready = 0;
 10147  0464  01C1               	clrf	_hap_OUT_pkt_ready^(0+128)
 10148  0465                     l4187:
 10149                           
 10150                           ;lib/app_device_joystick.c: 136:         last_HAP_OUT = USBTransferOnePacket(1,0,(uint8_
      +                          t*)&haptic_out,sizeof(haptic_out));
 10151  0465  01F0               	clrf	USBTransferOnePacket@dir
 10152  0466  3030               	movlw	48
 10153  0467  00F1               	movwf	USBTransferOnePacket@data
 10154  0468  3001               	movlw	1
 10155  0469  00F2               	movwf	USBTransferOnePacket@data+1
 10156  046A  3040               	movlw	64
 10157  046B  00FB               	movwf	??_APP_DeviceJoystickTasks
 10158  046C  087B               	movf	??_APP_DeviceJoystickTasks,w
 10159  046D  00F3               	movwf	USBTransferOnePacket@len
 10160  046E  3001               	movlw	1
 10161  046F  318F  2779  3183   	fcall	_USBTransferOnePacket
 10162  0472  0871               	movf	?_USBTransferOnePacket+1,w
 10163  0473  0023               	movlb	3	; select bank3
 10164  0474  00BB               	movwf	(_last_HAP_OUT+1)^(0+384)
 10165  0475  0870               	movf	?_USBTransferOnePacket,w
 10166  0476  00BA               	movwf	_last_HAP_OUT^(0+384)
 10167  0477                     l4189:
 10168                           
 10169                           ;lib/app_device_joystick.c: 138:     if(!((last_DSP_OUT != 0x0000) && ((*(volatile uint8
      +                          _t*)last_DSP_OUT & 0x80) != 0x00)) && display_pkt_ready){
 10170  0477  0023               	movlb	3	; select bank3
 10171  0478  0836               	movf	_last_DSP_OUT^(0+384),w
 10172  0479  0437               	iorwf	(_last_DSP_OUT+1)^(0+384),w
 10173  047A  1903               	btfsc	3,2
 10174  047B  2C7D               	goto	u3231
 10175  047C  2C7E               	goto	u3230
 10176  047D                     u3231:
 10177  047D  2C86               	goto	l4193
 10178  047E                     u3230:
 10179  047E                     l4191:
 10180  047E  0836               	movf	_last_DSP_OUT^(0+384),w
 10181  047F  0086               	movwf	6
 10182  0480  0837               	movf	(_last_DSP_OUT+1)^(0+384),w
 10183  0481  0087               	movwf	7
 10184  0482  1B81               	btfsc	1,7
 10185  0483  2C85               	goto	u3241
 10186  0484  2C86               	goto	u3240
 10187  0485                     u3241:
 10188  0485  2C9F               	goto	l4199
 10189  0486                     u3240:
 10190  0486                     l4193:
 10191  0486  0021               	movlb	1	; select bank1
 10192  0487  0844               	movf	_display_pkt_ready^(0+128),w
 10193  0488  1903               	btfsc	3,2
 10194  0489  2C8B               	goto	u3251
 10195  048A  2C8C               	goto	u3250
 10196  048B                     u3251:
 10197  048B  2C9F               	goto	l4199
 10198  048C                     u3250:
 10199  048C                     l4195:
 10200                           
 10201                           ;lib/app_device_joystick.c: 139:         display_pkt_ready = 0;
 10202  048C  01C4               	clrf	_display_pkt_ready^(0+128)
 10203  048D                     l4197:
 10204                           
 10205                           ;lib/app_device_joystick.c: 140:         last_DSP_OUT = USBTransferOnePacket(3,0,(uint8_
      +                          t*)&display_output,sizeof(display_output));
 10206  048D  01F0               	clrf	USBTransferOnePacket@dir
 10207  048E  30B0               	movlw	176
 10208  048F  00F1               	movwf	USBTransferOnePacket@data
 10209  0490  3021               	movlw	33
 10210  0491  00F2               	movwf	USBTransferOnePacket@data+1
 10211  0492  3040               	movlw	64
 10212  0493  00FB               	movwf	??_APP_DeviceJoystickTasks
 10213  0494  087B               	movf	??_APP_DeviceJoystickTasks,w
 10214  0495  00F3               	movwf	USBTransferOnePacket@len
 10215  0496  3003               	movlw	3
 10216  0497  318F  2779  3183   	fcall	_USBTransferOnePacket
 10217  049A  0871               	movf	?_USBTransferOnePacket+1,w
 10218  049B  0023               	movlb	3	; select bank3
 10219  049C  00B7               	movwf	(_last_DSP_OUT+1)^(0+384)
 10220  049D  0870               	movf	?_USBTransferOnePacket,w
 10221  049E  00B6               	movwf	_last_DSP_OUT^(0+384)
 10222  049F                     l4199:
 10223                           
 10224                           ;lib/app_device_joystick.c: 142:     if(!((last_LED_OUT != 0x0000) && ((*(volatile uint8
      +                          _t*)last_LED_OUT & 0x80) != 0x00)) && LED_pkt_ready){
 10225  049F  0023               	movlb	3	; select bank3
 10226  04A0  0838               	movf	_last_LED_OUT^(0+384),w
 10227  04A1  0439               	iorwf	(_last_LED_OUT+1)^(0+384),w
 10228  04A2  1903               	btfsc	3,2
 10229  04A3  2CA5               	goto	u3261
 10230  04A4  2CA6               	goto	u3260
 10231  04A5                     u3261:
 10232  04A5  2CAE               	goto	l4203
 10233  04A6                     u3260:
 10234  04A6                     l4201:
 10235  04A6  0838               	movf	_last_LED_OUT^(0+384),w
 10236  04A7  0086               	movwf	6
 10237  04A8  0839               	movf	(_last_LED_OUT+1)^(0+384),w
 10238  04A9  0087               	movwf	7
 10239  04AA  1B81               	btfsc	1,7
 10240  04AB  2CAD               	goto	u3271
 10241  04AC  2CAE               	goto	u3270
 10242  04AD                     u3271:
 10243  04AD  2CC7               	goto	l581
 10244  04AE                     u3270:
 10245  04AE                     l4203:
 10246  04AE  0021               	movlb	1	; select bank1
 10247  04AF  0843               	movf	_LED_pkt_ready^(0+128),w
 10248  04B0  1903               	btfsc	3,2
 10249  04B1  2CB3               	goto	u3281
 10250  04B2  2CB4               	goto	u3280
 10251  04B3                     u3281:
 10252  04B3  2CC7               	goto	l581
 10253  04B4                     u3280:
 10254  04B4                     l4205:
 10255                           
 10256                           ;lib/app_device_joystick.c: 143:         LED_pkt_ready = 0;
 10257  04B4  01C3               	clrf	_LED_pkt_ready^(0+128)
 10258  04B5                     l4207:
 10259                           
 10260                           ;lib/app_device_joystick.c: 144:         last_LED_OUT = USBTransferOnePacket(2,0,(uint8_
      +                          t*)&leds_output,sizeof(leds_output));
 10261  04B5  01F0               	clrf	USBTransferOnePacket@dir
 10262  04B6  3030               	movlw	48
 10263  04B7  00F1               	movwf	USBTransferOnePacket@data
 10264  04B8  3021               	movlw	33
 10265  04B9  00F2               	movwf	USBTransferOnePacket@data+1
 10266  04BA  3031               	movlw	49
 10267  04BB  00FB               	movwf	??_APP_DeviceJoystickTasks
 10268  04BC  087B               	movf	??_APP_DeviceJoystickTasks,w
 10269  04BD  00F3               	movwf	USBTransferOnePacket@len
 10270  04BE  3002               	movlw	2
 10271  04BF  318F  2779  3183   	fcall	_USBTransferOnePacket
 10272  04C2  0871               	movf	?_USBTransferOnePacket+1,w
 10273  04C3  0023               	movlb	3	; select bank3
 10274  04C4  00B9               	movwf	(_last_LED_OUT+1)^(0+384)
 10275  04C5  0870               	movf	?_USBTransferOnePacket,w
 10276  04C6  00B8               	movwf	_last_LED_OUT^(0+384)
 10277  04C7                     l581:
 10278  04C7  0008               	return
 10279  04C8                     __end_of_APP_DeviceJoystickTasks:
 10280                           
 10281                           	psect	text37
 10282  0F79                     __ptext37:	
 10283 ;; *************** function _USBTransferOnePacket *****************
 10284 ;; Defined at:
 10285 ;;		line 999 in file "lib/usb/usb_device.c"
 10286 ;; Parameters:    Size  Location     Type
 10287 ;;  ep              1    wreg     unsigned char 
 10288 ;;  dir             1    0[COMMON] unsigned char 
 10289 ;;  data            2    1[COMMON] PTR unsigned char 
 10290 ;;		 -> leds_output(49), haptic_out(64), display_output(64), haptic_in(16), 
 10291 ;;  len             1    3[COMMON] unsigned char 
 10292 ;; Auto vars:     Size  Location     Type
 10293 ;;  ep              1    8[COMMON] unsigned char 
 10294 ;;  handle          2    9[COMMON] PTR volatile struct __BD
 10295 ;;		 -> RAM(4096), NULL(0), BDT(64), 
 10296 ;; Return value:  Size  Location     Type
 10297 ;;                  2    0[COMMON] PTR void 
 10298 ;; Registers used:
 10299 ;;		wreg, fsr1l, fsr1h, status,2, status,0
 10300 ;; Tracked objects:
 10301 ;;		On entry : 0/0
 10302 ;;		On exit  : 0/0
 10303 ;;		Unchanged: 0/0
 10304 ;; Data sizes:     COMMON   BANK1   BANK2   BANK3   BANK4   BANK5   BANK6   BANK7   BANK8   BANK9  BANK10  BANK11  BANK1
      +2
 10305 ;;      Params:         4       0       0       0       0       0       0       0       0       0       0       0       
      +0
 10306 ;;      Locals:         3       0       0       0       0       0       0       0       0       0       0       0       
      +0
 10307 ;;      Temps:          4       0       0       0       0       0       0       0       0       0       0       0       
      +0
 10308 ;;      Totals:        11       0       0       0       0       0       0       0       0       0       0       0       
      +0
 10309 ;;Total ram usage:       11 bytes
 10310 ;; Hardware stack levels used: 1
 10311 ;; Hardware stack levels required when called: 1
 10312 ;; This function calls:
 10313 ;;		Nothing
 10314 ;; This function is called by:
 10315 ;;		_APP_DeviceJoystickTasks
 10316 ;; This function uses a non-reentrant model
 10317 ;;
 10318                           
 10319  0F79                     _USBTransferOnePacket:	
 10320                           ;psect for function _USBTransferOnePacket
 10321                           
 10322                           
 10323                           ;incstack = 0
 10324                           ; Regs used in _USBTransferOnePacket: [wreg+fsr1l+fsr1h+status,2+status,0]
 10325                           ;USBTransferOnePacket@ep stored from wreg
 10326  0F79  00F8               	movwf	USBTransferOnePacket@ep
 10327  0F7A                     l3971:
 10328                           
 10329                           ;lib/usb/usb_device.c: 999: void* USBTransferOnePacket(uint8_t ep,uint8_t dir,uint8_t* d
      +                          ata,uint8_t len);lib/usb/usb_device.c: 1000: {;lib/usb/usb_device.c: 1001:     volatile 
      +                          BDT_ENTRY* handle;;lib/usb/usb_device.c: 1004:     if(dir != 0)
 10330  0F7A  0870               	movf	USBTransferOnePacket@dir,w
 10331  0F7B  1903               	btfsc	3,2
 10332  0F7C  2F7E               	goto	u2821
 10333  0F7D  2F7F               	goto	u2820
 10334  0F7E                     u2821:
 10335  0F7E  2F88               	goto	l3975
 10336  0F7F                     u2820:
 10337  0F7F                     l3973:
 10338                           
 10339                           ;lib/usb/usb_device.c: 1005:     {;lib/usb/usb_device.c: 1007:         handle = pBDTEntr
      +                          yIn[ep];
 10340  0F7F  3578               	lslf	USBTransferOnePacket@ep,w
 10341  0F80  3EB0               	addlw	(low (_pBDTEntryIn| 0))& (0+255)
 10342  0F81  0086               	movwf	6
 10343  0F82  0187               	clrf	7
 10344  0F83  3F40               	moviw [0]fsr1
 10345  0F84  00F9               	movwf	USBTransferOnePacket@handle
 10346  0F85  3F41               	moviw [1]fsr1
 10347  0F86  00FA               	movwf	USBTransferOnePacket@handle+1
 10348                           
 10349                           ;lib/usb/usb_device.c: 1008:     }
 10350  0F87  2F91               	goto	l3977
 10351  0F88                     l3975:
 10352                           
 10353                           ;lib/usb/usb_device.c: 1010:     {;lib/usb/usb_device.c: 1012:         handle = pBDTEntr
      +                          yOut[ep];
 10354  0F88  3578               	lslf	USBTransferOnePacket@ep,w
 10355  0F89  3EA0               	addlw	(low (_pBDTEntryOut| (0+256)))& (0+255)
 10356  0F8A  0086               	movwf	6
 10357  0F8B  3001               	movlw	1	; select bank3/4
 10358  0F8C  0087               	movwf	7
 10359  0F8D  3F40               	moviw [0]fsr1
 10360  0F8E  00F9               	movwf	USBTransferOnePacket@handle
 10361  0F8F  3F41               	moviw [1]fsr1
 10362  0F90  00FA               	movwf	USBTransferOnePacket@handle+1
 10363  0F91                     l3977:
 10364                           
 10365                           ;lib/usb/usb_device.c: 1017:     if(handle == 0)
 10366  0F91  0879               	movf	USBTransferOnePacket@handle,w
 10367  0F92  047A               	iorwf	USBTransferOnePacket@handle+1,w
 10368  0F93  1D03               	btfss	3,2
 10369  0F94  2F96               	goto	u2831
 10370  0F95  2F97               	goto	u2830
 10371  0F96                     u2831:
 10372  0F96  2F9A               	goto	l3983
 10373  0F97                     u2830:
 10374  0F97                     l3979:
 10375                           
 10376                           ;lib/usb/usb_device.c: 1018:     {;lib/usb/usb_device.c: 1019:         return 0;
 10377  0F97  01F0               	clrf	?_USBTransferOnePacket
 10378  0F98  01F1               	clrf	?_USBTransferOnePacket+1
 10379  0F99  2FFF               	goto	l202
 10380  0F9A                     l3983:
 10381                           
 10382                           ;lib/usb/usb_device.c: 1033:     handle->ADR = (((uint16_t)(data)) & 0x7FFF);
 10383  0F9A  30FF               	movlw	255
 10384  0F9B  0571               	andwf	USBTransferOnePacket@data,w
 10385  0F9C  00F4               	movwf	??_USBTransferOnePacket
 10386  0F9D  307F               	movlw	127
 10387  0F9E  0572               	andwf	USBTransferOnePacket@data+1,w
 10388  0F9F  00F5               	movwf	??_USBTransferOnePacket+1
 10389  0FA0  0879               	movf	USBTransferOnePacket@handle,w
 10390  0FA1  0086               	movwf	6
 10391  0FA2  087A               	movf	USBTransferOnePacket@handle+1,w
 10392  0FA3  0087               	movwf	7
 10393  0FA4  3142               	addfsr 1,2
 10394  0FA5  0874               	movf	??_USBTransferOnePacket,w
 10395  0FA6  3FC0               	movwi [0]fsr1
 10396  0FA7  0875               	movf	??_USBTransferOnePacket+1,w
 10397  0FA8  3FC1               	movwi [1]fsr1
 10398  0FA9                     l3985:
 10399                           
 10400                           ;lib/usb/usb_device.c: 1034:     handle->CNT = len;
 10401  0FA9  0879               	movf	USBTransferOnePacket@handle,w
 10402  0FAA  3E01               	addlw	1
 10403  0FAB  00F4               	movwf	??_USBTransferOnePacket
 10404  0FAC  3000               	movlw	0
 10405  0FAD  3D7A               	addwfc	USBTransferOnePacket@handle+1,w
 10406  0FAE  00F5               	movwf	??_USBTransferOnePacket+1
 10407  0FAF  0874               	movf	??_USBTransferOnePacket,w
 10408  0FB0  0086               	movwf	6
 10409  0FB1  0875               	movf	??_USBTransferOnePacket+1,w
 10410  0FB2  0087               	movwf	7
 10411  0FB3  0873               	movf	USBTransferOnePacket@len,w
 10412  0FB4  0081               	movwf	1
 10413  0FB5                     l3987:
 10414                           
 10415                           ;lib/usb/usb_device.c: 1035:     handle->STAT.Val &= 0x40;
 10416  0FB5  3040               	movlw	64
 10417  0FB6  00F4               	movwf	??_USBTransferOnePacket
 10418  0FB7  0879               	movf	USBTransferOnePacket@handle,w
 10419  0FB8  0086               	movwf	6
 10420  0FB9  087A               	movf	USBTransferOnePacket@handle+1,w
 10421  0FBA  0087               	movwf	7
 10422  0FBB  0874               	movf	??_USBTransferOnePacket,w
 10423  0FBC  0581               	andwf	1,f
 10424                           
 10425                           ;lib/usb/usb_device.c: 1036:     handle->STAT.Val |= (0x08 & 0x08);
 10426  0FBD  0879               	movf	USBTransferOnePacket@handle,w
 10427  0FBE  0086               	movwf	6
 10428  0FBF  087A               	movf	USBTransferOnePacket@handle+1,w
 10429  0FC0  0087               	movwf	7
 10430  0FC1  1581               	bsf	1,3
 10431                           
 10432                           ;lib/usb/usb_device.c: 1037:     handle->STAT.Val |= 0x80;
 10433  0FC2  0879               	movf	USBTransferOnePacket@handle,w
 10434  0FC3  0086               	movwf	6
 10435  0FC4  087A               	movf	USBTransferOnePacket@handle+1,w
 10436  0FC5  0087               	movwf	7
 10437  0FC6  1781               	bsf	1,7
 10438  0FC7                     l3989:
 10439                           
 10440                           ;lib/usb/usb_device.c: 1040:     if(dir != 0)
 10441  0FC7  0870               	movf	USBTransferOnePacket@dir,w
 10442  0FC8  1903               	btfsc	3,2
 10443  0FC9  2FCB               	goto	u2841
 10444  0FCA  2FCC               	goto	u2840
 10445  0FCB                     u2841:
 10446  0FCB  2FE3               	goto	l3993
 10447  0FCC                     u2840:
 10448  0FCC                     l3991:
 10449                           
 10450                           ;lib/usb/usb_device.c: 1041:     {;lib/usb/usb_device.c: 1043:         pBDTEntryIn[ep] =
      +                           (BDT_ENTRY*)(((uint16_t)pBDTEntryIn[ep]) ^ 0x0004u);
 10451  0FCC  3578               	lslf	USBTransferOnePacket@ep,w
 10452  0FCD  3EB0               	addlw	(low (_pBDTEntryIn| 0))& (0+255)
 10453  0FCE  0086               	movwf	6
 10454  0FCF  0187               	clrf	7
 10455  0FD0  3F40               	moviw [0]fsr1
 10456  0FD1  00F4               	movwf	??_USBTransferOnePacket
 10457  0FD2  3F41               	moviw [1]fsr1
 10458  0FD3  00F5               	movwf	??_USBTransferOnePacket+1
 10459  0FD4  3004               	movlw	4
 10460  0FD5  0674               	xorwf	??_USBTransferOnePacket,w
 10461  0FD6  00F6               	movwf	??_USBTransferOnePacket+2
 10462  0FD7  3000               	movlw	0
 10463  0FD8  0675               	xorwf	??_USBTransferOnePacket+1,w
 10464  0FD9  00F7               	movwf	??_USBTransferOnePacket+3
 10465  0FDA  3578               	lslf	USBTransferOnePacket@ep,w
 10466  0FDB  3EB0               	addlw	(low (_pBDTEntryIn| 0))& (0+255)
 10467  0FDC  0086               	movwf	6
 10468  0FDD  0187               	clrf	7
 10469  0FDE  0876               	movf	??_USBTransferOnePacket+2,w
 10470  0FDF  3FC0               	movwi [0]fsr1
 10471  0FE0  0877               	movf	??_USBTransferOnePacket+3,w
 10472  0FE1  3FC1               	movwi [1]fsr1
 10473                           
 10474                           ;lib/usb/usb_device.c: 1044:     }
 10475  0FE2  2FFB               	goto	l3995
 10476  0FE3                     l3993:
 10477                           
 10478                           ;lib/usb/usb_device.c: 1046:     {;lib/usb/usb_device.c: 1048:         pBDTEntryOut[ep] 
      +                          = (BDT_ENTRY*)(((uint16_t)pBDTEntryOut[ep]) ^ 0x0004u);
 10479  0FE3  3578               	lslf	USBTransferOnePacket@ep,w
 10480  0FE4  3EA0               	addlw	(low (_pBDTEntryOut| (0+256)))& (0+255)
 10481  0FE5  0086               	movwf	6
 10482  0FE6  3001               	movlw	1	; select bank3/4
 10483  0FE7  0087               	movwf	7
 10484  0FE8  3F40               	moviw [0]fsr1
 10485  0FE9  00F4               	movwf	??_USBTransferOnePacket
 10486  0FEA  3F41               	moviw [1]fsr1
 10487  0FEB  00F5               	movwf	??_USBTransferOnePacket+1
 10488  0FEC  3004               	movlw	4
 10489  0FED  0674               	xorwf	??_USBTransferOnePacket,w
 10490  0FEE  00F6               	movwf	??_USBTransferOnePacket+2
 10491  0FEF  3000               	movlw	0
 10492  0FF0  0675               	xorwf	??_USBTransferOnePacket+1,w
 10493  0FF1  00F7               	movwf	??_USBTransferOnePacket+3
 10494  0FF2  3578               	lslf	USBTransferOnePacket@ep,w
 10495  0FF3  3EA0               	addlw	(low (_pBDTEntryOut| (0+256)))& (0+255)
 10496  0FF4  0086               	movwf	6
 10497  0FF5  3001               	movlw	1	; select bank3/4
 10498  0FF6  0087               	movwf	7
 10499  0FF7  0876               	movf	??_USBTransferOnePacket+2,w
 10500  0FF8  3FC0               	movwi [0]fsr1
 10501  0FF9  0877               	movf	??_USBTransferOnePacket+3,w
 10502  0FFA  3FC1               	movwi [1]fsr1
 10503  0FFB                     l3995:
 10504                           
 10505                           ;lib/usb/usb_device.c: 1050:     return (void*)handle;
 10506  0FFB  087A               	movf	USBTransferOnePacket@handle+1,w
 10507  0FFC  00F1               	movwf	?_USBTransferOnePacket+1
 10508  0FFD  0879               	movf	USBTransferOnePacket@handle,w
 10509  0FFE  00F0               	movwf	?_USBTransferOnePacket
 10510  0FFF                     l202:
 10511  0FFF  0008               	return
 10512  1000                     __end_of_USBTransferOnePacket:
 10513                           
 10514                           	psect	intentry
 10515  0004                     __pintentry:	
 10516 ;; *************** function _SYS_InterruptHigh *****************
 10517 ;; Defined at:
 10518 ;;		line 117 in file "lib/system.c"
 10519 ;; Parameters:    Size  Location     Type
 10520 ;;		None
 10521 ;; Auto vars:     Size  Location     Type
 10522 ;;		None
 10523 ;; Return value:  Size  Location     Type
 10524 ;;                  1    wreg      void 
 10525 ;; Registers used:
 10526 ;;		None
 10527 ;; Tracked objects:
 10528 ;;		On entry : 0/0
 10529 ;;		On exit  : 0/0
 10530 ;;		Unchanged: 0/0
 10531 ;; Data sizes:     COMMON   BANK1   BANK2   BANK3   BANK4   BANK5   BANK6   BANK7   BANK8   BANK9  BANK10  BANK11  BANK1
      +2
 10532 ;;      Params:         0       0       0       0       0       0       0       0       0       0       0       0       
      +0
 10533 ;;      Locals:         0       0       0       0       0       0       0       0       0       0       0       0       
      +0
 10534 ;;      Temps:          0       0       0       0       0       0       0       0       0       0       0       0       
      +0
 10535 ;;      Totals:         0       0       0       0       0       0       0       0       0       0       0       0       
      +0
 10536 ;;Total ram usage:        0 bytes
 10537 ;; Hardware stack levels used: 1
 10538 ;; This function calls:
 10539 ;;		Nothing
 10540 ;; This function is called by:
 10541 ;;		Interrupt level 1
 10542 ;; This function uses a non-reentrant model
 10543 ;;
 10544                           
 10545  0004                     _SYS_InterruptHigh:
 10546                           
 10547                           ;incstack = 0
 10548  0004  147E               	bsf	int$flags,0	;set compiler interrupt flag (level 1)
 10549                           
 10550                           ; Regs used in _SYS_InterruptHigh: []
 10551  0005  3180               	pagesel	$
 10552  0006                     i1l708:
 10553  0006  107E               	bcf	int$flags,0	;clear compiler interrupt flag (level 1)
 10554  0007  0009               	retfie
 10555  0008                     __end_of_SYS_InterruptHigh:
 10556  007E                     btemp	set	126	;btemp
 10557  007E                     int$flags	set	126
 10558  007E                     wtemp0	set	126
 10559                           
 10560                           	psect	idloc
 10561                           
 10562                           ;Config register IDLOC0 @ 0x8000
 10563                           ;	unspecified, using default values
 10564  8000                     	org	32768
 10565  8000  3FFF               	dw	16383
 10566                           
 10567                           ;Config register IDLOC1 @ 0x8001
 10568                           ;	unspecified, using default values
 10569  8001                     	org	32769
 10570  8001  3FFF               	dw	16383
 10571                           
 10572                           ;Config register IDLOC2 @ 0x8002
 10573                           ;	unspecified, using default values
 10574  8002                     	org	32770
 10575  8002  3FFF               	dw	16383
 10576                           
 10577                           ;Config register IDLOC3 @ 0x8003
 10578                           ;	unspecified, using default values
 10579  8003                     	org	32771
 10580  8003  3FFF               	dw	16383
 10581                           
 10582                           	psect	config
 10583                           
 10584                           ;Config register CONFIG1 @ 0x8007
 10585                           ;	Oscillator Selection Bits
 10586                           ;	FOSC = HS, HS Oscillator, High-speed crystal/resonator connected between OSC1 and OSC2
      +                           pins
 10587                           ;	Watchdog Timer Enable
 10588                           ;	WDTE = OFF, WDT disabled
 10589                           ;	Power-up Timer Enable
 10590                           ;	PWRTE = ON, PWRT enabled
 10591                           ;	MCLR Pin Function Select
 10592                           ;	MCLRE = ON, MCLR/VPP pin function is MCLR
 10593                           ;	Flash Program Memory Code Protection
 10594                           ;	CP = OFF, Program memory code protection is disabled
 10595                           ;	Brown-out Reset Enable
 10596                           ;	BOREN = ON, Brown-out Reset enabled
 10597                           ;	Clock Out Enable
 10598                           ;	CLKOUTEN = OFF, CLKOUT function is disabled. I/O or oscillator function on the CLKOUT 
      +                          pin
 10599                           ;	Internal/External Switchover Mode
 10600                           ;	IESO = OFF, Internal/External Switchover Mode is disabled
 10601                           ;	Fail-Safe Clock Monitor Enable
 10602                           ;	FCMEN = OFF, Fail-Safe Clock Monitor is disabled
 10603  8007                     	org	32775
 10604  8007  0FC2               	dw	4034
 10605                           
 10606                           ;Config register CONFIG2 @ 0x8008
 10607                           ;	Flash Memory Self-Write Protection
 10608                           ;	WRT = OFF, Write protection off
 10609                           ;	CPU System Clock Selection Bit
 10610                           ;	CPUDIV = NOCLKDIV, NO CPU system divide
 10611                           ;	USB Low SPeed Clock Selection bit
 10612                           ;	USBLSCLK = 48MHz, System clock expects 48 MHz, FS/LS USB CLKENs divide-by is set to 8.
 10613                           ;	PLL Multipler Selection Bit
 10614                           ;	PLLMULT = 4x, 4x Output Frequency Selected
 10615                           ;	PLL Enable Bit
 10616                           ;	PLLEN = ENABLED, 3x or 4x PLL Enabled
 10617                           ;	Stack Overflow/Underflow Reset Enable
 10618                           ;	STVREN = ON, Stack Overflow or Underflow will cause a Reset
 10619                           ;	Brown-out Reset Voltage Selection
 10620                           ;	BORV = LO, Brown-out Reset Voltage (Vbor), low trip point selected.
 10621                           ;	Low-Power Brown Out Reset
 10622                           ;	LPBOR = OFF, Low-Power BOR is disabled
 10623                           ;	Low-Voltage Programming Enable
 10624                           ;	LVP = ON, Low-voltage programmi 10625  8008                     	org	32776
 10626  8008  3F4F               	dw	16207

Data Sizes:
    Strings     0
    Constant    352
    Data        8
    BSS         89
    Persistent  32
    Stack       0

Auto Spaces:
    Space          Size  Autos    Used
    COMMON           14     14      14
    BANK1            64     23      64
    BANK2            16      0      15
    BANK3            64      0      41
    BANK4            47      0       0
    BANK5            32      0       0
    BANK6            64      0       0
    BANK7            80      0       0
    BANK8            80      0       0
    BANK9            80      0       0
    BANK10           80      0       0
    BANK11           80      0       0
    BANK12           48      0       0

Pointer List with Targets:

    USER_USB_CALLBACK_EVENT_HANDLER@pdata	PTR void  size(2) Largest target is 4096
		 -> RAM(DATA[4096]), USTATcopy(BANK1[1]), USBActiveConfiguration(BANK1[1]), NULL(NULL[0]), 
		 -> BDT(ABS[64]), 

    memset@dest	PTR void  size(2) Largest target is 64
		 -> USBAlternateInterface(BANK3[3]), BDT(ABS[64]), 

    memset@s	PTR unsigned char  size(2) Largest target is 64
		 -> USBAlternateInterface(BANK3[3]), BDT(ABS[64]), 

    memcpy@d1	PTR void  size(1) Largest target is 8
		 -> SetupPkt(ABS[8]), 

    memcpy@d	PTR unsigned char  size(1) Largest target is 8
		 -> SetupPkt(ABS[8]), 

    memcpy@s1	PTR const void  size(2) Largest target is 4096
		 -> CtrlTrfData(ABS[8]), RAM(DATA[4096]), SetupPkt(ABS[8]), 

    memcpy@s	PTR const unsigned char  size(2) Largest target is 4096
		 -> CtrlTrfData(ABS[8]), RAM(DATA[4096]), SetupPkt(ABS[8]), 

    last_DSP_OUT	PTR void  size(2) Largest target is 4096
		 -> RAM(DATA[4096]), NULL(NULL[0]), BDT(ABS[64]), 

    last_LED_OUT	PTR void  size(2) Largest target is 4096
		 -> RAM(DATA[4096]), NULL(NULL[0]), BDT(ABS[64]), 

    last_HAP_OUT	PTR void  size(2) Largest target is 4096
		 -> RAM(DATA[4096]), NULL(NULL[0]), BDT(ABS[64]), 

    last_HAP_IN	PTR void  size(2) Largest target is 4096
		 -> RAM(DATA[4096]), NULL(NULL[0]), BDT(ABS[64]), 

    USBStdFeatureReqHandler@pUEP	PTR unsigned char  size(2) Largest target is 1
		 -> UEP0(SFR29[1]), 

    USBStdFeatureReqHandler@p	PTR struct __BDT size(2) Largest target is 4096
		 -> RAM(DATA[4096]), NULL(NULL[0]), BDT(ABS[64]), 

    sp__memcpy	PTR void  size(1) Largest target is 8
		 -> SetupPkt(ABS[8]), 

    USBStdGetStatusHandler@p	PTR struct __BDT size(2) Largest target is 4096
		 -> RAM(DATA[4096]), NULL(NULL[0]), BDT(ABS[64]), 

    sp__memset	PTR void  size(2) Largest target is 64
		 -> USBAlternateInterface(BANK3[3]), BDT(ABS[64]), 

    USBStdSetCfgHandler@p	PTR unsigned char  size(2) Largest target is 1
		 -> UEP1(SFR29[1]), 

    pDst	PTR unsigned char  size(1) Largest target is 8
		 -> CtrlTrfData(ABS[8]), NULL(NULL[0]), 

    USBConfigureEndpoint@handle	PTR volatile struct __BDT size(1) Largest target is 64
		 -> BDT(ABS[64]), 

    pBDTEntryEP0OutCurrent	PTR volatile struct __BDT size(1) Largest target is 64
		 -> NULL(NULL[0]), BDT(ABS[64]), 

    pBDTEntryEP0OutNext	PTR volatile struct __BDT size(2) Largest target is 4096
		 -> RAM(DATA[4096]), NULL(NULL[0]), BDT(ABS[64]), 

    USBTransferOnePacket@data	PTR unsigned char  size(2) Largest target is 64
		 -> leds_output(BIGRAM[49]), haptic_out(BANK2[64]), display_output(BIGRAM[64]), haptic_in(BANK1[16]), 

    sp__USBTransferOnePacket	PTR void  size(2) Largest target is 4096
		 -> RAM(DATA[4096]), NULL(NULL[0]), BDT(ABS[64]), 

    USBTransferOnePacket@handle	PTR volatile struct __BDT size(2) Largest target is 4096
		 -> RAM(DATA[4096]), NULL(NULL[0]), BDT(ABS[64]), 

    USBEnableEndpoint@p	PTR unsigned char  size(2) Largest target is 1
		 -> UEP0(SFR29[1]), 

    pBDTEntryOut	PTR volatile struct __BDT[4] size(2) Largest target is 4096
		 -> RAM(DATA[4096]), NULL(NULL[0]), BDT(ABS[64]), 

    pBDTEntryIn	PTR volatile struct __BDT[4] size(2) Largest target is 4096
		 -> RAM(DATA[4096]), NULL(NULL[0]), BDT(ABS[64]), 

    S174$pFunc	PTR FTN()void  size(2) Largest target is 0

    outPipes.pFunc	PTR FTN()void  size(2) Largest target is 0

    S164$wRam	PTR unsigned short  size(1) Largest target is 0

    outPipes.pDst.wRam	PTR unsigned short  size(1) Largest target is 0

    S164$bRam	PTR unsigned char  size(1) Largest target is 0

    outPipes.pDst.bRam	PTR unsigned char  size(1) Largest target is 0

    S140$wRom	PTR const unsigned short  size(1) Largest target is 0

    inPipes.pSrc.wRom	PTR const unsigned short  size(1) Largest target is 0

    S140$wRam	PTR unsigned short  size(1) Largest target is 0

    inPipes.pSrc.wRam	PTR unsigned short  size(1) Largest target is 0

    S140$bRom	PTR const unsigned char  size(1) Largest target is 0

    inPipes.pSrc.bRom	PTR const unsigned char  size(1) Largest target is 0

    S140$bRam	PTR unsigned char  size(1) Largest target is 0

    inPipes.pSrc.bRam	PTR unsigned char  size(1) Largest target is 0

    USBDeviceInit@p	PTR unsigned char  size(2) Largest target is 1
		 -> UEP1(SFR29[1]), 

    USB_SD_Ptr	const PTR const unsigned char [3] size(2) Largest target is 52
		 -> sd002(CODE[28]), sd001(CODE[52]), sd000(CODE[4]), 

    USB_CD_Ptr	const PTR const unsigned char [1] size(2) Largest target is 105
		 -> configDescriptor1(CODE[105]), 


Critical Paths under _main in COMMON

    _USBCtrlEPServiceComplete->_USBCtrlEPAllowDataStage
    _USBCtrlEPAllowDataStage->_USBCtrlTrfTxService
    _USBStdSetCfgHandler->_memset
    _USER_USB_CALLBACK_EVENT_HANDLER->_APP_DeviceJoystickInitialize
    _SYSTEM_Initialize->_BUTTON_Enable
    _SYSTEM_Initialize->_LED_Enable
    _APP_LEDUpdateUSBStatus->_LED_Off
    _APP_LEDUpdateUSBStatus->_LED_On
    _APP_DeviceJoystickInitialize->_USBEnableEndpoint
    _USBEnableEndpoint->_USBConfigureEndpoint
    _USBCtrlTrfOutHandler->_USBCtrlTrfRxService
    _USBCtrlTrfRxService->_USBCtrlEPAllowStatusStage
    _USBCtrlTrfInHandler->_USBCtrlTrfTxService
    _APP_DeviceJoystickTasks->_USBTransferOnePacket

Critical Paths under _SYS_InterruptHigh in COMMON

    None.

Critical Paths under _main in BANK1

    _main->_USBDeviceTasks
    _USBDeviceTasks->_USBCtrlEPService
    _USBWakeFromSuspend->_USER_USB_CALLBACK_EVENT_HANDLER
    _USBSuspend->_USER_USB_CALLBACK_EVENT_HANDLER
    _USBCtrlEPService->_USBCtrlTrfSetupHandler
    _USBCtrlTrfSetupHandler->_USBCheckStdRequest
    _USBCheckStdRequest->_USBStdFeatureReqHandler
    _USBStdSetCfgHandler->_USER_USB_CALLBACK_EVENT_HANDLER
    _USBStdFeatureReqHandler->_USER_USB_CALLBACK_EVENT_HANDLER

Critical Paths under _SYS_InterruptHigh in BANK1

    None.

Critical Paths under _main in BANK2

    None.

Critical Paths under _SYS_InterruptHigh in BANK2

    None.

Critical Paths under _main in BANK3

    None.

Critical Paths under _SYS_InterruptHigh in BANK3

    None.

Critical Paths under _main in BANK4

    None.

Critical Paths under _SYS_InterruptHigh in BANK4

    None.

Critical Paths under _main in BANK5

    None.

Critical Paths under _SYS_InterruptHigh in BANK5

    None.

Critical Paths under _main in BANK6

    None.

Critical Paths under _SYS_InterruptHigh in BANK6

    None.

Critical Paths under _main in BANK7

    None.

Critical Paths under _SYS_InterruptHigh in BANK7

    None.

Critical Paths under _main in BANK8

    None.

Critical Paths under _SYS_InterruptHigh in BANK8

    None.

Critical Paths under _main in BANK9

    None.

Critical Paths under _SYS_InterruptHigh in BANK9

    None.

Critical Paths under _main in BANK10

    None.

Critical Paths under _SYS_InterruptHigh in BANK10

    None.

Critical Paths under _main in BANK11

    None.

Critical Paths under _SYS_InterruptHigh in BANK11

    None.

Critical Paths under _main in BANK12

    None.

Critical Paths under _SYS_InterruptHigh in BANK12

    None.

Call Graph Tables:

 ---------------------------------------------------------------------------------
 (Depth) Function   	        Calls       Base Space   Used Autos Params    Refs
 ---------------------------------------------------------------------------------
 (0) _main                                                 2     2      0   30379
                                             21 BANK1      2     2      0
            _APP_DeviceJoystickTasks
                       _SlaveinitSPI
                      _USBDeviceInit
                     _USBDeviceTasks
                            _spiTask
 ---------------------------------------------------------------------------------
 (1) _spiTask                                              1     1      0       0
                                              0 COMMON     1     1      0
 ---------------------------------------------------------------------------------
 (1) _USBDeviceTasks                                       3     3      0   28663
                                             18 BANK1      3     3      0
          _USBCtrlEPAllowStatusStage
                   _USBCtrlEPService
                      _USBDeviceInit
      _USBIncrement1msInternalTimers
                    _USBStallHandler
                         _USBSuspend
                 _USBWakeFromSuspend
    _USER_USB_CALLBACK_EVENT_HANDLER
 ---------------------------------------------------------------------------------
 (2) _USBWakeFromSuspend                                   1     1      0    3624
                                              6 BANK1      1     1      0
    _USER_USB_CALLBACK_EVENT_HANDLER
 ---------------------------------------------------------------------------------
 (2) _USBSuspend                                           1     1      0    3624
                                              6 BANK1      1     1      0
    _USER_USB_CALLBACK_EVENT_HANDLER
 ---------------------------------------------------------------------------------
 (2) _USBStallHandler                                      1     1      0       0
                                              0 COMMON     1     1      0
 ---------------------------------------------------------------------------------
 (2) _USBIncrement1msInternalTimers                        1     1      0       0
                                              0 COMMON     1     1      0
 ---------------------------------------------------------------------------------
 (2) _USBDeviceInit                                        5     5      0     272
                                              0 COMMON     5     5      0
 ---------------------------------------------------------------------------------
 (2) _USBCtrlEPService                                     2     2      0   17451
                                             16 BANK1      2     2      0
                _USBCtrlTrfInHandler
               _USBCtrlTrfOutHandler
             _USBCtrlTrfSetupHandler
                             _memcpy
 ---------------------------------------------------------------------------------
 (3) _memcpy                                              10     6      4     363
                                              0 COMMON    10     6      4
 ---------------------------------------------------------------------------------
 (3) _USBCtrlTrfSetupHandler                               1     1      0   16859
                                             15 BANK1      1     1      0
                 _USBCheckStdRequest
           _USBCtrlEPServiceComplete
    _USER_USB_CALLBACK_EVENT_HANDLER
 ---------------------------------------------------------------------------------
 (4) _USBCtrlEPServiceComplete                             2     2      0      92
                                              5 COMMON     2     2      0
            _USBCtrlEPAllowDataStage
          _USBCtrlEPAllowStatusStage
 ---------------------------------------------------------------------------------
 (5) _USBCtrlEPAllowDataStage                              2     2      0      92
                                              3 COMMON     2     2      0
                _USBCtrlTrfTxService
 ---------------------------------------------------------------------------------
 (4) _USBCheckStdRequest                                   2     2      0   13143
                                             13 BANK1      2     2      0
            _USBStdFeatureReqHandler
                _USBStdGetDscHandler
             _USBStdGetStatusHandler
                _USBStdSetCfgHandler
    _USER_USB_CALLBACK_EVENT_HANDLER
 ---------------------------------------------------------------------------------
 (5) _USBStdSetCfgHandler                                  5     5      0    5378
                                              6 BANK1      5     5      0
    _USER_USB_CALLBACK_EVENT_HANDLER
                             _memset
 ---------------------------------------------------------------------------------
 (6) _memset                                              14     8      6    1519
                                              0 COMMON    14     8      6
 ---------------------------------------------------------------------------------
 (5) _USBStdGetStatusHandler                               4     4      0      46
                                              0 COMMON     4     4      0
 ---------------------------------------------------------------------------------
 (5) _USBStdGetDscHandler                                  3     3      0       0
                                              0 COMMON     3     3      0
 ---------------------------------------------------------------------------------
 (5) _USBStdFeatureReqHandler                              7     7      0    4095
                                              6 BANK1      7     7      0
    _USER_USB_CALLBACK_EVENT_HANDLER
 ---------------------------------------------------------------------------------
 (2) _USER_USB_CALLBACK_EVENT_HANDLER                      6     0      6    3624
                                              0 BANK1      6     0      6
       _APP_DeviceJoystickInitialize
             _APP_LEDUpdateUSBStatus
                  _SYSTEM_Initialize
                 _USBCheckHIDRequest
 ---------------------------------------------------------------------------------
 (3) _USBCheckHIDRequest                                   2     2      0       0
                                              0 COMMON     2     2      0
 ---------------------------------------------------------------------------------
 (3) _SYSTEM_Initialize                                    3     3      0      66
                                              3 COMMON     3     3      0
                      _BUTTON_Enable
                         _LED_Enable
 ---------------------------------------------------------------------------------
 (4) _LED_Enable                                           3     3      0      22
                                              0 COMMON     3     3      0
 ---------------------------------------------------------------------------------
 (4) _BUTTON_Enable                                        3     3      0      22
                                              0 COMMON     3     3      0
 ---------------------------------------------------------------------------------
 (3) _APP_LEDUpdateUSBStatus                               2     2      0      44
                                              3 COMMON     2     2      0
                            _LED_Off
                             _LED_On
 ---------------------------------------------------------------------------------
 (4) _LED_On                                               3     3      0      22
                                              0 COMMON     3     3      0
 ---------------------------------------------------------------------------------
 (4) _LED_Off                                              3     3      0      22
                                              0 COMMON     3     3      0
 ---------------------------------------------------------------------------------
 (3) _APP_DeviceJoystickInitialize                         1     1      0     822
                                             13 COMMON     1     1      0
                  _USBEnableEndpoint
 ---------------------------------------------------------------------------------
 (4) _USBEnableEndpoint                                    6     5      1     822
                                              7 COMMON     6     5      1
               _USBConfigureEndpoint
 ---------------------------------------------------------------------------------
 (5) _USBConfigureEndpoint                                 7     6      1     400
                                              0 COMMON     7     6      1
 ---------------------------------------------------------------------------------
 (3) _USBCtrlTrfOutHandler                                 2     2      0     114
                                              6 COMMON     2     2      0
                _USBCtrlTrfRxService
 ---------------------------------------------------------------------------------
 (4) _USBCtrlTrfRxService                                  4     4      0     114
                                              2 COMMON     4     4      0
          _USBCtrlEPAllowStatusStage
 ---------------------------------------------------------------------------------
 (5) _USBCtrlEPAllowStatusStage                            2     2      0       0
                                              0 COMMON     2     2      0
 ---------------------------------------------------------------------------------
 (3) _USBCtrlTrfInHandler                                  3     3      0     115
                                              3 COMMON     3     3      0
                _USBCtrlTrfTxService
 ---------------------------------------------------------------------------------
 (6) _USBCtrlTrfTxService                                  3     3      0      92
                                              0 COMMON     3     3      0
 ---------------------------------------------------------------------------------
 (1) _SlaveinitSPI                                         0     0      0       0
 ---------------------------------------------------------------------------------
 (1) _APP_DeviceJoystickTasks                              1     1      0    1444
                                             11 COMMON     1     1      0
               _USBTransferOnePacket
 ---------------------------------------------------------------------------------
 (2) _USBTransferOnePacket                                11     7      4    1444
                                              0 COMMON    11     7      4
 ---------------------------------------------------------------------------------
 Estimated maximum stack depth 6
 ---------------------------------------------------------------------------------
 (Depth) Function   	        Calls       Base Space   Used Autos Params    Refs
 ---------------------------------------------------------------------------------
 (10) _SYS_InterruptHigh                                   0     0      0       0
 ---------------------------------------------------------------------------------
 Estimated maximum stack depth 10
 ---------------------------------------------------------------------------------

 Call Graph Graphs:

 _main (ROOT)
   _APP_DeviceJoystickTasks
     _USBTransferOnePacket
   _SlaveinitSPI
   _USBDeviceInit
   _USBDeviceTasks
     _USBCtrlEPAllowStatusStage
     _USBCtrlEPService
       _USBCtrlTrfInHandler
         _USBCtrlTrfTxService
       _USBCtrlTrfOutHandler
         _USBCtrlTrfRxService
           _USBCtrlEPAllowStatusStage
       _USBCtrlTrfSetupHandler
         _USBCheckStdRequest
           _USBStdFeatureReqHandler
             _USER_USB_CALLBACK_EVENT_HANDLER
               _APP_DeviceJoystickInitialize
                 _USBEnableEndpoint
                   _USBConfigureEndpoint
               _APP_LEDUpdateUSBStatus
                 _LED_Off
                 _LED_On
               _SYSTEM_Initialize
                 _BUTTON_Enable
                 _LED_Enable
               _USBCheckHIDRequest
           _USBStdGetDscHandler
           _USBStdGetStatusHandler
           _USBStdSetCfgHandler
             _USER_USB_CALLBACK_EVENT_HANDLER
             _memset
           _USER_USB_CALLBACK_EVENT_HANDLER
         _USBCtrlEPServiceComplete
           _USBCtrlEPAllowDataStage
             _USBCtrlTrfTxService
           _USBCtrlEPAllowStatusStage
         _USER_USB_CALLBACK_EVENT_HANDLER
       _memcpy
     _USBDeviceInit
     _USBIncrement1msInternalTimers
     _USBStallHandler
     _USBSuspend
       _USER_USB_CALLBACK_EVENT_HANDLER
     _USBWakeFromSuspend
       _USER_USB_CALLBACK_EVENT_HANDLER
     _USER_USB_CALLBACK_EVENT_HANDLER
   _spiTask

 _SYS_InterruptHigh (ROOT)

 Address spaces:
Name               Size   Autos  Total    Cost      Usage
BIGRAM             3F0      0       0       0        0.0%
NULL                 0      0       0       0        0.0%
CODE                 0      0       0       0        0.0%
BITCOMMON            E      0       0       1        0.0%
BITSFR0              0      0       0       1        0.0%
SFR0                 0      0       0       1        0.0%
COMMON               E      E       E       2      100.0%
BITSFR1              0      0       0       2        0.0%
SFR1                 0      0       0       2        0.0%
BITSFR2              0      0       0       3        0.0%
SFR2                 0      0       0       3        0.0%
STACK                0      0       0       3        0.0%
BITBANK1            40      0       0       4        0.0%
BITSFR3              0      0       0       4        0.0%
SFR3                 0      0       0       4        0.0%
BANK1               40     17      40       5      100.0%
BITSFR4              0      0       0       5        0.0%
SFR4                 0      0       0       5        0.0%
BITBANK2            10      0       0       6        0.0%
BITSFR5              0      0       0       6        0.0%
SFR5                 0      0       0       6        0.0%
BANK2               10      0       F       7       93.8%
BITSFR6              0      0       0       7        0.0%
SFR6                 0      0       0       7        0.0%
BITBANK3            50      0       0       8        0.0%
BITSFR7              0      0       0       8        0.0%
SFR7                 0      0       0       8        0.0%
BANK3               40      0      29       9       64.1%
BITSFR8              0      0       0       9        0.0%
SFR8                 0      0       0       9        0.0%
BITBANK4            50      0       0      10        0.0%
BITSFR9              0      0       0      10        0.0%
SFR9                 0      0       0      10        0.0%
BANK4               2F      0       0      11        0.0%
BITSFR10             0      0       0      11        0.0%
SFR10                0      0       0      11        0.0%
BITBANK5            50      0       0      12        0.0%
BITSFR11             0      0       0      12        0.0%
SFR11                0      0       0      12        0.0%
BANK5               20      0       0      13        0.0%
BITSFR12             0      0       0      13        0.0%
SFR12                0      0       0      13        0.0%
BITBANK6            50      0       0      14        0.0%
BITSFR13             0      0       0      14        0.0%
SFR13                0      0       0      14        0.0%
BANK6               40      0       0      15        0.0%
BITSFR14             0      0       0      15        0.0%
SFR14                0      0       0      15        0.0%
BITBANK7            50      0       0      16        0.0%
BITSFR15             0      0       0      16        0.0%
SFR15                0      0       0      16        0.0%
BANK7               50      0       0      17        0.0%
BITSFR16             0      0       0      17        0.0%
SFR16                0      0       0      17        0.0%
BITSFR17             0      0       0      18        0.0%
SFR17                0      0       0      18        0.0%
ABS                  0      0      86      18        0.0%
BITBANK8            50      0       0      19        0.0%
BITSFR18             0      0       0      19        0.0%
SFR18                0      0       0      19        0.0%
BANK8               50      0       0      20        0.0%
BITSFR19             0      0       0      20        0.0%
SFR19                0      0       0      20        0.0%
BITBANK9            50      0       0      21        0.0%
BITSFR20             0      0       0      21        0.0%
SFR20                0      0       0      21        0.0%
BANK9               50      0       0      22        0.0%
BITSFR21             0      0       0      22        0.0%
SFR21                0      0       0      22        0.0%
BITBANK10           50      0       0      23        0.0%
BITSFR22             0      0       0      23        0.0%
SFR22                0      0       0      23        0.0%
BANK10              50      0       0      24        0.0%
BITSFR23             0      0       0      24        0.0%
SFR23                0      0       0      24        0.0%
BITBANK11           50      0       0      25        0.0%
BITSFR24             0      0       0      25        0.0%
SFR24                0      0       0      25        0.0%
BANK11              50      0       0      26        0.0%
BITSFR25             0      0       0      26        0.0%
SFR25                0      0       0      26        0.0%
BITBANK12           30      0       0      27        0.0%
BITSFR26             0      0       0      27        0.0%
SFR26                0      0       0      27        0.0%
BANK12              30      0       0      28        0.0%
BITSFR27             0      0       0      28        0.0%
SFR27                0      0       0      28        0.0%
BITSFR28             0      0       0      29        0.0%
SFR28                0      0       0      29        0.0%
DATA                 0      0      86      29        0.0%
BITSFR29             0      0       0      30        0.0%
SFR29                0      0       0      30        0.0%
BITSFR30             0      0       0      31        0.0%
SFR30                0      0       0      31        0.0%
BITSFR31             0      0       0      32        0.0%
SFR31                0      0       0      32        0.0%


Microchip Technology PIC Macro Assembler V2.36 build 20220127204148 
Symbol Table                                                                                   Fri Oct 28 14:00:24 2022

                             _USB_SD_Ptr 1154                                        _v 01C1  
                                     _BF 10A0                              ?_LED_Enable 0070  
                          _USBDeviceInit 0592                       _USBCheckHIDRequest 02DA  
   USER_USB_CALLBACK_EVENT_HANDLER@event 00D9     USER_USB_CALLBACK_EVENT_HANDLER@pdata 00DB  
                                    l202 0FFF                                      l300 0CA6  
                                    l221 0D80                                      l311 0D0E  
                                    l303 0D00                                      l232 0A9D  
                                    l304 0CB0                                      l217 0D80  
                                    l401 01AA                                      l305 0CB3  
                                    l161 063B                                      l227 0BDE  
                                    l235 0734                                      l260 0DF5  
                                    l156 05D3                                      l316 09B6  
                                    l245 0781                                      l333 0B7F  
                                    l325 08D8                                      l165 02D9  
                                    l173 01F0              __end_of_USBStdGetDscHandler 0EF3  
                                    l406 0896                                      l182 0273  
                                    l271 06DA                                      l263 0654  
                                    l343 0A1C                                      l431 03F0  
                                    l319 0879                                      l183 02D7  
                                    l167 01BC                                      l248 0DA4  
                                    l440 0396                                      l336 0B2B  
                                    l184 027A                                      l168 01BB  
                                    l273 06E5                                      l361 07FD  
                                    l169 01C0                                      l282 0F78  
                                    l178 023A                                      l363 078C  
                                    l356 0E6A                                      l196 0963  
                                    l612 0C6C                                      l372 07B3  
                                    l357 0E6D                                      l349 0E65  
                                    l703 08B7                                      l608 0CA1  
                                    l640 085D                                      l296 0EF2  
                                    l528 0A4F                                      l650 0900  
                                    l651 0903                                      l580 03F9  
                                    l660 08E1                                      l581 04C7  
                                    l653 091C                                      l397 0160  
                                    l662 08FA                                      l486 0AE3  
                                    l575 098B                                      l399 0174  
                                    l648 08FD                                      l657 08DB  
                                    l659 08DE                                      l763 0C3E  
                                    l755 0C17                                      l684 091F  
                                    _BDT 0020                                      l757 0C1D  
                                    l686 0922                                      l783 083F  
                                    l687 0925                                      l689 093E  
                                    _UIE 0E92                                      _UIR 0E90  
                 _APP_LEDUpdateUSBStatus 0C3F                               _USBSuspend 085E  
                   USBStdSetCfgHandler@i 00E3                     USBStdSetCfgHandler@p 00E0  
                                    wreg 0009                           _USBDeviceTasks 01AB  
                    ?_USBCheckHIDRequest 0070                           _USBDeviceState 00D4  
                          _BUTTON_Enable 084C                    ??_USBCtrlTrfRxService 0072  
               USBEnableEndpoint@options 0077                          __end_of_LED_Off 08FB  
                                   l3001 0A79                                     l1313 09E4  
                                   l3011 0A98                                     l3003 0A7D  
                                   l3005 0A82                                     l3021 0953  
                                   l3013 0940                                     l3101 0359  
                                   l1317 0591                                     l3007 0A8C  
                                   l3023 095D                                     l3015 0944  
                                   l3103 0360                                     l3111 0383  
                                   l3009 0A94                                     l3017 0949  
                                   l3201 0970                                     l3025 08DA  
                                   l3121 03A9                                     l3105 036D  
                                   l3113 0396                                     l3019 094D  
                                   l3203 0973                                     l3035 08FC  
                                   l3131 03C8                                     l3123 03AE  
                                   l3107 0375                                     l3211 0A9F  
                                   l3205 097B                                     l3029 08E4  
                                   l3045 084D                                     l3125 03BA  
                                   l3117 03A0                                     l3213 0AA3  
                                   l3207 0983                                     l3039 0906  
                                   l3151 0C49                                     l3055 091E  
                                   l3127 03BF                                     l3119 03A5  
                                   l3135 03D4                                     l3071 02E8  
                                   l3215 0AAB                                     l3223 0ABB  
                                   l4201 04A6                                     l3241 0D93  
                                   l3321 0D15                                     l3161 0C69  
                                   l3153 0C4F                                     l3145 0C3F  
                                   l3049 084D                                     l3129 03C3  
                                   l3081 02FB                                     l3073 02ED  
                                   l3065 02DA                                     l3217 0AB3  
                                   l3209 0A9E                                     l4121 0BDF  
                                   l4203 04AE                                     l3251 0DB7  
                                   l3243 0D98                                     l3331 0D2E  
                                   l3323 0D19                                     l3171 0C84  
                                   l3163 0C6D                                     l3155 0C54  
                                   l3147 0C44                                     l3059 0928  
                                   l3091 0329                                     l3083 0301  
                                   l3219 0AB7                                     l4123 0BE5  
             USBConfigureEndpoint@handle 0076                                     l4205 04B4  
                                   l4117 0837                                     l3261 0DCF  
                                   l3253 0DBB                                     l3245 0D9B  
                                   l3237 0D81                                     l3341 0D47  
                                   l3333 0D34                                     l3325 0D1E  
                                   l3165 0C73                                     l3157 0C5B  
                                   l3093 0331                                     l3085 0308  
                                   l3077 02F4                                     l3069 02E3  
                                   l3501 0044                                     l4141 0C30  
                                   l4133 0C19                                     l4125 0C09  
                                   l4207 04B5                                     l4119 083A  
                                   l3271 0DEA                                     l3263 0DD3  
                                   l3247 0DA0                                     l3239 0D8F  
                                   l3351 0D6C                                     l3343 0D53  
                                   l3335 0D3A                                     l3327 0D22  
                                   l3319 0D0F                                     l3167 0C78  
                                   l3159 0C60                                     l3191 08A4  
                                   l3095 033F                                     l3087 0315  
                                   l3511 005E                                     l3503 004A  
                                   l3431 0E6E                                     l4151 0C3D  
                                   l4135 0C21                                     l4127 0C0E  
                                   l4161 0406                                     l4153 03F1  
                                   l3273 0DEE                                     l3257 0DC0  
                                   l3265 0DD5                                     l3249 0DAB  
                                   l3353 0D79                                     l3345 0D5A  
                                   l3337 0D3F                                     l3329 0D28  
                                   l3169 0C7F                                     l3177 0C8E  
                                   l3185 0898                                     l3097 0345  
                                   l3089 031C                                     l3521 007E  
                                   l3505 0051                                     l3513 0060  
                                   l3441 0E9A                                     l3433 0E75  
                                   l3361 0B95                                     l3601 0710  
                                   l4137 0C27                                     l4129 0C14  
                                   l4171 042C                                     l4163 040E  
                                   l3267 0DDB                                     l3259 0DCB  
                                   l3275 0DF0                                     l3347 0D5E  
                                   l3339 0D40                                     l3179 0C9C  
                                   l3187 089B                                     l3099 034C  
                                   l5211 0AC4                                     l3531 00BE  
                                   l3523 0084                                     l3515 0066  
                                   l3507 0053                                     l3451 0ED2  
                                   l3443 0EA9                                     l3435 0E7B  
                                   l3371 0BC2                                     l3363 0BA2  
                                   l3355 0B80                                     l3611 0739  
                                   l3603 071D                                     l4139 0C2A  
                                   l4147 0C3A                                     l4181 0456  
                                   l4173 0432                                     l4165 0414  
                                   l3269 0DE6                                     l3349 0D60  
                                   l5221 0930                                     l5213 0ADE  
                                   l3541 00EC                                     l3533 00C9  
                                   l3525 008A                                     l3517 006D  
                                   l3509 005A                                     l3445 0EB9  
                                   l3437 0E85                                     l5205 07DA  
                                   l3373 0BC5                                     l3365 0BA8  
                                   l3357 0B83                                     l3621 0747  
                                   l3613 073C                                     l3605 0723  
                                   l4149 0C3C                                     l4191 047E  
                                   l4183 045E                                     l4175 043A  
                                   l4167 0425                                     l4159 03FF  
                                   l3199 0964                                     l5223 0855  
                                   l5215 038B                                     l3551 0110  
                                   l3543 00F3                                     l3535 00CF  
                                   l3527 00A3                                     l3519 0074  
                                   l3447 0EBC                                     l3439 0E8A  
                                   l5207 0CF5                                     l3471 0CAD  
                                   l3375 0BD3                                     l3359 0B89  
                                   l3367 0BAE                                     l3631 076E  
                                   l3623 074C                                     l3615 0741  
                                   l3607 0728                                     l4193 0486  
                                   l4185 0464                                     l4177 043C  
                                   l4169 0426                                     l3801 0E32  
                                   l3641 063C                                     l5225 0C97  
                                   l5217 03DC                                     l3561 0133  
                                   l3553 0116                                     l3545 00FC  
                                   l3537 00D4                                     l3529 00BA  
                                   l5209 0EE7                                     l3449 0EC2  
                                   l3481 0CD7                                     l3473 0CB5  
                                   l3465 0CA2                                     l3377 0BD9  
                                   l3369 0BBB                                     l3633 0774  
                                   l3617 0744                                     l3625 0750  
                                   l3609 072E                                     l4195 048C  
                                   l4187 0465                                     l4179 044F  
                                   l3811 0E59                                     l3803 0E35  
                                   l3651 0668                                     l3643 0642  
                                   l5227 090E                                     l5219 08AC  
                                   l3571 0158                                     l3563 0138  
                                   l3547 0101                                     l3555 011C  
                                   l3539 00E1                                     l3459 0EDE  
                                   l3491 0D05                                     l3483 0CDF  
                                   l3475 0CBD                                     l4611 057D  
                                   l4603 0563                                     l3635 0779  
                                   l3627 0755                                     l3619 0746  
                                   l3731 09C9                                     l4197 048D  
                                   l4189 0477                                     l3805 0E3C  
                                   l3661 0689                                     l3653 066C  
                                   l3645 0650                                     l5229 08EC  
                                   l3581 0195                                     l3573 0165  
                                   l3565 0148                                     l3557 0123  
                                   l3549 0109                                     l3493 0D09  
                                   l3485 0CE7                                     l3477 0CC1  
                                   l3469 0CA8                                     l4613 0583  
                                   l4605 0570                                     l4621 0EF9  
                                   l4701 07B4                                     l3637 077A  
                                   l3629 0761                                     l3733 09CD  
                                   l3901 063A                                     l3821 0598  
                                   l4199 049F                                     l3815 0E6B  
                                   l3807 0E48                                     l3671 06C2  
                                   l3663 0696                                     l3655 0670  
                                   l3647 065B                                     l3583 01A2  
                                   l3575 016D                                     l3567 014D  
                                   l3559 012B                                     l3495 0D0A  
                                   l3479 0CCD                                     l4615 0587  
                                   l4607 0574                                     l4631 0F03  
                                   l4703 07C2                                     l3591 06F7  
                                   l3735 09D4                                     l3727 09B8  
                                   l3831 05A6                                     l3911 08CC  
                                   l3903 08B8                                     l3809 0E4D  
                                   l3681 06E2                                     l3673 06CF  
                                   l3665 069D                                     l3657 0676  
                                   l3649 065D                                     l3577 017D  
                                   l3569 0154                                     l3489 0CEC  
                                   l4617 058B                                     l4609 0578  
                                   l4633 0F07                                     l3593 06FC  
                                   l3585 06E6                                     l4721 0AF9  
                                   l3729 09C1                                     l3737 09D8  
                                   l3833 05AA                                     l3817 0592  
                                   l3921 0866                                     l3913 08D2  
                                   l3905 08BA                                     l4801 01E8  
                                   l3675 06D5                                     l3667 06A9  
                                   l3659 067C                                     l3771 09F1  
                                   l3579 018D                                     l4651 0F35  
                                   l4635 0F0D                                     l4627 0EFA  
                                   l4619 0EF3                                     l4707 07D1  
                                   l3595 06FF                                     l3587 06ED  
                                   l4731 0B12                                     l4723 0B01  
                                   l4715 0AE4                                     l3851 05D6  
                                   l3843 05B8                                     l3835 05B0  
                                   l3827 059D                                     l3819 0594  
                                   l3931 0883                                     l3923 0867  
                                   l3915 08D6                                     l3907 08C8  
                                   l4811 0200                                     l4803 01ED  
                                   l3669 06B5                                     l3773 09F6  
                                   l3781 0A1B                                     l3765 09E5  
                                   l4661 0F54                                     l4653 0F43  
                                   l4645 0F1F                                     l4637 0F1B  
                                   l4629 0EFF                                     l3597 0701  
                                   l3589 06F2                                     l4733 0B14  
                                   l4725 0B07                                     l4717 0AEB  
                                   l4741 0B2C                                     l3861 05E0  
                                   l3853 05D7                                     l3845 05C9  
                                   l3837 05B7                                     l3829 05A2  
                                   l3933 0889                                     l3941 099B  
                                   l3925 086A                                     l3917 085E  
                                   l3909 08CA                                     l4821 0215  
                                   l4805 01F4                                     l4813 0205  
                                   l3791 0E10                                     l3783 0DF6  
                                   l3679 06DC                                     l3775 0A02  
                                   l3767 09EC                                     l4591 04F5  
                                   l4583 04D3                                     l4663 0F5A  
                                   l4655 0F45                                     l4647 0F2B  
                                   l4639 0F1D                                     l4671 0782  
                                   l3599 0703                                     l4735 0B16  
                                   l4727 0B0F                                     l4719 0AF3  
                                   l4751 0B50                                     l4743 0B31  
                                   l3871 05F2                                     l3863 05E2  
                                   l3855 05D8                                     l3847 05CD  
                                   l3935 0892                                     l3943 09A5  
                                   l3927 086B                                     l3919 0860  
                                   l4831 0238                                     l4823 0219  
                                   l4815 0209                                     l4807 01F8  
                                   l4903 0A55                                     l3793 0E15  
                                   l3785 0DFF                                     l3777 0A0F  
                                   l3769 09F0                                     l4593 0531  
                                   l4585 04D9                                     l4577 04C8  
                                   l4665 0F5F                                     l4657 0F4A  
                                   l4649 0F2F                                     l4681 079A  
                                   l4737 0B19                                     l4729 0B10  
                                   l4761 0B7C                                     l4753 0B5B  
                                   l4745 0B37                                     l3881 0613  
                                   l3873 05F3                                     l3865 05E7  
                                   l3857 05DC                                     l3849 05D5  
                                   l3929 087A                                     l3945 09B0  
                                   l3937 098C                                     l4841 024E  
                                   l4833 023F                                     l4825 0229  
                                   l4817 020D                                     l4809 01FB  
                                   l3971 0F7A                                     l3795 0E1B  
                                   l3787 0E05                                     l3779 0A15  
                                   l4587 04EB                                     l4579 04CC  
                                   l4667 0F64                                     l4659 0F4E  
                                   l4691 07A7                                     l4683 079E  
                                   l4675 078D                                     l4739 0B28  
                                   l4755 0B6B                                     l4747 0B44  
                                   l3891 0628                                     l3883 0619  
                                   l3867 05F0                                     l3859 05DE  
                                   l3939 0991                                     l3947 09B2  
                                   l4851 0270                                     l4843 0253  
                                   l4827 022F                                     l4835 0242  
                                   l4819 0210                                     l4771 01AB  
                                   l4763 01AB                                     l3973 0F7F  
                                   l3789 0E0B                                     l3797 0E20  
                                   l2997 0A5C                                     l4597 053B  
                                   l4669 0F73                                     l4693 07AB  
                                   l4685 079F                                     l4677 0792  
                                   l4757 0B6F                                     l4749 0B4A  
                                   l3893 062C                                     l3885 061E  
                                   l3877 05F4                                     l3869 05F1  
                                   l4861 0284                                     l4853 0278  
                                   l4845 0257                                     l4837 0247  
                                   l4829 0232                                     l4773 01B1  
                                   l4781 01C3                                     l3991 0FCC  
                                   l3983 0F9A                                     l3975 0F88  
                                   l3799 0E25                                     l2999 0A60  
                                   l4599 0559                                     l4687 07A1  
                                   l4679 0796                                     l4759 0B73  
                                   l3895 062D                                     l3887 0621  
                                   l3879 060F                                     l4871 02B5  
                                   l4863 028C                                     l4847 0267  
                                   l4839 024B                                     l4791 01D1  
                                   l4783 01C8                                     l4775 01B4  
                        __end_of_LED_rpt 1110                                     l3993 0FE3  
                                   l3985 0FA9                                     l3977 0F91  
                                   l4689 07A3                                     l3897 062F  
                                   l3889 0626                                     l4873 02BA  
                                   l4865 0291                                     l4849 0269  
                                   l4785 01CD                                     l4793 01D6  
                                   l4777 01B6                                     l4881 0A1D  
                                   l3995 0FFB                                     l3987 0FB5  
                                   l3979 0F97                                     l3899 0638  
                                   l4875 02BE                                     l4867 0296  
                                   l4859 027F                                     l4795 01DB  
                                   l4787 01CF                                     l4779 01B8  
                                   l4891 0A35                                     l4883 0A20  
                                   l3989 0FC7                                     l4877 02CC  
                                   l4869 02A6                                     l4797 01DF  
                                   l4789 01D0                                     l4893 0A38  
                                   l4885 0A2D                                     l4879 02D1  
                                   l4799 01E5                                     l4895 0A44  
                                   l4887 0A30                                     l4897 0A47  
                                   l4889 0A33                                     u2000 0DA0  
                                   u2001 0D9F                                     u2010 0DBF  
                                   u2011 0DBE                                     u2020 0DDA  
                                   u2100 0D1E                                     u2021 0DD9  
                                   u2101 0D1D                                     u2030 0DF5  
                                   u2110 0D28                                     u2031 0DF4  
                                   u2111 0D27                                     u2120 0D3F  
                                   u2200 0EC2                                     u2121 0D3E  
                                   u2201 0EC1                                     u2210 0CAD  
                                   u2130 0B89                                     u2211 0CAC  
                                   u2131 0B88                                     u2300 0066  
                                   u2220 0CBD                                     u2140 0BBB  
                                   u3100 0C0E                                     u2301 0065  
                                   u2221 0CBC                                     u2141 0BBA  
                                   u3101 0C0D                                     u2310 006D  
                                   u2230 0CC1                                     u3110 0C14  
                                   u2311 006C                                     u2231 0CC0  
                                   u3111 0C13                                     u3200 0456  
                                   u2400 0101                                     u2320 0074  
                                   u2240 0CDF                                     u3120 0C1D  
                                   u3201 0455                                     u2401 0100  
                                   u2321 0073                                     u2241 0CDE  
                                   u2145 0BB7                                     u3121 0C1C  
                                   u3210 045E                                     u2090 0D15  
                                   u2410 012B                                     u2330 007E  
                                   u2250 0CE7                                     u3130 0C21  
                                   u3211 045D                                     u2091 0D14  
                                   u2411 012A                                     u2331 007D  
                                   u2251 0CE6                                     u3131 0C20  
                                   u3220 0464                                     u2420 0158  
                                   u2340 0084                                     u2180 0E75  
                                   u2260 0D05                                     u2500 074C  
                                   u3140 0C27                                     u3221 0463  
                                   u2421 0157                                     u2341 0083  
                                   u2181 0E74                                     u2261 0D04  
                                   u2501 074B                                     u3141 0C26  
                                   u3230 047E                                     u3150 03F8  
                                   u2430 0160                                     u2350 008A  
                                   u2270 004A                                     u2190 0E8A  
                                   u2510 0780                                     u3231 047D  
                                   u3151 03F7                                     u2431 015F  
                                   u2351 0089                                     u2271 0049  
                                   u2191 0E89                                     u2511 077F  
                                   u3240 0486                                     u3160 03FE  
                                   u2520 0650                                     u2600 09F6  
                                   u1800 02F3                                     u2440 0165  
                                   u2360 00BE                                     u2280 0051  
                                   u3241 0485                                     u3161 03FD  
                                   u2521 064F                                     u2601 09F5  
                                   u1801 02F2                                     u2441 0164  
                                   u2361 00BD                                     u2281 0050  
                                   u3250 048C                                     u3170 0406  
                                   u2610 0E0B                                     u2530 0676  
                                   u1810 02FA                                     u2370 00D4  
                                   u2290 005A                                     u3410 04D2  
                                   u2450 06ED                                     u3251 048B  
                                   u3171 0405                                     u2611 0E0A  
                                   u2531 0675                                     u1715 0A63  
                                   u1811 02F9                                     u2371 00D3  
                                   u2291 0059                                     u3411 04D1  
                                   u2451 06EC                                     u3260 04A6  
                                   u3180 040E                                     u2620 0E15  
                                   u2540 067C                                     u1740 0A82  
                                   u1900 039F                                     u1820 0301  
                                   u2380 00F3                                     u3420 04F4  
                                   u2460 06F2                                     u3500 0B37  
                                   u2700 05E7                                     u3261 04A5  
                                   u3181 040D                                     u2621 0E14  
                                   u2541 067B                                     u2525 064C  
                                   u1741 0A81                                     u1725 0A69  
                                   u1901 039E                                     u1821 0300  
                                   u2381 00F2                                     u3421 04F3  
                                   u2461 06F1                                     u3501 0B36  
                                   u2701 05E6                                     u3270 04AE  
                                   u3190 0414                                     u2630 0E25  
                                   u2550 069D                                     u1750 0944  
                                   u1910 0C44                                     u1830 0308  
                                   u2390 00FC                                     u3430 053A  
                                   u2470 06FC                                     u2710 0619  
                                   u3271 04AD                                     u3191 0413  
                                   u2631 0E24                                     u2551 069C  
                                   u1735 0A71                                     u1751 0943  
                                   u1911 0C43                                     u1831 0307  
                                   u2391 00FB                                     u3431 0539  
                                   u2471 06FB                                     u2711 0618  
                                   u3280 04B4                                     u2640 0E3C  
                                   u2560 06E2                                     u1760 094D  
                                   u1920 0C4F                                     u1840 031C  
                                   u3440 0562                                     u2480 0739  
                                   u3520 0B5B                                     u2720 08D6  
                                   u3600 01ED                                     u3281 04B3  
                                   u2641 0E3B                                     u2561 06E1  
                                   u1761 094C                                     u1921 0C4E  
                                   u1841 031B                                     u3441 0561  
                                   u2481 0738                                     u3521 0B5A  
                                   u2721 08D5                                     u3601 01EC  
                                   u2650 0E4D                                     u1930 0C5B  
                                   u1850 0331                                     u1770 02E2  
                                   u3450 0591                                     u2490 0741  
                                   u3530 0B7C                                     u2730 0889  
                                   u3610 01F4                                     u2651 0E4C  
                                   u1931 0C5A                                     u1851 0330  
                                   u1771 02E1                                     u3451 0590  
                                   u2491 0740                                     u3531 0B7B  
                                   u3515 0B3B                                     u2731 0888  
                                   u3611 01F3                                     u2820 0F7F  
                                   u2660 0E6A                                     u1940 0C69  
                                   u1860 0345                                     u1780 02E8  
                                   u3460 0F0D                                     u2580 09E4  
                                   u2740 0892                                     u3700 024B  
                                   u3620 01F8                                     u3540 01B1  
                                   u2821 0F7E                                     u2661 0E69  
                                   u1941 0C68                                     u1861 0344  
                                   u1781 02E7                                     u3461 0F0C  
                                   u2581 09E3                                     u2741 0891  
                                   u3701 024A                                     u3621 01F7  
                                   u3541 01B0                                     u2830 0F97  
                                   u2590 09EC                                     u1950 0C73  
                                   u1870 034C                                     u1790 02ED  
                                   u3470 0F35                                     u2670 05B0  
                                   u2750 0991                                     u3710 0253  
                                   u3630 0209                                     u3550 01C0  
                                   u2831 0F96                                     u2591 09EB  
                                   u1951 0C72                                     u1871 034B  
                                   u1791 02EC                                     u3471 0F34  
                                   u2671 05AF                                     u2751 0990  
                                   u3711 0252                                     u3631 0208  
                                   u3551 01BF                                     u2840 0FCC  
                                   u1960 0C7F                                     u1880 0360  
                                   u3480 0F5F                                     u2760 099B  
                                   u3720 0257                                     u3640 020D  
                                   u3560 01C8                                     u2841 0FCB  
                                   u1961 0C7E                                     u1881 035F  
                                   u3481 0F5E                                     u2761 099A  
                                   u3721 0256                                     u3641 020C  
                                   u3561 01C7                                     u1970 0C8D  
                                   u1890 0375                                     u3490 078B  
                                   u2690 05D3                                     u2770 09A5  
                                   u3730 0270                                     u3650 0215  
                                   u3570 01CD                                     u3810 0A4E  
                                   u1971 0C8C                                     u1891 0374  
                                   u3491 078A                                     u2691 05D2  
                                   u2771 09A4                                     u3731 026F  
                                   u3651 0214                                     u3571 01CC  
                                   u3811 0A4D                                     u1980 0D8F  
                                   u3740 0278                                     u3660 0219  
                                   u3580 01DB                                     u3820 0A54  
                                   u3804 0A44                                     u1981 0D8E  
                                   u2685 05BB                                     u3741 0277  
                                   u3661 0218                                     u3581 01DA  
                                   u3821 0A53                                     u1990 0D98  
                                   u3750 027F                                     u3670 0238  
                                   u3590 01DF                                     u1991 0D97  
                                   u3751 027E                                     u3671 0237  
                                   u3591 01DE                                     u3760 0296  
                                   u3680 023F                                     u3761 0295  
                                   u3681 023E                                     u3770 02BA  
                                   u3690 0247                                     u3771 02B9  
                                   u3691 0246                                     u3780 02D7  
                                   u3781 02D6                                     u3837 0A26  
                                   u3790 0A42                                     u3791 0A3F  
                  ??_USBCtrlTrfTxService 0070                                     _REGT 012D  
                                   _UCFG 0E91                                     _UEP0 0E98  
                                   _UEP1 0E99                                     _UEIE 0E97  
                                   _UEIR 0E93                                     _UCON 0E8E  
                                   _WCOL 10AF   USBStdFeatureReqHandler@current_ep_data 00E3  
                                   _pDst 00D0                                     _cntr 012C  
                                   _main 0A1D                                     fsr0h 0005  
                                   fsr1h 0007                                     indf0 0000  
                                   fsr0l 0004                                     indf1 0001  
                                   fsr1l 0006                                     btemp 007E  
                                   start 0008          __end_of_APP_DeviceJoystickTasks 04C8  
                   ??_USBCheckHIDRequest 0070               __end_of_USBCheckStdRequest 07FE  
                 ??_USBCtrlTrfOutHandler 0076                ??_USBStdFeatureReqHandler 00DF  
               ??_USBStdGetStatusHandler 0070                           ?_USBDeviceInit 0070  
                                  ?_main 0070                   __end_of_USBDeviceTasks 02DA  
              ?_USBCtrlEPServiceComplete 0070                                    i1l708 0006  
                                  _UADDR 0E96                                    _TESTB 012E  
                                  _SSPOV 10AE                                    _USTAT 0E8F  
                         ?_BUTTON_Enable 0070          __end_of_USBCtrlEPAllowDataStage 0BDF  
                                  _sd000 115A                                    _sd001 10C0  
                                  _sd002 1110           ?_USBIncrement1msInternalTimers 0070  
                        __end_of_spiTask 0C3F                                    status 0003  
                                  wtemp0 007E                          __initialization 000A  
                           __end_of_main 0A5B                                   ??_main 00EE  
                        ?_USBDeviceTasks 0070                              ?_USBSuspend 0070  
                              ??_LED_Off 0070                                   _ANSELC 018E  
                 SYSTEM_Initialize@state 0075                                   _LED_On 08FB  
                                 _SSPADD 0212                                   _TRISC0 0470  
                                 _TRISC1 0471                                   _TRISC2 0472  
                                 _TRISC3 0473                                   _SSPBUF 0211  
                                 _SSPCON 0215                        _shortPacketStatus 00D2  
                        USBDeviceTasks@i 00ED              USBStdFeatureReqHandler@pUEP 00E1  
               USBTransferOnePacket@data 0071               USBCtrlTrfInHandler@lastDTS 0075  
                        ??_USBDeviceInit 0070                        _USBEnableEndpoint 093F  
                                 _cnt_tr 01B4                                   _memcpy 09B7  
                                 _memset 04C8                       ?_USBEnableEndpoint 0077  
                        ??_BUTTON_Enable 0070                            _LED_pkt_ready 00C3  
                              ??_spiTask 0070                      ??_USBEnableEndpoint 0078  
                            _CtrlTrfData 0068                     _controlTransferState 00D1  
                      _SYSTEM_Initialize 0897                  __end_of__initialization 0040  
                     ?_SYSTEM_Initialize 0070                           __pcstackCOMMON 0070  
              __end_of_USBEnableEndpoint 0964                            __end_of_sd000 115E  
                          __end_of_sd001 10F4                            __end_of_sd002 112C  
                           __pidataBANK3 082F                      ??_SYSTEM_Initialize 0073  
                              LED_On@led 0072                       __end_of_HAPTIC_rpt 10C0  
                        _active_protocol 00D5                             ??_LED_Enable 0070  
            __end_of_USBCtrlTrfInHandler 0E6E                  ?_APP_LEDUpdateUSBStatus 0070  
               ??_USBCtrlTrfSetupHandler 00E8                  _USBTicksSinceSuspendEnd 00C5  
              __end_of_SYSTEM_Initialize 08B8                   _USBStdGetStatusHandler 0CA2  
                             __pbssBANK1 00B0                               __pbssBANK2 0120  
                             __pbssBANK3 01A0                                  ?_LED_On 0070  
                     __end_of_LED_Enable 093F                          _hap_IN_pkt_sent 00C2  
                            _pBDTEntryIn 00B0         __end_of_USBCtrlEPServiceComplete 0782  
                             __pmaintext 0A1D                     USBCtrlTrfRxService@i 0074  
                          LED_Enable@led 0072                                  SSP1STAT 0214  
         __end_of_APP_LEDUpdateUSBStatus 0CA2                               __pintentry 0004  
                                ?_memcpy 0070                                  ?_memset 0070  
                             _device_dsc 1142                         _USBCtrlEPService 0B2C  
                             _ep_data_in 01B0              __end_of_USBCtrlTrfRxService 06E6  
                     _USBCheckStdRequest 0782                        _configDescriptor1 1000  
                          ?_SlaveinitSPI 0070                                  _LED_Off 08D9  
                                _LED_rpt 10F4              __end_of_USBCtrlTrfTxService 0DF6  
                    _USBStdSetCfgHandler 0EF3                               _haptic_out 0130  
                                _SSPCON1 0215                      ?_USBCheckStdRequest 0070  
                                _UIEbits 0E92                                  _SSPSTAT 0214  
                                _UIRbits 0E90           APP_LEDUpdateUSBStatus@ledCount 00BD  
        ??_USBIncrement1msInternalTimers 0070                     ?_USBStdSetCfgHandler 0070  
                   ??_USBCheckStdRequest 00E6                         ??_USBDeviceTasks 00EB  
                      ??_USBStallHandler 0070                __end_of_configDescriptor1 1069  
                                _garbage 012B                                  __ptext1 0BDF  
                                __ptext2 01AB                                  __ptext3 08B8  
                                __ptext4 085E                                  __ptext5 098C  
                                __ptext6 087A                                  __ptext7 0592  
                                __ptext8 0B2C                                  __ptext9 09B7  
                                _inPipes 00B8              _USBDeferOUTDataStagePackets 00C6  
                         ??_SlaveinitSPI 0070                             ??_USBSuspend 00DF  
                _APP_DeviceJoystickTasks 03F1                                  _spiTask 0BDF  
                     __end_of_USB_CD_Ptr 1160                                  clrloop0 0841  
                   end_of_initialization 0040                       __end_of_USB_SD_Ptr 115A  
                                memcpy@d 0079                                  memcpy@n 0072  
                                memcpy@s 0075                      _pBDTEntryEP0OutNext 00BF  
                                memset@c 0072                                  memset@k 007A  
                                memset@n 0074                                  memset@s 007C  
                        _USB1msTickCount 01A8                 ?_USBStdFeatureReqHandler 0070  
                  ??_USBStdSetCfgHandler 00DF                       __end_of_USBSuspend 087A  
                _USBCtrlEPAllowDataStage 0B80                              OUTOFWAITSPI 0C08  
                             _luminosity 012A                 _USBCtrlEPServiceComplete 06E6  
             _USBStatusStageEnabledFlag1 00C9               _USBStatusStageEnabledFlag2 00C8  
                     USBEnableEndpoint@p 007A                                _PORTCbits 000E  
                              _TRISCbits 008E                       _BothEP0OutUOWNsSet 00CC  
              USBStdSetCfgHandler@i_1457 00E2                USBConfigureEndpoint@EPNum 0075  
             ?_USBCtrlEPAllowStatusStage 0070      USER_USB_CALLBACK_EVENT_HANDLER@size 00DD  
                              _USTATcopy 00D7             __end_of_USBTransferOnePacket 1000  
                         __end_of_LED_On 091D                       USBDeviceInit@i_722 0073  
                 _USBCtrlTrfSetupHandler 0AE4                    __end_of_USBDeviceInit 063C  
  __end_of_USBIncrement1msInternalTimers 0897            _USBIncrement1msInternalTimers 087A  
                             LED_Off@led 0072                             _last_HAP_OUT 01BA  
              ??_APP_DeviceJoystickTasks 007B                           __end_of_memcpy 09E5  
                    __end_of_DISPLAY_rpt 1142                           __end_of_memset 0592  
                           _last_LED_OUT 01B8                             _last_DSP_OUT 01B6  
                      _USBBusIsSuspended 00CE                      start_initialization 000A  
                ?_USBStdGetStatusHandler 0070                    __end_of_BUTTON_Enable 085E  
          USBCtrlTrfRxService@byteToRead 0075             __end_of_USBConfigureEndpoint 0A9E  
        __end_of_USBStdFeatureReqHandler 01AB                                 ??_LED_On 0070  
      __end_of_USBCtrlEPAllowStatusStage 0D81                 __end_of_USBCtrlEPService 0B80  
              ??_USBCtrlEPAllowDataStage 0073                     __end_of_SlaveinitSPI 0840  
                         USBDeviceInit@i 0074                           USBDeviceInit@p 0071  
                 _pBDTEntryEP0OutCurrent 00D3                  USBTransferOnePacket@dir 0070  
                USBTransferOnePacket@len 0073     __end_of_APP_DeviceJoystickInitialize 098C  
           _APP_DeviceJoystickInitialize 0964                      _USBStdGetDscHandler 0E6E  
                            __pdataBANK3 01C1                                 ??_memcpy 0074  
                               ??_memset 0076                               memset@dest 0070  
                 _USBActiveConfiguration 00D8           __end_of_USBStdGetStatusHandler 0D0F  
                               ?_LED_Off 0070                                ___latbits 0002  
                          __pcstackBANK1 00D9                        _hap_OUT_pkt_ready 00C1  
                   ?_USBStdGetDscHandler 0070               __end_of_USBWakeFromSuspend 08D9  
                        _USBStallHandler 098C                             _pBDTEntryOut 01A0  
                            _DISPLAY_rpt 112C            ?_APP_DeviceJoystickInitialize 0070  
                              _idle_rate 00D6                                _haptic_in 00A0  
                   _USBTransferOnePacket 0F79                                 ?_spiTask 0070  
           __end_of_USBCtrlTrfOutHandler 0A1D                    ??_USBStdGetDscHandler 0070  
                            _ep_data_out 01AC            USBConfigureEndpoint@direction 0070  
                               _LATCbits 010E               __end_of_USBCheckHIDRequest 03F1  
             ??_USBCtrlEPServiceComplete 0075                                clear_ram0 0840  
                               _PIE2bits 0092                                 _PIR2bits 0012  
                               _UEP0bits 0E98                       _errors_ctr2_to_PIC 0129  
             _USBDeferINDataStagePackets 00C7                                 _UCONbits 0E8E  
                   _USBConfigureEndpoint 0A5B                        _display_pkt_ready 00C4  
                  ?_USBTransferOnePacket 0070                        _SYS_InterruptHigh 0004  
                           _RemoteWakeup 00CF                       ?_SYS_InterruptHigh 0070  
                __end_of_USBStallHandler 09B7                              _last_HAP_IN 01BC  
            ??_USBCtrlEPAllowStatusStage 0070              __end_of_USBStdSetCfgHandler 0F79  
                    ??_SYS_InterruptHigh 0070                              _leds_output 2130  
                     __end_of_device_dsc 1154                 ??_APP_LEDUpdateUSBStatus 0073  
                ?_USBCtrlTrfSetupHandler 0070                  USBStdGetStatusHandler@p 0072  
                              memcpy@tmp 0077                   USBTransferOnePacket@ep 0078  
                               _SetupPkt 0060                    ?_USBConfigureEndpoint 0070  
              __end_of_SYS_InterruptHigh 0008           ??_APP_DeviceJoystickInitialize 007D  
                           _SlaveinitSPI 0837                               _HAPTIC_rpt 1069  
                               __ptext10 0AE4                                 __ptext11 06E6  
                               __ptext20 02DA                                 __ptext12 0B80  
                               __ptext21 0897                                 __ptext13 0782  
                               __ptext30 09E5                                 __ptext22 091D  
                               __ptext14 0EF3                                 __ptext31 063C  
                               __ptext23 084C                                 __ptext15 04C8  
                               __ptext32 0D0F                                 __ptext24 0C3F  
                               __ptext16 0CA2                                 __ptext33 0DF6  
                               __ptext25 08FB                                 __ptext17 0E6E  
                               __ptext34 0D81                                 __ptext26 08D9  
                               __ptext18 0044                                 __ptext35 0837  
                               __ptext27 0964                                 __ptext19 0A9E  
                               __ptext36 03F1                                 __ptext28 093F  
                               __ptext37 0F79                                 __ptext29 0A5B  
         __end_of_USBCtrlTrfSetupHandler 0B2C                        ?_USBCtrlEPService 0070  
                     ??_USBCtrlEPService 00E9                      _USBCtrlTrfInHandler 0DF6  
                    BUTTON_Enable@button 0072                                 _outPipes 0120  
                   _USBCtrlTrfOutHandler 09E5                                 int$flags 007E  
              _USBCtrlEPAllowStatusStage 0D0F                               _LED_Enable 091D  
                 ??_USBTransferOnePacket 0074                             _pkt_requests 0128  
              _USBDeferStatusStagePacket 00CA                     ?_USBCtrlTrfInHandler 0070  
                               memcpy@d1 0078                                 memcpy@s1 0070  
          USBCtrlTrfTxService@byteToSend 0072                           __pstringtext10 115A  
                       ?_USBStallHandler 0070                 USBStdFeatureReqHandler@p 00E4  
                               intlevel1 0000  __end_of_USER_USB_CALLBACK_EVENT_HANDLER 0AE4  
      ??_USER_USB_CALLBACK_EVENT_HANDLER 007E         ?_USER_USB_CALLBACK_EVENT_HANDLER 00D9  
        _USER_USB_CALLBACK_EVENT_HANDLER 0A9E                   ??_USBConfigureEndpoint 0071  
                  ?_USBCtrlTrfOutHandler 0070                 ?_APP_DeviceJoystickTasks 0070  
                    _USBCtrlTrfRxService 063C                       _USBWakeFromSuspend 08B8  
                _USBStdFeatureReqHandler 0044                      _USBCtrlTrfTxService 0D81  
                         _ctrl2_from_PIC 0127                            __pstringtext1 1154  
                          __pstringtext2 115E                            __pstringtext3 1000  
                          __pstringtext4 1069                            __pstringtext5 10C0  
                          __pstringtext6 10F4                            __pstringtext7 1110  
                          __pstringtext8 112C                            __pstringtext9 1142  
                    ?_USBWakeFromSuspend 0070                    ??_USBCtrlTrfInHandler 0073  
                  _USBAlternateInterface 01BE                      USBEnableEndpoint@ep 007C  
                        _endpoint_number 00CD                           _display_output 21B0  
                   ?_USBCtrlTrfRxService 0070                 ?_USBCtrlEPAllowDataStage 0070  
                   ?_USBCtrlTrfTxService 0070             _USBStatusStageTimeoutCounter 00CB  
                   ??_USBWakeFromSuspend 00DF               USBTransferOnePacket@handle 0079  
                             _USB_CD_Ptr 115E  
