

Microchip MPLAB XC8 Assembler V2.36 build 20220127204148 
                                                                                               Tue Oct 25 22:14:24 2022

Microchip MPLAB XC8 C Compiler v2.36 (Free license) build 20220127204148 Og1 
     1                           	processor	16F1455
     2                           	pagewidth 120
     3                           	opt	flic
     4                           	psect	idataBANK3,global,class=CODE,delta=2,noexec
     5                           	psect	stringtext1,global,class=STRCODE,delta=2,noexec
     6                           	psect	stringtext2,global,class=STRCODE,delta=2,noexec
     7                           	psect	stringtext3,global,class=STRCODE,delta=2,noexec
     8                           	psect	stringtext4,global,class=STRCODE,delta=2,noexec
     9                           	psect	stringtext5,global,class=STRCODE,delta=2,noexec
    10                           	psect	stringtext6,global,class=STRCODE,delta=2,noexec
    11                           	psect	stringtext7,global,class=STRCODE,delta=2,noexec
    12                           	psect	stringtext8,global,class=STRCODE,delta=2,noexec
    13                           	psect	stringtext9,global,class=STRCODE,delta=2,noexec
    14                           	psect	stringtext10,global,class=STRCODE,delta=2,noexec
    15                           	psect	cinit,global,class=CODE,merge=1,delta=2
    16                           	psect	bssBANK1,global,class=BANK1,space=1,delta=1,noexec
    17                           	psect	bssBANK2,global,class=BANK2,space=1,delta=1,noexec
    18                           	psect	bssBANK3,global,class=BANK3,space=1,delta=1,noexec
    19                           	psect	dataBANK3,global,class=BANK3,space=1,delta=1,noexec
    20                           	psect	clrtext,global,class=CODE,delta=2
    21                           	psect	cstackBANK1,global,class=BANK1,space=1,delta=1,noexec
    22                           	psect	cstackCOMMON,global,class=COMMON,space=1,delta=1,noexec
    23                           	psect	maintext,global,class=CODE,merge=1,split=1,delta=2
    24                           	psect	text1,local,class=CODE,merge=1,delta=2
    25                           	psect	text2,local,class=CODE,merge=1,delta=2
    26                           	psect	text3,local,class=CODE,merge=1,delta=2
    27                           	psect	text4,local,class=CODE,merge=1,delta=2
    28                           	psect	text5,local,class=CODE,merge=1,delta=2
    29                           	psect	text6,local,class=CODE,merge=1,delta=2
    30                           	psect	text7,local,class=CODE,merge=1,delta=2
    31                           	psect	text8,local,class=CODE,merge=1,delta=2
    32                           	psect	text9,local,class=CODE,merge=1,delta=2
    33                           	psect	text10,local,class=CODE,merge=1,delta=2,group=2
    34                           	psect	text11,local,class=CODE,merge=1,delta=2
    35                           	psect	text12,local,class=CODE,merge=1,delta=2
    36                           	psect	text13,local,class=CODE,merge=1,delta=2
    37                           	psect	text14,local,class=CODE,merge=1,delta=2
    38                           	psect	text15,local,class=CODE,merge=1,delta=2
    39                           	psect	text16,local,class=CODE,merge=1,delta=2,group=2
    40                           	psect	text17,local,class=CODE,merge=1,delta=2
    41                           	psect	text18,local,class=CODE,merge=1,delta=2
    42                           	psect	text19,local,class=CODE,merge=1,delta=2
    43                           	psect	text20,local,class=CODE,merge=1,delta=2
    44                           	psect	text21,local,class=CODE,merge=1,delta=2
    45                           	psect	text22,local,class=CODE,merge=1,delta=2
    46                           	psect	text23,local,class=CODE,merge=1,delta=2
    47                           	psect	text24,local,class=CODE,merge=1,delta=2
    48                           	psect	text25,local,class=CODE,merge=1,delta=2
    49                           	psect	text26,local,class=CODE,merge=1,delta=2
    50                           	psect	text27,local,class=CODE,merge=1,delta=2
    51                           	psect	text28,local,class=CODE,merge=1,delta=2
    52                           	psect	text29,local,class=CODE,merge=1,delta=2
    53                           	psect	text30,local,class=CODE,merge=1,delta=2
    54                           	psect	text31,local,class=CODE,merge=1,delta=2
    55                           	psect	text32,local,class=CODE,merge=1,delta=2
    56                           	psect	text33,local,class=CODE,merge=1,delta=2
    57                           	psect	text34,local,class=CODE,merge=1,delta=2
    58                           	psect	text35,local,class=CODE,merge=1,delta=2
    59                           	psect	text36,local,class=CODE,merge=1,delta=2
    60                           	psect	text37,local,class=CODE,merge=1,delta=2
    61                           	psect	text38,local,class=CODE,merge=1,delta=2
    62                           	psect	intentry,global,class=CODE,delta=2
    63                           	psect	idloc,global,abs,ovrld,class=IDLOC,space=5,delta=2,noexec
    64                           	psect	config,global,abs,ovrld,class=CONFIG,space=4,delta=2,noexec
    65                           	dabs	1,0x320,16
    66                           	dabs	1,0x2C0,48
    67                           	dabs	1,0x220,33
    68                           	dabs	1,0x1E0,16
    69                           	dabs	1,0x20,64,_BDT
    70                           	dabs	1,0x68,8,_CtrlTrfData
    71                           	dabs	1,0x60,8,_SetupPkt
    72                           	dabs	1,0xA0,16,_haptic_in
    73                           	dabs	1,0x130,64,_haptic_out
    74                           	dabs	1,0x7E,2
    75  0000                     
    76                           ; Version 2.40
    77                           ; Generated 17/11/2021 GMT
    78                           ; 
    79                           ; Copyright © 2021, Microchip Technology Inc. and its subsidiaries ("Microchip")
    80                           ; All rights reserved.
    81                           ; 
    82                           ; This software is developed by Microchip Technology Inc. and its subsidiaries ("Microch
      +                          ip").
    83                           ; 
    84                           ; Redistribution and use in source and binary forms, with or without modification, are
    85                           ; permitted provided that the following conditions are met:
    86                           ; 
    87                           ;     1. Redistributions of source code must retain the above copyright notice, this lis
      +                          t of
    88                           ;        conditions and the following disclaimer.
    89                           ; 
    90                           ;     2. Redistributions in binary form must reproduce the above copyright notice, this 
      +                          list
    91                           ;        of conditions and the following disclaimer in the documentation and/or other
    92                           ;        materials provided with the distribution. Publication is not required when
    93                           ;        this file is used in an embedded application.
    94                           ; 
    95                           ;     3. Microchip's name may not be used to endorse or promote products derived from th
      +                          is
    96                           ;        software without specific prior written permission.
    97                           ; 
    98                           ; THIS SOFTWARE IS PROVIDED BY MICROCHIP "AS IS" AND ANY EXPRESS OR IMPLIED WARRANTIES,
    99                           ; INCLUDING, BUT NOT LIMITED TO, THE IMPLIED WARRANTIES OF MERCHANTABILITY AND FITNESS F
      +                          OR
   100                           ; PURPOSE ARE DISCLAIMED.  IN NO EVENT SHALL MICROCHIP BE LIABLE FOR ANY DIRECT, INDIREC
      +                          T,
   101                           ; INCIDENTAL, SPECIAL, EXEMPLARY, OR CONSEQUENTIAL DAMAGES (INCLUDING BUT NOT LIMITED TO
   102                           ; PROCUREMENT OF SUBSTITUTE GOODS OR SERVICES; LOSS OF USE, DATA OR PROFITS; OR BUSINESS
   103                           ; INTERRUPTION) HOWSOEVER CAUSED AND ON ANY THEORY OF LIABILITY, WHETHER IN CONTRACT, ST
      +                          RICT
   104                           ; LIABILITY, OR TORT (INCLUDING NEGLIGENCE OR OTHERWISE) ARISING IN ANY WAY OUT OF THE U
      +                          SE OF
   105                           ; THIS SOFTWARE, EVEN IF ADVISED OF THE POSSIBILITY OF SUCH DAMAGE.
   106                           ; 
   107                           ; 
   108                           ; Code-generator required, PIC16F1455 Definitions
   109                           ; 
   110                           ; SFR Addresses
   111  0000                     	;# 
   112  0001                     	;# 
   113  0002                     	;# 
   114  0003                     	;# 
   115  0004                     	;# 
   116  0005                     	;# 
   117  0006                     	;# 
   118  0007                     	;# 
   119  0008                     	;# 
   120  0009                     	;# 
   121  000A                     	;# 
   122  000B                     	;# 
   123  000C                     	;# 
   124  000E                     	;# 
   125  0011                     	;# 
   126  0012                     	;# 
   127  0015                     	;# 
   128  0016                     	;# 
   129  0016                     	;# 
   130  0017                     	;# 
   131  0018                     	;# 
   132  0019                     	;# 
   133  001A                     	;# 
   134  001B                     	;# 
   135  001C                     	;# 
   136  008C                     	;# 
   137  008E                     	;# 
   138  0091                     	;# 
   139  0092                     	;# 
   140  0095                     	;# 
   141  0096                     	;# 
   142  0097                     	;# 
   143  0098                     	;# 
   144  0099                     	;# 
   145  009A                     	;# 
   146  009B                     	;# 
   147  009B                     	;# 
   148  009C                     	;# 
   149  009D                     	;# 
   150  009E                     	;# 
   151  009F                     	;# 
   152  010C                     	;# 
   153  010E                     	;# 
   154  0111                     	;# 
   155  0112                     	;# 
   156  0113                     	;# 
   157  0114                     	;# 
   158  0115                     	;# 
   159  0116                     	;# 
   160  0117                     	;# 
   161  0118                     	;# 
   162  0119                     	;# 
   163  011D                     	;# 
   164  018C                     	;# 
   165  018E                     	;# 
   166  0191                     	;# 
   167  0191                     	;# 
   168  0192                     	;# 
   169  0193                     	;# 
   170  0193                     	;# 
   171  0194                     	;# 
   172  0195                     	;# 
   173  0196                     	;# 
   174  0197                     	;# 
   175  0199                     	;# 
   176  019A                     	;# 
   177  019B                     	;# 
   178  019B                     	;# 
   179  019C                     	;# 
   180  019D                     	;# 
   181  019E                     	;# 
   182  019F                     	;# 
   183  020C                     	;# 
   184  0211                     	;# 
   185  0211                     	;# 
   186  0212                     	;# 
   187  0212                     	;# 
   188  0213                     	;# 
   189  0213                     	;# 
   190  0214                     	;# 
   191  0214                     	;# 
   192  0215                     	;# 
   193  0215                     	;# 
   194  0215                     	;# 
   195  0216                     	;# 
   196  0216                     	;# 
   197  0217                     	;# 
   198  0217                     	;# 
   199  0391                     	;# 
   200  0392                     	;# 
   201  0393                     	;# 
   202  039A                     	;# 
   203  039B                     	;# 
   204  0611                     	;# 
   205  0612                     	;# 
   206  0613                     	;# 
   207  0613                     	;# 
   208  0614                     	;# 
   209  0615                     	;# 
   210  0616                     	;# 
   211  0616                     	;# 
   212  0691                     	;# 
   213  0692                     	;# 
   214  0693                     	;# 
   215  0694                     	;# 
   216  0695                     	;# 
   217  0E8E                     	;# 
   218  0E8F                     	;# 
   219  0E90                     	;# 
   220  0E91                     	;# 
   221  0E92                     	;# 
   222  0E93                     	;# 
   223  0E94                     	;# 
   224  0E94                     	;# 
   225  0E95                     	;# 
   226  0E96                     	;# 
   227  0E97                     	;# 
   228  0E98                     	;# 
   229  0E99                     	;# 
   230  0E9A                     	;# 
   231  0E9B                     	;# 
   232  0E9C                     	;# 
   233  0E9D                     	;# 
   234  0E9E                     	;# 
   235  0E9F                     	;# 
   236  0FE4                     	;# 
   237  0FE5                     	;# 
   238  0FE6                     	;# 
   239  0FE7                     	;# 
   240  0FE8                     	;# 
   241  0FE9                     	;# 
   242  0FEA                     	;# 
   243  0FEB                     	;# 
   244  0FED                     	;# 
   245  0FEE                     	;# 
   246  0FEF                     	;# 
   247  0000                     	;# 
   248  0001                     	;# 
   249  0002                     	;# 
   250  0003                     	;# 
   251  0004                     	;# 
   252  0005                     	;# 
   253  0006                     	;# 
   254  0007                     	;# 
   255  0008                     	;# 
   256  0009                     	;# 
   257  000A                     	;# 
   258  000B                     	;# 
   259  000C                     	;# 
   260  000E                     	;# 
   261  0011                     	;# 
   262  0012                     	;# 
   263  0015                     	;# 
   264  0016                     	;# 
   265  0016                     	;# 
   266  0017                     	;# 
   267  0018                     	;# 
   268  0019                     	;# 
   269  001A                     	;# 
   270  001B                     	;# 
   271  001C                     	;# 
   272  008C                     	;# 
   273  008E                     	;# 
   274  0091                     	;# 
   275  0092                     	;# 
   276  0095                     	;# 
   277  0096                     	;# 
   278  0097                     	;# 
   279  0098                     	;# 
   280  0099                     	;# 
   281  009A                     	;# 
   282  009B                     	;# 
   283  009B                     	;# 
   284  009C                     	;# 
   285  009D                     	;# 
   286  009E                     	;# 
   287  009F                     	;# 
   288  010C                     	;# 
   289  010E                     	;# 
   290  0111                     	;# 
   291  0112                     	;# 
   292  0113                     	;# 
   293  0114                     	;# 
   294  0115                     	;# 
   295  0116                     	;# 
   296  0117                     	;# 
   297  0118                     	;# 
   298  0119                     	;# 
   299  011D                     	;# 
   300  018C                     	;# 
   301  018E                     	;# 
   302  0191                     	;# 
   303  0191                     	;# 
   304  0192                     	;# 
   305  0193                     	;# 
   306  0193                     	;# 
   307  0194                     	;# 
   308  0195                     	;# 
   309  0196                     	;# 
   310  0197                     	;# 
   311  0199                     	;# 
   312  019A                     	;# 
   313  019B                     	;# 
   314  019B                     	;# 
   315  019C                     	;# 
   316  019D                     	;# 
   317  019E                     	;# 
   318  019F                     	;# 
   319  020C                     	;# 
   320  0211                     	;# 
   321  0211                     	;# 
   322  0212                     	;# 
   323  0212                     	;# 
   324  0213                     	;# 
   325  0213                     	;# 
   326  0214                     	;# 
   327  0214                     	;# 
   328  0215                     	;# 
   329  0215                     	;# 
   330  0215                     	;# 
   331  0216                     	;# 
   332  0216                     	;# 
   333  0217                     	;# 
   334  0217                     	;# 
   335  0391                     	;# 
   336  0392                     	;# 
   337  0393                     	;# 
   338  039A                     	;# 
   339  039B                     	;# 
   340  0611                     	;# 
   341  0612                     	;# 
   342  0613                     	;# 
   343  0613                     	;# 
   344  0614                     	;# 
   345  0615                     	;# 
   346  0616                     	;# 
   347  0616                     	;# 
   348  0691                     	;# 
   349  0692                     	;# 
   350  0693                     	;# 
   351  0694                     	;# 
   352  0695                     	;# 
   353  0E8E                     	;# 
   354  0E8F                     	;# 
   355  0E90                     	;# 
   356  0E91                     	;# 
   357  0E92                     	;# 
   358  0E93                     	;# 
   359  0E94                     	;# 
   360  0E94                     	;# 
   361  0E95                     	;# 
   362  0E96                     	;# 
   363  0E97                     	;# 
   364  0E98                     	;# 
   365  0E99                     	;# 
   366  0E9A                     	;# 
   367  0E9B                     	;# 
   368  0E9C                     	;# 
   369  0E9D                     	;# 
   370  0E9E                     	;# 
   371  0E9F                     	;# 
   372  0FE4                     	;# 
   373  0FE5                     	;# 
   374  0FE6                     	;# 
   375  0FE7                     	;# 
   376  0FE8                     	;# 
   377  0FE9                     	;# 
   378  0FEA                     	;# 
   379  0FEB                     	;# 
   380  0FED                     	;# 
   381  0FEE                     	;# 
   382  0FEF                     	;# 
   383  0000                     	;# 
   384  0001                     	;# 
   385  0002                     	;# 
   386  0003                     	;# 
   387  0004                     	;# 
   388  0005                     	;# 
   389  0006                     	;# 
   390  0007                     	;# 
   391  0008                     	;# 
   392  0009                     	;# 
   393  000A                     	;# 
   394  000B                     	;# 
   395  000C                     	;# 
   396  000E                     	;# 
   397  0011                     	;# 
   398  0012                     	;# 
   399  0015                     	;# 
   400  0016                     	;# 
   401  0016                     	;# 
   402  0017                     	;# 
   403  0018                     	;# 
   404  0019                     	;# 
   405  001A                     	;# 
   406  001B                     	;# 
   407  001C                     	;# 
   408  008C                     	;# 
   409  008E                     	;# 
   410  0091                     	;# 
   411  0092                     	;# 
   412  0095                     	;# 
   413  0096                     	;# 
   414  0097                     	;# 
   415  0098                     	;# 
   416  0099                     	;# 
   417  009A                     	;# 
   418  009B                     	;# 
   419  009B                     	;# 
   420  009C                     	;# 
   421  009D                     	;# 
   422  009E                     	;# 
   423  009F                     	;# 
   424  010C                     	;# 
   425  010E                     	;# 
   426  0111                     	;# 
   427  0112                     	;# 
   428  0113                     	;# 
   429  0114                     	;# 
   430  0115                     	;# 
   431  0116                     	;# 
   432  0117                     	;# 
   433  0118                     	;# 
   434  0119                     	;# 
   435  011D                     	;# 
   436  018C                     	;# 
   437  018E                     	;# 
   438  0191                     	;# 
   439  0191                     	;# 
   440  0192                     	;# 
   441  0193                     	;# 
   442  0193                     	;# 
   443  0194                     	;# 
   444  0195                     	;# 
   445  0196                     	;# 
   446  0197                     	;# 
   447  0199                     	;# 
   448  019A                     	;# 
   449  019B                     	;# 
   450  019B                     	;# 
   451  019C                     	;# 
   452  019D                     	;# 
   453  019E                     	;# 
   454  019F                     	;# 
   455  020C                     	;# 
   456  0211                     	;# 
   457  0211                     	;# 
   458  0212                     	;# 
   459  0212                     	;# 
   460  0213                     	;# 
   461  0213                     	;# 
   462  0214                     	;# 
   463  0214                     	;# 
   464  0215                     	;# 
   465  0215                     	;# 
   466  0215                     	;# 
   467  0216                     	;# 
   468  0216                     	;# 
   469  0217                     	;# 
   470  0217                     	;# 
   471  0391                     	;# 
   472  0392                     	;# 
   473  0393                     	;# 
   474  039A                     	;# 
   475  039B                     	;# 
   476  0611                     	;# 
   477  0612                     	;# 
   478  0613                     	;# 
   479  0613                     	;# 
   480  0614                     	;# 
   481  0615                     	;# 
   482  0616                     	;# 
   483  0616                     	;# 
   484  0691                     	;# 
   485  0692                     	;# 
   486  0693                     	;# 
   487  0694                     	;# 
   488  0695                     	;# 
   489  0E8E                     	;# 
   490  0E8F                     	;# 
   491  0E90                     	;# 
   492  0E91                     	;# 
   493  0E92                     	;# 
   494  0E93                     	;# 
   495  0E94                     	;# 
   496  0E94                     	;# 
   497  0E95                     	;# 
   498  0E96                     	;# 
   499  0E97                     	;# 
   500  0E98                     	;# 
   501  0E99                     	;# 
   502  0E9A                     	;# 
   503  0E9B                     	;# 
   504  0E9C                     	;# 
   505  0E9D                     	;# 
   506  0E9E                     	;# 
   507  0E9F                     	;# 
   508  0FE4                     	;# 
   509  0FE5                     	;# 
   510  0FE6                     	;# 
   511  0FE7                     	;# 
   512  0FE8                     	;# 
   513  0FE9                     	;# 
   514  0FEA                     	;# 
   515  0FEB                     	;# 
   516  0FED                     	;# 
   517  0FEE                     	;# 
   518  0FEF                     	;# 
   519  0000                     	;# 
   520  0001                     	;# 
   521  0002                     	;# 
   522  0003                     	;# 
   523  0004                     	;# 
   524  0005                     	;# 
   525  0006                     	;# 
   526  0007                     	;# 
   527  0008                     	;# 
   528  0009                     	;# 
   529  000A                     	;# 
   530  000B                     	;# 
   531  000C                     	;# 
   532  000E                     	;# 
   533  0011                     	;# 
   534  0012                     	;# 
   535  0015                     	;# 
   536  0016                     	;# 
   537  0016                     	;# 
   538  0017                     	;# 
   539  0018                     	;# 
   540  0019                     	;# 
   541  001A                     	;# 
   542  001B                     	;# 
   543  001C                     	;# 
   544  008C                     	;# 
   545  008E                     	;# 
   546  0091                     	;# 
   547  0092                     	;# 
   548  0095                     	;# 
   549  0096                     	;# 
   550  0097                     	;# 
   551  0098                     	;# 
   552  0099                     	;# 
   553  009A                     	;# 
   554  009B                     	;# 
   555  009B                     	;# 
   556  009C                     	;# 
   557  009D                     	;# 
   558  009E                     	;# 
   559  009F                     	;# 
   560  010C                     	;# 
   561  010E                     	;# 
   562  0111                     	;# 
   563  0112                     	;# 
   564  0113                     	;# 
   565  0114                     	;# 
   566  0115                     	;# 
   567  0116                     	;# 
   568  0117                     	;# 
   569  0118                     	;# 
   570  0119                     	;# 
   571  011D                     	;# 
   572  018C                     	;# 
   573  018E                     	;# 
   574  0191                     	;# 
   575  0191                     	;# 
   576  0192                     	;# 
   577  0193                     	;# 
   578  0193                     	;# 
   579  0194                     	;# 
   580  0195                     	;# 
   581  0196                     	;# 
   582  0197                     	;# 
   583  0199                     	;# 
   584  019A                     	;# 
   585  019B                     	;# 
   586  019B                     	;# 
   587  019C                     	;# 
   588  019D                     	;# 
   589  019E                     	;# 
   590  019F                     	;# 
   591  020C                     	;# 
   592  0211                     	;# 
   593  0211                     	;# 
   594  0212                     	;# 
   595  0212                     	;# 
   596  0213                     	;# 
   597  0213                     	;# 
   598  0214                     	;# 
   599  0214                     	;# 
   600  0215                     	;# 
   601  0215                     	;# 
   602  0215                     	;# 
   603  0216                     	;# 
   604  0216                     	;# 
   605  0217                     	;# 
   606  0217                     	;# 
   607  0391                     	;# 
   608  0392                     	;# 
   609  0393                     	;# 
   610  039A                     	;# 
   611  039B                     	;# 
   612  0611                     	;# 
   613  0612                     	;# 
   614  0613                     	;# 
   615  0613                     	;# 
   616  0614                     	;# 
   617  0615                     	;# 
   618  0616                     	;# 
   619  0616                     	;# 
   620  0691                     	;# 
   621  0692                     	;# 
   622  0693                     	;# 
   623  0694                     	;# 
   624  0695                     	;# 
   625  0E8E                     	;# 
   626  0E8F                     	;# 
   627  0E90                     	;# 
   628  0E91                     	;# 
   629  0E92                     	;# 
   630  0E93                     	;# 
   631  0E94                     	;# 
   632  0E94                     	;# 
   633  0E95                     	;# 
   634  0E96                     	;# 
   635  0E97                     	;# 
   636  0E98                     	;# 
   637  0E99                     	;# 
   638  0E9A                     	;# 
   639  0E9B                     	;# 
   640  0E9C                     	;# 
   641  0E9D                     	;# 
   642  0E9E                     	;# 
   643  0E9F                     	;# 
   644  0FE4                     	;# 
   645  0FE5                     	;# 
   646  0FE6                     	;# 
   647  0FE7                     	;# 
   648  0FE8                     	;# 
   649  0FE9                     	;# 
   650  0FEA                     	;# 
   651  0FEB                     	;# 
   652  0FED                     	;# 
   653  0FEE                     	;# 
   654  0FEF                     	;# 
   655  0000                     	;# 
   656  0001                     	;# 
   657  0002                     	;# 
   658  0003                     	;# 
   659  0004                     	;# 
   660  0005                     	;# 
   661  0006                     	;# 
   662  0007                     	;# 
   663  0008                     	;# 
   664  0009                     	;# 
   665  000A                     	;# 
   666  000B                     	;# 
   667  000C                     	;# 
   668  000E                     	;# 
   669  0011                     	;# 
   670  0012                     	;# 
   671  0015                     	;# 
   672  0016                     	;# 
   673  0016                     	;# 
   674  0017                     	;# 
   675  0018                     	;# 
   676  0019                     	;# 
   677  001A                     	;# 
   678  001B                     	;# 
   679  001C                     	;# 
   680  008C                     	;# 
   681  008E                     	;# 
   682  0091                     	;# 
   683  0092                     	;# 
   684  0095                     	;# 
   685  0096                     	;# 
   686  0097                     	;# 
   687  0098                     	;# 
   688  0099                     	;# 
   689  009A                     	;# 
   690  009B                     	;# 
   691  009B                     	;# 
   692  009C                     	;# 
   693  009D                     	;# 
   694  009E                     	;# 
   695  009F                     	;# 
   696  010C                     	;# 
   697  010E                     	;# 
   698  0111                     	;# 
   699  0112                     	;# 
   700  0113                     	;# 
   701  0114                     	;# 
   702  0115                     	;# 
   703  0116                     	;# 
   704  0117                     	;# 
   705  0118                     	;# 
   706  0119                     	;# 
   707  011D                     	;# 
   708  018C                     	;# 
   709  018E                     	;# 
   710  0191                     	;# 
   711  0191                     	;# 
   712  0192                     	;# 
   713  0193                     	;# 
   714  0193                     	;# 
   715  0194                     	;# 
   716  0195                     	;# 
   717  0196                     	;# 
   718  0197                     	;# 
   719  0199                     	;# 
   720  019A                     	;# 
   721  019B                     	;# 
   722  019B                     	;# 
   723  019C                     	;# 
   724  019D                     	;# 
   725  019E                     	;# 
   726  019F                     	;# 
   727  020C                     	;# 
   728  0211                     	;# 
   729  0211                     	;# 
   730  0212                     	;# 
   731  0212                     	;# 
   732  0213                     	;# 
   733  0213                     	;# 
   734  0214                     	;# 
   735  0214                     	;# 
   736  0215                     	;# 
   737  0215                     	;# 
   738  0215                     	;# 
   739  0216                     	;# 
   740  0216                     	;# 
   741  0217                     	;# 
   742  0217                     	;# 
   743  0391                     	;# 
   744  0392                     	;# 
   745  0393                     	;# 
   746  039A                     	;# 
   747  039B                     	;# 
   748  0611                     	;# 
   749  0612                     	;# 
   750  0613                     	;# 
   751  0613                     	;# 
   752  0614                     	;# 
   753  0615                     	;# 
   754  0616                     	;# 
   755  0616                     	;# 
   756  0691                     	;# 
   757  0692                     	;# 
   758  0693                     	;# 
   759  0694                     	;# 
   760  0695                     	;# 
   761  0E8E                     	;# 
   762  0E8F                     	;# 
   763  0E90                     	;# 
   764  0E91                     	;# 
   765  0E92                     	;# 
   766  0E93                     	;# 
   767  0E94                     	;# 
   768  0E94                     	;# 
   769  0E95                     	;# 
   770  0E96                     	;# 
   771  0E97                     	;# 
   772  0E98                     	;# 
   773  0E99                     	;# 
   774  0E9A                     	;# 
   775  0E9B                     	;# 
   776  0E9C                     	;# 
   777  0E9D                     	;# 
   778  0E9E                     	;# 
   779  0E9F                     	;# 
   780  0FE4                     	;# 
   781  0FE5                     	;# 
   782  0FE6                     	;# 
   783  0FE7                     	;# 
   784  0FE8                     	;# 
   785  0FE9                     	;# 
   786  0FEA                     	;# 
   787  0FEB                     	;# 
   788  0FED                     	;# 
   789  0FEE                     	;# 
   790  0FEF                     	;# 
   791  0000                     	;# 
   792  0001                     	;# 
   793  0002                     	;# 
   794  0003                     	;# 
   795  0004                     	;# 
   796  0005                     	;# 
   797  0006                     	;# 
   798  0007                     	;# 
   799  0008                     	;# 
   800  0009                     	;# 
   801  000A                     	;# 
   802  000B                     	;# 
   803  000C                     	;# 
   804  000E                     	;# 
   805  0011                     	;# 
   806  0012                     	;# 
   807  0015                     	;# 
   808  0016                     	;# 
   809  0016                     	;# 
   810  0017                     	;# 
   811  0018                     	;# 
   812  0019                     	;# 
   813  001A                     	;# 
   814  001B                     	;# 
   815  001C                     	;# 
   816  008C                     	;# 
   817  008E                     	;# 
   818  0091                     	;# 
   819  0092                     	;# 
   820  0095                     	;# 
   821  0096                     	;# 
   822  0097                     	;# 
   823  0098                     	;# 
   824  0099                     	;# 
   825  009A                     	;# 
   826  009B                     	;# 
   827  009B                     	;# 
   828  009C                     	;# 
   829  009D                     	;# 
   830  009E                     	;# 
   831  009F                     	;# 
   832  010C                     	;# 
   833  010E                     	;# 
   834  0111                     	;# 
   835  0112                     	;# 
   836  0113                     	;# 
   837  0114                     	;# 
   838  0115                     	;# 
   839  0116                     	;# 
   840  0117                     	;# 
   841  0118                     	;# 
   842  0119                     	;# 
   843  011D                     	;# 
   844  018C                     	;# 
   845  018E                     	;# 
   846  0191                     	;# 
   847  0191                     	;# 
   848  0192                     	;# 
   849  0193                     	;# 
   850  0193                     	;# 
   851  0194                     	;# 
   852  0195                     	;# 
   853  0196                     	;# 
   854  0197                     	;# 
   855  0199                     	;# 
   856  019A                     	;# 
   857  019B                     	;# 
   858  019B                     	;# 
   859  019C                     	;# 
   860  019D                     	;# 
   861  019E                     	;# 
   862  019F                     	;# 
   863  020C                     	;# 
   864  0211                     	;# 
   865  0211                     	;# 
   866  0212                     	;# 
   867  0212                     	;# 
   868  0213                     	;# 
   869  0213                     	;# 
   870  0214                     	;# 
   871  0214                     	;# 
   872  0215                     	;# 
   873  0215                     	;# 
   874  0215                     	;# 
   875  0216                     	;# 
   876  0216                     	;# 
   877  0217                     	;# 
   878  0217                     	;# 
   879  0391                     	;# 
   880  0392                     	;# 
   881  0393                     	;# 
   882  039A                     	;# 
   883  039B                     	;# 
   884  0611                     	;# 
   885  0612                     	;# 
   886  0613                     	;# 
   887  0613                     	;# 
   888  0614                     	;# 
   889  0615                     	;# 
   890  0616                     	;# 
   891  0616                     	;# 
   892  0691                     	;# 
   893  0692                     	;# 
   894  0693                     	;# 
   895  0694                     	;# 
   896  0695                     	;# 
   897  0E8E                     	;# 
   898  0E8F                     	;# 
   899  0E90                     	;# 
   900  0E91                     	;# 
   901  0E92                     	;# 
   902  0E93                     	;# 
   903  0E94                     	;# 
   904  0E94                     	;# 
   905  0E95                     	;# 
   906  0E96                     	;# 
   907  0E97                     	;# 
   908  0E98                     	;# 
   909  0E99                     	;# 
   910  0E9A                     	;# 
   911  0E9B                     	;# 
   912  0E9C                     	;# 
   913  0E9D                     	;# 
   914  0E9E                     	;# 
   915  0E9F                     	;# 
   916  0FE4                     	;# 
   917  0FE5                     	;# 
   918  0FE6                     	;# 
   919  0FE7                     	;# 
   920  0FE8                     	;# 
   921  0FE9                     	;# 
   922  0FEA                     	;# 
   923  0FEB                     	;# 
   924  0FED                     	;# 
   925  0FEE                     	;# 
   926  0FEF                     	;# 
   927  0000                     	;# 
   928  0001                     	;# 
   929  0002                     	;# 
   930  0003                     	;# 
   931  0004                     	;# 
   932  0005                     	;# 
   933  0006                     	;# 
   934  0007                     	;# 
   935  0008                     	;# 
   936  0009                     	;# 
   937  000A                     	;# 
   938  000B                     	;# 
   939  000C                     	;# 
   940  000E                     	;# 
   941  0011                     	;# 
   942  0012                     	;# 
   943  0015                     	;# 
   944  0016                     	;# 
   945  0016                     	;# 
   946  0017                     	;# 
   947  0018                     	;# 
   948  0019                     	;# 
   949  001A                     	;# 
   950  001B                     	;# 
   951  001C                     	;# 
   952  008C                     	;# 
   953  008E                     	;# 
   954  0091                     	;# 
   955  0092                     	;# 
   956  0095                     	;# 
   957  0096                     	;# 
   958  0097                     	;# 
   959  0098                     	;# 
   960  0099                     	;# 
   961  009A                     	;# 
   962  009B                     	;# 
   963  009B                     	;# 
   964  009C                     	;# 
   965  009D                     	;# 
   966  009E                     	;# 
   967  009F                     	;# 
   968  010C                     	;# 
   969  010E                     	;# 
   970  0111                     	;# 
   971  0112                     	;# 
   972  0113                     	;# 
   973  0114                     	;# 
   974  0115                     	;# 
   975  0116                     	;# 
   976  0117                     	;# 
   977  0118                     	;# 
   978  0119                     	;# 
   979  011D                     	;# 
   980  018C                     	;# 
   981  018E                     	;# 
   982  0191                     	;# 
   983  0191                     	;# 
   984  0192                     	;# 
   985  0193                     	;# 
   986  0193                     	;# 
   987  0194                     	;# 
   988  0195                     	;# 
   989  0196                     	;# 
   990  0197                     	;# 
   991  0199                     	;# 
   992  019A                     	;# 
   993  019B                     	;# 
   994  019B                     	;# 
   995  019C                     	;# 
   996  019D                     	;# 
   997  019E                     	;# 
   998  019F                     	;# 
   999  020C                     	;# 
  1000  0211                     	;# 
  1001  0211                     	;# 
  1002  0212                     	;# 
  1003  0212                     	;# 
  1004  0213                     	;# 
  1005  0213                     	;# 
  1006  0214                     	;# 
  1007  0214                     	;# 
  1008  0215                     	;# 
  1009  0215                     	;# 
  1010  0215                     	;# 
  1011  0216                     	;# 
  1012  0216                     	;# 
  1013  0217                     	;# 
  1014  0217                     	;# 
  1015  0391                     	;# 
  1016  0392                     	;# 
  1017  0393                     	;# 
  1018  039A                     	;# 
  1019  039B                     	;# 
  1020  0611                     	;# 
  1021  0612                     	;# 
  1022  0613                     	;# 
  1023  0613                     	;# 
  1024  0614                     	;# 
  1025  0615                     	;# 
  1026  0616                     	;# 
  1027  0616                     	;# 
  1028  0691                     	;# 
  1029  0692                     	;# 
  1030  0693                     	;# 
  1031  0694                     	;# 
  1032  0695                     	;# 
  1033  0E8E                     	;# 
  1034  0E8F                     	;# 
  1035  0E90                     	;# 
  1036  0E91                     	;# 
  1037  0E92                     	;# 
  1038  0E93                     	;# 
  1039  0E94                     	;# 
  1040  0E94                     	;# 
  1041  0E95                     	;# 
  1042  0E96                     	;# 
  1043  0E97                     	;# 
  1044  0E98                     	;# 
  1045  0E99                     	;# 
  1046  0E9A                     	;# 
  1047  0E9B                     	;# 
  1048  0E9C                     	;# 
  1049  0E9D                     	;# 
  1050  0E9E                     	;# 
  1051  0E9F                     	;# 
  1052  0FE4                     	;# 
  1053  0FE5                     	;# 
  1054  0FE6                     	;# 
  1055  0FE7                     	;# 
  1056  0FE8                     	;# 
  1057  0FE9                     	;# 
  1058  0FEA                     	;# 
  1059  0FEB                     	;# 
  1060  0FED                     	;# 
  1061  0FEE                     	;# 
  1062  0FEF                     	;# 
  1063  0000                     	;# 
  1064  0001                     	;# 
  1065  0002                     	;# 
  1066  0003                     	;# 
  1067  0004                     	;# 
  1068  0005                     	;# 
  1069  0006                     	;# 
  1070  0007                     	;# 
  1071  0008                     	;# 
  1072  0009                     	;# 
  1073  000A                     	;# 
  1074  000B                     	;# 
  1075  000C                     	;# 
  1076  000E                     	;# 
  1077  0011                     	;# 
  1078  0012                     	;# 
  1079  0015                     	;# 
  1080  0016                     	;# 
  1081  0016                     	;# 
  1082  0017                     	;# 
  1083  0018                     	;# 
  1084  0019                     	;# 
  1085  001A                     	;# 
  1086  001B                     	;# 
  1087  001C                     	;# 
  1088  008C                     	;# 
  1089  008E                     	;# 
  1090  0091                     	;# 
  1091  0092                     	;# 
  1092  0095                     	;# 
  1093  0096                     	;# 
  1094  0097                     	;# 
  1095  0098                     	;# 
  1096  0099                     	;# 
  1097  009A                     	;# 
  1098  009B                     	;# 
  1099  009B                     	;# 
  1100  009C                     	;# 
  1101  009D                     	;# 
  1102  009E                     	;# 
  1103  009F                     	;# 
  1104  010C                     	;# 
  1105  010E                     	;# 
  1106  0111                     	;# 
  1107  0112                     	;# 
  1108  0113                     	;# 
  1109  0114                     	;# 
  1110  0115                     	;# 
  1111  0116                     	;# 
  1112  0117                     	;# 
  1113  0118                     	;# 
  1114  0119                     	;# 
  1115  011D                     	;# 
  1116  018C                     	;# 
  1117  018E                     	;# 
  1118  0191                     	;# 
  1119  0191                     	;# 
  1120  0192                     	;# 
  1121  0193                     	;# 
  1122  0193                     	;# 
  1123  0194                     	;# 
  1124  0195                     	;# 
  1125  0196                     	;# 
  1126  0197                     	;# 
  1127  0199                     	;# 
  1128  019A                     	;# 
  1129  019B                     	;# 
  1130  019B                     	;# 
  1131  019C                     	;# 
  1132  019D                     	;# 
  1133  019E                     	;# 
  1134  019F                     	;# 
  1135  020C                     	;# 
  1136  0211                     	;# 
  1137  0211                     	;# 
  1138  0212                     	;# 
  1139  0212                     	;# 
  1140  0213                     	;# 
  1141  0213                     	;# 
  1142  0214                     	;# 
  1143  0214                     	;# 
  1144  0215                     	;# 
  1145  0215                     	;# 
  1146  0215                     	;# 
  1147  0216                     	;# 
  1148  0216                     	;# 
  1149  0217                     	;# 
  1150  0217                     	;# 
  1151  0391                     	;# 
  1152  0392                     	;# 
  1153  0393                     	;# 
  1154  039A                     	;# 
  1155  039B                     	;# 
  1156  0611                     	;# 
  1157  0612                     	;# 
  1158  0613                     	;# 
  1159  0613                     	;# 
  1160  0614                     	;# 
  1161  0615                     	;# 
  1162  0616                     	;# 
  1163  0616                     	;# 
  1164  0691                     	;# 
  1165  0692                     	;# 
  1166  0693                     	;# 
  1167  0694                     	;# 
  1168  0695                     	;# 
  1169  0E8E                     	;# 
  1170  0E8F                     	;# 
  1171  0E90                     	;# 
  1172  0E91                     	;# 
  1173  0E92                     	;# 
  1174  0E93                     	;# 
  1175  0E94                     	;# 
  1176  0E94                     	;# 
  1177  0E95                     	;# 
  1178  0E96                     	;# 
  1179  0E97                     	;# 
  1180  0E98                     	;# 
  1181  0E99                     	;# 
  1182  0E9A                     	;# 
  1183  0E9B                     	;# 
  1184  0E9C                     	;# 
  1185  0E9D                     	;# 
  1186  0E9E                     	;# 
  1187  0E9F                     	;# 
  1188  0FE4                     	;# 
  1189  0FE5                     	;# 
  1190  0FE6                     	;# 
  1191  0FE7                     	;# 
  1192  0FE8                     	;# 
  1193  0FE9                     	;# 
  1194  0FEA                     	;# 
  1195  0FEB                     	;# 
  1196  0FED                     	;# 
  1197  0FEE                     	;# 
  1198  0FEF                     	;# 
  1199  0000                     	;# 
  1200  0001                     	;# 
  1201  0002                     	;# 
  1202  0003                     	;# 
  1203  0004                     	;# 
  1204  0005                     	;# 
  1205  0006                     	;# 
  1206  0007                     	;# 
  1207  0008                     	;# 
  1208  0009                     	;# 
  1209  000A                     	;# 
  1210  000B                     	;# 
  1211  000C                     	;# 
  1212  000E                     	;# 
  1213  0011                     	;# 
  1214  0012                     	;# 
  1215  0015                     	;# 
  1216  0016                     	;# 
  1217  0016                     	;# 
  1218  0017                     	;# 
  1219  0018                     	;# 
  1220  0019                     	;# 
  1221  001A                     	;# 
  1222  001B                     	;# 
  1223  001C                     	;# 
  1224  008C                     	;# 
  1225  008E                     	;# 
  1226  0091                     	;# 
  1227  0092                     	;# 
  1228  0095                     	;# 
  1229  0096                     	;# 
  1230  0097                     	;# 
  1231  0098                     	;# 
  1232  0099                     	;# 
  1233  009A                     	;# 
  1234  009B                     	;# 
  1235  009B                     	;# 
  1236  009C                     	;# 
  1237  009D                     	;# 
  1238  009E                     	;# 
  1239  009F                     	;# 
  1240  010C                     	;# 
  1241  010E                     	;# 
  1242  0111                     	;# 
  1243  0112                     	;# 
  1244  0113                     	;# 
  1245  0114                     	;# 
  1246  0115                     	;# 
  1247  0116                     	;# 
  1248  0117                     	;# 
  1249  0118                     	;# 
  1250  0119                     	;# 
  1251  011D                     	;# 
  1252  018C                     	;# 
  1253  018E                     	;# 
  1254  0191                     	;# 
  1255  0191                     	;# 
  1256  0192                     	;# 
  1257  0193                     	;# 
  1258  0193                     	;# 
  1259  0194                     	;# 
  1260  0195                     	;# 
  1261  0196                     	;# 
  1262  0197                     	;# 
  1263  0199                     	;# 
  1264  019A                     	;# 
  1265  019B                     	;# 
  1266  019B                     	;# 
  1267  019C                     	;# 
  1268  019D                     	;# 
  1269  019E                     	;# 
  1270  019F                     	;# 
  1271  020C                     	;# 
  1272  0211                     	;# 
  1273  0211                     	;# 
  1274  0212                     	;# 
  1275  0212                     	;# 
  1276  0213                     	;# 
  1277  0213                     	;# 
  1278  0214                     	;# 
  1279  0214                     	;# 
  1280  0215                     	;# 
  1281  0215                     	;# 
  1282  0215                     	;# 
  1283  0216                     	;# 
  1284  0216                     	;# 
  1285  0217                     	;# 
  1286  0217                     	;# 
  1287  0391                     	;# 
  1288  0392                     	;# 
  1289  0393                     	;# 
  1290  039A                     	;# 
  1291  039B                     	;# 
  1292  0611                     	;# 
  1293  0612                     	;# 
  1294  0613                     	;# 
  1295  0613                     	;# 
  1296  0614                     	;# 
  1297  0615                     	;# 
  1298  0616                     	;# 
  1299  0616                     	;# 
  1300  0691                     	;# 
  1301  0692                     	;# 
  1302  0693                     	;# 
  1303  0694                     	;# 
  1304  0695                     	;# 
  1305  0E8E                     	;# 
  1306  0E8F                     	;# 
  1307  0E90                     	;# 
  1308  0E91                     	;# 
  1309  0E92                     	;# 
  1310  0E93                     	;# 
  1311  0E94                     	;# 
  1312  0E94                     	;# 
  1313  0E95                     	;# 
  1314  0E96                     	;# 
  1315  0E97                     	;# 
  1316  0E98                     	;# 
  1317  0E99                     	;# 
  1318  0E9A                     	;# 
  1319  0E9B                     	;# 
  1320  0E9C                     	;# 
  1321  0E9D                     	;# 
  1322  0E9E                     	;# 
  1323  0E9F                     	;# 
  1324  0FE4                     	;# 
  1325  0FE5                     	;# 
  1326  0FE6                     	;# 
  1327  0FE7                     	;# 
  1328  0FE8                     	;# 
  1329  0FE9                     	;# 
  1330  0FEA                     	;# 
  1331  0FEB                     	;# 
  1332  0FED                     	;# 
  1333  0FEE                     	;# 
  1334  0FEF                     	;# 
  1335  0000                     	;# 
  1336  0001                     	;# 
  1337  0002                     	;# 
  1338  0003                     	;# 
  1339  0004                     	;# 
  1340  0005                     	;# 
  1341  0006                     	;# 
  1342  0007                     	;# 
  1343  0008                     	;# 
  1344  0009                     	;# 
  1345  000A                     	;# 
  1346  000B                     	;# 
  1347  000C                     	;# 
  1348  000E                     	;# 
  1349  0011                     	;# 
  1350  0012                     	;# 
  1351  0015                     	;# 
  1352  0016                     	;# 
  1353  0016                     	;# 
  1354  0017                     	;# 
  1355  0018                     	;# 
  1356  0019                     	;# 
  1357  001A                     	;# 
  1358  001B                     	;# 
  1359  001C                     	;# 
  1360  008C                     	;# 
  1361  008E                     	;# 
  1362  0091                     	;# 
  1363  0092                     	;# 
  1364  0095                     	;# 
  1365  0096                     	;# 
  1366  0097                     	;# 
  1367  0098                     	;# 
  1368  0099                     	;# 
  1369  009A                     	;# 
  1370  009B                     	;# 
  1371  009B                     	;# 
  1372  009C                     	;# 
  1373  009D                     	;# 
  1374  009E                     	;# 
  1375  009F                     	;# 
  1376  010C                     	;# 
  1377  010E                     	;# 
  1378  0111                     	;# 
  1379  0112                     	;# 
  1380  0113                     	;# 
  1381  0114                     	;# 
  1382  0115                     	;# 
  1383  0116                     	;# 
  1384  0117                     	;# 
  1385  0118                     	;# 
  1386  0119                     	;# 
  1387  011D                     	;# 
  1388  018C                     	;# 
  1389  018E                     	;# 
  1390  0191                     	;# 
  1391  0191                     	;# 
  1392  0192                     	;# 
  1393  0193                     	;# 
  1394  0193                     	;# 
  1395  0194                     	;# 
  1396  0195                     	;# 
  1397  0196                     	;# 
  1398  0197                     	;# 
  1399  0199                     	;# 
  1400  019A                     	;# 
  1401  019B                     	;# 
  1402  019B                     	;# 
  1403  019C                     	;# 
  1404  019D                     	;# 
  1405  019E                     	;# 
  1406  019F                     	;# 
  1407  020C                     	;# 
  1408  0211                     	;# 
  1409  0211                     	;# 
  1410  0212                     	;# 
  1411  0212                     	;# 
  1412  0213                     	;# 
  1413  0213                     	;# 
  1414  0214                     	;# 
  1415  0214                     	;# 
  1416  0215                     	;# 
  1417  0215                     	;# 
  1418  0215                     	;# 
  1419  0216                     	;# 
  1420  0216                     	;# 
  1421  0217                     	;# 
  1422  0217                     	;# 
  1423  0391                     	;# 
  1424  0392                     	;# 
  1425  0393                     	;# 
  1426  039A                     	;# 
  1427  039B                     	;# 
  1428  0611                     	;# 
  1429  0612                     	;# 
  1430  0613                     	;# 
  1431  0613                     	;# 
  1432  0614                     	;# 
  1433  0615                     	;# 
  1434  0616                     	;# 
  1435  0616                     	;# 
  1436  0691                     	;# 
  1437  0692                     	;# 
  1438  0693                     	;# 
  1439  0694                     	;# 
  1440  0695                     	;# 
  1441  0E8E                     	;# 
  1442  0E8F                     	;# 
  1443  0E90                     	;# 
  1444  0E91                     	;# 
  1445  0E92                     	;# 
  1446  0E93                     	;# 
  1447  0E94                     	;# 
  1448  0E94                     	;# 
  1449  0E95                     	;# 
  1450  0E96                     	;# 
  1451  0E97                     	;# 
  1452  0E98                     	;# 
  1453  0E99                     	;# 
  1454  0E9A                     	;# 
  1455  0E9B                     	;# 
  1456  0E9C                     	;# 
  1457  0E9D                     	;# 
  1458  0E9E                     	;# 
  1459  0E9F                     	;# 
  1460  0FE4                     	;# 
  1461  0FE5                     	;# 
  1462  0FE6                     	;# 
  1463  0FE7                     	;# 
  1464  0FE8                     	;# 
  1465  0FE9                     	;# 
  1466  0FEA                     	;# 
  1467  0FEB                     	;# 
  1468  0FED                     	;# 
  1469  0FEE                     	;# 
  1470  0FEF                     	;# 
  1471  0000                     	;# 
  1472  0001                     	;# 
  1473  0002                     	;# 
  1474  0003                     	;# 
  1475  0004                     	;# 
  1476  0005                     	;# 
  1477  0006                     	;# 
  1478  0007                     	;# 
  1479  0008                     	;# 
  1480  0009                     	;# 
  1481  000A                     	;# 
  1482  000B                     	;# 
  1483  000C                     	;# 
  1484  000E                     	;# 
  1485  0011                     	;# 
  1486  0012                     	;# 
  1487  0015                     	;# 
  1488  0016                     	;# 
  1489  0016                     	;# 
  1490  0017                     	;# 
  1491  0018                     	;# 
  1492  0019                     	;# 
  1493  001A                     	;# 
  1494  001B                     	;# 
  1495  001C                     	;# 
  1496  008C                     	;# 
  1497  008E                     	;# 
  1498  0091                     	;# 
  1499  0092                     	;# 
  1500  0095                     	;# 
  1501  0096                     	;# 
  1502  0097                     	;# 
  1503  0098                     	;# 
  1504  0099                     	;# 
  1505  009A                     	;# 
  1506  009B                     	;# 
  1507  009B                     	;# 
  1508  009C                     	;# 
  1509  009D                     	;# 
  1510  009E                     	;# 
  1511  009F                     	;# 
  1512  010C                     	;# 
  1513  010E                     	;# 
  1514  0111                     	;# 
  1515  0112                     	;# 
  1516  0113                     	;# 
  1517  0114                     	;# 
  1518  0115                     	;# 
  1519  0116                     	;# 
  1520  0117                     	;# 
  1521  0118                     	;# 
  1522  0119                     	;# 
  1523  011D                     	;# 
  1524  018C                     	;# 
  1525  018E                     	;# 
  1526  0191                     	;# 
  1527  0191                     	;# 
  1528  0192                     	;# 
  1529  0193                     	;# 
  1530  0193                     	;# 
  1531  0194                     	;# 
  1532  0195                     	;# 
  1533  0196                     	;# 
  1534  0197                     	;# 
  1535  0199                     	;# 
  1536  019A                     	;# 
  1537  019B                     	;# 
  1538  019B                     	;# 
  1539  019C                     	;# 
  1540  019D                     	;# 
  1541  019E                     	;# 
  1542  019F                     	;# 
  1543  020C                     	;# 
  1544  0211                     	;# 
  1545  0211                     	;# 
  1546  0212                     	;# 
  1547  0212                     	;# 
  1548  0213                     	;# 
  1549  0213                     	;# 
  1550  0214                     	;# 
  1551  0214                     	;# 
  1552  0215                     	;# 
  1553  0215                     	;# 
  1554  0215                     	;# 
  1555  0216                     	;# 
  1556  0216                     	;# 
  1557  0217                     	;# 
  1558  0217                     	;# 
  1559  0391                     	;# 
  1560  0392                     	;# 
  1561  0393                     	;# 
  1562  039A                     	;# 
  1563  039B                     	;# 
  1564  0611                     	;# 
  1565  0612                     	;# 
  1566  0613                     	;# 
  1567  0613                     	;# 
  1568  0614                     	;# 
  1569  0615                     	;# 
  1570  0616                     	;# 
  1571  0616                     	;# 
  1572  0691                     	;# 
  1573  0692                     	;# 
  1574  0693                     	;# 
  1575  0694                     	;# 
  1576  0695                     	;# 
  1577  0E8E                     	;# 
  1578  0E8F                     	;# 
  1579  0E90                     	;# 
  1580  0E91                     	;# 
  1581  0E92                     	;# 
  1582  0E93                     	;# 
  1583  0E94                     	;# 
  1584  0E94                     	;# 
  1585  0E95                     	;# 
  1586  0E96                     	;# 
  1587  0E97                     	;# 
  1588  0E98                     	;# 
  1589  0E99                     	;# 
  1590  0E9A                     	;# 
  1591  0E9B                     	;# 
  1592  0E9C                     	;# 
  1593  0E9D                     	;# 
  1594  0E9E                     	;# 
  1595  0E9F                     	;# 
  1596  0FE4                     	;# 
  1597  0FE5                     	;# 
  1598  0FE6                     	;# 
  1599  0FE7                     	;# 
  1600  0FE8                     	;# 
  1601  0FE9                     	;# 
  1602  0FEA                     	;# 
  1603  0FEB                     	;# 
  1604  0FED                     	;# 
  1605  0FEE                     	;# 
  1606  0FEF                     	;_leds_output
  1607                           
  1608                           	psect	idataBANK3
  1609  172D                     __pidataBANK3:
  1610                           
  1611                           ;initializer for _v
  1612  172D  3441               	retlw	65
  1613  172E  3442               	retlw	66
  1614  172F  3443               	retlw	67
  1615  1730  3444               	retlw	68
  1616  1731  3445               	retlw	69
  1617  1732  3446               	retlw	70
  1618  1733  3447               	retlw	71
  1619  1734  3448               	retlw	72
  1620                           
  1621                           	psect	stringtext1
  1622  1860                     __pstringtext1:
  1623  1860                     _USB_SD_Ptr:
  1624  1860  3466               	retlw	low (_sd000| (0+32768))
  1625  1861  3498               	retlw	high (_sd000| (0+32768))
  1626  1862  34C0               	retlw	low (_sd001| (0+32768))
  1627  1863  3490               	retlw	high (_sd001| (0+32768))
  1628  1864  341C               	retlw	low (_sd002| (0+32768))
  1629  1865  3498               	retlw	high (_sd002| (0+32768))
  1630  1866                     __end_of_USB_SD_Ptr:
  1631                           
  1632                           	psect	stringtext2
  1633  186A                     __pstringtext2:
  1634  186A                     _USB_CD_Ptr:
  1635  186A  3400               	retlw	low (_configDescriptor1| (0+32768))
  1636  186B  3490               	retlw	high (_configDescriptor1| (0+32768))
  1637  186C                     __end_of_USB_CD_Ptr:
  1638                           
  1639                           	psect	stringtext3
  1640  1000                     __pstringtext3:
  1641  1000                     _configDescriptor1:
  1642  1000  3409               	retlw	9
  1643  1001  3402               	retlw	2
  1644  1002  3469               	retlw	105
  1645  1003  3400               	retlw	0
  1646  1004  3403               	retlw	3
  1647  1005  3401               	retlw	1
  1648  1006  3400               	retlw	0
  1649  1007  34C0               	retlw	192
  1650  1008  34FA               	retlw	250
  1651  1009  3409               	retlw	9
  1652  100A  3404               	retlw	4
  1653  100B  3400               	retlw	0
  1654  100C  3400               	retlw	0
  1655  100D  3402               	retlw	2
  1656  100E  3403               	retlw	3
  1657  100F  3400               	retlw	0
  1658  1010  3400               	retlw	0
  1659  1011  3400               	retlw	0
  1660  1012  3409               	retlw	9
  1661  1013  3421               	retlw	33
  1662  1014  3411               	retlw	17
  1663  1015  3401               	retlw	1
  1664  1016  3400               	retlw	0
  1665  1017  3401               	retlw	1
  1666  1018  3422               	retlw	34
  1667  1019  3457               	retlw	87
  1668  101A  3400               	retlw	0
  1669  101B  3407               	retlw	7
  1670  101C  3405               	retlw	5
  1671  101D  3481               	retlw	129
  1672  101E  3403               	retlw	3
  1673  101F  3440               	retlw	64
  1674  1020  3400               	retlw	0
  1675  1021  3403               	retlw	3
  1676  1022  3407               	retlw	7
  1677  1023  3405               	retlw	5
  1678  1024  3401               	retlw	1
  1679  1025  3403               	retlw	3
  1680  1026  3440               	retlw	64
  1681  1027  3400               	retlw	0
  1682  1028  3403               	retlw	3
  1683  1029  3409               	retlw	9
  1684  102A  3404               	retlw	4
  1685  102B  3401               	retlw	1
  1686  102C  3400               	retlw	0
  1687  102D  3402               	retlw	2
  1688  102E  3403               	retlw	3
  1689  102F  3400               	retlw	0
  1690  1030  3400               	retlw	0
  1691  1031  3400               	retlw	0
  1692  1032  3409               	retlw	9
  1693  1033  3421               	retlw	33
  1694  1034  3411               	retlw	17
  1695  1035  3401               	retlw	1
  1696  1036  3400               	retlw	0
  1697  1037  3401               	retlw	1
  1698  1038  3422               	retlw	34
  1699  1039  341C               	retlw	28
  1700  103A  3400               	retlw	0
  1701  103B  3407               	retlw	7
  1702  103C  3405               	retlw	5
  1703  103D  3482               	retlw	130
  1704  103E  3403               	retlw	3
  1705  103F  3440               	retlw	64
  1706  1040  3400               	retlw	0
  1707  1041  3464               	retlw	100
  1708  1042  3407               	retlw	7
  1709  1043  3405               	retlw	5
  1710  1044  3402               	retlw	2
  1711  1045  3403               	retlw	3
  1712  1046  3440               	retlw	64
  1713  1047  3400               	retlw	0
  1714  1048  3405               	retlw	5
  1715  1049  3409               	retlw	9
  1716  104A  3404               	retlw	4
  1717  104B  3402               	retlw	2
  1718  104C  3400               	retlw	0
  1719  104D  3402               	retlw	2
  1720  104E  3403               	retlw	3
  1721  104F  3400               	retlw	0
  1722  1050  3400               	retlw	0
  1723  1051  3400               	retlw	0
  1724  1052  3409               	retlw	9
  1725  1053  3421               	retlw	33
  1726  1054  3411               	retlw	17
  1727  1055  3401               	retlw	1
  1728  1056  3400               	retlw	0
  1729  1057  3401               	retlw	1
  1730  1058  3422               	retlw	34
  1731  1059  3416               	retlw	22
  1732  105A  3400               	retlw	0
  1733  105B  3407               	retlw	7
  1734  105C  3405               	retlw	5
  1735  105D  3483               	retlw	131
  1736  105E  3403               	retlw	3
  1737  105F  3440               	retlw	64
  1738  1060  3400               	retlw	0
  1739  1061  3464               	retlw	100
  1740  1062  3407               	retlw	7
  1741  1063  3405               	retlw	5
  1742  1064  3403               	retlw	3
  1743  1065  3403               	retlw	3
  1744  1066  3440               	retlw	64
  1745  1067  3400               	retlw	0
  1746  1068  3401               	retlw	1
  1747  1069                     __end_of_configDescriptor1:
  1748                           
  1749                           	psect	stringtext4
  1750  1069                     __pstringtext4:
  1751  1069                     _HAPTIC_rpt:
  1752  1069  3405               	retlw	5
  1753  106A  3401               	retlw	1
  1754  106B  3409               	retlw	9
  1755  106C  3404               	retlw	4
  1756  106D  34A1               	retlw	161
  1757  106E  3401               	retlw	1
  1758  106F  3417               	retlw	23
  1759  1070  3401               	retlw	1
  1760  1071  3400               	retlw	0
  1761  1072  3400               	retlw	0
  1762  1073  3480               	retlw	128
  1763  1074  3427               	retlw	39
  1764  1075  34FF               	retlw	255
  1765  1076  34FF               	retlw	255
  1766  1077  34FF               	retlw	255
  1767  1078  347F               	retlw	127
  1768  1079  3475               	retlw	117
  1769  107A  3420               	retlw	32
  1770  107B  3495               	retlw	149
  1771  107C  3401               	retlw	1
  1772  107D  3405               	retlw	5
  1773  107E  3401               	retlw	1
  1774  107F  3409               	retlw	9
  1775  1080  3438               	retlw	56
  1776  1081  3481               	retlw	129
  1777  1082  3402               	retlw	2
  1778  1083  3415               	retlw	21
  1779  1084  3400               	retlw	0
  1780  1085  3426               	retlw	38
  1781  1086  34FF               	retlw	255
  1782  1087  3400               	retlw	0
  1783  1088  3435               	retlw	53
  1784  1089  3400               	retlw	0
  1785  108A  3446               	retlw	70
  1786  108B  34FF               	retlw	255
  1787  108C  3400               	retlw	0
  1788  108D  3475               	retlw	117
  1789  108E  3408               	retlw	8
  1790  108F  3495               	retlw	149
  1791  1090  3402               	retlw	2
  1792  1091  3405               	retlw	5
  1793  1092  3401               	retlw	1
  1794  1093  3409               	retlw	9
  1795  1094  3430               	retlw	48
  1796  1095  3409               	retlw	9
  1797  1096  3431               	retlw	49
  1798  1097  3481               	retlw	129
  1799  1098  3402               	retlw	2
  1800  1099  3405               	retlw	5
  1801  109A  3409               	retlw	9
  1802  109B  3409               	retlw	9
  1803  109C  3401               	retlw	1
  1804  109D  3495               	retlw	149
  1805  109E  3401               	retlw	1
  1806  109F  3475               	retlw	117
  1807  10A0  3408               	retlw	8
  1808  10A1  3426               	retlw	38
  1809  10A2  34FF               	retlw	255
  1810  10A3  3400               	retlw	0
  1811  10A4  3415               	retlw	21
  1812  10A5  3400               	retlw	0
  1813  10A6  3481               	retlw	129
  1814  10A7  3402               	retlw	2
  1815  10A8  3495               	retlw	149
  1816  10A9  3409               	retlw	9
  1817  10AA  3475               	retlw	117
  1818  10AB  3408               	retlw	8
  1819  10AC  3409               	retlw	9
  1820  10AD  34F0               	retlw	240
  1821  10AE  3481               	retlw	129
  1822  10AF  3402               	retlw	2
  1823  10B0  3415               	retlw	21
  1824  10B1  3400               	retlw	0
  1825  10B2  3426               	retlw	38
  1826  10B3  34FF               	retlw	255
  1827  10B4  3400               	retlw	0
  1828  10B5  3475               	retlw	117
  1829  10B6  3401               	retlw	1
  1830  10B7  3495               	retlw	149
  1831  10B8  3440               	retlw	64
  1832  10B9  3405               	retlw	5
  1833  10BA  3401               	retlw	1
  1834  10BB  3409               	retlw	9
  1835  10BC  344B               	retlw	75
  1836  10BD  3491               	retlw	145
  1837  10BE  3402               	retlw	2
  1838  10BF  34C0               	retlw	192
  1839  10C0                     __end_of_HAPTIC_rpt:
  1840                           
  1841                           	psect	stringtext5
  1842  10C0                     __pstringtext5:
  1843  10C0                     _sd001:
  1844  10C0  3434               	retlw	52
  1845  10C1  3403               	retlw	3
  1846  10C2  344D               	retlw	77
  1847  10C3  3400               	retlw	0
  1848  10C4  3469               	retlw	105
  1849  10C5  3400               	retlw	0
  1850  10C6  3463               	retlw	99
  1851  10C7  3400               	retlw	0
  1852  10C8  3472               	retlw	114
  1853  10C9  3400               	retlw	0
  1854  10CA  346F               	retlw	111
  1855  10CB  3400               	retlw	0
  1856  10CC  3463               	retlw	99
  1857  10CD  3400               	retlw	0
  1858  10CE  3468               	retlw	104
  1859  10CF  3400               	retlw	0
  1860  10D0  3469               	retlw	105
  1861  10D1  3400               	retlw	0
  1862  10D2  3470               	retlw	112
  1863  10D3  3400               	retlw	0
  1864  10D4  3420               	retlw	32
  1865  10D5  3400               	retlw	0
  1866  10D6  3454               	retlw	84
  1867  10D7  3400               	retlw	0
  1868  10D8  3465               	retlw	101
  1869  10D9  3400               	retlw	0
  1870  10DA  3463               	retlw	99
  1871  10DB  3400               	retlw	0
  1872  10DC  3468               	retlw	104
  1873  10DD  3400               	retlw	0
  1874  10DE  346E               	retlw	110
  1875  10DF  3400               	retlw	0
  1876  10E0  346F               	retlw	111
  1877  10E1  3400               	retlw	0
  1878  10E2  346C               	retlw	108
  1879  10E3  3400               	retlw	0
  1880  10E4  346F               	retlw	111
  1881  10E5  3400               	retlw	0
  1882  10E6  3467               	retlw	103
  1883  10E7  3400               	retlw	0
  1884  10E8  3479               	retlw	121
  1885  10E9  3400               	retlw	0
  1886  10EA  3420               	retlw	32
  1887  10EB  3400               	retlw	0
  1888  10EC  3449               	retlw	73
  1889  10ED  3400               	retlw	0
  1890  10EE  346E               	retlw	110
  1891  10EF  3400               	retlw	0
  1892  10F0  3463               	retlw	99
  1893  10F1  3400               	retlw	0
  1894  10F2  342E               	retlw	46
  1895  10F3  3400               	retlw	0
  1896  10F4                     __end_of_sd001:
  1897                           
  1898                           	psect	stringtext6
  1899  1800                     __pstringtext6:
  1900  1800                     _LED_rpt:
  1901  1800  3405               	retlw	5
  1902  1801  3408               	retlw	8
  1903  1802  3409               	retlw	9
  1904  1803  3452               	retlw	82
  1905  1804  34A1               	retlw	161
  1906  1805  3402               	retlw	2
  1907  1806  3415               	retlw	21
  1908  1807  3400               	retlw	0
  1909  1808  3426               	retlw	38
  1910  1809  3400               	retlw	0
  1911  180A  3401               	retlw	1
  1912  180B  3475               	retlw	117
  1913  180C  3408               	retlw	8
  1914  180D  3495               	retlw	149
  1915  180E  3431               	retlw	49
  1916  180F  3405               	retlw	5
  1917  1810  3408               	retlw	8
  1918  1811  3409               	retlw	9
  1919  1812  344B               	retlw	75
  1920  1813  3409               	retlw	9
  1921  1814  3453               	retlw	83
  1922  1815  3409               	retlw	9
  1923  1816  3455               	retlw	85
  1924  1817  3409               	retlw	9
  1925  1818  3454               	retlw	84
  1926  1819  3491               	retlw	145
  1927  181A  3402               	retlw	2
  1928  181B  34C0               	retlw	192
  1929  181C                     __end_of_LED_rpt:
  1930                           
  1931                           	psect	stringtext7
  1932  181C                     __pstringtext7:
  1933  181C                     _sd002:
  1934  181C  341C               	retlw	28
  1935  181D  3403               	retlw	3
  1936  181E  344A               	retlw	74
  1937  181F  3400               	retlw	0
  1938  1820  346F               	retlw	111
  1939  1821  3400               	retlw	0
  1940  1822  3479               	retlw	121
  1941  1823  3400               	retlw	0
  1942  1824  3473               	retlw	115
  1943  1825  3400               	retlw	0
  1944  1826  3474               	retlw	116
  1945  1827  3400               	retlw	0
  1946  1828  3469               	retlw	105
  1947  1829  3400               	retlw	0
  1948  182A  3463               	retlw	99
  1949  182B  3400               	retlw	0
  1950  182C  346B               	retlw	107
  1951  182D  3400               	retlw	0
  1952  182E  3420               	retlw	32
  1953  182F  3400               	retlw	0
  1954  1830  3444               	retlw	68
  1955  1831  3400               	retlw	0
  1956  1832  3465               	retlw	101
  1957  1833  3400               	retlw	0
  1958  1834  346D               	retlw	109
  1959  1835  3400               	retlw	0
  1960  1836  346F               	retlw	111
  1961  1837  3400               	retlw	0
  1962  1838                     __end_of_sd002:
  1963                           
  1964                           	psect	stringtext8
  1965  1838                     __pstringtext8:
  1966  1838                     _DISPLAY_rpt:
  1967  1838  3405               	retlw	5
  1968  1839  3414               	retlw	20
  1969  183A  3409               	retlw	9
  1970  183B  3402               	retlw	2
  1971  183C  34A1               	retlw	161
  1972  183D  3402               	retlw	2
  1973  183E  3415               	retlw	21
  1974  183F  3400               	retlw	0
  1975  1840  3426               	retlw	38
  1976  1841  3400               	retlw	0
  1977  1842  3401               	retlw	1
  1978  1843  3475               	retlw	117
  1979  1844  3408               	retlw	8
  1980  1845  3495               	retlw	149
  1981  1846  3440               	retlw	64
  1982  1847  3405               	retlw	5
  1983  1848  3414               	retlw	20
  1984  1849  3409               	retlw	9
  1985  184A  3402               	retlw	2
  1986  184B  3491               	retlw	145
  1987  184C  3402               	retlw	2
  1988  184D  34C0               	retlw	192
  1989  184E                     __end_of_DISPLAY_rpt:
  1990                           
  1991                           	psect	stringtext9
  1992  184E                     __pstringtext9:
  1993  184E                     _device_dsc:
  1994  184E  3412               	retlw	18
  1995  184F  3401               	retlw	1
  1996  1850  3400               	retlw	0
  1997  1851  3402               	retlw	2
  1998  1852  3400               	retlw	0
  1999  1853  3400               	retlw	0
  2000  1854  3400               	retlw	0
  2001  1855  3408               	retlw	8
  2002  1856  34D8               	retlw	216
  2003  1857  3404               	retlw	4
  2004  1858  345E               	retlw	94
  2005  1859  3400               	retlw	0
  2006  185A  3401               	retlw	1
  2007  185B  3400               	retlw	0
  2008  185C  3401               	retlw	1
  2009  185D  3402               	retlw	2
  2010  185E  3400               	retlw	0
  2011  185F  3401               	retlw	1
  2012  1860                     __end_of_device_dsc:
  2013                           
  2014                           	psect	stringtext10
  2015  1866                     __pstringtext10:
  2016  1866                     _sd000:
  2017  1866  3404               	retlw	4
  2018  1867  3403               	retlw	3
  2019  1868  3409               	retlw	9
  2020  1869  3404               	retlw	4
  2021  186A                     __end_of_sd000:
  2022  21B0                     _display_output	set	8624
  2023  2130                     _leds_output	set	8496
  2024  000E                     _PORTCbits	set	14
  2025  0012                     _PIR2bits	set	18
  2026  008E                     _TRISCbits	set	142
  2027  0092                     _PIE2bits	set	146
  2028  0470                     _TRISC0	set	1136
  2029  0473                     _TRISC3	set	1139
  2030  0472                     _TRISC2	set	1138
  2031  0471                     _TRISC1	set	1137
  2032  010E                     _LATCbits	set	270
  2033  018E                     _ANSELC	set	398
  2034  0215                     _SSPCON	set	533
  2035  0212                     _SSPADD	set	530
  2036  0211                     _SSPBUF	set	529
  2037  0214                     _SSPSTAT	set	532
  2038  0215                     _SSPCON1	set	533
  2039  10AE                     _SSPOV	set	4270
  2040  10AF                     _WCOL	set	4271
  2041  10A0                     _BF	set	4256
  2042  0E98                     _UEP0bits	set	3736
  2043  0E8F                     _USTAT	set	3727
  2044  0E92                     _UIEbits	set	3730
  2045  0E8E                     _UCON	set	3726
  2046  0E90                     _UIRbits	set	3728
  2047  0E96                     _UADDR	set	3734
  2048  0E8E                     _UCONbits	set	3726
  2049  0E92                     _UIE	set	3730
  2050  0E97                     _UEIE	set	3735
  2051  0E91                     _UCFG	set	3729
  2052  0E90                     _UIR	set	3728
  2053  0E93                     _UEIR	set	3731
  2054  0E99                     _UEP1	set	3737
  2055  0E98                     _UEP0	set	3736
  2056                           
  2057                           	psect	cinit
  2058  000A                     start_initialization:	
  2059                           ; #config settings
  2060                           
  2061  000A                     __initialization:
  2062                           
  2063                           ; Initialize objects allocated to BANK3
  2064  000A  302D               	movlw	low __pidataBANK3
  2065  000B  0084               	movwf	4
  2066  000C  3097               	movlw	(high __pidataBANK3)| (0+128)
  2067  000D  0085               	movwf	5
  2068  000E  0023               	movlb	3	; select bank3
  2069  000F  0012               	moviw fsr0++
  2070  0010  00BB               	movwf	__pdataBANK3& (0+127)
  2071  0011  0012               	moviw fsr0++
  2072  0012  00BC               	movwf	(__pdataBANK3+1)& (0+127)
  2073  0013  0012               	moviw fsr0++
  2074  0014  00BD               	movwf	(__pdataBANK3+2)& (0+127)
  2075  0015  0012               	moviw fsr0++
  2076  0016  00BE               	movwf	(__pdataBANK3+3)& (0+127)
  2077  0017  0012               	moviw fsr0++
  2078  0018  00BF               	movwf	(__pdataBANK3+4)& (0+127)
  2079  0019  0012               	moviw fsr0++
  2080  001A  00C0               	movwf	(__pdataBANK3+5)& (0+127)
  2081  001B  0012               	moviw fsr0++
  2082  001C  00C1               	movwf	(__pdataBANK3+6)& (0+127)
  2083  001D  0012               	moviw fsr0++
  2084  001E  00C2               	movwf	(__pdataBANK3+7)& (0+127)
  2085                           
  2086                           ; Clear objects allocated to BANK1
  2087  001F  30B0               	movlw	low __pbssBANK1
  2088  0020  0084               	movwf	4
  2089  0021  3000               	movlw	high __pbssBANK1
  2090  0022  0085               	movwf	5
  2091  0023  3029               	movlw	41
  2092  0024  00FE               	movwf	btemp
  2093  0025  3000               	movlw	0
  2094  0026  00FF               	movwf	btemp+1
  2095  0027  3197  2740  3180   	fcall	clear_ram0
  2096                           
  2097                           ; Clear objects allocated to BANK2
  2098  002A  3020               	movlw	low __pbssBANK2
  2099  002B  0084               	movwf	4
  2100  002C  3001               	movlw	high __pbssBANK2
  2101  002D  0085               	movwf	5
  2102  002E  3010               	movlw	16
  2103  002F  00FE               	movwf	btemp
  2104  0030  3000               	movlw	0
  2105  0031  00FF               	movwf	btemp+1
  2106  0032  3197  2740  3180   	fcall	clear_ram0
  2107                           
  2108                           ; Clear objects allocated to BANK3
  2109  0035  30A0               	movlw	low __pbssBANK3
  2110  0036  0084               	movwf	4
  2111  0037  3001               	movlw	high __pbssBANK3
  2112  0038  0085               	movwf	5
  2113  0039  301B               	movlw	27
  2114  003A  00FE               	movwf	btemp
  2115  003B  3000               	movlw	0
  2116  003C  00FF               	movwf	btemp+1
  2117  003D  3197  2740  3180   	fcall	clear_ram0
  2118  0040                     end_of_initialization:	
  2119                           ;End of C runtime variable initialization code
  2120                           
  2121  0040                     __end_of__initialization:
  2122  0040  107E               	bcf	int$flags,0	;clear compiler interrupt flag (level 1)
  2123  0041  0020               	movlb	0
  2124  0042  3189  290D         	ljmp	_main	;jump to C main() function
  2125                           
  2126                           	psect	bssBANK1
  2127  00B0                     __pbssBANK1:
  2128  00B0                     _pBDTEntryIn:
  2129  00B0                     	ds	8
  2130  00B8                     _inPipes:
  2131  00B8                     	ds	5
  2132  00BD                     APP_LEDUpdateUSBStatus@ledCount:
  2133  00BD                     	ds	2
  2134  00BF                     _pBDTEntryEP0OutNext:
  2135  00BF                     	ds	2
  2136  00C1                     _hap_IN_pkt_ready:
  2137  00C1                     	ds	1
  2138  00C2                     _LED_pkt_ready:
  2139  00C2                     	ds	1
  2140  00C3                     _display_pkt_ready:
  2141  00C3                     	ds	1
  2142  00C4                     _TESTB:
  2143  00C4                     	ds	1
  2144  00C5                     _USBTicksSinceSuspendEnd:
  2145  00C5                     	ds	1
  2146  00C6                     _USBDeferOUTDataStagePackets:
  2147  00C6                     	ds	1
  2148  00C7                     _USBDeferINDataStagePackets:
  2149  00C7                     	ds	1
  2150  00C8                     _USBStatusStageEnabledFlag2:
  2151  00C8                     	ds	1
  2152  00C9                     _USBStatusStageEnabledFlag1:
  2153  00C9                     	ds	1
  2154  00CA                     _USBDeferStatusStagePacket:
  2155  00CA                     	ds	1
  2156  00CB                     _USBStatusStageTimeoutCounter:
  2157  00CB                     	ds	1
  2158  00CC                     _BothEP0OutUOWNsSet:
  2159  00CC                     	ds	1
  2160  00CD                     _endpoint_number:
  2161  00CD                     	ds	1
  2162  00CE                     _USBBusIsSuspended:
  2163  00CE                     	ds	1
  2164  00CF                     _RemoteWakeup:
  2165  00CF                     	ds	1
  2166  00D0                     _pDst:
  2167  00D0                     	ds	1
  2168  00D1                     _controlTransferState:
  2169  00D1                     	ds	1
  2170  00D2                     _shortPacketStatus:
  2171  00D2                     	ds	1
  2172  00D3                     _pBDTEntryEP0OutCurrent:
  2173  00D3                     	ds	1
  2174  00D4                     _USBDeviceState:
  2175  00D4                     	ds	1
  2176  00D5                     _active_protocol:
  2177  00D5                     	ds	1
  2178  00D6                     _idle_rate:
  2179  00D6                     	ds	1
  2180  00D7                     _USTATcopy:
  2181  00D7                     	ds	1
  2182  00D8                     _USBActiveConfiguration:
  2183  00D8                     	ds	1
  2184                           
  2185                           	psect	bssBANK2
  2186  0120                     __pbssBANK2:
  2187  0120                     _outPipes:
  2188  0120                     	ds	7
  2189  0127                     _last_LED_OUT:
  2190  0127                     	ds	2
  2191  0129                     _last_HAP_OUT:
  2192  0129                     	ds	2
  2193  012B                     _last_HAP_IN:
  2194  012B                     	ds	2
  2195  012D                     _cntr:
  2196  012D                     	ds	1
  2197  012E                     _hap_OUT_pkt_ready:
  2198  012E                     	ds	1
  2199  012F                     _REGT:
  2200  012F                     	ds	1
  2201                           
  2202                           	psect	bssBANK3
  2203  01A0                     __pbssBANK3:
  2204  01A0                     _pBDTEntryOut:
  2205  01A0                     	ds	8
  2206  01A8                     _USB1msTickCount:
  2207  01A8                     	ds	4
  2208  01AC                     _ep_data_out:
  2209  01AC                     	ds	4
  2210  01B0                     _ep_data_in:
  2211  01B0                     	ds	4
  2212  01B4                     _cnt_tr:
  2213  01B4                     	ds	2
  2214  01B6                     _last_DSP_OUT:
  2215  01B6                     	ds	2
  2216  01B8                     _USBAlternateInterface:
  2217  01B8                     	ds	3
  2218                           
  2219                           	psect	dataBANK3
  2220  01BB                     __pdataBANK3:
  2221  01BB                     _v:
  2222  01BB                     	ds	8
  2223                           
  2224                           	psect	clrtext
  2225  1740                     clear_ram0:	
  2226                           ;	Called with FSR0 containing the base address, and
  2227                           ;	btemp/btemp+1 has the size to clear
  2228                           
  2229  1740  0064               	clrwdt	;clear the watchdog before getting into this loop
  2230  1741                     clrloop0:
  2231  1741  0180               	clrf	0	;clear RAM location pointed to by FSR
  2232  1742  3101               	addfsr 0,1
  2233  1743  3001               	movlw	1
  2234  1744  02FE               	subwf	btemp,f
  2235  1745  3000               	movlw	0
  2236  1746  3BFF               	subwfb	btemp+1,f
  2237  1747  087F               	movf	btemp+1,w
  2238  1748  047E               	iorwf	btemp,w
  2239  1749  1D03               	skipz
  2240  174A  2F41               	goto	clrloop0	;have we reached the end yet?
  2241  174B  3400               	retlw	0	;all done for this memory range, return
  2242                           
  2243                           	psect	cstackBANK1
  2244  00D9                     __pcstackBANK1:
  2245  00D9                     ?_USER_USB_CALLBACK_EVENT_HANDLER:
  2246  00D9                     USER_USB_CALLBACK_EVENT_HANDLER@event:	
  2247                           ; 1 bytes @ 0x0
  2248                           
  2249                           
  2250                           ; 2 bytes @ 0x0
  2251  00D9                     	ds	2
  2252  00DB                     USER_USB_CALLBACK_EVENT_HANDLER@pdata:
  2253                           
  2254                           ; 2 bytes @ 0x2
  2255  00DB                     	ds	2
  2256  00DD                     USER_USB_CALLBACK_EVENT_HANDLER@size:
  2257                           
  2258                           ; 2 bytes @ 0x4
  2259  00DD                     	ds	2
  2260  00DF                     ??_USBWakeFromSuspend:
  2261  00DF                     ??_USBSuspend:	
  2262                           ; 1 bytes @ 0x6
  2263                           
  2264  00DF                     ??_USBStdFeatureReqHandler:	
  2265                           ; 1 bytes @ 0x6
  2266                           
  2267  00DF                     ??_USBStdSetCfgHandler:	
  2268                           ; 1 bytes @ 0x6
  2269                           
  2270                           
  2271                           ; 1 bytes @ 0x6
  2272  00DF                     	ds	1
  2273  00E0                     USBStdSetCfgHandler@p:
  2274                           
  2275                           ; 2 bytes @ 0x7
  2276  00E0                     	ds	1
  2277  00E1                     USBStdFeatureReqHandler@pUEP:
  2278                           
  2279                           ; 2 bytes @ 0x8
  2280  00E1                     	ds	1
  2281  00E2                     USBStdSetCfgHandler@i_1457:
  2282                           
  2283                           ; 1 bytes @ 0x9
  2284  00E2                     	ds	1
  2285  00E3                     USBStdSetCfgHandler@i:
  2286  00E3                     USBStdFeatureReqHandler@current_ep_data:	
  2287                           ; 1 bytes @ 0xA
  2288                           
  2289                           
  2290                           ; 1 bytes @ 0xA
  2291  00E3                     	ds	1
  2292  00E4                     USBStdFeatureReqHandler@p:
  2293                           
  2294                           ; 2 bytes @ 0xB
  2295  00E4                     	ds	2
  2296  00E6                     ??_USBCheckStdRequest:
  2297                           
  2298                           ; 1 bytes @ 0xD
  2299  00E6                     	ds	2
  2300  00E8                     ??_USBCtrlTrfSetupHandler:
  2301                           
  2302                           ; 1 bytes @ 0xF
  2303  00E8                     	ds	1
  2304  00E9                     ??_USBCtrlEPService:
  2305                           
  2306                           ; 1 bytes @ 0x10
  2307  00E9                     	ds	2
  2308  00EB                     ??_USBDeviceTasks:
  2309                           
  2310                           ; 1 bytes @ 0x12
  2311  00EB                     	ds	2
  2312  00ED                     USBDeviceTasks@i:
  2313                           
  2314                           ; 1 bytes @ 0x14
  2315  00ED                     	ds	1
  2316  00EE                     ??_main:
  2317                           
  2318                           ; 1 bytes @ 0x15
  2319  00EE                     	ds	2
  2320                           
  2321                           	psect	cstackCOMMON
  2322  0070                     __pcstackCOMMON:
  2323  0070                     ?_USBWakeFromSuspend:
  2324  0070                     ?_USBSuspend:	
  2325                           ; 1 bytes @ 0x0
  2326                           
  2327  0070                     ?_USBIncrement1msInternalTimers:	
  2328                           ; 1 bytes @ 0x0
  2329                           
  2330  0070                     ??_USBIncrement1msInternalTimers:	
  2331                           ; 1 bytes @ 0x0
  2332                           
  2333  0070                     ?_USBCtrlEPAllowStatusStage:	
  2334                           ; 1 bytes @ 0x0
  2335                           
  2336  0070                     ??_USBCtrlEPAllowStatusStage:	
  2337                           ; 1 bytes @ 0x0
  2338                           
  2339  0070                     ?_USBStallHandler:	
  2340                           ; 1 bytes @ 0x0
  2341                           
  2342  0070                     ??_USBStallHandler:	
  2343                           ; 1 bytes @ 0x0
  2344                           
  2345  0070                     ?_USBCtrlEPService:	
  2346                           ; 1 bytes @ 0x0
  2347                           
  2348  0070                     ?_USBConfigureEndpoint:	
  2349                           ; 1 bytes @ 0x0
  2350                           
  2351  0070                     ?_USBCtrlTrfTxService:	
  2352                           ; 1 bytes @ 0x0
  2353                           
  2354  0070                     ??_USBCtrlTrfTxService:	
  2355                           ; 1 bytes @ 0x0
  2356                           
  2357  0070                     ?_memcpy:	
  2358                           ; 1 bytes @ 0x0
  2359                           
  2360  0070                     ?_USBCtrlTrfSetupHandler:	
  2361                           ; 1 bytes @ 0x0
  2362                           
  2363  0070                     ?_USBCtrlTrfOutHandler:	
  2364                           ; 1 bytes @ 0x0
  2365                           
  2366  0070                     ?_USBCtrlTrfInHandler:	
  2367                           ; 1 bytes @ 0x0
  2368                           
  2369  0070                     ?_USBCheckStdRequest:	
  2370                           ; 1 bytes @ 0x0
  2371                           
  2372  0070                     ?_USBStdFeatureReqHandler:	
  2373                           ; 1 bytes @ 0x0
  2374                           
  2375  0070                     ?_APP_LEDUpdateUSBStatus:	
  2376                           ; 1 bytes @ 0x0
  2377                           
  2378  0070                     ?_SYSTEM_Initialize:	
  2379                           ; 1 bytes @ 0x0
  2380                           
  2381  0070                     ?_APP_DeviceJoystickInitialize:	
  2382                           ; 1 bytes @ 0x0
  2383                           
  2384  0070                     ?_MasterinitSPI:	
  2385                           ; 1 bytes @ 0x0
  2386                           
  2387  0070                     ??_MasterinitSPI:	
  2388                           ; 1 bytes @ 0x0
  2389                           
  2390  0070                     ?_spiWrite:	
  2391                           ; 1 bytes @ 0x0
  2392                           
  2393  0070                     ??_spiWrite:	
  2394                           ; 1 bytes @ 0x0
  2395                           
  2396  0070                     ?_APP_DeviceJoystickTasks:	
  2397                           ; 1 bytes @ 0x0
  2398                           
  2399  0070                     ?_LED_Off:	
  2400                           ; 1 bytes @ 0x0
  2401                           
  2402  0070                     ??_LED_Off:	
  2403                           ; 1 bytes @ 0x0
  2404                           
  2405  0070                     ?_LED_On:	
  2406                           ; 1 bytes @ 0x0
  2407                           
  2408  0070                     ??_LED_On:	
  2409                           ; 1 bytes @ 0x0
  2410                           
  2411  0070                     ?_USBDeviceInit:	
  2412                           ; 1 bytes @ 0x0
  2413                           
  2414  0070                     ??_USBDeviceInit:	
  2415                           ; 1 bytes @ 0x0
  2416                           
  2417  0070                     ?_USBDeviceTasks:	
  2418                           ; 1 bytes @ 0x0
  2419                           
  2420  0070                     ?_USBCtrlEPAllowDataStage:	
  2421                           ; 1 bytes @ 0x0
  2422                           
  2423  0070                     ?_USBCtrlEPServiceComplete:	
  2424                           ; 1 bytes @ 0x0
  2425                           
  2426  0070                     ?_USBCtrlTrfRxService:	
  2427                           ; 1 bytes @ 0x0
  2428                           
  2429  0070                     ?_USBStdSetCfgHandler:	
  2430                           ; 1 bytes @ 0x0
  2431                           
  2432  0070                     ?_USBStdGetDscHandler:	
  2433                           ; 1 bytes @ 0x0
  2434                           
  2435  0070                     ??_USBStdGetDscHandler:	
  2436                           ; 1 bytes @ 0x0
  2437                           
  2438  0070                     ?_USBStdGetStatusHandler:	
  2439                           ; 1 bytes @ 0x0
  2440                           
  2441  0070                     ??_USBStdGetStatusHandler:	
  2442                           ; 1 bytes @ 0x0
  2443                           
  2444  0070                     ?_USBCheckHIDRequest:	
  2445                           ; 1 bytes @ 0x0
  2446                           
  2447  0070                     ??_USBCheckHIDRequest:	
  2448                           ; 1 bytes @ 0x0
  2449                           
  2450  0070                     ?_main:	
  2451                           ; 1 bytes @ 0x0
  2452                           
  2453  0070                     ?_BUTTON_Enable:	
  2454                           ; 1 bytes @ 0x0
  2455                           
  2456  0070                     ??_BUTTON_Enable:	
  2457                           ; 1 bytes @ 0x0
  2458                           
  2459  0070                     ?_LED_Enable:	
  2460                           ; 1 bytes @ 0x0
  2461                           
  2462  0070                     ??_LED_Enable:	
  2463                           ; 1 bytes @ 0x0
  2464                           
  2465  0070                     ?_SYS_InterruptHigh:	
  2466                           ; 1 bytes @ 0x0
  2467                           
  2468  0070                     ??_SYS_InterruptHigh:	
  2469                           ; 1 bytes @ 0x0
  2470                           
  2471  0070                     ?_spwrh:	
  2472                           ; 1 bytes @ 0x0
  2473                           
  2474  0070                     ??_spwrh:	
  2475                           ; 1 bytes @ 0x0
  2476                           
  2477  0070                     ?_memset:	
  2478                           ; 1 bytes @ 0x0
  2479                           
  2480  0070                     ?_USBTransferOnePacket:	
  2481                           ; 2 bytes @ 0x0
  2482                           
  2483  0070                     USBTransferOnePacket@dir:	
  2484                           ; 2 bytes @ 0x0
  2485                           
  2486  0070                     USBConfigureEndpoint@direction:	
  2487                           ; 1 bytes @ 0x0
  2488                           
  2489  0070                     memcpy@s1:	
  2490                           ; 1 bytes @ 0x0
  2491                           
  2492  0070                     memset@dest:	
  2493                           ; 2 bytes @ 0x0
  2494                           
  2495                           
  2496                           ; 2 bytes @ 0x0
  2497  0070                     	ds	1
  2498  0071                     ??_USBConfigureEndpoint:
  2499  0071                     USBDeviceInit@p:	
  2500                           ; 1 bytes @ 0x1
  2501                           
  2502  0071                     USBTransferOnePacket@data:	
  2503                           ; 2 bytes @ 0x1
  2504                           
  2505                           
  2506                           ; 2 bytes @ 0x1
  2507  0071                     	ds	1
  2508  0072                     ??_USBCtrlTrfRxService:
  2509  0072                     USBCtrlTrfTxService@byteToSend:	
  2510                           ; 1 bytes @ 0x2
  2511                           
  2512  0072                     BUTTON_Enable@button:	
  2513                           ; 1 bytes @ 0x2
  2514                           
  2515  0072                     LED_On@led:	
  2516                           ; 1 bytes @ 0x2
  2517                           
  2518  0072                     LED_Off@led:	
  2519                           ; 1 bytes @ 0x2
  2520                           
  2521  0072                     LED_Enable@led:	
  2522                           ; 1 bytes @ 0x2
  2523                           
  2524  0072                     USBStdGetStatusHandler@p:	
  2525                           ; 1 bytes @ 0x2
  2526                           
  2527  0072                     memcpy@n:	
  2528                           ; 2 bytes @ 0x2
  2529                           
  2530  0072                     memset@c:	
  2531                           ; 2 bytes @ 0x2
  2532                           
  2533                           
  2534                           ; 2 bytes @ 0x2
  2535  0072                     	ds	1
  2536  0073                     ??_USBCtrlTrfInHandler:
  2537  0073                     ??_APP_LEDUpdateUSBStatus:	
  2538                           ; 1 bytes @ 0x3
  2539                           
  2540  0073                     ??_SYSTEM_Initialize:	
  2541                           ; 1 bytes @ 0x3
  2542                           
  2543  0073                     ??_USBCtrlEPAllowDataStage:	
  2544                           ; 1 bytes @ 0x3
  2545                           
  2546  0073                     USBDeviceInit@i_722:	
  2547                           ; 1 bytes @ 0x3
  2548                           
  2549  0073                     USBTransferOnePacket@len:	
  2550                           ; 1 bytes @ 0x3
  2551                           
  2552                           
  2553                           ; 1 bytes @ 0x3
  2554  0073                     	ds	1
  2555  0074                     ??_memcpy:
  2556  0074                     ??_USBTransferOnePacket:	
  2557                           ; 1 bytes @ 0x4
  2558                           
  2559  0074                     USBDeviceInit@i:	
  2560                           ; 1 bytes @ 0x4
  2561                           
  2562  0074                     USBCtrlTrfRxService@i:	
  2563                           ; 1 bytes @ 0x4
  2564                           
  2565  0074                     memset@n:	
  2566                           ; 1 bytes @ 0x4
  2567                           
  2568                           
  2569                           ; 2 bytes @ 0x4
  2570  0074                     	ds	1
  2571  0075                     ??_USBCtrlEPServiceComplete:
  2572  0075                     USBConfigureEndpoint@EPNum:	
  2573                           ; 1 bytes @ 0x5
  2574                           
  2575  0075                     USBCtrlTrfRxService@byteToRead:	
  2576                           ; 1 bytes @ 0x5
  2577                           
  2578  0075                     USBCtrlTrfInHandler@lastDTS:	
  2579                           ; 1 bytes @ 0x5
  2580                           
  2581  0075                     SYSTEM_Initialize@state:	
  2582                           ; 1 bytes @ 0x5
  2583                           
  2584  0075                     memcpy@s:	
  2585                           ; 1 bytes @ 0x5
  2586                           
  2587                           
  2588                           ; 2 bytes @ 0x5
  2589  0075                     	ds	1
  2590  0076                     ??_memset:
  2591  0076                     ??_USBCtrlTrfOutHandler:	
  2592                           ; 1 bytes @ 0x6
  2593                           
  2594  0076                     USBConfigureEndpoint@handle:	
  2595                           ; 1 bytes @ 0x6
  2596                           
  2597                           
  2598                           ; 1 bytes @ 0x6
  2599  0076                     	ds	1
  2600  0077                     ?_USBEnableEndpoint:
  2601  0077                     USBEnableEndpoint@options:	
  2602                           ; 1 bytes @ 0x7
  2603                           
  2604  0077                     memcpy@tmp:	
  2605                           ; 1 bytes @ 0x7
  2606                           
  2607                           
  2608                           ; 1 bytes @ 0x7
  2609  0077                     	ds	1
  2610  0078                     ??_USBEnableEndpoint:
  2611  0078                     USBTransferOnePacket@ep:	
  2612                           ; 1 bytes @ 0x8
  2613                           
  2614  0078                     memcpy@d1:	
  2615                           ; 1 bytes @ 0x8
  2616                           
  2617                           
  2618                           ; 1 bytes @ 0x8
  2619  0078                     	ds	1
  2620  0079                     memcpy@d:
  2621  0079                     USBTransferOnePacket@handle:	
  2622                           ; 1 bytes @ 0x9
  2623                           
  2624                           
  2625                           ; 2 bytes @ 0x9
  2626  0079                     	ds	1
  2627  007A                     USBEnableEndpoint@p:
  2628  007A                     memset@k:	
  2629                           ; 2 bytes @ 0xA
  2630                           
  2631                           
  2632                           ; 2 bytes @ 0xA
  2633  007A                     	ds	1
  2634  007B                     ??_APP_DeviceJoystickTasks:
  2635                           
  2636                           ; 1 bytes @ 0xB
  2637  007B                     	ds	1
  2638  007C                     USBEnableEndpoint@ep:
  2639  007C                     memset@s:	
  2640                           ; 1 bytes @ 0xC
  2641                           
  2642                           
  2643                           ; 2 bytes @ 0xC
  2644  007C                     	ds	1
  2645  007D                     ??_APP_DeviceJoystickInitialize:
  2646                           
  2647                           ; 1 bytes @ 0xD
  2648  007D                     	ds	1
  2649  007E                     ??_USER_USB_CALLBACK_EVENT_HANDLER:
  2650                           
  2651                           	psect	maintext
  2652  090D                     __pmaintext:	
  2653                           ; 1 bytes @ 0xE
  2654 ;;
  2655 ;;Main: autosize = 0, tempsize = 2, incstack = 0, save=0
  2656 ;;
  2657 ;; *************** function _main *****************
  2658 ;; Defined at:
  2659 ;;		line 32 in file "main.c"
  2660 ;; Parameters:    Size  Location     Type
  2661 ;;		None
  2662 ;; Auto vars:     Size  Location     Type
  2663 ;;		None
  2664 ;; Return value:  Size  Location     Type
  2665 ;;                  1    wreg      void 
  2666 ;; Registers used:
  2667 ;;		wreg, fsr0l, fsr0h, fsr1l, fsr1h, status,2, status,0, pclath, cstack
  2668 ;; Tracked objects:
  2669 ;;		On entry : B1F/0
  2670 ;;		On exit  : 0/0
  2671 ;;		Unchanged: 0/0
  2672 ;; Data sizes:     COMMON   BANK1   BANK2   BANK3   BANK4   BANK5   BANK6   BANK7   BANK8   BANK9  BANK10  BANK11  BANK1
      +2
  2673 ;;      Params:         0       0       0       0       0       0       0       0       0       0       0       0       
      +0
  2674 ;;      Locals:         0       0       0       0       0       0       0       0       0       0       0       0       
      +0
  2675 ;;      Temps:          0       2       0       0       0       0       0       0       0       0       0       0       
      +0
  2676 ;;      Totals:         0       2       0       0       0       0       0       0       0       0       0       0       
      +0
  2677 ;;Total ram usage:        2 bytes
  2678 ;; Hardware stack levels required when called: 10
  2679 ;; This function calls:
  2680 ;;		_APP_DeviceJoystickTasks
  2681 ;;		_MasterinitSPI
  2682 ;;		_USBDeviceInit
  2683 ;;		_USBDeviceTasks
  2684 ;;		_spiWrite
  2685 ;; This function is called by:
  2686 ;;		Startup code after reset
  2687 ;; This function uses a non-reentrant model
  2688 ;;
  2689                           
  2690  090D                     _main:	
  2691                           ;psect for function _main
  2692                           
  2693  090D                     l4843:	
  2694                           ;incstack = 0
  2695                           ; Regs used in _main: [wreg-fsr1h+status,2+status,0+pclath+cstack]
  2696                           
  2697                           
  2698                           ;main.c: 35:     TRISC1 = 1;TRISC2 = 0;
  2699  090D  0021               	movlb	1	; select bank1
  2700  090E  148E               	bsf	14,1	;volatile
  2701  090F  110E               	bcf	14,2	;volatile
  2702  0910                     l4845:
  2703                           
  2704                           ;main.c: 37:     _delay((unsigned long)((200)*(48000000/4000.0)));
  2705  0910  300D               	movlw	13
  2706  0911  0021               	movlb	1	; select bank1
  2707  0912  00EF               	movwf	(??_main^(0+128)+1)
  2708  0913  302D               	movlw	45
  2709  0914  00EE               	movwf	??_main^(0+128)
  2710  0915  30D7               	movlw	215
  2711  0916                     u3797:
  2712  0916  0B89               	decfsz	9,f
  2713  0917  2916               	goto	u3797
  2714  0918  0BEE               	decfsz	??_main^(0+128),f
  2715  0919  2916               	goto	u3797
  2716  091A  0BEF               	decfsz	(??_main^(0+128)+1),f
  2717  091B  2916               	goto	u3797
  2718  091C  3200               	nop2
  2719  091D                     l4847:
  2720                           
  2721                           ;main.c: 39:     MasterinitSPI();
  2722  091D  3197  2735  3189   	fcall	_MasterinitSPI
  2723  0920                     l4849:
  2724                           
  2725                           ;main.c: 41:     USBDeviceInit();
  2726  0920  3186  26D9  3189   	fcall	_USBDeviceInit
  2727  0923                     l4851:
  2728                           
  2729                           ;main.c: 46:     {;main.c: 47:         spiWrite();
  2730  0923  3188  2065  3189   	fcall	_spiWrite
  2731  0926                     l4853:
  2732                           
  2733                           ;main.c: 63:             USBDeviceTasks();
  2734  0926  3182  22F1  3189   	fcall	_USBDeviceTasks
  2735  0929                     l4855:
  2736                           
  2737                           ;main.c: 69:         if( USBDeviceState < CONFIGURED_STATE )
  2738  0929  3020               	movlw	32
  2739  092A  0021               	movlb	1	; select bank1
  2740  092B  0254               	subwf	_USBDeviceState^(0+128),w
  2741  092C  1803               	skipnc
  2742  092D  292F               	goto	u3771
  2743  092E  2930               	goto	u3770
  2744  092F                     u3771:
  2745  092F  2931               	goto	l524
  2746  0930                     u3770:
  2747  0930  2923               	goto	l4851
  2748  0931                     l524:	
  2749                           ;main.c: 73:         }
  2750                           
  2751                           
  2752                           ;main.c: 79:         if( UCONbits.SUSPND == 1 )
  2753  0931  003D               	movlb	29	; select bank29
  2754  0932  1C8E               	btfss	14,1	;volatile
  2755  0933  2935               	goto	u3781
  2756  0934  2936               	goto	u3780
  2757  0935                     u3781:
  2758  0935  2937               	goto	l4861
  2759  0936                     u3780:
  2760  0936  2923               	goto	l4851
  2761  0937                     l4861:
  2762                           
  2763                           ;main.c: 86:         APP_DeviceJoystickTasks();
  2764  0937  3185  2537  3189   	fcall	_APP_DeviceJoystickTasks
  2765  093A  2923               	goto	l4851
  2766  093B  3180  2808         	ljmp	start
  2767  093D                     __end_of_main:
  2768                           
  2769                           	psect	text1
  2770  0865                     __ptext1:	
  2771 ;; *************** function _spiWrite *****************
  2772 ;; Defined at:
  2773 ;;		line 141 in file "lib/spi.c"
  2774 ;; Parameters:    Size  Location     Type
  2775 ;;		None
  2776 ;; Auto vars:     Size  Location     Type
  2777 ;;		None
  2778 ;; Return value:  Size  Location     Type
  2779 ;;                  1    wreg      void 
  2780 ;; Registers used:
  2781 ;;		wreg, status,2, status,0, pclath, cstack
  2782 ;; Tracked objects:
  2783 ;;		On entry : 0/0
  2784 ;;		On exit  : 0/0
  2785 ;;		Unchanged: 0/0
  2786 ;; Data sizes:     COMMON   BANK1   BANK2   BANK3   BANK4   BANK5   BANK6   BANK7   BANK8   BANK9  BANK10  BANK11  BANK1
      +2
  2787 ;;      Params:         0       0       0       0       0       0       0       0       0       0       0       0       
      +0
  2788 ;;      Locals:         0       0       0       0       0       0       0       0       0       0       0       0       
      +0
  2789 ;;      Temps:          1       0       0       0       0       0       0       0       0       0       0       0       
      +0
  2790 ;;      Totals:         1       0       0       0       0       0       0       0       0       0       0       0       
      +0
  2791 ;;Total ram usage:        1 bytes
  2792 ;; Hardware stack levels used: 1
  2793 ;; Hardware stack levels required when called: 2
  2794 ;; This function calls:
  2795 ;;		_spwrh
  2796 ;; This function is called by:
  2797 ;;		_main
  2798 ;; This function uses a non-reentrant model
  2799 ;;
  2800                           
  2801  0865                     _spiWrite:	
  2802                           ;psect for function _spiWrite
  2803                           
  2804  0865                     l4097:	
  2805                           ;incstack = 0
  2806                           ; Regs used in _spiWrite: [wreg+status,2+status,0+pclath+cstack]
  2807                           
  2808                           
  2809                           ;lib/spi.c: 142:     if(cnt_tr<1000){
  2810  0865  0023               	movlb	3	; select bank3
  2811  0866  0835               	movf	(_cnt_tr+1)^(0+384),w
  2812  0867  3A80               	xorlw	128
  2813  0868  00F0               	movwf	??_spiWrite
  2814  0869  3083               	movlw	131
  2815  086A  0270               	subwf	??_spiWrite,w
  2816  086B  1D03               	skipz
  2817  086C  286F               	goto	u3095
  2818  086D  30E8               	movlw	232
  2819  086E  0234               	subwf	_cnt_tr^(0+384),w
  2820  086F                     u3095:
  2821  086F  1803               	skipnc
  2822  0870  2872               	goto	u3091
  2823  0871  2873               	goto	u3090
  2824  0872                     u3091:
  2825  0872  2879               	goto	l4103
  2826  0873                     u3090:
  2827  0873                     l4099:
  2828                           
  2829                           ;lib/spi.c: 143:        cnt_tr++;
  2830  0873  3001               	movlw	1
  2831  0874  0023               	movlb	3	; select bank3
  2832  0875  07B4               	addwf	_cnt_tr^(0+384),f
  2833  0876  3000               	movlw	0
  2834  0877  3DB5               	addwfc	(_cnt_tr+1)^(0+384),f
  2835  0878  288A               	goto	l764
  2836  0879                     l4103:
  2837                           
  2838                           ;lib/spi.c: 146:     cnt_tr=0;
  2839  0879  0023               	movlb	3	; select bank3
  2840  087A  01B4               	clrf	_cnt_tr^(0+384)
  2841  087B  01B5               	clrf	(_cnt_tr+1)^(0+384)
  2842  087C                     l4105:
  2843                           
  2844                           ;lib/spi.c: 147:     PORTCbits.RC3 = 0;
  2845  087C  0020               	movlb	0	; select bank0
  2846  087D  118E               	bcf	14,3	;volatile
  2847  087E                     l4107:
  2848                           
  2849                           ;lib/spi.c: 150:     spwrh();
  2850  087E  3181  21AB  3188   	fcall	_spwrh
  2851  0881                     l4109:
  2852                           
  2853                           ;lib/spi.c: 160:     SSPBUF = ' ';while(!BF);
  2854  0881  3020               	movlw	32
  2855  0882  0024               	movlb	4	; select bank4
  2856  0883  0091               	movwf	17	;volatile
  2857  0884                     l765:
  2858  0884  1C14               	btfss	20,0	;volatile
  2859  0885  2887               	goto	u3101
  2860  0886  2888               	goto	u3100
  2861  0887                     u3101:
  2862  0887  2884               	goto	l765
  2863  0888                     u3100:
  2864  0888                     l767:
  2865                           
  2866                           ;lib/spi.c: 161:     PORTCbits.RC3 = 1;
  2867  0888  0020               	movlb	0	; select bank0
  2868  0889  158E               	bsf	14,3	;volatile
  2869  088A                     l764:
  2870  088A  0008               	return
  2871  088B                     __end_of_spiWrite:
  2872                           
  2873                           	psect	text2
  2874  01AB                     __ptext2:	
  2875 ;; *************** function _spwrh *****************
  2876 ;; Defined at:
  2877 ;;		line 91 in file "lib/spi.c"
  2878 ;; Parameters:    Size  Location     Type
  2879 ;;		None
  2880 ;; Auto vars:     Size  Location     Type
  2881 ;;		None
  2882 ;; Return value:  Size  Location     Type
  2883 ;;                  1    wreg      void 
  2884 ;; Registers used:
  2885 ;;		None
  2886 ;; Tracked objects:
  2887 ;;		On entry : 0/0
  2888 ;;		On exit  : 0/0
  2889 ;;		Unchanged: 0/0
  2890 ;; Data sizes:     COMMON   BANK1   BANK2   BANK3   BANK4   BANK5   BANK6   BANK7   BANK8   BANK9  BANK10  BANK11  BANK1
      +2
  2891 ;;      Params:         0       0       0       0       0       0       0       0       0       0       0       0       
      +0
  2892 ;;      Locals:         0       0       0       0       0       0       0       0       0       0       0       0       
      +0
  2893 ;;      Temps:          0       0       0       0       0       0       0       0       0       0       0       0       
      +0
  2894 ;;      Totals:         0       0       0       0       0       0       0       0       0       0       0       0       
      +0
  2895 ;;Total ram usage:        0 bytes
  2896 ;; Hardware stack levels used: 1
  2897 ;; Hardware stack levels required when called: 1
  2898 ;; This function calls:
  2899 ;;		Nothing
  2900 ;; This function is called by:
  2901 ;;		_spiWrite
  2902 ;; This function uses a non-reentrant model
  2903 ;;
  2904                           
  2905  01AB                     _spwrh:	
  2906                           ;psect for function _spwrh
  2907                           
  2908  01AB                     l3973:	
  2909                           ;incstack = 0
  2910                           ; Regs used in _spwrh: []
  2911                           
  2912  01AB  30B0               	movlw	176	;# 
  2913  01AC  0086               	movwf	6	;# 
  2914  01AD  3021               	movlw	33	;# 
  2915  01AE  0087               	movwf	7	;# 
  2916  01AF  0024               	movlb	4	;# 
  2917  01B0  0016               	moviw fsr1++	;# 
  2918  01B1  0091               	movwf	529	;# 
  2919  01B2  1C14               	btfss	532,0	;# 
  2920  01B3  33FE               	bra	-2	;# 
  2921  01B4  0811               	movf	529,w	;# 
  2922  01B5  0016               	moviw fsr1++	;# 
  2923  01B6  0091               	movwf	529	;# 
  2924  01B7  1C14               	btfss	532,0	;# 
  2925  01B8  33FE               	bra	-2	;# 
  2926  01B9  0811               	movf	529,w	;# 
  2927  01BA  0016               	moviw fsr1++	;# 
  2928  01BB  0091               	movwf	529	;# 
  2929  01BC  1C14               	btfss	532,0	;# 
  2930  01BD  33FE               	bra	-2	;# 
  2931  01BE  0811               	movf	529,w	;# 
  2932  01BF  0016               	moviw fsr1++	;# 
  2933  01C0  0091               	movwf	529	;# 
  2934  01C1  1C14               	btfss	532,0	;# 
  2935  01C2  33FE               	bra	-2	;# 
  2936  01C3  0811               	movf	529,w	;# 
  2937  01C4  0016               	moviw fsr1++	;# 
  2938  01C5  0091               	movwf	529	;# 
  2939  01C6  1C14               	btfss	532,0	;# 
  2940  01C7  33FE               	bra	-2	;# 
  2941  01C8  0811               	movf	529,w	;# 
  2942  01C9  0016               	moviw fsr1++	;# 
  2943  01CA  0091               	movwf	529	;# 
  2944  01CB  1C14               	btfss	532,0	;# 
  2945  01CC  33FE               	bra	-2	;# 
  2946  01CD  0811               	movf	529,w	;# 
  2947  01CE  0016               	moviw fsr1++	;# 
  2948  01CF  0091               	movwf	529	;# 
  2949  01D0  1C14               	btfss	532,0	;# 
  2950  01D1  33FE               	bra	-2	;# 
  2951  01D2  0811               	movf	529,w	;# 
  2952  01D3  0016               	moviw fsr1++	;# 
  2953  01D4  0091               	movwf	529	;# 
  2954  01D5  1C14               	btfss	532,0	;# 
  2955  01D6  33FE               	bra	-2	;# 
  2956  01D7  0811               	movf	529,w	;# 
  2957  01D8  0016               	moviw fsr1++	;# 
  2958  01D9  0091               	movwf	529	;# 
  2959  01DA  1C14               	btfss	532,0	;# 
  2960  01DB  33FE               	bra	-2	;# 
  2961  01DC  0811               	movf	529,w	;# 
  2962  01DD  0016               	moviw fsr1++	;# 
  2963  01DE  0091               	movwf	529	;# 
  2964  01DF  1C14               	btfss	532,0	;# 
  2965  01E0  33FE               	bra	-2	;# 
  2966  01E1  0811               	movf	529,w	;# 
  2967  01E2  0016               	moviw fsr1++	;# 
  2968  01E3  0091               	movwf	529	;# 
  2969  01E4  1C14               	btfss	532,0	;# 
  2970  01E5  33FE               	bra	-2	;# 
  2971  01E6  0811               	movf	529,w	;# 
  2972  01E7  0016               	moviw fsr1++	;# 
  2973  01E8  0091               	movwf	529	;# 
  2974  01E9  1C14               	btfss	532,0	;# 
  2975  01EA  33FE               	bra	-2	;# 
  2976  01EB  0811               	movf	529,w	;# 
  2977  01EC  0016               	moviw fsr1++	;# 
  2978  01ED  0091               	movwf	529	;# 
  2979  01EE  1C14               	btfss	532,0	;# 
  2980  01EF  33FE               	bra	-2	;# 
  2981  01F0  0811               	movf	529,w	;# 
  2982  01F1  0016               	moviw fsr1++	;# 
  2983  01F2  0091               	movwf	529	;# 
  2984  01F3  1C14               	btfss	532,0	;# 
  2985  01F4  33FE               	bra	-2	;# 
  2986  01F5  0811               	movf	529,w	;# 
  2987  01F6  0016               	moviw fsr1++	;# 
  2988  01F7  0091               	movwf	529	;# 
  2989  01F8  1C14               	btfss	532,0	;# 
  2990  01F9  33FE               	bra	-2	;# 
  2991  01FA  0811               	movf	529,w	;# 
  2992  01FB  0016               	moviw fsr1++	;# 
  2993  01FC  0091               	movwf	529	;# 
  2994  01FD  1C14               	btfss	532,0	;# 
  2995  01FE  33FE               	bra	-2	;# 
  2996  01FF  0811               	movf	529,w	;# 
  2997  0200  0016               	moviw fsr1++	;# 
  2998  0201  0091               	movwf	529	;# 
  2999  0202  1C14               	btfss	532,0	;# 
  3000  0203  33FE               	bra	-2	;# 
  3001  0204  0811               	movf	529,w	;# 
  3002  0205  0016               	moviw fsr1++	;# 
  3003  0206  0091               	movwf	529	;# 
  3004  0207  1C14               	btfss	532,0	;# 
  3005  0208  33FE               	bra	-2	;# 
  3006  0209  0811               	movf	529,w	;# 
  3007  020A  0016               	moviw fsr1++	;# 
  3008  020B  0091               	movwf	529	;# 
  3009  020C  1C14               	btfss	532,0	;# 
  3010  020D  33FE               	bra	-2	;# 
  3011  020E  0811               	movf	529,w	;# 
  3012  020F  0016               	moviw fsr1++	;# 
  3013  0210  0091               	movwf	529	;# 
  3014  0211  1C14               	btfss	532,0	;# 
  3015  0212  33FE               	bra	-2	;# 
  3016  0213  0811               	movf	529,w	;# 
  3017  0214  0016               	moviw fsr1++	;# 
  3018  0215  0091               	movwf	529	;# 
  3019  0216  1C14               	btfss	532,0	;# 
  3020  0217  33FE               	bra	-2	;# 
  3021  0218  0811               	movf	529,w	;# 
  3022  0219  0016               	moviw fsr1++	;# 
  3023  021A  0091               	movwf	529	;# 
  3024  021B  1C14               	btfss	532,0	;# 
  3025  021C  33FE               	bra	-2	;# 
  3026  021D  0811               	movf	529,w	;# 
  3027  021E  0016               	moviw fsr1++	;# 
  3028  021F  0091               	movwf	529	;# 
  3029  0220  1C14               	btfss	532,0	;# 
  3030  0221  33FE               	bra	-2	;# 
  3031  0222  0811               	movf	529,w	;# 
  3032  0223  0016               	moviw fsr1++	;# 
  3033  0224  0091               	movwf	529	;# 
  3034  0225  1C14               	btfss	532,0	;# 
  3035  0226  33FE               	bra	-2	;# 
  3036  0227  0811               	movf	529,w	;# 
  3037  0228  0016               	moviw fsr1++	;# 
  3038  0229  0091               	movwf	529	;# 
  3039  022A  1C14               	btfss	532,0	;# 
  3040  022B  33FE               	bra	-2	;# 
  3041  022C  0811               	movf	529,w	;# 
  3042  022D  0016               	moviw fsr1++	;# 
  3043  022E  0091               	movwf	529	;# 
  3044  022F  1C14               	btfss	532,0	;# 
  3045  0230  33FE               	bra	-2	;# 
  3046  0231  0811               	movf	529,w	;# 
  3047  0232  0016               	moviw fsr1++	;# 
  3048  0233  0091               	movwf	529	;# 
  3049  0234  1C14               	btfss	532,0	;# 
  3050  0235  33FE               	bra	-2	;# 
  3051  0236  0811               	movf	529,w	;# 
  3052  0237  0016               	moviw fsr1++	;# 
  3053  0238  0091               	movwf	529	;# 
  3054  0239  1C14               	btfss	532,0	;# 
  3055  023A  33FE               	bra	-2	;# 
  3056  023B  0811               	movf	529,w	;# 
  3057  023C  0016               	moviw fsr1++	;# 
  3058  023D  0091               	movwf	529	;# 
  3059  023E  1C14               	btfss	532,0	;# 
  3060  023F  33FE               	bra	-2	;# 
  3061  0240  0811               	movf	529,w	;# 
  3062  0241  0016               	moviw fsr1++	;# 
  3063  0242  0091               	movwf	529	;# 
  3064  0243  1C14               	btfss	532,0	;# 
  3065  0244  33FE               	bra	-2	;# 
  3066  0245  0811               	movf	529,w	;# 
  3067  0246  0016               	moviw fsr1++	;# 
  3068  0247  0091               	movwf	529	;# 
  3069  0248  1C14               	btfss	532,0	;# 
  3070  0249  33FE               	bra	-2	;# 
  3071  024A  0811               	movf	529,w	;# 
  3072  024B  0016               	moviw fsr1++	;# 
  3073  024C  0091               	movwf	529	;# 
  3074  024D  1C14               	btfss	532,0	;# 
  3075  024E  33FE               	bra	-2	;# 
  3076  024F  0811               	movf	529,w	;# 
  3077  0250  0016               	moviw fsr1++	;# 
  3078  0251  0091               	movwf	529	;# 
  3079  0252  1C14               	btfss	532,0	;# 
  3080  0253  33FE               	bra	-2	;# 
  3081  0254  0811               	movf	529,w	;# 
  3082  0255  0016               	moviw fsr1++	;# 
  3083  0256  0091               	movwf	529	;# 
  3084  0257  1C14               	btfss	532,0	;# 
  3085  0258  33FE               	bra	-2	;# 
  3086  0259  0811               	movf	529,w	;# 
  3087  025A  0016               	moviw fsr1++	;# 
  3088  025B  0091               	movwf	529	;# 
  3089  025C  1C14               	btfss	532,0	;# 
  3090  025D  33FE               	bra	-2	;# 
  3091  025E  0811               	movf	529,w	;# 
  3092  025F  0016               	moviw fsr1++	;# 
  3093  0260  0091               	movwf	529	;# 
  3094  0261  1C14               	btfss	532,0	;# 
  3095  0262  33FE               	bra	-2	;# 
  3096  0263  0811               	movf	529,w	;# 
  3097  0264  0016               	moviw fsr1++	;# 
  3098  0265  0091               	movwf	529	;# 
  3099  0266  1C14               	btfss	532,0	;# 
  3100  0267  33FE               	bra	-2	;# 
  3101  0268  0811               	movf	529,w	;# 
  3102  0269  0016               	moviw fsr1++	;# 
  3103  026A  0091               	movwf	529	;# 
  3104  026B  1C14               	btfss	532,0	;# 
  3105  026C  33FE               	bra	-2	;# 
  3106  026D  0811               	movf	529,w	;# 
  3107  026E  0016               	moviw fsr1++	;# 
  3108  026F  0091               	movwf	529	;# 
  3109  0270  1C14               	btfss	532,0	;# 
  3110  0271  33FE               	bra	-2	;# 
  3111  0272  0811               	movf	529,w	;# 
  3112  0273  0016               	moviw fsr1++	;# 
  3113  0274  0091               	movwf	529	;# 
  3114  0275  1C14               	btfss	532,0	;# 
  3115  0276  33FE               	bra	-2	;# 
  3116  0277  0811               	movf	529,w	;# 
  3117  0278  0016               	moviw fsr1++	;# 
  3118  0279  0091               	movwf	529	;# 
  3119  027A  1C14               	btfss	532,0	;# 
  3120  027B  33FE               	bra	-2	;# 
  3121  027C  0811               	movf	529,w	;# 
  3122  027D  0016               	moviw fsr1++	;# 
  3123  027E  0091               	movwf	529	;# 
  3124  027F  1C14               	btfss	532,0	;# 
  3125  0280  33FE               	bra	-2	;# 
  3126  0281  0811               	movf	529,w	;# 
  3127  0282  0016               	moviw fsr1++	;# 
  3128  0283  0091               	movwf	529	;# 
  3129  0284  1C14               	btfss	532,0	;# 
  3130  0285  33FE               	bra	-2	;# 
  3131  0286  0811               	movf	529,w	;# 
  3132  0287  0016               	moviw fsr1++	;# 
  3133  0288  0091               	movwf	529	;# 
  3134  0289  1C14               	btfss	532,0	;# 
  3135  028A  33FE               	bra	-2	;# 
  3136  028B  0811               	movf	529,w	;# 
  3137  028C  0016               	moviw fsr1++	;# 
  3138  028D  0091               	movwf	529	;# 
  3139  028E  1C14               	btfss	532,0	;# 
  3140  028F  33FE               	bra	-2	;# 
  3141  0290  0811               	movf	529,w	;# 
  3142  0291  0016               	moviw fsr1++	;# 
  3143  0292  0091               	movwf	529	;# 
  3144  0293  1C14               	btfss	532,0	;# 
  3145  0294  33FE               	bra	-2	;# 
  3146  0295  0811               	movf	529,w	;# 
  3147  0296  0016               	moviw fsr1++	;# 
  3148  0297  0091               	movwf	529	;# 
  3149  0298  1C14               	btfss	532,0	;# 
  3150  0299  33FE               	bra	-2	;# 
  3151  029A  0811               	movf	529,w	;# 
  3152  029B  0016               	moviw fsr1++	;# 
  3153  029C  0091               	movwf	529	;# 
  3154  029D  1C14               	btfss	532,0	;# 
  3155  029E  33FE               	bra	-2	;# 
  3156  029F  0811               	movf	529,w	;# 
  3157  02A0  0016               	moviw fsr1++	;# 
  3158  02A1  0091               	movwf	529	;# 
  3159  02A2  1C14               	btfss	532,0	;# 
  3160  02A3  33FE               	bra	-2	;# 
  3161  02A4  0811               	movf	529,w	;# 
  3162  02A5  0016               	moviw fsr1++	;# 
  3163  02A6  0091               	movwf	529	;# 
  3164  02A7  1C14               	btfss	532,0	;# 
  3165  02A8  33FE               	bra	-2	;# 
  3166  02A9  0811               	movf	529,w	;# 
  3167  02AA  0016               	moviw fsr1++	;# 
  3168  02AB  0091               	movwf	529	;# 
  3169  02AC  1C14               	btfss	532,0	;# 
  3170  02AD  33FE               	bra	-2	;# 
  3171  02AE  0811               	movf	529,w	;# 
  3172  02AF  0016               	moviw fsr1++	;# 
  3173  02B0  0091               	movwf	529	;# 
  3174  02B1  1C14               	btfss	532,0	;# 
  3175  02B2  33FE               	bra	-2	;# 
  3176  02B3  0811               	movf	529,w	;# 
  3177  02B4  0016               	moviw fsr1++	;# 
  3178  02B5  0091               	movwf	529	;# 
  3179  02B6  1C14               	btfss	532,0	;# 
  3180  02B7  33FE               	bra	-2	;# 
  3181  02B8  0811               	movf	529,w	;# 
  3182  02B9  0016               	moviw fsr1++	;# 
  3183  02BA  0091               	movwf	529	;# 
  3184  02BB  1C14               	btfss	532,0	;# 
  3185  02BC  33FE               	bra	-2	;# 
  3186  02BD  0811               	movf	529,w	;# 
  3187  02BE  0016               	moviw fsr1++	;# 
  3188  02BF  0091               	movwf	529	;# 
  3189  02C0  1C14               	btfss	532,0	;# 
  3190  02C1  33FE               	bra	-2	;# 
  3191  02C2  0811               	movf	529,w	;# 
  3192  02C3  0016               	moviw fsr1++	;# 
  3193  02C4  0091               	movwf	529	;# 
  3194  02C5  1C14               	btfss	532,0	;# 
  3195  02C6  33FE               	bra	-2	;# 
  3196  02C7  0811               	movf	529,w	;# 
  3197  02C8  0016               	moviw fsr1++	;# 
  3198  02C9  0091               	movwf	529	;# 
  3199  02CA  1C14               	btfss	532,0	;# 
  3200  02CB  33FE               	bra	-2	;# 
  3201  02CC  0811               	movf	529,w	;# 
  3202  02CD  0016               	moviw fsr1++	;# 
  3203  02CE  0091               	movwf	529	;# 
  3204  02CF  1C14               	btfss	532,0	;# 
  3205  02D0  33FE               	bra	-2	;# 
  3206  02D1  0811               	movf	529,w	;# 
  3207  02D2  0016               	moviw fsr1++	;# 
  3208  02D3  0091               	movwf	529	;# 
  3209  02D4  1C14               	btfss	532,0	;# 
  3210  02D5  33FE               	bra	-2	;# 
  3211  02D6  0811               	movf	529,w	;# 
  3212  02D7  0016               	moviw fsr1++	;# 
  3213  02D8  0091               	movwf	529	;# 
  3214  02D9  1C14               	btfss	532,0	;# 
  3215  02DA  33FE               	bra	-2	;# 
  3216  02DB  0811               	movf	529,w	;# 
  3217  02DC  0016               	moviw fsr1++	;# 
  3218  02DD  0091               	movwf	529	;# 
  3219  02DE  1C14               	btfss	532,0	;# 
  3220  02DF  33FE               	bra	-2	;# 
  3221  02E0  0811               	movf	529,w	;# 
  3222  02E1  0016               	moviw fsr1++	;# 
  3223  02E2  0091               	movwf	529	;# 
  3224  02E3  1C14               	btfss	532,0	;# 
  3225  02E4  33FE               	bra	-2	;# 
  3226  02E5  0811               	movf	529,w	;# 
  3227  02E6  0016               	moviw fsr1++	;# 
  3228  02E7  0091               	movwf	529	;# 
  3229  02E8  1C14               	btfss	532,0	;# 
  3230  02E9  33FE               	bra	-2	;# 
  3231  02EA  0811               	movf	529,w	;# 
  3232  02EB  0016               	moviw fsr1++	;# 
  3233  02EC  0091               	movwf	529	;# 
  3234  02ED  1C14               	btfss	532,0	;# 
  3235  02EE  33FE               	bra	-2	;# 
  3236  02EF  0811               	movf	529,w	;# 
  3237  02F0                     l758:
  3238  02F0  0008               	return
  3239  02F1                     __end_of_spwrh:
  3240                           
  3241                           	psect	text3
  3242  02F1                     __ptext3:	
  3243 ;; *************** function _USBDeviceTasks *****************
  3244 ;; Defined at:
  3245 ;;		line 481 in file "lib/usb/usb_device.c"
  3246 ;; Parameters:    Size  Location     Type
  3247 ;;		None
  3248 ;; Auto vars:     Size  Location     Type
  3249 ;;  i               1   20[BANK1 ] unsigned char 
  3250 ;; Return value:  Size  Location     Type
  3251 ;;                  1    wreg      void 
  3252 ;; Registers used:
  3253 ;;		wreg, fsr0l, fsr0h, fsr1l, fsr1h, status,2, status,0, pclath, cstack
  3254 ;; Tracked objects:
  3255 ;;		On entry : 0/0
  3256 ;;		On exit  : 0/0
  3257 ;;		Unchanged: 0/0
  3258 ;; Data sizes:     COMMON   BANK1   BANK2   BANK3   BANK4   BANK5   BANK6   BANK7   BANK8   BANK9  BANK10  BANK11  BANK1
      +2
  3259 ;;      Params:         0       0       0       0       0       0       0       0       0       0       0       0       
      +0
  3260 ;;      Locals:         0       1       0       0       0       0       0       0       0       0       0       0       
      +0
  3261 ;;      Temps:          0       2       0       0       0       0       0       0       0       0       0       0       
      +0
  3262 ;;      Totals:         0       3       0       0       0       0       0       0       0       0       0       0       
      +0
  3263 ;;Total ram usage:        3 bytes
  3264 ;; Hardware stack levels used: 1
  3265 ;; Hardware stack levels required when called: 9
  3266 ;; This function calls:
  3267 ;;		_USBCtrlEPAllowStatusStage
  3268 ;;		_USBCtrlEPService
  3269 ;;		_USBDeviceInit
  3270 ;;		_USBIncrement1msInternalTimers
  3271 ;;		_USBStallHandler
  3272 ;;		_USBSuspend
  3273 ;;		_USBWakeFromSuspend
  3274 ;;		_USER_USB_CALLBACK_EVENT_HANDLER
  3275 ;; This function is called by:
  3276 ;;		_main
  3277 ;; This function uses a non-reentrant model
  3278 ;;
  3279                           
  3280  02F1                     _USBDeviceTasks:	
  3281                           ;psect for function _USBDeviceTasks
  3282                           
  3283  02F1                     l4725:	
  3284                           ;incstack = 0
  3285                           ; Regs used in _USBDeviceTasks: [wreg-fsr1h+status,2+status,0+pclath+cstack]
  3286                           
  3287  02F1                     l4733:	
  3288                           ;lib/usb/usb_device.c: 483:     uint8_t i;;lib/usb/usb_device.c: 509:     if (1 != 1)
  3289                           
  3290                           
  3291                           ;lib/usb/usb_device.c: 570:     if(USBDeviceState == DETACHED_STATE)
  3292  02F1  0021               	movlb	1	; select bank1
  3293  02F2  0854               	movf	_USBDeviceState^(0+128),w
  3294  02F3  1D03               	btfss	3,2
  3295  02F4  2AF6               	goto	u3521
  3296  02F5  2AF7               	goto	u3520
  3297  02F6                     u3521:
  3298  02F6  2B09               	goto	l4743
  3299  02F7                     u3520:
  3300  02F7                     l4735:
  3301                           
  3302                           ;lib/usb/usb_device.c: 571:     {;lib/usb/usb_device.c: 573:         UCON = 0;
  3303  02F7  003D               	movlb	29	; select bank29
  3304  02F8  018E               	clrf	14	;volatile
  3305                           
  3306                           ;lib/usb/usb_device.c: 576:         UIE = 0;
  3307  02F9  0192               	clrf	18	;volatile
  3308  02FA                     l4737:
  3309                           
  3310                           ;lib/usb/usb_device.c: 580:         { UCFG = 0x10 | 0x00 | 0x04 | 0x02; UEIE = 0x9F; UIE
      +                           = 0x39 | 0x40 | 0x02; };
  3311  02FA  3016               	movlw	22
  3312  02FB  0091               	movwf	17	;volatile
  3313  02FC                     l4739:
  3314  02FC  309F               	movlw	159
  3315  02FD  0097               	movwf	23	;volatile
  3316  02FE                     l4741:
  3317  02FE  307B               	movlw	123
  3318  02FF  0092               	movwf	18	;volatile
  3319                           
  3320                           ;lib/usb/usb_device.c: 583:         while(!UCONbits.USBEN){UCONbits.USBEN = 1;}
  3321  0300  2B02               	goto	l167
  3322  0301                     l168:
  3323  0301  158E               	bsf	14,3	;volatile
  3324  0302                     l167:
  3325  0302  1D8E               	btfss	14,3	;volatile
  3326  0303  2B05               	goto	u3531
  3327  0304  2B06               	goto	u3530
  3328  0305                     u3531:
  3329  0305  2B01               	goto	l168
  3330  0306                     u3530:
  3331  0306                     l169:
  3332                           
  3333                           ;lib/usb/usb_device.c: 586:         USBDeviceState = ATTACHED_STATE;
  3334  0306  0021               	movlb	1	; select bank1
  3335  0307  01D4               	clrf	_USBDeviceState^(0+128)
  3336  0308  0AD4               	incf	_USBDeviceState^(0+128),f
  3337  0309                     l4743:
  3338                           
  3339                           ;lib/usb/usb_device.c: 594:     if(USBDeviceState == ATTACHED_STATE)
  3340  0309  0354               	decf	_USBDeviceState^(0+128),w
  3341  030A  1D03               	btfss	3,2
  3342  030B  2B0D               	goto	u3541
  3343  030C  2B0E               	goto	u3540
  3344  030D                     u3541:
  3345  030D  2B1C               	goto	l4755
  3346  030E                     u3540:
  3347  030E                     l4745:
  3348                           
  3349                           ;lib/usb/usb_device.c: 595:     {;lib/usb/usb_device.c: 605:         if(!UCONbits.SE0)
  3350  030E  003D               	movlb	29	; select bank29
  3351  030F  1A8E               	btfsc	14,5	;volatile
  3352  0310  2B12               	goto	u3551
  3353  0311  2B13               	goto	u3550
  3354  0312                     u3551:
  3355  0312  2B1C               	goto	l4755
  3356  0313                     u3550:
  3357  0313                     l4747:
  3358                           
  3359                           ;lib/usb/usb_device.c: 606:         {;lib/usb/usb_device.c: 612:                 {UIR = 
      +                          0;};
  3360  0313  0190               	clrf	16	;volatile
  3361                           
  3362                           ;lib/usb/usb_device.c: 616:                 UIE=0;
  3363  0314  0192               	clrf	18	;volatile
  3364  0315                     l4749:
  3365                           
  3366                           ;lib/usb/usb_device.c: 618:             UIEbits.URSTIE = 1;
  3367  0315  1412               	bsf	18,0	;volatile
  3368  0316                     l4751:
  3369                           
  3370                           ;lib/usb/usb_device.c: 619:             UIEbits.IDLEIE = 1;
  3371  0316  1612               	bsf	18,4	;volatile
  3372  0317                     l4753:
  3373                           
  3374                           ;lib/usb/usb_device.c: 620:             USBDeviceState = POWERED_STATE;
  3375  0317  3002               	movlw	2
  3376  0318  0021               	movlb	1	; select bank1
  3377  0319  00EB               	movwf	??_USBDeviceTasks^(0+128)
  3378  031A  086B               	movf	??_USBDeviceTasks^(0+128),w
  3379  031B  00D4               	movwf	_USBDeviceState^(0+128)
  3380  031C                     l4755:
  3381                           
  3382                           ;lib/usb/usb_device.c: 638:     if(UIRbits.ACTVIF && UIEbits.ACTVIE)
  3383  031C  003D               	movlb	29	; select bank29
  3384  031D  1D10               	btfss	16,2	;volatile
  3385  031E  2B20               	goto	u3561
  3386  031F  2B21               	goto	u3560
  3387  0320                     u3561:
  3388  0320  2B2E               	goto	l4763
  3389  0321                     u3560:
  3390  0321                     l4757:
  3391  0321  1D12               	btfss	18,2	;volatile
  3392  0322  2B24               	goto	u3571
  3393  0323  2B25               	goto	u3570
  3394  0324                     u3571:
  3395  0324  2B2E               	goto	l4763
  3396  0325                     u3570:
  3397  0325                     l4759:
  3398                           
  3399                           ;lib/usb/usb_device.c: 639:     {;lib/usb/usb_device.c: 640:         (UIR &= 0xFB);
  3400  0325  30FB               	movlw	251
  3401  0326  0021               	movlb	1	; select bank1
  3402  0327  00EB               	movwf	??_USBDeviceTasks^(0+128)
  3403  0328  086B               	movf	??_USBDeviceTasks^(0+128),w
  3404  0329  003D               	movlb	29	; select bank29
  3405  032A  0590               	andwf	16,f	;volatile
  3406  032B                     l4761:
  3407                           
  3408                           ;lib/usb/usb_device.c: 644:             USBWakeFromSuspend();
  3409  032B  3197  279B  3182   	fcall	_USBWakeFromSuspend
  3410  032E                     l4763:
  3411                           
  3412                           ;lib/usb/usb_device.c: 651:     if(UCONbits.SUSPND==1)
  3413  032E  003D               	movlb	29	; select bank29
  3414  032F  1C8E               	btfss	14,1	;volatile
  3415  0330  2B32               	goto	u3581
  3416  0331  2B33               	goto	u3580
  3417  0332                     u3581:
  3418  0332  2B36               	goto	l173
  3419  0333                     u3580:
  3420  0333                     l4765:
  3421                           
  3422                           ;lib/usb/usb_device.c: 652:     {;lib/usb/usb_device.c: 653:         PIR2bits.USBIF = 0;
      +                          ;
  3423  0333  0020               	movlb	0	; select bank0
  3424  0334  1112               	bcf	18,2	;volatile
  3425                           
  3426                           ;lib/usb/usb_device.c: 654:         return;
  3427  0335  2C1F               	goto	l165
  3428  0336                     l173:	
  3429                           ;lib/usb/usb_device.c: 655:     }
  3430                           
  3431                           
  3432                           ;lib/usb/usb_device.c: 667:     if(UIRbits.URSTIF && UIEbits.URSTIE)
  3433  0336  1C10               	btfss	16,0	;volatile
  3434  0337  2B39               	goto	u3591
  3435  0338  2B3A               	goto	u3590
  3436  0339                     u3591:
  3437  0339  2B4B               	goto	l4775
  3438  033A                     u3590:
  3439  033A                     l4767:
  3440  033A  1C12               	btfss	18,0	;volatile
  3441  033B  2B3D               	goto	u3601
  3442  033C  2B3E               	goto	u3600
  3443  033D                     u3601:
  3444  033D  2B4B               	goto	l4775
  3445  033E                     u3600:
  3446  033E                     l4769:
  3447                           
  3448                           ;lib/usb/usb_device.c: 668:     {;lib/usb/usb_device.c: 669:         USBDeviceInit();
  3449  033E  3186  26D9  3182   	fcall	_USBDeviceInit
  3450  0341                     l4771:
  3451                           
  3452                           ;lib/usb/usb_device.c: 675:         USBDeviceState = DEFAULT_STATE;
  3453  0341  3004               	movlw	4
  3454  0342  0021               	movlb	1	; select bank1
  3455  0343  00EB               	movwf	??_USBDeviceTasks^(0+128)
  3456  0344  086B               	movf	??_USBDeviceTasks^(0+128),w
  3457  0345  00D4               	movwf	_USBDeviceState^(0+128)
  3458  0346                     l4773:
  3459                           
  3460                           ;lib/usb/usb_device.c: 685:         (UIR &= 0xFE);
  3461  0346  30FE               	movlw	254
  3462  0347  00EB               	movwf	??_USBDeviceTasks^(0+128)
  3463  0348  086B               	movf	??_USBDeviceTasks^(0+128),w
  3464  0349  003D               	movlb	29	; select bank29
  3465  034A  0590               	andwf	16,f	;volatile
  3466  034B                     l4775:
  3467                           
  3468                           ;lib/usb/usb_device.c: 691:     if(UIRbits.IDLEIF && UIEbits.IDLEIE)
  3469  034B  1E10               	btfss	16,4	;volatile
  3470  034C  2B4E               	goto	u3611
  3471  034D  2B4F               	goto	u3610
  3472  034E                     u3611:
  3473  034E  2B56               	goto	l4781
  3474  034F                     u3610:
  3475  034F                     l4777:
  3476  034F  1E12               	btfss	18,4	;volatile
  3477  0350  2B52               	goto	u3621
  3478  0351  2B53               	goto	u3620
  3479  0352                     u3621:
  3480  0352  2B56               	goto	l4781
  3481  0353                     u3620:
  3482  0353                     l4779:
  3483                           
  3484                           ;lib/usb/usb_device.c: 692:     {;lib/usb/usb_device.c: 698:             USBSuspend();
  3485  0353  3197  275E  3182   	fcall	_USBSuspend
  3486  0356                     l4781:
  3487                           
  3488                           ;lib/usb/usb_device.c: 712:     if(UIRbits.SOFIF)
  3489  0356  003D               	movlb	29	; select bank29
  3490  0357  1F10               	btfss	16,6	;volatile
  3491  0358  2B5A               	goto	u3631
  3492  0359  2B5B               	goto	u3630
  3493  035A                     u3631:
  3494  035A  2B88               	goto	l4797
  3495  035B                     u3630:
  3496  035B                     l4783:
  3497                           
  3498                           ;lib/usb/usb_device.c: 713:     {;lib/usb/usb_device.c: 715:         if(UIEbits.SOFIE)
  3499  035B  1F12               	btfss	18,6	;volatile
  3500  035C  2B5E               	goto	u3641
  3501  035D  2B5F               	goto	u3640
  3502  035E                     u3641:
  3503  035E  2B6F               	goto	l4787
  3504  035F                     u3640:
  3505  035F                     l4785:
  3506                           
  3507                           ;lib/usb/usb_device.c: 716:         {;lib/usb/usb_device.c: 717:             USER_USB_CA
      +                          LLBACK_EVENT_HANDLER((USB_EVENT)EVENT_SOF,0,1);
  3508  035F  3073               	movlw	115
  3509  0360  0021               	movlb	1	; select bank1
  3510  0361  00D9               	movwf	USER_USB_CALLBACK_EVENT_HANDLER@event^(0+128)
  3511  0362  3000               	movlw	0
  3512  0363  00DA               	movwf	(USER_USB_CALLBACK_EVENT_HANDLER@event^(0+128)+1)
  3513  0364  3000               	movlw	0
  3514  0365  00DB               	movwf	USER_USB_CALLBACK_EVENT_HANDLER@pdata^(0+128)
  3515  0366  3000               	movlw	0
  3516  0367  00DC               	movwf	(USER_USB_CALLBACK_EVENT_HANDLER@pdata+1)^(0+128)
  3517  0368  3001               	movlw	1
  3518  0369  00DD               	movwf	USER_USB_CALLBACK_EVENT_HANDLER@size^(0+128)
  3519  036A  3000               	movlw	0
  3520  036B  00DE               	movwf	(USER_USB_CALLBACK_EVENT_HANDLER@size^(0+128)+1)
  3521  036C  3189  21B8  3182   	fcall	_USER_USB_CALLBACK_EVENT_HANDLER
  3522  036F                     l4787:
  3523                           
  3524                           ;lib/usb/usb_device.c: 719:         (UIR &= 0xBF);
  3525  036F  30BF               	movlw	191
  3526  0370  0021               	movlb	1	; select bank1
  3527  0371  00EB               	movwf	??_USBDeviceTasks^(0+128)
  3528  0372  086B               	movf	??_USBDeviceTasks^(0+128),w
  3529  0373  003D               	movlb	29	; select bank29
  3530  0374  0590               	andwf	16,f	;volatile
  3531  0375                     l4789:
  3532                           
  3533                           ;lib/usb/usb_device.c: 722:             USBIncrement1msInternalTimers();
  3534  0375  3188  2001  3182   	fcall	_USBIncrement1msInternalTimers
  3535  0378                     l4791:
  3536                           
  3537                           ;lib/usb/usb_device.c: 739:             if(USBStatusStageTimeoutCounter != 0u)
  3538  0378  0021               	movlb	1	; select bank1
  3539  0379  084B               	movf	_USBStatusStageTimeoutCounter^(0+128),w
  3540  037A  1903               	btfsc	3,2
  3541  037B  2B7D               	goto	u3651
  3542  037C  2B7E               	goto	u3650
  3543  037D                     u3651:
  3544  037D  2B80               	goto	l178
  3545  037E                     u3650:
  3546  037E                     l4793:
  3547                           
  3548                           ;lib/usb/usb_device.c: 740:             {;lib/usb/usb_device.c: 741:                 USB
      +                          StatusStageTimeoutCounter--;
  3549  037E  3001               	movlw	1
  3550  037F  02CB               	subwf	_USBStatusStageTimeoutCounter^(0+128),f
  3551  0380                     l178:	
  3552                           ;lib/usb/usb_device.c: 742:             }
  3553                           
  3554                           
  3555                           ;lib/usb/usb_device.c: 748:             if(USBStatusStageTimeoutCounter == 0)
  3556  0380  084B               	movf	_USBStatusStageTimeoutCounter^(0+128),w
  3557  0381  1D03               	btfss	3,2
  3558  0382  2B84               	goto	u3661
  3559  0383  2B85               	goto	u3660
  3560  0384                     u3661:
  3561  0384  2B88               	goto	l4797
  3562  0385                     u3660:
  3563  0385                     l4795:
  3564                           
  3565                           ;lib/usb/usb_device.c: 749:             {;lib/usb/usb_device.c: 750:                 USB
      +                          CtrlEPAllowStatusStage();
  3566  0385  318B  23C9  3182   	fcall	_USBCtrlEPAllowStatusStage
  3567  0388                     l4797:
  3568                           
  3569                           ;lib/usb/usb_device.c: 755:     if(UIRbits.STALLIF && UIEbits.STALLIE)
  3570  0388  003D               	movlb	29	; select bank29
  3571  0389  1E90               	btfss	16,5	;volatile
  3572  038A  2B8C               	goto	u3671
  3573  038B  2B8D               	goto	u3670
  3574  038C                     u3671:
  3575  038C  2B94               	goto	l4803
  3576  038D                     u3670:
  3577  038D                     l4799:
  3578  038D  1E92               	btfss	18,5	;volatile
  3579  038E  2B90               	goto	u3681
  3580  038F  2B91               	goto	u3680
  3581  0390                     u3681:
  3582  0390  2B94               	goto	l4803
  3583  0391                     u3680:
  3584  0391                     l4801:
  3585                           
  3586                           ;lib/usb/usb_device.c: 756:     {;lib/usb/usb_device.c: 757:         USBStallHandler();
  3587  0391  3188  20B4  3182   	fcall	_USBStallHandler
  3588  0394                     l4803:
  3589                           
  3590                           ;lib/usb/usb_device.c: 760:     if(UIRbits.UERRIF && UIEbits.UERRIE)
  3591  0394  003D               	movlb	29	; select bank29
  3592  0395  1C90               	btfss	16,1	;volatile
  3593  0396  2B98               	goto	u3691
  3594  0397  2B99               	goto	u3690
  3595  0398                     u3691:
  3596  0398  2BAF               	goto	l4811
  3597  0399                     u3690:
  3598  0399                     l4805:
  3599  0399  1C92               	btfss	18,1	;volatile
  3600  039A  2B9C               	goto	u3701
  3601  039B  2B9D               	goto	u3700
  3602  039C                     u3701:
  3603  039C  2BAF               	goto	l4811
  3604  039D                     u3700:
  3605  039D                     l4807:
  3606                           
  3607                           ;lib/usb/usb_device.c: 761:     {;lib/usb/usb_device.c: 762:         USER_USB_CALLBACK_E
      +                          VENT_HANDLER((USB_EVENT)EVENT_BUS_ERROR,0,1);
  3608  039D  30FF               	movlw	255
  3609  039E  0021               	movlb	1	; select bank1
  3610  039F  00D9               	movwf	USER_USB_CALLBACK_EVENT_HANDLER@event^(0+128)
  3611  03A0  307F               	movlw	127
  3612  03A1  00DA               	movwf	(USER_USB_CALLBACK_EVENT_HANDLER@event^(0+128)+1)
  3613  03A2  3000               	movlw	0
  3614  03A3  00DB               	movwf	USER_USB_CALLBACK_EVENT_HANDLER@pdata^(0+128)
  3615  03A4  3000               	movlw	0
  3616  03A5  00DC               	movwf	(USER_USB_CALLBACK_EVENT_HANDLER@pdata+1)^(0+128)
  3617  03A6  3001               	movlw	1
  3618  03A7  00DD               	movwf	USER_USB_CALLBACK_EVENT_HANDLER@size^(0+128)
  3619  03A8  3000               	movlw	0
  3620  03A9  00DE               	movwf	(USER_USB_CALLBACK_EVENT_HANDLER@size^(0+128)+1)
  3621  03AA  3189  21B8  3182   	fcall	_USER_USB_CALLBACK_EVENT_HANDLER
  3622  03AD                     l4809:
  3623                           
  3624                           ;lib/usb/usb_device.c: 763:         {UEIR = 0;};
  3625  03AD  003D               	movlb	29	; select bank29
  3626  03AE  0193               	clrf	19	;volatile
  3627  03AF                     l4811:
  3628                           
  3629                           ;lib/usb/usb_device.c: 778:     if(USBDeviceState < DEFAULT_STATE)
  3630  03AF  3004               	movlw	4
  3631  03B0  0021               	movlb	1	; select bank1
  3632  03B1  0254               	subwf	_USBDeviceState^(0+128),w
  3633  03B2  1803               	skipnc
  3634  03B3  2BB5               	goto	u3711
  3635  03B4  2BB6               	goto	u3710
  3636  03B5                     u3711:
  3637  03B5  2BB9               	goto	l182
  3638  03B6                     u3710:
  3639  03B6                     l4813:
  3640                           
  3641                           ;lib/usb/usb_device.c: 779:     {;lib/usb/usb_device.c: 780:         PIR2bits.USBIF = 0;
      +                          ;
  3642  03B6  0020               	movlb	0	; select bank0
  3643  03B7  1112               	bcf	18,2	;volatile
  3644                           
  3645                           ;lib/usb/usb_device.c: 781:         return;
  3646  03B8  2C1F               	goto	l165
  3647  03B9                     l182:	
  3648                           ;lib/usb/usb_device.c: 782:     }
  3649                           
  3650                           
  3651                           ;lib/usb/usb_device.c: 787:     if(UIEbits.TRNIE)
  3652  03B9  003D               	movlb	29	; select bank29
  3653  03BA  1D92               	btfss	18,3	;volatile
  3654  03BB  2BBD               	goto	u3721
  3655  03BC  2BBE               	goto	u3720
  3656  03BD                     u3721:
  3657  03BD  2C1D               	goto	l183
  3658  03BE                     u3720:
  3659  03BE                     l4815:
  3660                           
  3661                           ;lib/usb/usb_device.c: 788:     {;lib/usb/usb_device.c: 789:         for(i = 0; i < 4u; 
      +                          i++)
  3662  03BE  0021               	movlb	1	; select bank1
  3663  03BF  01ED               	clrf	USBDeviceTasks@i^(0+128)
  3664  03C0                     l184:
  3665                           
  3666                           ;lib/usb/usb_device.c: 790:         {;lib/usb/usb_device.c: 791:             if(UIRbits.
      +                          TRNIF)
  3667  03C0  003D               	movlb	29	; select bank29
  3668  03C1  1D90               	btfss	16,3	;volatile
  3669  03C2  2BC4               	goto	u3731
  3670  03C3  2BC5               	goto	u3730
  3671  03C4                     u3731:
  3672  03C4  2C1D               	goto	l183
  3673  03C5                     u3730:
  3674  03C5                     l4821:
  3675                           
  3676                           ;lib/usb/usb_device.c: 792:             {;lib/usb/usb_device.c: 794:                 UST
      +                          ATcopy.Val = USTAT;
  3677  03C5  080F               	movf	15,w	;volatile
  3678  03C6  0021               	movlb	1	; select bank1
  3679  03C7  00EB               	movwf	??_USBDeviceTasks^(0+128)
  3680  03C8  086B               	movf	??_USBDeviceTasks^(0+128),w
  3681  03C9  00D7               	movwf	_USTATcopy^(0+128)
  3682  03CA                     l4823:
  3683                           
  3684                           ;lib/usb/usb_device.c: 795:                 endpoint_number = USTATcopy.endpoint_number;
  3685  03CA  0C57               	rrf	_USTATcopy^(0+128),w
  3686  03CB  00EB               	movwf	??_USBDeviceTasks^(0+128)
  3687  03CC  0CEB               	rrf	??_USBDeviceTasks^(0+128),f
  3688  03CD  0C6B               	rrf	??_USBDeviceTasks^(0+128),w
  3689  03CE  390F               	andlw	15
  3690  03CF  00EC               	movwf	(??_USBDeviceTasks+1)^(0+128)
  3691  03D0  086C               	movf	(??_USBDeviceTasks+1)^(0+128),w
  3692  03D1  00CD               	movwf	_endpoint_number^(0+128)
  3693  03D2                     l4825:
  3694                           
  3695                           ;lib/usb/usb_device.c: 797:                 (UIR &= 0xF7);
  3696  03D2  30F7               	movlw	247
  3697  03D3  00EB               	movwf	??_USBDeviceTasks^(0+128)
  3698  03D4  086B               	movf	??_USBDeviceTasks^(0+128),w
  3699  03D5  003D               	movlb	29	; select bank29
  3700  03D6  0590               	andwf	16,f	;volatile
  3701  03D7                     l4827:
  3702                           
  3703                           ;lib/usb/usb_device.c: 802:                 if(USTATcopy.direction == 0)
  3704  03D7  0021               	movlb	1	; select bank1
  3705  03D8  1957               	btfsc	_USTATcopy^(0+128),2
  3706  03D9  2BDB               	goto	u3741
  3707  03DA  2BDC               	goto	u3740
  3708  03DB                     u3741:
  3709  03DB  2BEC               	goto	l4831
  3710  03DC                     u3740:
  3711  03DC                     l4829:
  3712                           
  3713                           ;lib/usb/usb_device.c: 803:                 {;lib/usb/usb_device.c: 804:                
      +                               ep_data_out[endpoint_number].bits.ping_pong_state ^= 1;
  3714  03DC  084D               	movf	_endpoint_number^(0+128),w
  3715  03DD  3EAC               	addlw	(low (_ep_data_out| (0+256)))& (0+255)
  3716  03DE  0086               	movwf	6
  3717  03DF  3001               	movlw	1	; select bank3/4
  3718  03E0  0087               	movwf	7
  3719  03E1  0801               	movf	1,w
  3720  03E2  3901               	andlw	1
  3721  03E3  00EB               	movwf	??_USBDeviceTasks^(0+128)
  3722  03E4  3001               	movlw	1
  3723  03E5  06EB               	xorwf	??_USBDeviceTasks^(0+128),f
  3724  03E6  0801               	movf	1,w
  3725  03E7  066B               	xorwf	??_USBDeviceTasks^(0+128),w
  3726  03E8  39FE               	andlw	-2
  3727  03E9  066B               	xorwf	??_USBDeviceTasks^(0+128),w
  3728  03EA  0081               	movwf	1
  3729                           
  3730                           ;lib/usb/usb_device.c: 805:                 }
  3731  03EB  2BFB               	goto	l4833
  3732  03EC                     l4831:
  3733                           
  3734                           ;lib/usb/usb_device.c: 807:                 {;lib/usb/usb_device.c: 808:                
      +                               ep_data_in[endpoint_number].bits.ping_pong_state ^= 1;
  3735  03EC  084D               	movf	_endpoint_number^(0+128),w
  3736  03ED  3EB0               	addlw	(low (_ep_data_in| (0+256)))& (0+255)
  3737  03EE  0086               	movwf	6
  3738  03EF  3001               	movlw	1	; select bank3/4
  3739  03F0  0087               	movwf	7
  3740  03F1  0801               	movf	1,w
  3741  03F2  3901               	andlw	1
  3742  03F3  00EB               	movwf	??_USBDeviceTasks^(0+128)
  3743  03F4  3001               	movlw	1
  3744  03F5  06EB               	xorwf	??_USBDeviceTasks^(0+128),f
  3745  03F6  0801               	movf	1,w
  3746  03F7  066B               	xorwf	??_USBDeviceTasks^(0+128),w
  3747  03F8  39FE               	andlw	-2
  3748  03F9  066B               	xorwf	??_USBDeviceTasks^(0+128),w
  3749  03FA  0081               	movwf	1
  3750  03FB                     l4833:
  3751                           
  3752                           ;lib/usb/usb_device.c: 814:                 if(endpoint_number == 0)
  3753  03FB  084D               	movf	_endpoint_number^(0+128),w
  3754  03FC  1D03               	btfss	3,2
  3755  03FD  2BFF               	goto	u3751
  3756  03FE  2C00               	goto	u3750
  3757  03FF                     u3751:
  3758  03FF  2C04               	goto	l4837
  3759  0400                     u3750:
  3760  0400                     l4835:
  3761                           
  3762                           ;lib/usb/usb_device.c: 815:                 {;lib/usb/usb_device.c: 816:                
      +                               USBCtrlEPService();
  3763  0400  318A  2246  3182   	fcall	_USBCtrlEPService
  3764                           
  3765                           ;lib/usb/usb_device.c: 817:                 }
  3766  0403  2C12               	goto	l4839
  3767  0404                     l4837:
  3768                           
  3769                           ;lib/usb/usb_device.c: 819:                 {;lib/usb/usb_device.c: 820:                
      +                               USER_USB_CALLBACK_EVENT_HANDLER((USB_EVENT)EVENT_TRANSFER,(uint8_t*)&USTATcopy.Val,
      +                          0);
  3770  0404  3072               	movlw	114
  3771  0405  00D9               	movwf	USER_USB_CALLBACK_EVENT_HANDLER@event^(0+128)
  3772  0406  3000               	movlw	0
  3773  0407  00DA               	movwf	(USER_USB_CALLBACK_EVENT_HANDLER@event^(0+128)+1)
  3774  0408  30D7               	movlw	low _USTATcopy
  3775  0409  00DB               	movwf	USER_USB_CALLBACK_EVENT_HANDLER@pdata^(0+128)
  3776  040A  3000               	movlw	high _USTATcopy
  3777  040B  00DC               	movwf	(USER_USB_CALLBACK_EVENT_HANDLER@pdata+1)^(0+128)
  3778  040C  3000               	movlw	0
  3779  040D  00DD               	movwf	USER_USB_CALLBACK_EVENT_HANDLER@size^(0+128)
  3780  040E  00DE               	movwf	(USER_USB_CALLBACK_EVENT_HANDLER@size+1)^(0+128)
  3781  040F  3189  21B8  3182   	fcall	_USER_USB_CALLBACK_EVENT_HANDLER
  3782  0412                     l4839:
  3783                           
  3784                           ;lib/usb/usb_device.c: 827:         }
  3785  0412  3001               	movlw	1
  3786  0413  0021               	movlb	1	; select bank1
  3787  0414  00EB               	movwf	??_USBDeviceTasks^(0+128)
  3788  0415  086B               	movf	??_USBDeviceTasks^(0+128),w
  3789  0416  07ED               	addwf	USBDeviceTasks@i^(0+128),f
  3790  0417                     l4841:
  3791  0417  3004               	movlw	4
  3792  0418  026D               	subwf	USBDeviceTasks@i^(0+128),w
  3793  0419  1C03               	skipc
  3794  041A  2C1C               	goto	u3761
  3795  041B  2C1D               	goto	u3760
  3796  041C                     u3761:
  3797  041C  2BC0               	goto	l184
  3798  041D                     u3760:
  3799  041D                     l183:	
  3800                           ;lib/usb/usb_device.c: 828:     }
  3801                           
  3802                           
  3803                           ;lib/usb/usb_device.c: 830:     PIR2bits.USBIF = 0;;
  3804  041D  0020               	movlb	0	; select bank0
  3805  041E  1112               	bcf	18,2	;volatile
  3806  041F                     l165:
  3807  041F  0008               	return
  3808  0420                     __end_of_USBDeviceTasks:
  3809                           
  3810                           	psect	text4
  3811  179B                     __ptext4:	
  3812 ;; *************** function _USBWakeFromSuspend *****************
  3813 ;; Defined at:
  3814 ;;		line 2310 in file "lib/usb/usb_device.c"
  3815 ;; Parameters:    Size  Location     Type
  3816 ;;		None
  3817 ;; Auto vars:     Size  Location     Type
  3818 ;;		None
  3819 ;; Return value:  Size  Location     Type
  3820 ;;                  1    wreg      void 
  3821 ;; Registers used:
  3822 ;;		wreg, fsr0l, fsr0h, fsr1l, fsr1h, status,2, status,0, pclath, cstack
  3823 ;; Tracked objects:
  3824 ;;		On entry : 0/0
  3825 ;;		On exit  : 0/0
  3826 ;;		Unchanged: 0/0
  3827 ;; Data sizes:     COMMON   BANK1   BANK2   BANK3   BANK4   BANK5   BANK6   BANK7   BANK8   BANK9  BANK10  BANK11  BANK1
      +2
  3828 ;;      Params:         0       0       0       0       0       0       0       0       0       0       0       0       
      +0
  3829 ;;      Locals:         0       0       0       0       0       0       0       0       0       0       0       0       
      +0
  3830 ;;      Temps:          0       1       0       0       0       0       0       0       0       0       0       0       
      +0
  3831 ;;      Totals:         0       1       0       0       0       0       0       0       0       0       0       0       
      +0
  3832 ;;Total ram usage:        1 bytes
  3833 ;; Hardware stack levels used: 1
  3834 ;; Hardware stack levels required when called: 5
  3835 ;; This function calls:
  3836 ;;		_USER_USB_CALLBACK_EVENT_HANDLER
  3837 ;; This function is called by:
  3838 ;;		_USBDeviceTasks
  3839 ;; This function uses a non-reentrant model
  3840 ;;
  3841                           
  3842  179B                     _USBWakeFromSuspend:	
  3843                           ;psect for function _USBWakeFromSuspend
  3844                           
  3845  179B                     l3877:	
  3846                           ;incstack = 0
  3847                           ; Regs used in _USBWakeFromSuspend: [wreg-fsr1h+status,2+status,0+pclath+cstack]
  3848                           
  3849                           
  3850                           ;lib/usb/usb_device.c: 2312:     USBBusIsSuspended = 0;
  3851  179B  0021               	movlb	1	; select bank1
  3852  179C  01CE               	clrf	_USBBusIsSuspended^(0+128)
  3853  179D                     l3879:
  3854                           
  3855                           ;lib/usb/usb_device.c: 2318:     USER_USB_CALLBACK_EVENT_HANDLER((USB_EVENT)EVENT_RESUME
      +                          ,0,0);
  3856  179D  3074               	movlw	116
  3857  179E  00D9               	movwf	USER_USB_CALLBACK_EVENT_HANDLER@event^(0+128)
  3858  179F  3000               	movlw	0
  3859  17A0  00DA               	movwf	(USER_USB_CALLBACK_EVENT_HANDLER@event^(0+128)+1)
  3860  17A1  3000               	movlw	0
  3861  17A2  00DB               	movwf	USER_USB_CALLBACK_EVENT_HANDLER@pdata^(0+128)
  3862  17A3  3000               	movlw	0
  3863  17A4  00DC               	movwf	(USER_USB_CALLBACK_EVENT_HANDLER@pdata+1)^(0+128)
  3864  17A5  3000               	movlw	0
  3865  17A6  00DD               	movwf	USER_USB_CALLBACK_EVENT_HANDLER@size^(0+128)
  3866  17A7  00DE               	movwf	(USER_USB_CALLBACK_EVENT_HANDLER@size+1)^(0+128)
  3867  17A8  3189  21B8  3197   	fcall	_USER_USB_CALLBACK_EVENT_HANDLER
  3868  17AB                     l3881:
  3869                           
  3870                           ;lib/usb/usb_device.c: 2325:         UCONbits.SUSPND = 0;
  3871  17AB  003D               	movlb	29	; select bank29
  3872  17AC  108E               	bcf	14,1	;volatile
  3873  17AD                     l3883:
  3874                           
  3875                           ;lib/usb/usb_device.c: 2330:     UIEbits.ACTVIE = 0;
  3876  17AD  1112               	bcf	18,2	;volatile
  3877                           
  3878                           ;lib/usb/usb_device.c: 2348:     while(UIRbits.ACTVIF)
  3879  17AE  2FB5               	goto	l3887
  3880  17AF                     l3885:
  3881                           
  3882                           ;lib/usb/usb_device.c: 2350:     {;lib/usb/usb_device.c: 2351:         (UIR &= 0xFB);
  3883  17AF  30FB               	movlw	251
  3884  17B0  0021               	movlb	1	; select bank1
  3885  17B1  00DF               	movwf	??_USBWakeFromSuspend^(0+128)
  3886  17B2  085F               	movf	??_USBWakeFromSuspend^(0+128),w
  3887  17B3  003D               	movlb	29	; select bank29
  3888  17B4  0590               	andwf	16,f	;volatile
  3889  17B5                     l3887:
  3890                           
  3891                           ;lib/usb/usb_device.c: 2348:     while(UIRbits.ACTVIF)
  3892  17B5  1910               	btfsc	16,2	;volatile
  3893  17B6  2FB8               	goto	u2711
  3894  17B7  2FB9               	goto	u2710
  3895  17B8                     u2711:
  3896  17B8  2FAF               	goto	l3885
  3897  17B9                     u2710:
  3898  17B9                     l3889:
  3899                           
  3900                           ;lib/usb/usb_device.c: 2354:     USBTicksSinceSuspendEnd = 0;
  3901  17B9  0021               	movlb	1	; select bank1
  3902  17BA  01C5               	clrf	_USBTicksSinceSuspendEnd^(0+128)
  3903  17BB                     l325:
  3904  17BB  0008               	return
  3905  17BC                     __end_of_USBWakeFromSuspend:
  3906                           
  3907                           	psect	text5
  3908  175E                     __ptext5:	
  3909 ;; *************** function _USBSuspend *****************
  3910 ;; Defined at:
  3911 ;;		line 2252 in file "lib/usb/usb_device.c"
  3912 ;; Parameters:    Size  Location     Type
  3913 ;;		None
  3914 ;; Auto vars:     Size  Location     Type
  3915 ;;		None
  3916 ;; Return value:  Size  Location     Type
  3917 ;;                  1    wreg      void 
  3918 ;; Registers used:
  3919 ;;		wreg, fsr0l, fsr0h, fsr1l, fsr1h, status,2, status,0, pclath, cstack
  3920 ;; Tracked objects:
  3921 ;;		On entry : 0/0
  3922 ;;		On exit  : 0/0
  3923 ;;		Unchanged: 0/0
  3924 ;; Data sizes:     COMMON   BANK1   BANK2   BANK3   BANK4   BANK5   BANK6   BANK7   BANK8   BANK9  BANK10  BANK11  BANK1
      +2
  3925 ;;      Params:         0       0       0       0       0       0       0       0       0       0       0       0       
      +0
  3926 ;;      Locals:         0       0       0       0       0       0       0       0       0       0       0       0       
      +0
  3927 ;;      Temps:          0       1       0       0       0       0       0       0       0       0       0       0       
      +0
  3928 ;;      Totals:         0       1       0       0       0       0       0       0       0       0       0       0       
      +0
  3929 ;;Total ram usage:        1 bytes
  3930 ;; Hardware stack levels used: 1
  3931 ;; Hardware stack levels required when called: 5
  3932 ;; This function calls:
  3933 ;;		_USER_USB_CALLBACK_EVENT_HANDLER
  3934 ;; This function is called by:
  3935 ;;		_USBDeviceTasks
  3936 ;; This function uses a non-reentrant model
  3937 ;;
  3938                           
  3939  175E                     _USBSuspend:	
  3940                           ;psect for function _USBSuspend
  3941                           
  3942  175E                     l3891:	
  3943                           ;incstack = 0
  3944                           ; Regs used in _USBSuspend: [wreg-fsr1h+status,2+status,0+pclath+cstack]
  3945                           
  3946                           
  3947                           ;lib/usb/usb_device.c: 2277:     UIEbits.ACTVIE = 1;
  3948  175E  003D               	movlb	29	; select bank29
  3949  175F  1512               	bsf	18,2	;volatile
  3950  1760                     l3893:
  3951                           
  3952                           ;lib/usb/usb_device.c: 2278:     (UIR &= 0xEF);
  3953  1760  30EF               	movlw	239
  3954  1761  0021               	movlb	1	; select bank1
  3955  1762  00DF               	movwf	??_USBSuspend^(0+128)
  3956  1763  085F               	movf	??_USBSuspend^(0+128),w
  3957  1764  003D               	movlb	29	; select bank29
  3958  1765  0590               	andwf	16,f	;volatile
  3959  1766                     l3895:
  3960                           
  3961                           ;lib/usb/usb_device.c: 2281:         UCONbits.SUSPND = 1;
  3962  1766  148E               	bsf	14,1	;volatile
  3963  1767                     l3897:
  3964                           
  3965                           ;lib/usb/usb_device.c: 2284:     USBBusIsSuspended = 1;
  3966  1767  0021               	movlb	1	; select bank1
  3967  1768  01CE               	clrf	_USBBusIsSuspended^(0+128)
  3968  1769  0ACE               	incf	_USBBusIsSuspended^(0+128),f
  3969  176A                     l3899:
  3970                           
  3971                           ;lib/usb/usb_device.c: 2285:     USBTicksSinceSuspendEnd = 0;
  3972  176A  01C5               	clrf	_USBTicksSinceSuspendEnd^(0+128)
  3973  176B                     l3901:
  3974                           
  3975                           ;lib/usb/usb_device.c: 2292:     USER_USB_CALLBACK_EVENT_HANDLER((USB_EVENT)EVENT_SUSPEN
      +                          D,0,0);
  3976  176B  3075               	movlw	117
  3977  176C  00D9               	movwf	USER_USB_CALLBACK_EVENT_HANDLER@event^(0+128)
  3978  176D  3000               	movlw	0
  3979  176E  00DA               	movwf	(USER_USB_CALLBACK_EVENT_HANDLER@event^(0+128)+1)
  3980  176F  3000               	movlw	0
  3981  1770  00DB               	movwf	USER_USB_CALLBACK_EVENT_HANDLER@pdata^(0+128)
  3982  1771  3000               	movlw	0
  3983  1772  00DC               	movwf	(USER_USB_CALLBACK_EVENT_HANDLER@pdata+1)^(0+128)
  3984  1773  3000               	movlw	0
  3985  1774  00DD               	movwf	USER_USB_CALLBACK_EVENT_HANDLER@size^(0+128)
  3986  1775  00DE               	movwf	(USER_USB_CALLBACK_EVENT_HANDLER@size+1)^(0+128)
  3987  1776  3189  21B8  3197   	fcall	_USER_USB_CALLBACK_EVENT_HANDLER
  3988  1779                     l319:
  3989  1779  0008               	return
  3990  177A                     __end_of_USBSuspend:
  3991                           
  3992                           	psect	text6
  3993  08B4                     __ptext6:	
  3994 ;; *************** function _USBStallHandler *****************
  3995 ;; Defined at:
  3996 ;;		line 2209 in file "lib/usb/usb_device.c"
  3997 ;; Parameters:    Size  Location     Type
  3998 ;;		None
  3999 ;; Auto vars:     Size  Location     Type
  4000 ;;		None
  4001 ;; Return value:  Size  Location     Type
  4002 ;;                  1    wreg      void 
  4003 ;; Registers used:
  4004 ;;		wreg, fsr1l, fsr1h, status,2, status,0
  4005 ;; Tracked objects:
  4006 ;;		On entry : 0/0
  4007 ;;		On exit  : 0/0
  4008 ;;		Unchanged: 0/0
  4009 ;; Data sizes:     COMMON   BANK1   BANK2   BANK3   BANK4   BANK5   BANK6   BANK7   BANK8   BANK9  BANK10  BANK11  BANK1
      +2
  4010 ;;      Params:         0       0       0       0       0       0       0       0       0       0       0       0       
      +0
  4011 ;;      Locals:         0       0       0       0       0       0       0       0       0       0       0       0       
      +0
  4012 ;;      Temps:          1       0       0       0       0       0       0       0       0       0       0       0       
      +0
  4013 ;;      Totals:         1       0       0       0       0       0       0       0       0       0       0       0       
      +0
  4014 ;;Total ram usage:        1 bytes
  4015 ;; Hardware stack levels used: 1
  4016 ;; Hardware stack levels required when called: 1
  4017 ;; This function calls:
  4018 ;;		Nothing
  4019 ;; This function is called by:
  4020 ;;		_USBDeviceTasks
  4021 ;; This function uses a non-reentrant model
  4022 ;;
  4023                           
  4024  08B4                     _USBStallHandler:	
  4025                           ;psect for function _USBStallHandler
  4026                           
  4027  08B4                     l3911:	
  4028                           ;incstack = 0
  4029                           ; Regs used in _USBStallHandler: [wreg+fsr1l+fsr1h+status,2+status,0]
  4030                           
  4031                           
  4032                           ;lib/usb/usb_device.c: 2221:     if(UEP0bits.EPSTALL == 1)
  4033  08B4  003D               	movlb	29	; select bank29
  4034  08B5  1C18               	btfss	24,0	;volatile
  4035  08B6  28B8               	goto	u2741
  4036  08B7  28B9               	goto	u2740
  4037  08B8                     u2741:
  4038  08B8  28DA               	goto	l3921
  4039  08B9                     u2740:
  4040  08B9                     l3913:
  4041                           
  4042                           ;lib/usb/usb_device.c: 2222:     {;lib/usb/usb_device.c: 2224:         if((pBDTEntryEP0O
      +                          utCurrent->STAT.Val == 0x80) && (pBDTEntryIn[0]->STAT.Val == (0x80|0x04)))
  4043  08B9  0021               	movlb	1	; select bank1
  4044  08BA  0853               	movf	_pBDTEntryEP0OutCurrent^(0+128),w
  4045  08BB  0086               	movwf	6
  4046  08BC  0187               	clrf	7
  4047  08BD  3080               	movlw	128
  4048  08BE  0601               	xorwf	1,w
  4049  08BF  1D03               	btfss	3,2
  4050  08C0  28C2               	goto	u2751
  4051  08C1  28C3               	goto	u2750
  4052  08C2                     u2751:
  4053  08C2  28D8               	goto	l3919
  4054  08C3                     u2750:
  4055  08C3                     l3915:
  4056  08C3  0830               	movf	_pBDTEntryIn^(0+128),w
  4057  08C4  0086               	movwf	6
  4058  08C5  0831               	movf	(_pBDTEntryIn+1)^(0+128),w
  4059  08C6  0087               	movwf	7
  4060  08C7  3084               	movlw	132
  4061  08C8  0601               	xorwf	1,w
  4062  08C9  1D03               	btfss	3,2
  4063  08CA  28CC               	goto	u2761
  4064  08CB  28CD               	goto	u2760
  4065  08CC                     u2761:
  4066  08CC  28D8               	goto	l3919
  4067  08CD                     u2760:
  4068  08CD                     l3917:
  4069                           
  4070                           ;lib/usb/usb_device.c: 2225:         {;lib/usb/usb_device.c: 2227:             pBDTEntry
      +                          EP0OutCurrent->STAT.Val = 0x00|(0x08 & 0x08)|0x04;
  4071  08CD  300C               	movlw	12
  4072  08CE  00F0               	movwf	??_USBStallHandler
  4073  08CF  0853               	movf	_pBDTEntryEP0OutCurrent^(0+128),w
  4074  08D0  0086               	movwf	6
  4075  08D1  0187               	clrf	7
  4076  08D2  0870               	movf	??_USBStallHandler,w
  4077  08D3  0081               	movwf	1
  4078                           
  4079                           ;lib/usb/usb_device.c: 2228:             pBDTEntryEP0OutCurrent->STAT.Val |= 0x80;
  4080  08D4  0853               	movf	_pBDTEntryEP0OutCurrent^(0+128),w
  4081  08D5  0086               	movwf	6
  4082  08D6  0187               	clrf	7
  4083  08D7  1781               	bsf	1,7
  4084  08D8                     l3919:
  4085                           
  4086                           ;lib/usb/usb_device.c: 2230:         UEP0bits.EPSTALL = 0;
  4087  08D8  003D               	movlb	29	; select bank29
  4088  08D9  1018               	bcf	24,0	;volatile
  4089  08DA                     l3921:
  4090                           
  4091                           ;lib/usb/usb_device.c: 2233:     (UIR &= 0xDF);
  4092  08DA  30DF               	movlw	223
  4093  08DB  00F0               	movwf	??_USBStallHandler
  4094  08DC  0870               	movf	??_USBStallHandler,w
  4095  08DD  0590               	andwf	16,f	;volatile
  4096  08DE                     l316:
  4097  08DE  0008               	return
  4098  08DF                     __end_of_USBStallHandler:
  4099                           
  4100                           	psect	text7
  4101  0801                     __ptext7:	
  4102 ;; *************** function _USBIncrement1msInternalTimers *****************
  4103 ;; Defined at:
  4104 ;;		line 2998 in file "lib/usb/usb_device.c"
  4105 ;; Parameters:    Size  Location     Type
  4106 ;;		None
  4107 ;; Auto vars:     Size  Location     Type
  4108 ;;		None
  4109 ;; Return value:  Size  Location     Type
  4110 ;;                  1    wreg      void 
  4111 ;; Registers used:
  4112 ;;		wreg, status,2, status,0
  4113 ;; Tracked objects:
  4114 ;;		On entry : 0/0
  4115 ;;		On exit  : 0/0
  4116 ;;		Unchanged: 0/0
  4117 ;; Data sizes:     COMMON   BANK1   BANK2   BANK3   BANK4   BANK5   BANK6   BANK7   BANK8   BANK9  BANK10  BANK11  BANK1
      +2
  4118 ;;      Params:         0       0       0       0       0       0       0       0       0       0       0       0       
      +0
  4119 ;;      Locals:         0       0       0       0       0       0       0       0       0       0       0       0       
      +0
  4120 ;;      Temps:          1       0       0       0       0       0       0       0       0       0       0       0       
      +0
  4121 ;;      Totals:         1       0       0       0       0       0       0       0       0       0       0       0       
      +0
  4122 ;;Total ram usage:        1 bytes
  4123 ;; Hardware stack levels used: 1
  4124 ;; Hardware stack levels required when called: 1
  4125 ;; This function calls:
  4126 ;;		Nothing
  4127 ;; This function is called by:
  4128 ;;		_USBDeviceTasks
  4129 ;; This function uses a non-reentrant model
  4130 ;;
  4131                           
  4132  0801                     _USBIncrement1msInternalTimers:	
  4133                           ;psect for function _USBIncrement1msInternalTimers
  4134                           
  4135  0801                     l3903:	
  4136                           ;incstack = 0
  4137                           ; Regs used in _USBIncrement1msInternalTimers: [wreg+status,2+status,0]
  4138                           
  4139                           
  4140                           ;lib/usb/usb_device.c: 3006:     USB1msTickCount++;
  4141  0801  3001               	movlw	1
  4142  0802  0023               	movlb	3	; select bank3
  4143  0803  07A8               	addwf	_USB1msTickCount^(0+384),f
  4144  0804  3000               	movlw	0
  4145  0805  3DA9               	addwfc	(_USB1msTickCount+1)^(0+384),f
  4146  0806  3000               	movlw	0
  4147  0807  3DAA               	addwfc	(_USB1msTickCount+2)^(0+384),f
  4148  0808  3000               	movlw	0
  4149  0809  3DAB               	addwfc	(_USB1msTickCount+3)^(0+384),f
  4150  080A                     l3905:
  4151                           
  4152                           ;lib/usb/usb_device.c: 3007:     if(USBBusIsSuspended == 0)
  4153  080A  0021               	movlb	1	; select bank1
  4154  080B  084E               	movf	_USBBusIsSuspended^(0+128),w
  4155  080C  1D03               	btfss	3,2
  4156  080D  280F               	goto	u2721
  4157  080E  2810               	goto	u2720
  4158  080F                     u2721:
  4159  080F  281D               	goto	l406
  4160  0810                     u2720:
  4161  0810                     l3907:
  4162                           
  4163                           ;lib/usb/usb_device.c: 3008:     {;lib/usb/usb_device.c: 3009:         USBTicksSinceSusp
      +                          endEnd++;
  4164  0810  3001               	movlw	1
  4165  0811  00F0               	movwf	??_USBIncrement1msInternalTimers
  4166  0812  0870               	movf	??_USBIncrement1msInternalTimers,w
  4167  0813  07C5               	addwf	_USBTicksSinceSuspendEnd^(0+128),f
  4168                           
  4169                           ;lib/usb/usb_device.c: 3011:         if(USBTicksSinceSuspendEnd == 0)
  4170  0814  0845               	movf	_USBTicksSinceSuspendEnd^(0+128),w
  4171  0815  1D03               	btfss	3,2
  4172  0816  2818               	goto	u2731
  4173  0817  2819               	goto	u2730
  4174  0818                     u2731:
  4175  0818  281D               	goto	l406
  4176  0819                     u2730:
  4177  0819                     l3909:
  4178                           
  4179                           ;lib/usb/usb_device.c: 3012:         {;lib/usb/usb_device.c: 3013:             USBTicksS
      +                          inceSuspendEnd = 255;
  4180  0819  30FF               	movlw	255
  4181  081A  00F0               	movwf	??_USBIncrement1msInternalTimers
  4182  081B  0870               	movf	??_USBIncrement1msInternalTimers,w
  4183  081C  00C5               	movwf	_USBTicksSinceSuspendEnd^(0+128)
  4184  081D                     l406:
  4185  081D  0008               	return
  4186  081E                     __end_of_USBIncrement1msInternalTimers:
  4187                           
  4188                           	psect	text8
  4189  06D9                     __ptext8:	
  4190 ;; *************** function _USBDeviceInit *****************
  4191 ;; Defined at:
  4192 ;;		line 281 in file "lib/usb/usb_device.c"
  4193 ;; Parameters:    Size  Location     Type
  4194 ;;		None
  4195 ;; Auto vars:     Size  Location     Type
  4196 ;;  p               2    1[COMMON] PTR unsigned char 
  4197 ;;		 -> UEP1(1), 
  4198 ;;  i               1    3[COMMON] unsigned char 
  4199 ;;  i               1    4[COMMON] unsigned char 
  4200 ;; Return value:  Size  Location     Type
  4201 ;;                  1    wreg      void 
  4202 ;; Registers used:
  4203 ;;		wreg, fsr1l, fsr1h, status,2, status,0
  4204 ;; Tracked objects:
  4205 ;;		On entry : 0/0
  4206 ;;		On exit  : 0/0
  4207 ;;		Unchanged: 0/0
  4208 ;; Data sizes:     COMMON   BANK1   BANK2   BANK3   BANK4   BANK5   BANK6   BANK7   BANK8   BANK9  BANK10  BANK11  BANK1
      +2
  4209 ;;      Params:         0       0       0       0       0       0       0       0       0       0       0       0       
      +0
  4210 ;;      Locals:         4       0       0       0       0       0       0       0       0       0       0       0       
      +0
  4211 ;;      Temps:          1       0       0       0       0       0       0       0       0       0       0       0       
      +0
  4212 ;;      Totals:         5       0       0       0       0       0       0       0       0       0       0       0       
      +0
  4213 ;;Total ram usage:        5 bytes
  4214 ;; Hardware stack levels used: 1
  4215 ;; Hardware stack levels required when called: 1
  4216 ;; This function calls:
  4217 ;;		Nothing
  4218 ;; This function is called by:
  4219 ;;		_USBDeviceTasks
  4220 ;;		_main
  4221 ;; This function uses a non-reentrant model
  4222 ;;
  4223                           
  4224  06D9                     _USBDeviceInit:	
  4225                           ;psect for function _USBDeviceInit
  4226                           
  4227  06D9                     l3791:	
  4228                           ;incstack = 0
  4229                           ; Regs used in _USBDeviceInit: [wreg+fsr1l+fsr1h+status,2+status,0]
  4230                           
  4231                           
  4232                           ;lib/usb/usb_device.c: 283:     uint8_t i;;lib/usb/usb_device.c: 285:     {PIE2bits.USBI
      +                          E = 0;};
  4233  06D9  0021               	movlb	1	; select bank1
  4234  06DA  1112               	bcf	18,2	;volatile
  4235  06DB                     l3793:
  4236                           
  4237                           ;lib/usb/usb_device.c: 292:     {UEIR = 0;};
  4238  06DB  003D               	movlb	29	; select bank29
  4239  06DC  0193               	clrf	19	;volatile
  4240                           
  4241                           ;lib/usb/usb_device.c: 295:     {UIR = 0;};
  4242  06DD  0190               	clrf	16	;volatile
  4243                           
  4244                           ;lib/usb/usb_device.c: 298:     UEP0 = 0;
  4245  06DE  0198               	clrf	24	;volatile
  4246  06DF                     l3795:
  4247                           
  4248                           ;lib/usb/usb_device.c: 300:     { uint8_t i; uint8_t* p = (uint8_t*)&UEP1; for(i=0;i<3;i
      +                          ++) *p++ = 0; };
  4249  06DF  300E               	movlw	14
  4250  06E0  00F2               	movwf	USBDeviceInit@p+1
  4251  06E1  3099               	movlw	153
  4252  06E2  00F1               	movwf	USBDeviceInit@p
  4253  06E3  01F3               	clrf	USBDeviceInit@i_722
  4254  06E4                     l3801:
  4255  06E4  0871               	movf	USBDeviceInit@p,w
  4256  06E5  0086               	movwf	6
  4257  06E6  0872               	movf	USBDeviceInit@p+1,w
  4258  06E7  0087               	movwf	7
  4259  06E8  0181               	clrf	1
  4260  06E9                     l3803:
  4261  06E9  3001               	movlw	1
  4262  06EA  07F1               	addwf	USBDeviceInit@p,f
  4263  06EB  3000               	movlw	0
  4264  06EC  3DF2               	addwfc	USBDeviceInit@p+1,f
  4265  06ED                     l3805:
  4266  06ED  3001               	movlw	1
  4267  06EE  00F0               	movwf	??_USBDeviceInit
  4268  06EF  0870               	movf	??_USBDeviceInit,w
  4269  06F0  07F3               	addwf	USBDeviceInit@i_722,f
  4270  06F1                     l3807:
  4271  06F1  3003               	movlw	3
  4272  06F2  0273               	subwf	USBDeviceInit@i_722,w
  4273  06F3  1C03               	skipc
  4274  06F4  2EF6               	goto	u2661
  4275  06F5  2EF7               	goto	u2660
  4276  06F6                     u2661:
  4277  06F6  2EE4               	goto	l3801
  4278  06F7                     u2660:
  4279  06F7                     l3809:
  4280                           
  4281                           ;lib/usb/usb_device.c: 302:     { UCFG = 0x10 | 0x00 | 0x04 | 0x02; UEIE = 0x9F; UIE = 0
      +                          x39 | 0x40 | 0x02; };
  4282  06F7  3016               	movlw	22
  4283  06F8  003D               	movlb	29	; select bank29
  4284  06F9  0091               	movwf	17	;volatile
  4285  06FA  309F               	movlw	159
  4286  06FB  0097               	movwf	23	;volatile
  4287  06FC  307B               	movlw	123
  4288  06FD  0092               	movwf	18	;volatile
  4289  06FE                     l3811:
  4290                           
  4291                           ;lib/usb/usb_device.c: 311:     for(i = 0; i < (sizeof(BDT)/sizeof(BDT_ENTRY)); i++)
  4292  06FE  01F4               	clrf	USBDeviceInit@i
  4293  06FF                     l3817:
  4294                           
  4295                           ;lib/usb/usb_device.c: 312:     {;lib/usb/usb_device.c: 313:         BDT[i].Val = 0x00;
  4296  06FF  0874               	movf	USBDeviceInit@i,w
  4297  0700  00F0               	movwf	??_USBDeviceInit
  4298  0701  3001               	movlw	1
  4299  0702                     u2675:
  4300  0702  35F0               	lslf	??_USBDeviceInit,f
  4301  0703  3EFF               	addlw	-1
  4302  0704  1D03               	skipz
  4303  0705  2F02               	goto	u2675
  4304  0706  3570               	lslf	??_USBDeviceInit,w
  4305  0707  3E20               	addlw	32
  4306  0708  0086               	movwf	6
  4307  0709  0187               	clrf	7
  4308  070A  3000               	movlw	0
  4309  070B  3FC0               	movwi [0]fsr1
  4310  070C  3000               	movlw	0
  4311  070D  3FC1               	movwi [1]fsr1
  4312  070E  3FC2               	movwi [2]fsr1
  4313  070F  3FC3               	movwi [3]fsr1
  4314  0710                     l3819:
  4315                           
  4316                           ;lib/usb/usb_device.c: 314:     }
  4317  0710  3001               	movlw	1
  4318  0711  00F0               	movwf	??_USBDeviceInit
  4319  0712  0870               	movf	??_USBDeviceInit,w
  4320  0713  07F4               	addwf	USBDeviceInit@i,f
  4321  0714                     l3821:
  4322  0714  3010               	movlw	16
  4323  0715  0274               	subwf	USBDeviceInit@i,w
  4324  0716  1C03               	skipc
  4325  0717  2F19               	goto	u2681
  4326  0718  2F1A               	goto	u2680
  4327  0719                     u2681:
  4328  0719  2EFF               	goto	l3817
  4329  071A                     u2680:
  4330  071A                     l156:
  4331                           
  4332                           ;lib/usb/usb_device.c: 317:     UCONbits.PPBRST = 1;
  4333  071A  003D               	movlb	29	; select bank29
  4334  071B  170E               	bsf	14,6	;volatile
  4335  071C                     l3823:
  4336                           
  4337                           ;lib/usb/usb_device.c: 320:     UADDR = 0x00;
  4338  071C  0196               	clrf	22	;volatile
  4339  071D                     l3825:
  4340                           
  4341                           ;lib/usb/usb_device.c: 323:     UCONbits.PKTDIS = 0;
  4342  071D  120E               	bcf	14,4	;volatile
  4343  071E                     l3827:
  4344                           
  4345                           ;lib/usb/usb_device.c: 326:     UCONbits.PPBRST = 0;
  4346  071E  130E               	bcf	14,6	;volatile
  4347  071F                     l3829:
  4348                           
  4349                           ;lib/usb/usb_device.c: 330:     {;lib/usb/usb_device.c: 331:         (UIR &= 0xF7);
  4350  071F  30F7               	movlw	247
  4351  0720  00F0               	movwf	??_USBDeviceInit
  4352  0721  0870               	movf	??_USBDeviceInit,w
  4353  0722  0590               	andwf	16,f	;volatile
  4354  0723                     l3831:
  4355                           
  4356                           ;lib/usb/usb_device.c: 333:         inPipes[0].info.Val = 0;
  4357  0723  0021               	movlb	1	; select bank1
  4358  0724  01BA               	clrf	(_inPipes^(0+128)+2)
  4359  0725                     l3833:
  4360                           
  4361                           ;lib/usb/usb_device.c: 334:         outPipes[0].info.Val = 0;
  4362  0725  0022               	movlb	2	; select bank2
  4363  0726  01A2               	clrf	(_outPipes^(0+256)+2)
  4364  0727                     l3835:
  4365                           
  4366                           ;lib/usb/usb_device.c: 335:         outPipes[0].wCount.Val = 0;
  4367  0727  01A3               	clrf	(_outPipes^(0+256)+3)
  4368  0728  01A4               	clrf	((_outPipes+1)^(0+256)+3)
  4369  0729                     l3837:
  4370                           
  4371                           ;lib/usb/usb_device.c: 336:     }while(UIRbits.TRNIF == 1);
  4372  0729  003D               	movlb	29	; select bank29
  4373  072A  1990               	btfsc	16,3	;volatile
  4374  072B  2F2D               	goto	u2691
  4375  072C  2F2E               	goto	u2690
  4376  072D                     u2691:
  4377  072D  2F1F               	goto	l3829
  4378  072E                     u2690:
  4379  072E                     l3839:
  4380                           
  4381                           ;lib/usb/usb_device.c: 340:     USBStatusStageEnabledFlag1 = 1;
  4382  072E  3001               	movlw	1
  4383  072F  00F0               	movwf	??_USBDeviceInit
  4384  0730  0870               	movf	??_USBDeviceInit,w
  4385  0731  0021               	movlb	1	; select bank1
  4386  0732  00C9               	movwf	_USBStatusStageEnabledFlag1^(0+128)	;volatile
  4387                           
  4388                           ;lib/usb/usb_device.c: 341:     USBStatusStageEnabledFlag2 = 1;
  4389  0733  3001               	movlw	1
  4390  0734  00F0               	movwf	??_USBDeviceInit
  4391  0735  0870               	movf	??_USBDeviceInit,w
  4392  0736  00C8               	movwf	_USBStatusStageEnabledFlag2^(0+128)	;volatile
  4393  0737                     l3841:
  4394                           
  4395                           ;lib/usb/usb_device.c: 343:     USBDeferINDataStagePackets = 0;
  4396  0737  01C7               	clrf	_USBDeferINDataStagePackets^(0+128)	;volatile
  4397  0738                     l3843:
  4398                           
  4399                           ;lib/usb/usb_device.c: 344:     USBDeferOUTDataStagePackets = 0;
  4400  0738  01C6               	clrf	_USBDeferOUTDataStagePackets^(0+128)	;volatile
  4401  0739                     l3845:
  4402                           
  4403                           ;lib/usb/usb_device.c: 345:     USBBusIsSuspended = 0;
  4404  0739  01CE               	clrf	_USBBusIsSuspended^(0+128)
  4405  073A                     l3847:
  4406                           
  4407                           ;lib/usb/usb_device.c: 349:     for(i = 0; i < (uint8_t)(3 +1u); i++)
  4408  073A  01F4               	clrf	USBDeviceInit@i
  4409  073B                     l3851:
  4410                           
  4411                           ;lib/usb/usb_device.c: 350:     {;lib/usb/usb_device.c: 351:         pBDTEntryIn[i] = 0u
      +                          ;
  4412  073B  3574               	lslf	USBDeviceInit@i,w
  4413  073C  3EB0               	addlw	(low (_pBDTEntryIn| 0))& (0+255)
  4414  073D  0086               	movwf	6
  4415  073E  0187               	clrf	7
  4416  073F  3000               	movlw	0
  4417  0740  3FC0               	movwi [0]fsr1
  4418  0741  3FC1               	movwi [1]fsr1
  4419                           
  4420                           ;lib/usb/usb_device.c: 352:         pBDTEntryOut[i] = 0u;
  4421  0742  3574               	lslf	USBDeviceInit@i,w
  4422  0743  3EA0               	addlw	(low (_pBDTEntryOut| (0+256)))& (0+255)
  4423  0744  0086               	movwf	6
  4424  0745  3001               	movlw	1	; select bank3/4
  4425  0746  0087               	movwf	7
  4426  0747  3000               	movlw	0
  4427  0748  3FC0               	movwi [0]fsr1
  4428  0749  3FC1               	movwi [1]fsr1
  4429                           
  4430                           ;lib/usb/usb_device.c: 353:         ep_data_in[i].Val = 0u;
  4431  074A  0874               	movf	USBDeviceInit@i,w
  4432  074B  3EB0               	addlw	(low (_ep_data_in| (0+256)))& (0+255)
  4433  074C  0086               	movwf	6
  4434  074D  3001               	movlw	1	; select bank3/4
  4435  074E  0087               	movwf	7
  4436  074F  0181               	clrf	1
  4437                           
  4438                           ;lib/usb/usb_device.c: 354:         ep_data_out[i].Val = 0u;
  4439  0750  0874               	movf	USBDeviceInit@i,w
  4440  0751  3EAC               	addlw	(low (_ep_data_out| (0+256)))& (0+255)
  4441  0752  0086               	movwf	6
  4442  0753  3001               	movlw	1	; select bank3/4
  4443  0754  0087               	movwf	7
  4444  0755  0181               	clrf	1
  4445  0756                     l3853:
  4446                           
  4447                           ;lib/usb/usb_device.c: 355:     }
  4448  0756  3001               	movlw	1
  4449  0757  00F0               	movwf	??_USBDeviceInit
  4450  0758  0870               	movf	??_USBDeviceInit,w
  4451  0759  07F4               	addwf	USBDeviceInit@i,f
  4452  075A                     l3855:
  4453  075A  3004               	movlw	4
  4454  075B  0274               	subwf	USBDeviceInit@i,w
  4455  075C  1C03               	skipc
  4456  075D  2F5F               	goto	u2701
  4457  075E  2F60               	goto	u2700
  4458  075F                     u2701:
  4459  075F  2F3B               	goto	l3851
  4460  0760                     u2700:
  4461  0760                     l3857:
  4462                           
  4463                           ;lib/usb/usb_device.c: 358:     pBDTEntryIn[0] = (volatile BDT_ENTRY*)&BDT[2];
  4464  0760  3028               	movlw	40
  4465  0761  0021               	movlb	1	; select bank1
  4466  0762  00B0               	movwf	_pBDTEntryIn^(0+128)
  4467  0763  3000               	movlw	0
  4468  0764  00B1               	movwf	(_pBDTEntryIn+1)^(0+128)
  4469  0765                     l3859:
  4470                           
  4471                           ;lib/usb/usb_device.c: 360:     UEP0 = 0x06|0x10;
  4472  0765  3016               	movlw	22
  4473  0766  003D               	movlb	29	; select bank29
  4474  0767  0098               	movwf	24	;volatile
  4475  0768                     l3861:
  4476                           
  4477                           ;lib/usb/usb_device.c: 362:     BDT[0].ADR = (((uint16_t)(&SetupPkt)) & 0x7FFF);
  4478  0768  3000               	movlw	0
  4479  0769  0020               	movlb	0	; select bank0
  4480  076A  00A3               	movwf	35	;volatile
  4481  076B  3060               	movlw	96
  4482  076C  00A2               	movwf	34	;volatile
  4483  076D                     l3863:
  4484                           
  4485                           ;lib/usb/usb_device.c: 363:     BDT[0].CNT = 8;
  4486  076D  3008               	movlw	8
  4487  076E  00A1               	movwf	33	;volatile
  4488  076F                     l3865:
  4489                           
  4490                           ;lib/usb/usb_device.c: 364:     BDT[0].STAT.Val = 0x00|0x04;
  4491  076F  3004               	movlw	4
  4492  0770  00F0               	movwf	??_USBDeviceInit
  4493  0771  0870               	movf	??_USBDeviceInit,w
  4494  0772  00A0               	movwf	32	;volatile
  4495  0773                     l3867:
  4496                           
  4497                           ;lib/usb/usb_device.c: 365:     BDT[0].STAT.Val |= 0x80;
  4498  0773  17A0               	bsf	32,7	;volatile
  4499  0774                     l3869:
  4500                           
  4501                           ;lib/usb/usb_device.c: 368:     USBActiveConfiguration = 0;
  4502  0774  0021               	movlb	1	; select bank1
  4503  0775  01D8               	clrf	_USBActiveConfiguration^(0+128)
  4504  0776                     l3871:
  4505                           
  4506                           ;lib/usb/usb_device.c: 370:     USB1msTickCount = 0;
  4507  0776  3000               	movlw	0
  4508  0777  0023               	movlb	3	; select bank3
  4509  0778  00AB               	movwf	(_USB1msTickCount+3)^(0+384)
  4510  0779  3000               	movlw	0
  4511  077A  00AA               	movwf	(_USB1msTickCount+2)^(0+384)
  4512  077B  3000               	movlw	0
  4513  077C  00A9               	movwf	(_USB1msTickCount+1)^(0+384)
  4514  077D  3000               	movlw	0
  4515  077E  00A8               	movwf	_USB1msTickCount^(0+384)
  4516  077F                     l3873:
  4517                           
  4518                           ;lib/usb/usb_device.c: 371:     USBTicksSinceSuspendEnd = 0;
  4519  077F  0021               	movlb	1	; select bank1
  4520  0780  01C5               	clrf	_USBTicksSinceSuspendEnd^(0+128)
  4521  0781                     l3875:
  4522                           
  4523                           ;lib/usb/usb_device.c: 374:     USBDeviceState = DETACHED_STATE;
  4524  0781  01D4               	clrf	_USBDeviceState^(0+128)
  4525  0782                     l161:
  4526  0782  0008               	return
  4527  0783                     __end_of_USBDeviceInit:
  4528                           
  4529                           	psect	text9
  4530  0A46                     __ptext9:	
  4531 ;; *************** function _USBCtrlEPService *****************
  4532 ;; Defined at:
  4533 ;;		line 2379 in file "lib/usb/usb_device.c"
  4534 ;; Parameters:    Size  Location     Type
  4535 ;;		None
  4536 ;; Auto vars:     Size  Location     Type
  4537 ;;		None
  4538 ;; Return value:  Size  Location     Type
  4539 ;;                  1    wreg      void 
  4540 ;; Registers used:
  4541 ;;		wreg, fsr0l, fsr0h, fsr1l, fsr1h, status,2, status,0, pclath, cstack
  4542 ;; Tracked objects:
  4543 ;;		On entry : 0/0
  4544 ;;		On exit  : 0/0
  4545 ;;		Unchanged: 0/0
  4546 ;; Data sizes:     COMMON   BANK1   BANK2   BANK3   BANK4   BANK5   BANK6   BANK7   BANK8   BANK9  BANK10  BANK11  BANK1
      +2
  4547 ;;      Params:         0       0       0       0       0       0       0       0       0       0       0       0       
      +0
  4548 ;;      Locals:         0       0       0       0       0       0       0       0       0       0       0       0       
      +0
  4549 ;;      Temps:          0       2       0       0       0       0       0       0       0       0       0       0       
      +0
  4550 ;;      Totals:         0       2       0       0       0       0       0       0       0       0       0       0       
      +0
  4551 ;;Total ram usage:        2 bytes
  4552 ;; Hardware stack levels used: 1
  4553 ;; Hardware stack levels required when called: 8
  4554 ;; This function calls:
  4555 ;;		_USBCtrlTrfInHandler
  4556 ;;		_USBCtrlTrfOutHandler
  4557 ;;		_USBCtrlTrfSetupHandler
  4558 ;;		_memcpy
  4559 ;; This function is called by:
  4560 ;;		_USBDeviceTasks
  4561 ;; This function uses a non-reentrant model
  4562 ;;
  4563                           
  4564  0A46                     _USBCtrlEPService:	
  4565                           ;psect for function _USBCtrlEPService
  4566                           
  4567  0A46                     l4703:	
  4568                           ;incstack = 0
  4569                           ; Regs used in _USBCtrlEPService: [wreg-fsr1h+status,2+status,0+pclath+cstack]
  4570                           
  4571                           
  4572                           ;lib/usb/usb_device.c: 2385:         USBStatusStageTimeoutCounter = (uint8_t)45;
  4573  0A46  302D               	movlw	45
  4574  0A47  0021               	movlb	1	; select bank1
  4575  0A48  00E9               	movwf	??_USBCtrlEPService^(0+128)
  4576  0A49  0869               	movf	??_USBCtrlEPService^(0+128),w
  4577  0A4A  00CB               	movwf	_USBStatusStageTimeoutCounter^(0+128)
  4578  0A4B                     l4705:
  4579                           
  4580                           ;lib/usb/usb_device.c: 2389:     if((USTATcopy.Val & ~0x02) == 0x00)
  4581  0A4B  0857               	movf	_USTATcopy^(0+128),w
  4582  0A4C  39FD               	andlw	253
  4583  0A4D  1D03               	btfss	3,2
  4584  0A4E  2A50               	goto	u3481
  4585  0A4F  2A51               	goto	u3480
  4586  0A50                     u3481:
  4587  0A50  2A8D               	goto	l4721
  4588  0A51                     u3480:
  4589  0A51                     l4707:
  4590                           
  4591                           ;lib/usb/usb_device.c: 2390:     {;lib/usb/usb_device.c: 2393:             pBDTEntryEP0O
      +                          utCurrent = (volatile BDT_ENTRY*)&BDT[(USTATcopy.Val & 0x7E)>>1];
  4592  0A51  3657               	lsrf	_USTATcopy^(0+128),w
  4593  0A52  393F               	andlw	63
  4594  0A53  00E9               	movwf	??_USBCtrlEPService^(0+128)
  4595  0A54  3001               	movlw	1
  4596  0A55                     u3495:
  4597  0A55  35E9               	lslf	??_USBCtrlEPService^(0+128),f
  4598  0A56  3EFF               	addlw	-1
  4599  0A57  1D03               	skipz
  4600  0A58  2A55               	goto	u3495
  4601  0A59  3569               	lslf	??_USBCtrlEPService^(0+128),w
  4602  0A5A  3E20               	addlw	32
  4603  0A5B  00EA               	movwf	(??_USBCtrlEPService+1)^(0+128)
  4604  0A5C  086A               	movf	(??_USBCtrlEPService+1)^(0+128),w
  4605  0A5D  00D3               	movwf	_pBDTEntryEP0OutCurrent^(0+128)
  4606  0A5E                     l4709:
  4607                           
  4608                           ;lib/usb/usb_device.c: 2401:         pBDTEntryEP0OutNext = pBDTEntryEP0OutCurrent;
  4609  0A5E  0853               	movf	_pBDTEntryEP0OutCurrent^(0+128),w
  4610  0A5F  00BF               	movwf	_pBDTEntryEP0OutNext^(0+128)
  4611  0A60  39FF               	andlw	255
  4612  0A61  1D03               	skipz
  4613  0A62  3000               	movlw	0
  4614  0A63  00C0               	movwf	(_pBDTEntryEP0OutNext+1)^(0+128)
  4615  0A64                     l4711:
  4616                           
  4617                           ;lib/usb/usb_device.c: 2403:         pBDTEntryEP0OutNext = (volatile BDT_ENTRY*)(((uint1
      +                          6_t)pBDTEntryEP0OutNext) ^ 0x0004);
  4618  0A64  3004               	movlw	4
  4619  0A65  063F               	xorwf	_pBDTEntryEP0OutNext^(0+128),w
  4620  0A66  00BF               	movwf	_pBDTEntryEP0OutNext^(0+128)
  4621  0A67  3000               	movlw	0
  4622  0A68  0640               	xorwf	(_pBDTEntryEP0OutNext+1)^(0+128),w
  4623  0A69  00C0               	movwf	(_pBDTEntryEP0OutNext+1)^(0+128)
  4624  0A6A                     l4713:
  4625                           
  4626                           ;lib/usb/usb_device.c: 2406:         if(pBDTEntryEP0OutCurrent->STAT.PID == 0xD)
  4627  0A6A  0853               	movf	_pBDTEntryEP0OutCurrent^(0+128),w
  4628  0A6B  0086               	movwf	6
  4629  0A6C  0187               	clrf	7
  4630  0A6D  0C01               	rrf	1,w
  4631  0A6E  0C89               	rrf	9,f
  4632  0A6F  390F               	andlw	15
  4633  0A70  3A0D               	xorlw	13
  4634  0A71  1D03               	skipz
  4635  0A72  2A74               	goto	u3501
  4636  0A73  2A75               	goto	u3500
  4637  0A74                     u3501:
  4638  0A74  2A89               	goto	l4719
  4639  0A75                     u3500:
  4640  0A75                     l4715:
  4641                           
  4642                           ;lib/usb/usb_device.c: 2407:         {;lib/usb/usb_device.c: 2412:             memcpy((u
      +                          int8_t*)&SetupPkt, (uint8_t*)((void *)(pBDTEntryEP0OutCurrent->ADR)), 8);
  4643  0A75  0853               	movf	_pBDTEntryEP0OutCurrent^(0+128),w
  4644  0A76  3E02               	addlw	2
  4645  0A77  0086               	movwf	6
  4646  0A78  0187               	clrf	7
  4647  0A79  3F40               	moviw [0]fsr1
  4648  0A7A  00F0               	movwf	memcpy@s1
  4649  0A7B  3F41               	moviw [1]fsr1
  4650  0A7C  00F1               	movwf	memcpy@s1+1
  4651  0A7D  3008               	movlw	8
  4652  0A7E  00F2               	movwf	memcpy@n
  4653  0A7F  3000               	movlw	0
  4654  0A80  00F3               	movwf	memcpy@n+1
  4655  0A81  3060               	movlw	96
  4656  0A82  3188  20DF  318A   	fcall	_memcpy
  4657  0A85                     l4717:
  4658                           
  4659                           ;lib/usb/usb_device.c: 2415:             USBCtrlTrfSetupHandler();
  4660  0A85  3189  21FE  318A   	fcall	_USBCtrlTrfSetupHandler
  4661                           
  4662                           ;lib/usb/usb_device.c: 2416:         }
  4663  0A88  2A99               	goto	l333
  4664  0A89                     l4719:
  4665                           
  4666                           ;lib/usb/usb_device.c: 2418:         {;lib/usb/usb_device.c: 2420:             USBCtrlTr
      +                          fOutHandler();
  4667  0A89  3189  213D  318A   	fcall	_USBCtrlTrfOutHandler
  4668  0A8C  2A99               	goto	l333
  4669  0A8D                     l4721:
  4670  0A8D  30FD               	movlw	253
  4671  0A8E  0557               	andwf	_USTATcopy^(0+128),w
  4672  0A8F  00E9               	movwf	??_USBCtrlEPService^(0+128)
  4673  0A90  3004               	movlw	4
  4674  0A91  0669               	xorwf	??_USBCtrlEPService^(0+128),w
  4675  0A92  1D03               	btfss	3,2
  4676  0A93  2A95               	goto	u3511
  4677  0A94  2A96               	goto	u3510
  4678  0A95                     u3511:
  4679  0A95  2A99               	goto	l333
  4680  0A96                     u3510:
  4681  0A96                     l4723:
  4682                           
  4683                           ;lib/usb/usb_device.c: 2424:     {;lib/usb/usb_device.c: 2427:         USBCtrlTrfInHandl
      +                          er();
  4684  0A96  318C  24B0  318A   	fcall	_USBCtrlTrfInHandler
  4685  0A99                     l333:
  4686  0A99  0008               	return
  4687  0A9A                     __end_of_USBCtrlEPService:
  4688                           
  4689                           	psect	text10
  4690  08DF                     __ptext10:	
  4691 ;; *************** function _memcpy *****************
  4692 ;; Defined at:
  4693 ;;		line 4 in file "E:\Atmel Studio\Comp-istall\pic\sources\c99\common\memcpy.c"
  4694 ;; Parameters:    Size  Location     Type
  4695 ;;  d1              1    wreg     PTR void 
  4696 ;;		 -> SetupPkt(8), 
  4697 ;;  s1              2    0[COMMON] PTR const void 
  4698 ;;		 -> CtrlTrfData(8), RAM(4096), SetupPkt(8), 
  4699 ;;  n               2    2[COMMON] unsigned int 
  4700 ;; Auto vars:     Size  Location     Type
  4701 ;;  d1              1    8[COMMON] PTR void 
  4702 ;;		 -> SetupPkt(8), 
  4703 ;;  s               2    5[COMMON] PTR const unsigned char 
  4704 ;;		 -> CtrlTrfData(8), RAM(4096), SetupPkt(8), 
  4705 ;;  d               1    9[COMMON] PTR unsigned char 
  4706 ;;		 -> SetupPkt(8), 
  4707 ;;  tmp             1    7[COMMON] unsigned char 
  4708 ;; Return value:  Size  Location     Type
  4709 ;;                  1    wreg      PTR void 
  4710 ;; Registers used:
  4711 ;;		wreg, fsr1l, fsr1h, status,2, status,0
  4712 ;; Tracked objects:
  4713 ;;		On entry : 0/0
  4714 ;;		On exit  : 0/0
  4715 ;;		Unchanged: 0/0
  4716 ;; Data sizes:     COMMON   BANK1   BANK2   BANK3   BANK4   BANK5   BANK6   BANK7   BANK8   BANK9  BANK10  BANK11  BANK1
      +2
  4717 ;;      Params:         4       0       0       0       0       0       0       0       0       0       0       0       
      +0
  4718 ;;      Locals:         5       0       0       0       0       0       0       0       0       0       0       0       
      +0
  4719 ;;      Temps:          1       0       0       0       0       0       0       0       0       0       0       0       
      +0
  4720 ;;      Totals:        10       0       0       0       0       0       0       0       0       0       0       0       
      +0
  4721 ;;Total ram usage:       10 bytes
  4722 ;; Hardware stack levels used: 1
  4723 ;; Hardware stack levels required when called: 1
  4724 ;; This function calls:
  4725 ;;		Nothing
  4726 ;; This function is called by:
  4727 ;;		_USBCtrlEPService
  4728 ;; This function uses a non-reentrant model
  4729 ;;
  4730                           
  4731  08DF                     _memcpy:	
  4732                           ;psect for function _memcpy
  4733                           
  4734                           
  4735                           ;incstack = 0
  4736                           ; Regs used in _memcpy: [wreg+fsr1l+fsr1h+status,2+status,0]
  4737                           ;memcpy@d1 stored from wreg
  4738  08DF  00F8               	movwf	memcpy@d1
  4739  08E0                     l3701:
  4740  08E0  0871               	movf	memcpy@s1+1,w
  4741  08E1  00F6               	movwf	memcpy@s+1
  4742  08E2  0870               	movf	memcpy@s1,w
  4743  08E3  00F5               	movwf	memcpy@s
  4744  08E4  0878               	movf	memcpy@d1,w
  4745  08E5  00F4               	movwf	??_memcpy
  4746  08E6  0874               	movf	??_memcpy,w
  4747  08E7  00F9               	movwf	memcpy@d
  4748  08E8  2900               	goto	l3711
  4749  08E9                     l3703:
  4750  08E9  0875               	movf	memcpy@s,w
  4751  08EA  0086               	movwf	6
  4752  08EB  0876               	movf	memcpy@s+1,w
  4753  08EC  0087               	movwf	7
  4754  08ED  0801               	movf	1,w
  4755  08EE  00F4               	movwf	??_memcpy
  4756  08EF  0874               	movf	??_memcpy,w
  4757  08F0  00F7               	movwf	memcpy@tmp
  4758  08F1                     l3705:
  4759  08F1  3001               	movlw	1
  4760  08F2  07F5               	addwf	memcpy@s,f
  4761  08F3  3000               	movlw	0
  4762  08F4  3DF6               	addwfc	memcpy@s+1,f
  4763  08F5                     l3707:
  4764  08F5  0877               	movf	memcpy@tmp,w
  4765  08F6  00F4               	movwf	??_memcpy
  4766  08F7  0879               	movf	memcpy@d,w
  4767  08F8  0086               	movwf	6
  4768  08F9  0187               	clrf	7
  4769  08FA  0874               	movf	??_memcpy,w
  4770  08FB  0081               	movwf	1
  4771  08FC                     l3709:
  4772  08FC  3001               	movlw	1
  4773  08FD  00F4               	movwf	??_memcpy
  4774  08FE  0874               	movf	??_memcpy,w
  4775  08FF  07F9               	addwf	memcpy@d,f
  4776  0900                     l3711:
  4777  0900  3001               	movlw	1
  4778  0901  02F2               	subwf	memcpy@n,f
  4779  0902  3000               	movlw	0
  4780  0903  3BF3               	subwfb	memcpy@n+1,f
  4781  0904  0A72               	incf	memcpy@n,w
  4782  0905  1D03               	skipz
  4783  0906  290B               	goto	u2571
  4784  0907  0A73               	incf	memcpy@n+1,w
  4785  0908  1D03               	btfss	3,2
  4786  0909  290B               	goto	u2571
  4787  090A  290C               	goto	u2570
  4788  090B                     u2571:
  4789  090B  28E9               	goto	l3703
  4790  090C                     u2570:
  4791  090C                     l1303:
  4792  090C  0008               	return
  4793  090D                     __end_of_memcpy:
  4794                           
  4795                           	psect	text11
  4796  09FE                     __ptext11:	
  4797 ;; *************** function _USBCtrlTrfSetupHandler *****************
  4798 ;; Defined at:
  4799 ;;		line 2472 in file "lib/usb/usb_device.c"
  4800 ;; Parameters:    Size  Location     Type
  4801 ;;		None
  4802 ;; Auto vars:     Size  Location     Type
  4803 ;;		None
  4804 ;; Return value:  Size  Location     Type
  4805 ;;                  1    wreg      void 
  4806 ;; Registers used:
  4807 ;;		wreg, fsr0l, fsr0h, fsr1l, fsr1h, status,2, status,0, pclath, cstack
  4808 ;; Tracked objects:
  4809 ;;		On entry : 0/0
  4810 ;;		On exit  : 0/0
  4811 ;;		Unchanged: 0/0
  4812 ;; Data sizes:     COMMON   BANK1   BANK2   BANK3   BANK4   BANK5   BANK6   BANK7   BANK8   BANK9  BANK10  BANK11  BANK1
      +2
  4813 ;;      Params:         0       0       0       0       0       0       0       0       0       0       0       0       
      +0
  4814 ;;      Locals:         0       0       0       0       0       0       0       0       0       0       0       0       
      +0
  4815 ;;      Temps:          0       1       0       0       0       0       0       0       0       0       0       0       
      +0
  4816 ;;      Totals:         0       1       0       0       0       0       0       0       0       0       0       0       
      +0
  4817 ;;Total ram usage:        1 bytes
  4818 ;; Hardware stack levels used: 1
  4819 ;; Hardware stack levels required when called: 7
  4820 ;; This function calls:
  4821 ;;		_USBCheckStdRequest
  4822 ;;		_USBCtrlEPServiceComplete
  4823 ;;		_USER_USB_CALLBACK_EVENT_HANDLER
  4824 ;; This function is called by:
  4825 ;;		_USBCtrlEPService
  4826 ;; This function uses a non-reentrant model
  4827 ;;
  4828                           
  4829  09FE                     _USBCtrlTrfSetupHandler:	
  4830                           ;psect for function _USBCtrlTrfSetupHandler
  4831                           
  4832  09FE                     l4677:	
  4833                           ;incstack = 0
  4834                           ; Regs used in _USBCtrlTrfSetupHandler: [wreg-fsr1h+status,2+status,0+pclath+cstack]
  4835                           
  4836                           
  4837                           ;lib/usb/usb_device.c: 2477:     shortPacketStatus = 0;
  4838  09FE  0021               	movlb	1	; select bank1
  4839  09FF  01D2               	clrf	_shortPacketStatus^(0+128)
  4840                           
  4841                           ;lib/usb/usb_device.c: 2478:     USBDeferStatusStagePacket = 0;
  4842  0A00  01CA               	clrf	_USBDeferStatusStagePacket^(0+128)	;volatile
  4843                           
  4844                           ;lib/usb/usb_device.c: 2479:     USBDeferINDataStagePackets = 0;
  4845  0A01  01C7               	clrf	_USBDeferINDataStagePackets^(0+128)	;volatile
  4846                           
  4847                           ;lib/usb/usb_device.c: 2480:     USBDeferOUTDataStagePackets = 0;
  4848  0A02  01C6               	clrf	_USBDeferOUTDataStagePackets^(0+128)	;volatile
  4849                           
  4850                           ;lib/usb/usb_device.c: 2481:     BothEP0OutUOWNsSet = 0;
  4851  0A03  01CC               	clrf	_BothEP0OutUOWNsSet^(0+128)
  4852                           
  4853                           ;lib/usb/usb_device.c: 2482:     controlTransferState = 0;
  4854  0A04  01D1               	clrf	_controlTransferState^(0+128)
  4855  0A05                     l4679:
  4856                           
  4857                           ;lib/usb/usb_device.c: 2491:     pBDTEntryIn[0]->STAT.Val &= ~(0x80);
  4858  0A05  307F               	movlw	127
  4859  0A06  00E8               	movwf	??_USBCtrlTrfSetupHandler^(0+128)
  4860  0A07  0830               	movf	_pBDTEntryIn^(0+128),w
  4861  0A08  0086               	movwf	6
  4862  0A09  0831               	movf	(_pBDTEntryIn+1)^(0+128),w
  4863  0A0A  0087               	movwf	7
  4864  0A0B  0868               	movf	??_USBCtrlTrfSetupHandler^(0+128),w
  4865  0A0C  0581               	andwf	1,f
  4866  0A0D                     l4681:
  4867                           
  4868                           ;lib/usb/usb_device.c: 2493:     pBDTEntryIn[0] = (volatile BDT_ENTRY*)(((uint16_t)pBDTE
      +                          ntryIn[0]) ^ 0x0004);
  4869  0A0D  3004               	movlw	4
  4870  0A0E  0630               	xorwf	_pBDTEntryIn^(0+128),w
  4871  0A0F  00B0               	movwf	_pBDTEntryIn^(0+128)
  4872  0A10  3000               	movlw	0
  4873  0A11  0631               	xorwf	(_pBDTEntryIn+1)^(0+128),w
  4874  0A12  00B1               	movwf	(_pBDTEntryIn+1)^(0+128)
  4875  0A13                     l4683:
  4876                           
  4877                           ;lib/usb/usb_device.c: 2494:     pBDTEntryIn[0]->STAT.Val &= ~(0x80);
  4878  0A13  307F               	movlw	127
  4879  0A14  00E8               	movwf	??_USBCtrlTrfSetupHandler^(0+128)
  4880  0A15  0830               	movf	_pBDTEntryIn^(0+128),w
  4881  0A16  0086               	movwf	6
  4882  0A17  0831               	movf	(_pBDTEntryIn+1)^(0+128),w
  4883  0A18  0087               	movwf	7
  4884  0A19  0868               	movf	??_USBCtrlTrfSetupHandler^(0+128),w
  4885  0A1A  0581               	andwf	1,f
  4886  0A1B                     l4685:
  4887                           
  4888                           ;lib/usb/usb_device.c: 2495:     pBDTEntryIn[0] = (volatile BDT_ENTRY*)(((uint16_t)pBDTE
      +                          ntryIn[0]) ^ 0x0004);
  4889  0A1B  3004               	movlw	4
  4890  0A1C  0630               	xorwf	_pBDTEntryIn^(0+128),w
  4891  0A1D  00B0               	movwf	_pBDTEntryIn^(0+128)
  4892  0A1E  3000               	movlw	0
  4893  0A1F  0631               	xorwf	(_pBDTEntryIn+1)^(0+128),w
  4894  0A20  00B1               	movwf	(_pBDTEntryIn+1)^(0+128)
  4895  0A21                     l4687:
  4896                           
  4897                           ;lib/usb/usb_device.c: 2496:     pBDTEntryEP0OutNext->STAT.Val &= ~(0x80);
  4898  0A21  307F               	movlw	127
  4899  0A22  00E8               	movwf	??_USBCtrlTrfSetupHandler^(0+128)
  4900  0A23  083F               	movf	_pBDTEntryEP0OutNext^(0+128),w
  4901  0A24  0086               	movwf	6
  4902  0A25  0840               	movf	(_pBDTEntryEP0OutNext+1)^(0+128),w
  4903  0A26  0087               	movwf	7
  4904  0A27  0868               	movf	??_USBCtrlTrfSetupHandler^(0+128),w
  4905  0A28  0581               	andwf	1,f
  4906  0A29                     l4689:
  4907                           
  4908                           ;lib/usb/usb_device.c: 2498:     inPipes[0].info.Val = 0;
  4909  0A29  01BA               	clrf	(_inPipes^(0+128)+2)
  4910  0A2A                     l4691:
  4911                           
  4912                           ;lib/usb/usb_device.c: 2499:     inPipes[0].wCount.Val = 0;
  4913  0A2A  01BB               	clrf	(_inPipes^(0+128)+3)
  4914  0A2B  01BC               	clrf	((_inPipes+1)^(0+128)+3)
  4915  0A2C                     l4693:
  4916                           
  4917                           ;lib/usb/usb_device.c: 2500:     outPipes[0].info.Val = 0;
  4918  0A2C  0022               	movlb	2	; select bank2
  4919  0A2D  01A2               	clrf	(_outPipes^(0+256)+2)
  4920  0A2E                     l4695:
  4921                           
  4922                           ;lib/usb/usb_device.c: 2501:     outPipes[0].wCount.Val = 0;
  4923  0A2E  01A3               	clrf	(_outPipes^(0+256)+3)
  4924  0A2F  01A4               	clrf	((_outPipes+1)^(0+256)+3)
  4925  0A30                     l4697:
  4926                           
  4927                           ;lib/usb/usb_device.c: 2507:     USBCheckStdRequest();
  4928  0A30  3187  2783  3189   	fcall	_USBCheckStdRequest
  4929  0A33                     l4699:
  4930                           
  4931                           ;lib/usb/usb_device.c: 2508:     USER_USB_CALLBACK_EVENT_HANDLER((USB_EVENT)EVENT_EP0_RE
      +                          QUEST,0,0);
  4932  0A33  3003               	movlw	3
  4933  0A34  0021               	movlb	1	; select bank1
  4934  0A35  00D9               	movwf	USER_USB_CALLBACK_EVENT_HANDLER@event^(0+128)
  4935  0A36  3000               	movlw	0
  4936  0A37  00DA               	movwf	(USER_USB_CALLBACK_EVENT_HANDLER@event^(0+128)+1)
  4937  0A38  3000               	movlw	0
  4938  0A39  00DB               	movwf	USER_USB_CALLBACK_EVENT_HANDLER@pdata^(0+128)
  4939  0A3A  3000               	movlw	0
  4940  0A3B  00DC               	movwf	(USER_USB_CALLBACK_EVENT_HANDLER@pdata+1)^(0+128)
  4941  0A3C  3000               	movlw	0
  4942  0A3D  00DD               	movwf	USER_USB_CALLBACK_EVENT_HANDLER@size^(0+128)
  4943  0A3E  00DE               	movwf	(USER_USB_CALLBACK_EVENT_HANDLER@size+1)^(0+128)
  4944  0A3F  3189  21B8  3189   	fcall	_USER_USB_CALLBACK_EVENT_HANDLER
  4945  0A42                     l4701:
  4946                           
  4947                           ;lib/usb/usb_device.c: 2521:     USBCtrlEPServiceComplete();
  4948  0A42  318E  26BA  3189   	fcall	_USBCtrlEPServiceComplete
  4949  0A45                     l336:
  4950  0A45  0008               	return
  4951  0A46                     __end_of_USBCtrlTrfSetupHandler:
  4952                           
  4953                           	psect	text12
  4954  0EBA                     __ptext12:	
  4955 ;; *************** function _USBCtrlEPServiceComplete *****************
  4956 ;; Defined at:
  4957 ;;		line 1620 in file "lib/usb/usb_device.c"
  4958 ;; Parameters:    Size  Location     Type
  4959 ;;		None
  4960 ;; Auto vars:     Size  Location     Type
  4961 ;;		None
  4962 ;; Return value:  Size  Location     Type
  4963 ;;                  1    wreg      void 
  4964 ;; Registers used:
  4965 ;;		wreg, fsr0l, fsr0h, fsr1l, fsr1h, status,2, status,0, pclath, cstack
  4966 ;; Tracked objects:
  4967 ;;		On entry : 0/0
  4968 ;;		On exit  : 0/0
  4969 ;;		Unchanged: 0/0
  4970 ;; Data sizes:     COMMON   BANK1   BANK2   BANK3   BANK4   BANK5   BANK6   BANK7   BANK8   BANK9  BANK10  BANK11  BANK1
      +2
  4971 ;;      Params:         0       0       0       0       0       0       0       0       0       0       0       0       
      +0
  4972 ;;      Locals:         0       0       0       0       0       0       0       0       0       0       0       0       
      +0
  4973 ;;      Temps:          2       0       0       0       0       0       0       0       0       0       0       0       
      +0
  4974 ;;      Totals:         2       0       0       0       0       0       0       0       0       0       0       0       
      +0
  4975 ;;Total ram usage:        2 bytes
  4976 ;; Hardware stack levels used: 1
  4977 ;; Hardware stack levels required when called: 3
  4978 ;; This function calls:
  4979 ;;		_USBCtrlEPAllowDataStage
  4980 ;;		_USBCtrlEPAllowStatusStage
  4981 ;; This function is called by:
  4982 ;;		_USBCtrlTrfSetupHandler
  4983 ;; This function uses a non-reentrant model
  4984 ;;
  4985                           
  4986  0EBA                     _USBCtrlEPServiceComplete:	
  4987                           ;psect for function _USBCtrlEPServiceComplete
  4988                           
  4989  0EBA                     l3559:	
  4990                           ;incstack = 0
  4991                           ; Regs used in _USBCtrlEPServiceComplete: [wreg-fsr1h+status,2+status,0+pclath+cstack]
  4992                           
  4993                           
  4994                           ;lib/usb/usb_device.c: 1626:     UCONbits.PKTDIS = 0;
  4995  0EBA  003D               	movlb	29	; select bank29
  4996  0EBB  120E               	bcf	14,4	;volatile
  4997                           
  4998                           ;lib/usb/usb_device.c: 1632:     if(inPipes[0].info.bits.busy == 0)
  4999  0EBC  0021               	movlb	1	; select bank1
  5000  0EBD  1BBA               	btfsc	(_inPipes^(0+128)+2),7
  5001  0EBE  2EC0               	goto	u2441
  5002  0EBF  2EC1               	goto	u2440
  5003  0EC0                     u2441:
  5004  0EC0  2F08               	goto	l235
  5005  0EC1                     u2440:
  5006  0EC1                     l3561:
  5007                           
  5008                           ;lib/usb/usb_device.c: 1633:     {;lib/usb/usb_device.c: 1634:         if(outPipes[0].in
      +                          fo.bits.busy == 1)
  5009  0EC1  0022               	movlb	2	; select bank2
  5010  0EC2  1FA2               	btfss	(_outPipes^(0+256)+2),7
  5011  0EC3  2EC5               	goto	u2451
  5012  0EC4  2EC6               	goto	u2450
  5013  0EC5                     u2451:
  5014  0EC5  2ED7               	goto	l3573
  5015  0EC6                     u2450:
  5016  0EC6                     l3563:
  5017                           
  5018                           ;lib/usb/usb_device.c: 1635:         {;lib/usb/usb_device.c: 1636:             controlTr
      +                          ansferState = 2;
  5019  0EC6  3002               	movlw	2
  5020  0EC7  00F5               	movwf	??_USBCtrlEPServiceComplete
  5021  0EC8  0875               	movf	??_USBCtrlEPServiceComplete,w
  5022  0EC9  0021               	movlb	1	; select bank1
  5023  0ECA  00D1               	movwf	_controlTransferState^(0+128)
  5024  0ECB                     l3565:
  5025                           
  5026                           ;lib/usb/usb_device.c: 1647:             if(USBDeferOUTDataStagePackets == 0)
  5027  0ECB  0846               	movf	_USBDeferOUTDataStagePackets^(0+128),w	;volatile
  5028  0ECC  1D03               	btfss	3,2
  5029  0ECD  2ECF               	goto	u2461
  5030  0ECE  2ED0               	goto	u2460
  5031  0ECF                     u2461:
  5032  0ECF  2ED3               	goto	l3569
  5033  0ED0                     u2460:
  5034  0ED0                     l3567:
  5035                           
  5036                           ;lib/usb/usb_device.c: 1648:             {;lib/usb/usb_device.c: 1649:                 U
      +                          SBCtrlEPAllowDataStage();
  5037  0ED0  318A  229A  318E   	fcall	_USBCtrlEPAllowDataStage
  5038  0ED3                     l3569:
  5039                           
  5040                           ;lib/usb/usb_device.c: 1654:             USBStatusStageEnabledFlag2 = 0;
  5041  0ED3  0021               	movlb	1	; select bank1
  5042  0ED4  01C8               	clrf	_USBStatusStageEnabledFlag2^(0+128)	;volatile
  5043  0ED5                     l3571:
  5044                           
  5045                           ;lib/usb/usb_device.c: 1655:             USBStatusStageEnabledFlag1 = 0;
  5046  0ED5  01C9               	clrf	_USBStatusStageEnabledFlag1^(0+128)	;volatile
  5047                           
  5048                           ;lib/usb/usb_device.c: 1656:         }
  5049  0ED6  2F55               	goto	l245
  5050  0ED7                     l3573:
  5051                           
  5052                           ;lib/usb/usb_device.c: 1658:         {;lib/usb/usb_device.c: 1663:             pBDTEntry
      +                          EP0OutNext->CNT = 8;
  5053  0ED7  0021               	movlb	1	; select bank1
  5054  0ED8  083F               	movf	_pBDTEntryEP0OutNext^(0+128),w
  5055  0ED9  3E01               	addlw	1
  5056  0EDA  00F5               	movwf	??_USBCtrlEPServiceComplete
  5057  0EDB  3000               	movlw	0
  5058  0EDC  3D40               	addwfc	(_pBDTEntryEP0OutNext+1)^(0+128),w
  5059  0EDD  00F6               	movwf	??_USBCtrlEPServiceComplete+1
  5060  0EDE  0875               	movf	??_USBCtrlEPServiceComplete,w
  5061  0EDF  0086               	movwf	6
  5062  0EE0  0876               	movf	??_USBCtrlEPServiceComplete+1,w
  5063  0EE1  0087               	movwf	7
  5064  0EE2  3008               	movlw	8
  5065  0EE3  0081               	movwf	1
  5066  0EE4                     l3575:
  5067                           
  5068                           ;lib/usb/usb_device.c: 1664:             pBDTEntryEP0OutNext->ADR = (((uint16_t)(&SetupP
      +                          kt)) & 0x7FFF);
  5069  0EE4  3060               	movlw	96
  5070  0EE5  00F5               	movwf	??_USBCtrlEPServiceComplete
  5071  0EE6  3000               	movlw	0
  5072  0EE7  00F6               	movwf	??_USBCtrlEPServiceComplete+1
  5073  0EE8  083F               	movf	_pBDTEntryEP0OutNext^(0+128),w
  5074  0EE9  0086               	movwf	6
  5075  0EEA  0840               	movf	(_pBDTEntryEP0OutNext+1)^(0+128),w
  5076  0EEB  0087               	movwf	7
  5077  0EEC  3142               	addfsr 1,2
  5078  0EED  0875               	movf	??_USBCtrlEPServiceComplete,w
  5079  0EEE  3FC0               	movwi [0]fsr1
  5080  0EEF  0876               	movf	??_USBCtrlEPServiceComplete+1,w
  5081  0EF0  3FC1               	movwi [1]fsr1
  5082  0EF1                     l3577:
  5083                           
  5084                           ;lib/usb/usb_device.c: 1665:             pBDTEntryEP0OutNext->STAT.Val = 0x00|(0x08 & 0x
      +                          08)|0x04;
  5085  0EF1  083F               	movf	_pBDTEntryEP0OutNext^(0+128),w
  5086  0EF2  0086               	movwf	6
  5087  0EF3  0840               	movf	(_pBDTEntryEP0OutNext+1)^(0+128),w
  5088  0EF4  0087               	movwf	7
  5089  0EF5  300C               	movlw	12
  5090  0EF6  0081               	movwf	1
  5091  0EF7                     l3579:
  5092                           
  5093                           ;lib/usb/usb_device.c: 1666:             pBDTEntryEP0OutNext->STAT.Val |= 0x80;
  5094  0EF7  083F               	movf	_pBDTEntryEP0OutNext^(0+128),w
  5095  0EF8  0086               	movwf	6
  5096  0EF9  0840               	movf	(_pBDTEntryEP0OutNext+1)^(0+128),w
  5097  0EFA  0087               	movwf	7
  5098  0EFB  1781               	bsf	1,7
  5099  0EFC                     l3581:
  5100                           
  5101                           ;lib/usb/usb_device.c: 1667:             pBDTEntryIn[0]->STAT.Val = 0x04;
  5102  0EFC  0830               	movf	_pBDTEntryIn^(0+128),w
  5103  0EFD  0086               	movwf	6
  5104  0EFE  0831               	movf	(_pBDTEntryIn+1)^(0+128),w
  5105  0EFF  0087               	movwf	7
  5106  0F00  3004               	movlw	4
  5107  0F01  0081               	movwf	1
  5108  0F02                     l3583:
  5109                           
  5110                           ;lib/usb/usb_device.c: 1668:             pBDTEntryIn[0]->STAT.Val |= 0x80;
  5111  0F02  0830               	movf	_pBDTEntryIn^(0+128),w
  5112  0F03  0086               	movwf	6
  5113  0F04  0831               	movf	(_pBDTEntryIn+1)^(0+128),w
  5114  0F05  0087               	movwf	7
  5115  0F06  1781               	bsf	1,7
  5116  0F07  2F55               	goto	l245
  5117  0F08                     l235:	
  5118                           ;lib/usb/usb_device.c: 1671:     else
  5119                           
  5120                           
  5121                           ;lib/usb/usb_device.c: 1672:     {;lib/usb/usb_device.c: 1673:   if(SetupPkt.DataDir == 
      +                          (0x80>>7))
  5122  0F08  0020               	movlb	0	; select bank0
  5123  0F09  1FE0               	btfss	96,7	;volatile
  5124  0F0A  2F0C               	goto	u2471
  5125  0F0B  2F0D               	goto	u2470
  5126  0F0C                     u2471:
  5127  0F0C  2F24               	goto	l3599
  5128  0F0D                     u2470:
  5129  0F0D                     l3585:
  5130                           
  5131                           ;lib/usb/usb_device.c: 1674:   {;lib/usb/usb_device.c: 1675:    controlTransferState = 1
      +                          ;
  5132  0F0D  0021               	movlb	1	; select bank1
  5133  0F0E  01D1               	clrf	_controlTransferState^(0+128)
  5134  0F0F  0AD1               	incf	_controlTransferState^(0+128),f
  5135  0F10                     l3587:
  5136                           
  5137                           ;lib/usb/usb_device.c: 1689:    if(USBDeferINDataStagePackets == 0)
  5138  0F10  0847               	movf	_USBDeferINDataStagePackets^(0+128),w	;volatile
  5139  0F11  1D03               	btfss	3,2
  5140  0F12  2F14               	goto	u2481
  5141  0F13  2F15               	goto	u2480
  5142  0F14                     u2481:
  5143  0F14  2F18               	goto	l3591
  5144  0F15                     u2480:
  5145  0F15                     l3589:
  5146                           
  5147                           ;lib/usb/usb_device.c: 1690:             {;lib/usb/usb_device.c: 1691:                 U
      +                          SBCtrlEPAllowDataStage();
  5148  0F15  318A  229A  318E   	fcall	_USBCtrlEPAllowDataStage
  5149  0F18                     l3591:
  5150                           
  5151                           ;lib/usb/usb_device.c: 1714:             USBStatusStageEnabledFlag2 = 0;
  5152  0F18  0021               	movlb	1	; select bank1
  5153  0F19  01C8               	clrf	_USBStatusStageEnabledFlag2^(0+128)	;volatile
  5154  0F1A                     l3593:
  5155                           
  5156                           ;lib/usb/usb_device.c: 1715:             USBStatusStageEnabledFlag1 = 0;
  5157  0F1A  01C9               	clrf	_USBStatusStageEnabledFlag1^(0+128)	;volatile
  5158  0F1B                     l3595:
  5159                           
  5160                           ;lib/usb/usb_device.c: 1716:             if(USBDeferStatusStagePacket == 0)
  5161  0F1B  084A               	movf	_USBDeferStatusStagePacket^(0+128),w	;volatile
  5162  0F1C  1D03               	btfss	3,2
  5163  0F1D  2F1F               	goto	u2491
  5164  0F1E  2F20               	goto	u2490
  5165  0F1F                     u2491:
  5166  0F1F  2F55               	goto	l245
  5167  0F20                     u2490:
  5168  0F20                     l3597:
  5169                           
  5170                           ;lib/usb/usb_device.c: 1717:             {;lib/usb/usb_device.c: 1718:                 U
      +                          SBCtrlEPAllowStatusStage();
  5171  0F20  318B  23C9  318E   	fcall	_USBCtrlEPAllowStatusStage
  5172  0F23  2F55               	goto	l245
  5173  0F24                     l3599:
  5174                           
  5175                           ;lib/usb/usb_device.c: 1722:   {;lib/usb/usb_device.c: 1733:    controlTransferState = 2
      +                          ;
  5176  0F24  3002               	movlw	2
  5177  0F25  00F5               	movwf	??_USBCtrlEPServiceComplete
  5178  0F26  0875               	movf	??_USBCtrlEPServiceComplete,w
  5179  0F27  0021               	movlb	1	; select bank1
  5180  0F28  00D1               	movwf	_controlTransferState^(0+128)
  5181  0F29                     l3601:
  5182                           
  5183                           ;lib/usb/usb_device.c: 1736:    pBDTEntryEP0OutNext->CNT = 8;
  5184  0F29  083F               	movf	_pBDTEntryEP0OutNext^(0+128),w
  5185  0F2A  3E01               	addlw	1
  5186  0F2B  00F5               	movwf	??_USBCtrlEPServiceComplete
  5187  0F2C  3000               	movlw	0
  5188  0F2D  3D40               	addwfc	(_pBDTEntryEP0OutNext+1)^(0+128),w
  5189  0F2E  00F6               	movwf	??_USBCtrlEPServiceComplete+1
  5190  0F2F  0875               	movf	??_USBCtrlEPServiceComplete,w
  5191  0F30  0086               	movwf	6
  5192  0F31  0876               	movf	??_USBCtrlEPServiceComplete+1,w
  5193  0F32  0087               	movwf	7
  5194  0F33  3008               	movlw	8
  5195  0F34  0081               	movwf	1
  5196  0F35                     l3603:
  5197                           
  5198                           ;lib/usb/usb_device.c: 1737:    pBDTEntryEP0OutNext->ADR = (((uint16_t)(&SetupPkt)) & 0x
      +                          7FFF);
  5199  0F35  3060               	movlw	96
  5200  0F36  00F5               	movwf	??_USBCtrlEPServiceComplete
  5201  0F37  3000               	movlw	0
  5202  0F38  00F6               	movwf	??_USBCtrlEPServiceComplete+1
  5203  0F39  083F               	movf	_pBDTEntryEP0OutNext^(0+128),w
  5204  0F3A  0086               	movwf	6
  5205  0F3B  0840               	movf	(_pBDTEntryEP0OutNext+1)^(0+128),w
  5206  0F3C  0087               	movwf	7
  5207  0F3D  3142               	addfsr 1,2
  5208  0F3E  0875               	movf	??_USBCtrlEPServiceComplete,w
  5209  0F3F  3FC0               	movwi [0]fsr1
  5210  0F40  0876               	movf	??_USBCtrlEPServiceComplete+1,w
  5211  0F41  3FC1               	movwi [1]fsr1
  5212  0F42                     l3605:
  5213                           
  5214                           ;lib/usb/usb_device.c: 1738:    pBDTEntryEP0OutNext->STAT.Val = 0x04;
  5215  0F42  083F               	movf	_pBDTEntryEP0OutNext^(0+128),w
  5216  0F43  0086               	movwf	6
  5217  0F44  0840               	movf	(_pBDTEntryEP0OutNext+1)^(0+128),w
  5218  0F45  0087               	movwf	7
  5219  0F46  3004               	movlw	4
  5220  0F47  0081               	movwf	1
  5221  0F48                     l3607:
  5222                           
  5223                           ;lib/usb/usb_device.c: 1739:             pBDTEntryEP0OutNext->STAT.Val |= 0x80;
  5224  0F48  083F               	movf	_pBDTEntryEP0OutNext^(0+128),w
  5225  0F49  0086               	movwf	6
  5226  0F4A  0840               	movf	(_pBDTEntryEP0OutNext+1)^(0+128),w
  5227  0F4B  0087               	movwf	7
  5228  0F4C  1781               	bsf	1,7
  5229  0F4D                     l3609:
  5230                           
  5231                           ;lib/usb/usb_device.c: 1742:             USBStatusStageEnabledFlag2 = 0;
  5232  0F4D  01C8               	clrf	_USBStatusStageEnabledFlag2^(0+128)	;volatile
  5233  0F4E                     l3611:
  5234                           
  5235                           ;lib/usb/usb_device.c: 1743:             USBStatusStageEnabledFlag1 = 0;
  5236  0F4E  01C9               	clrf	_USBStatusStageEnabledFlag1^(0+128)	;volatile
  5237                           
  5238                           ;lib/usb/usb_device.c: 1744:    if(USBDeferStatusStagePacket == 0)
  5239  0F4F  084A               	movf	_USBDeferStatusStagePacket^(0+128),w	;volatile
  5240  0F50  1D03               	btfss	3,2
  5241  0F51  2F53               	goto	u2501
  5242  0F52  2F54               	goto	u2500
  5243  0F53                     u2501:
  5244  0F53  2F55               	goto	l245
  5245  0F54                     u2500:
  5246  0F54  2F20               	goto	l3597
  5247  0F55                     l245:
  5248  0F55  0008               	return
  5249  0F56                     __end_of_USBCtrlEPServiceComplete:
  5250                           
  5251                           	psect	text13
  5252  0A9A                     __ptext13:	
  5253 ;; *************** function _USBCtrlEPAllowDataStage *****************
  5254 ;; Defined at:
  5255 ;;		line 1492 in file "lib/usb/usb_device.c"
  5256 ;; Parameters:    Size  Location     Type
  5257 ;;		None
  5258 ;; Auto vars:     Size  Location     Type
  5259 ;;		None
  5260 ;; Return value:  Size  Location     Type
  5261 ;;                  1    wreg      void 
  5262 ;; Registers used:
  5263 ;;		wreg, fsr0l, fsr0h, fsr1l, fsr1h, status,2, status,0, pclath, cstack
  5264 ;; Tracked objects:
  5265 ;;		On entry : 0/0
  5266 ;;		On exit  : 0/0
  5267 ;;		Unchanged: 0/0
  5268 ;; Data sizes:     COMMON   BANK1   BANK2   BANK3   BANK4   BANK5   BANK6   BANK7   BANK8   BANK9  BANK10  BANK11  BANK1
      +2
  5269 ;;      Params:         0       0       0       0       0       0       0       0       0       0       0       0       
      +0
  5270 ;;      Locals:         0       0       0       0       0       0       0       0       0       0       0       0       
      +0
  5271 ;;      Temps:          2       0       0       0       0       0       0       0       0       0       0       0       
      +0
  5272 ;;      Totals:         2       0       0       0       0       0       0       0       0       0       0       0       
      +0
  5273 ;;Total ram usage:        2 bytes
  5274 ;; Hardware stack levels used: 1
  5275 ;; Hardware stack levels required when called: 2
  5276 ;; This function calls:
  5277 ;;		_USBCtrlTrfTxService
  5278 ;; This function is called by:
  5279 ;;		_USBCtrlEPServiceComplete
  5280 ;; This function uses a non-reentrant model
  5281 ;;
  5282                           
  5283  0A9A                     _USBCtrlEPAllowDataStage:	
  5284                           ;psect for function _USBCtrlEPAllowDataStage
  5285                           
  5286  0A9A                     l3329:	
  5287                           ;incstack = 0
  5288                           ; Regs used in _USBCtrlEPAllowDataStage: [wreg-fsr1h+status,2+status,0+pclath+cstack]
  5289                           
  5290                           
  5291                           ;lib/usb/usb_device.c: 1494:     USBDeferINDataStagePackets = 0;
  5292  0A9A  0021               	movlb	1	; select bank1
  5293  0A9B  01C7               	clrf	_USBDeferINDataStagePackets^(0+128)	;volatile
  5294                           
  5295                           ;lib/usb/usb_device.c: 1495:     USBDeferOUTDataStagePackets = 0;
  5296  0A9C  01C6               	clrf	_USBDeferOUTDataStagePackets^(0+128)	;volatile
  5297  0A9D                     l3331:
  5298                           
  5299                           ;lib/usb/usb_device.c: 1497:     if(controlTransferState == 2)
  5300  0A9D  3002               	movlw	2
  5301  0A9E  0651               	xorwf	_controlTransferState^(0+128),w
  5302  0A9F  1D03               	btfss	3,2
  5303  0AA0  2AA2               	goto	u2121
  5304  0AA1  2AA3               	goto	u2120
  5305  0AA2                     u2121:
  5306  0AA2  2AC8               	goto	l3341
  5307  0AA3                     u2120:
  5308  0AA3                     l3333:
  5309                           
  5310                           ;lib/usb/usb_device.c: 1498:     {;lib/usb/usb_device.c: 1500:         pBDTEntryEP0OutNe
      +                          xt->CNT = 8;
  5311  0AA3  083F               	movf	_pBDTEntryEP0OutNext^(0+128),w
  5312  0AA4  3E01               	addlw	1
  5313  0AA5  00F3               	movwf	??_USBCtrlEPAllowDataStage
  5314  0AA6  3000               	movlw	0
  5315  0AA7  3D40               	addwfc	(_pBDTEntryEP0OutNext+1)^(0+128),w
  5316  0AA8  00F4               	movwf	??_USBCtrlEPAllowDataStage+1
  5317  0AA9  0873               	movf	??_USBCtrlEPAllowDataStage,w
  5318  0AAA  0086               	movwf	6
  5319  0AAB  0874               	movf	??_USBCtrlEPAllowDataStage+1,w
  5320  0AAC  0087               	movwf	7
  5321  0AAD  3008               	movlw	8
  5322  0AAE  0081               	movwf	1
  5323  0AAF                     l3335:
  5324                           
  5325                           ;lib/usb/usb_device.c: 1501:         pBDTEntryEP0OutNext->ADR = (((uint16_t)(&CtrlTrfDat
      +                          a)) & 0x7FFF);
  5326  0AAF  3068               	movlw	104
  5327  0AB0  00F3               	movwf	??_USBCtrlEPAllowDataStage
  5328  0AB1  3000               	movlw	0
  5329  0AB2  00F4               	movwf	??_USBCtrlEPAllowDataStage+1
  5330  0AB3  083F               	movf	_pBDTEntryEP0OutNext^(0+128),w
  5331  0AB4  0086               	movwf	6
  5332  0AB5  0840               	movf	(_pBDTEntryEP0OutNext+1)^(0+128),w
  5333  0AB6  0087               	movwf	7
  5334  0AB7  3142               	addfsr 1,2
  5335  0AB8  0873               	movf	??_USBCtrlEPAllowDataStage,w
  5336  0AB9  3FC0               	movwi [0]fsr1
  5337  0ABA  0874               	movf	??_USBCtrlEPAllowDataStage+1,w
  5338  0ABB  3FC1               	movwi [1]fsr1
  5339  0ABC                     l3337:
  5340                           
  5341                           ;lib/usb/usb_device.c: 1502:         pBDTEntryEP0OutNext->STAT.Val = 0x40|(0x08 & 0x08);
  5342  0ABC  083F               	movf	_pBDTEntryEP0OutNext^(0+128),w
  5343  0ABD  0086               	movwf	6
  5344  0ABE  0840               	movf	(_pBDTEntryEP0OutNext+1)^(0+128),w
  5345  0ABF  0087               	movwf	7
  5346  0AC0  3048               	movlw	72
  5347  0AC1  0081               	movwf	1
  5348  0AC2                     l3339:
  5349                           
  5350                           ;lib/usb/usb_device.c: 1503:         pBDTEntryEP0OutNext->STAT.Val |= 0x80;
  5351  0AC2  083F               	movf	_pBDTEntryEP0OutNext^(0+128),w
  5352  0AC3  0086               	movwf	6
  5353  0AC4  0840               	movf	(_pBDTEntryEP0OutNext+1)^(0+128),w
  5354  0AC5  0087               	movwf	7
  5355  0AC6  1781               	bsf	1,7
  5356                           
  5357                           ;lib/usb/usb_device.c: 1504:     }
  5358  0AC7  2AF8               	goto	l227
  5359  0AC8                     l3341:
  5360                           
  5361                           ;lib/usb/usb_device.c: 1506:     {;lib/usb/usb_device.c: 1509:   if(SetupPkt.wLength < i
      +                          nPipes[0].wCount.Val)
  5362  0AC8  083C               	movf	((_inPipes+1)^(0+128)+3),w
  5363  0AC9  0020               	movlb	0	; select bank0
  5364  0ACA  0267               	subwf	103,w	;volatile
  5365  0ACB  1D03               	skipz
  5366  0ACC  2AD1               	goto	u2135
  5367  0ACD  0021               	movlb	1	; select bank1
  5368  0ACE  083B               	movf	(_inPipes^(0+128)+3),w
  5369  0ACF  0020               	movlb	0	; select bank0
  5370  0AD0  0266               	subwf	102,w	;volatile
  5371  0AD1                     u2135:
  5372  0AD1  1803               	skipnc
  5373  0AD2  2AD4               	goto	u2131
  5374  0AD3  2AD5               	goto	u2130
  5375  0AD4                     u2131:
  5376  0AD4  2ADC               	goto	l3345
  5377  0AD5                     u2130:
  5378  0AD5                     l3343:
  5379                           
  5380                           ;lib/usb/usb_device.c: 1510:   {;lib/usb/usb_device.c: 1511:    inPipes[0].wCount.Val = 
      +                          SetupPkt.wLength;
  5381  0AD5  0867               	movf	103,w	;volatile
  5382  0AD6  0021               	movlb	1	; select bank1
  5383  0AD7  00BC               	movwf	((_inPipes+1)^(0+128)+3)
  5384  0AD8  0020               	movlb	0	; select bank0
  5385  0AD9  0866               	movf	102,w	;volatile
  5386  0ADA  0021               	movlb	1	; select bank1
  5387  0ADB  00BB               	movwf	(_inPipes^(0+128)+3)
  5388  0ADC                     l3345:
  5389                           
  5390                           ;lib/usb/usb_device.c: 1513:   USBCtrlTrfTxService();
  5391  0ADC  318C  243B  318A   	fcall	_USBCtrlTrfTxService
  5392  0ADF                     l3347:
  5393                           
  5394                           ;lib/usb/usb_device.c: 1518:   pBDTEntryIn[0]->ADR = (((uint16_t)(&CtrlTrfData)) & 0x7FF
      +                          F);
  5395  0ADF  3068               	movlw	104
  5396  0AE0  00F3               	movwf	??_USBCtrlEPAllowDataStage
  5397  0AE1  3000               	movlw	0
  5398  0AE2  00F4               	movwf	??_USBCtrlEPAllowDataStage+1
  5399  0AE3  0021               	movlb	1	; select bank1
  5400  0AE4  0830               	movf	_pBDTEntryIn^(0+128),w
  5401  0AE5  0086               	movwf	6
  5402  0AE6  0831               	movf	(_pBDTEntryIn+1)^(0+128),w
  5403  0AE7  0087               	movwf	7
  5404  0AE8  3142               	addfsr 1,2
  5405  0AE9  0873               	movf	??_USBCtrlEPAllowDataStage,w
  5406  0AEA  3FC0               	movwi [0]fsr1
  5407  0AEB  0874               	movf	??_USBCtrlEPAllowDataStage+1,w
  5408  0AEC  3FC1               	movwi [1]fsr1
  5409  0AED                     l3349:
  5410                           
  5411                           ;lib/usb/usb_device.c: 1519:   pBDTEntryIn[0]->STAT.Val = 0x40|(0x08 & 0x08);
  5412  0AED  0830               	movf	_pBDTEntryIn^(0+128),w
  5413  0AEE  0086               	movwf	6
  5414  0AEF  0831               	movf	(_pBDTEntryIn+1)^(0+128),w
  5415  0AF0  0087               	movwf	7
  5416  0AF1  3048               	movlw	72
  5417  0AF2  0081               	movwf	1
  5418  0AF3                     l3351:
  5419                           
  5420                           ;lib/usb/usb_device.c: 1520:         pBDTEntryIn[0]->STAT.Val |= 0x80;
  5421  0AF3  0830               	movf	_pBDTEntryIn^(0+128),w
  5422  0AF4  0086               	movwf	6
  5423  0AF5  0831               	movf	(_pBDTEntryIn+1)^(0+128),w
  5424  0AF6  0087               	movwf	7
  5425  0AF7  1781               	bsf	1,7
  5426  0AF8                     l227:
  5427  0AF8  0008               	return
  5428  0AF9                     __end_of_USBCtrlEPAllowDataStage:
  5429                           
  5430                           	psect	text14
  5431  0783                     __ptext14:	
  5432 ;; *************** function _USBCheckStdRequest *****************
  5433 ;; Defined at:
  5434 ;;		line 2693 in file "lib/usb/usb_device.c"
  5435 ;; Parameters:    Size  Location     Type
  5436 ;;		None
  5437 ;; Auto vars:     Size  Location     Type
  5438 ;;		None
  5439 ;; Return value:  Size  Location     Type
  5440 ;;                  1    wreg      void 
  5441 ;; Registers used:
  5442 ;;		wreg, fsr0l, fsr0h, fsr1l, fsr1h, status,2, status,0, pclath, cstack
  5443 ;; Tracked objects:
  5444 ;;		On entry : 0/0
  5445 ;;		On exit  : 0/0
  5446 ;;		Unchanged: 0/0
  5447 ;; Data sizes:     COMMON   BANK1   BANK2   BANK3   BANK4   BANK5   BANK6   BANK7   BANK8   BANK9  BANK10  BANK11  BANK1
      +2
  5448 ;;      Params:         0       0       0       0       0       0       0       0       0       0       0       0       
      +0
  5449 ;;      Locals:         0       0       0       0       0       0       0       0       0       0       0       0       
      +0
  5450 ;;      Temps:          0       2       0       0       0       0       0       0       0       0       0       0       
      +0
  5451 ;;      Totals:         0       2       0       0       0       0       0       0       0       0       0       0       
      +0
  5452 ;;Total ram usage:        2 bytes
  5453 ;; Hardware stack levels used: 1
  5454 ;; Hardware stack levels required when called: 6
  5455 ;; This function calls:
  5456 ;;		_USBStdFeatureReqHandler
  5457 ;;		_USBStdGetDscHandler
  5458 ;;		_USBStdGetStatusHandler
  5459 ;;		_USBStdSetCfgHandler
  5460 ;;		_USER_USB_CALLBACK_EVENT_HANDLER
  5461 ;; This function is called by:
  5462 ;;		_USBCtrlTrfSetupHandler
  5463 ;; This function uses a non-reentrant model
  5464 ;;
  5465                           
  5466  0783                     _USBCheckStdRequest:	
  5467                           ;psect for function _USBCheckStdRequest
  5468                           
  5469  0783                     l4633:	
  5470                           ;incstack = 0
  5471                           ; Regs used in _USBCheckStdRequest: [wreg-fsr1h+status,2+status,0+pclath+cstack]
  5472                           
  5473                           
  5474                           ;lib/usb/usb_device.c: 2695:     if(SetupPkt.RequestType != (0x00>>5)) return;
  5475  0783  0020               	movlb	0	; select bank0
  5476  0784  0E60               	swapf	96,w	;volatile
  5477  0785  0C89               	rrf	9,f
  5478  0786  3903               	andlw	3
  5479  0787  3A00               	xorlw	0
  5480  0788  1903               	skipnz
  5481  0789  2F8B               	goto	u3471
  5482  078A  2F8C               	goto	u3470
  5483  078B                     u3471:
  5484  078B  2FD2               	goto	l4669
  5485  078C                     u3470:
  5486  078C  2FFE               	goto	l361
  5487  078D                     l363:	
  5488                           ;lib/usb/usb_device.c: 2698:     {;lib/usb/usb_device.c: 2699:         case 5:
  5489                           
  5490                           
  5491                           ;lib/usb/usb_device.c: 2700:             inPipes[0].info.bits.busy = 1;
  5492  078D  17BA               	bsf	(_inPipes^(0+128)+2),7
  5493  078E                     l4637:
  5494                           
  5495                           ;lib/usb/usb_device.c: 2701:             USBDeviceState = ADR_PENDING_STATE;
  5496  078E  3008               	movlw	8
  5497  078F  00E6               	movwf	??_USBCheckStdRequest^(0+128)
  5498  0790  0866               	movf	??_USBCheckStdRequest^(0+128),w
  5499  0791  00D4               	movwf	_USBDeviceState^(0+128)
  5500                           
  5501                           ;lib/usb/usb_device.c: 2703:             break;
  5502  0792  2FFE               	goto	l361
  5503  0793                     l4639:
  5504                           
  5505                           ;lib/usb/usb_device.c: 2705:             USBStdGetDscHandler();
  5506  0793  318D  2528  3187   	fcall	_USBStdGetDscHandler
  5507                           
  5508                           ;lib/usb/usb_device.c: 2706:             break;
  5509  0796  2FFE               	goto	l361
  5510  0797                     l4641:
  5511                           
  5512                           ;lib/usb/usb_device.c: 2708:             USBStdSetCfgHandler();
  5513  0797  318D  25AD  3187   	fcall	_USBStdSetCfgHandler
  5514                           
  5515                           ;lib/usb/usb_device.c: 2709:             break;
  5516  079A  2FFE               	goto	l361
  5517  079B                     l4643:
  5518                           
  5519                           ;lib/usb/usb_device.c: 2711:             inPipes[0].pSrc.bRam = (uint8_t*)&USBActiveConf
      +                          iguration;
  5520  079B  30D8               	movlw	low _USBActiveConfiguration
  5521  079C  00B8               	movwf	_inPipes^(0+128)
  5522  079D  3000               	movlw	high _USBActiveConfiguration
  5523  079E  00B9               	movwf	(_inPipes+1)^(0+128)
  5524  079F                     l4645:
  5525                           
  5526                           ;lib/usb/usb_device.c: 2712:             inPipes[0].info.bits.ctrl_trf_mem = 0x01;
  5527  079F  143A               	bsf	(_inPipes^(0+128)+2),0
  5528  07A0                     l4647:
  5529                           
  5530                           ;lib/usb/usb_device.c: 2713:             inPipes[0].wCount.v[0] = 1;
  5531  07A0  01BB               	clrf	(_inPipes^(0+128)+3)
  5532  07A1  0ABB               	incf	(_inPipes^(0+128)+3),f
  5533  07A2                     l4649:
  5534                           
  5535                           ;lib/usb/usb_device.c: 2714:             inPipes[0].info.bits.busy = 1;
  5536  07A2  17BA               	bsf	(_inPipes^(0+128)+2),7
  5537                           
  5538                           ;lib/usb/usb_device.c: 2715:             break;
  5539  07A3  2FFE               	goto	l361
  5540  07A4                     l4651:
  5541                           
  5542                           ;lib/usb/usb_device.c: 2717:             USBStdGetStatusHandler();
  5543  07A4  318B  235C  3187   	fcall	_USBStdGetStatusHandler
  5544                           
  5545                           ;lib/usb/usb_device.c: 2718:             break;
  5546  07A7  2FFE               	goto	l361
  5547  07A8                     l4653:
  5548                           
  5549                           ;lib/usb/usb_device.c: 2721:             USBStdFeatureReqHandler();
  5550  07A8  3180  2044  3187   	fcall	_USBStdFeatureReqHandler
  5551                           
  5552                           ;lib/usb/usb_device.c: 2722:             break;
  5553  07AB  2FFE               	goto	l361
  5554  07AC                     l4655:
  5555                           
  5556                           ;lib/usb/usb_device.c: 2724:             inPipes[0].pSrc.bRam = (uint8_t*)&USBAlternateI
      +                          nterface[SetupPkt.bIntfID];
  5557  07AC  0020               	movlb	0	; select bank0
  5558  07AD  0864               	movf	100,w	;volatile
  5559  07AE  3EB8               	addlw	(low (_USBAlternateInterface| (0+256)))& (0+255)
  5560  07AF  0021               	movlb	1	; select bank1
  5561  07B0  00B8               	movwf	_inPipes^(0+128)
  5562  07B1  3001               	movlw	1
  5563  07B2  00B9               	movwf	(_inPipes+1)^(0+128)
  5564  07B3  2F9F               	goto	l4645
  5565  07B4                     l372:	
  5566                           ;lib/usb/usb_device.c: 2729:         case 11:
  5567                           
  5568                           
  5569                           ;lib/usb/usb_device.c: 2730:             inPipes[0].info.bits.busy = 1;
  5570  07B4  17BA               	bsf	(_inPipes^(0+128)+2),7
  5571  07B5                     l4663:
  5572                           
  5573                           ;lib/usb/usb_device.c: 2731:             USBAlternateInterface[SetupPkt.bIntfID] = Setup
      +                          Pkt.bAltID;
  5574  07B5  0020               	movlb	0	; select bank0
  5575  07B6  0862               	movf	98,w	;volatile
  5576  07B7  0021               	movlb	1	; select bank1
  5577  07B8  00E6               	movwf	??_USBCheckStdRequest^(0+128)
  5578  07B9  0020               	movlb	0	; select bank0
  5579  07BA  0864               	movf	100,w	;volatile
  5580  07BB  3EB8               	addlw	(low (_USBAlternateInterface| (0+256)))& (0+255)
  5581  07BC  0086               	movwf	6
  5582  07BD  3001               	movlw	1	; select bank3/4
  5583  07BE  0087               	movwf	7
  5584  07BF  0021               	movlb	1	; select bank1
  5585  07C0  0866               	movf	??_USBCheckStdRequest^(0+128),w
  5586  07C1  0081               	movwf	1
  5587                           
  5588                           ;lib/usb/usb_device.c: 2732:             break;
  5589  07C2  2FFE               	goto	l361
  5590  07C3                     l4665:
  5591                           
  5592                           ;lib/usb/usb_device.c: 2734:             USER_USB_CALLBACK_EVENT_HANDLER((USB_EVENT)EVEN
      +                          T_SET_DESCRIPTOR,0,0);
  5593  07C3  3002               	movlw	2
  5594  07C4  00D9               	movwf	USER_USB_CALLBACK_EVENT_HANDLER@event^(0+128)
  5595  07C5  3000               	movlw	0
  5596  07C6  00DA               	movwf	(USER_USB_CALLBACK_EVENT_HANDLER@event^(0+128)+1)
  5597  07C7  3000               	movlw	0
  5598  07C8  00DB               	movwf	USER_USB_CALLBACK_EVENT_HANDLER@pdata^(0+128)
  5599  07C9  3000               	movlw	0
  5600  07CA  00DC               	movwf	(USER_USB_CALLBACK_EVENT_HANDLER@pdata+1)^(0+128)
  5601  07CB  3000               	movlw	0
  5602  07CC  00DD               	movwf	USER_USB_CALLBACK_EVENT_HANDLER@size^(0+128)
  5603  07CD  00DE               	movwf	(USER_USB_CALLBACK_EVENT_HANDLER@size+1)^(0+128)
  5604  07CE  3189  21B8  3187   	fcall	_USER_USB_CALLBACK_EVENT_HANDLER
  5605                           
  5606                           ;lib/usb/usb_device.c: 2735:             break;
  5607  07D1  2FFE               	goto	l361
  5608  07D2                     l4669:
  5609  07D2  0861               	movf	97,w	;volatile
  5610  07D3  0021               	movlb	1	; select bank1
  5611  07D4  00E6               	movwf	??_USBCheckStdRequest^(0+128)
  5612  07D5  01E7               	clrf	(??_USBCheckStdRequest^(0+128)+1)
  5613                           
  5614                           ; Switch on 2 bytes has been partitioned into a top level switch of size 1, and 1 sub-sw
      +                          itches
  5615                           ; Switch size 1, requested type "simple"
  5616                           ; Number of cases is 1, Range of values is 0 to 0
  5617                           ; switch strategies available:
  5618                           ; Name         Instructions Cycles
  5619                           ; simple_byte            4     3 (average)
  5620                           ; direct_byte            8     6 (fixed)
  5621                           ; jumptable            260     6 (fixed)
  5622                           ;	Chosen strategy is simple_byte
  5623  07D6  0867               	movf	(??_USBCheckStdRequest+1)^(0+128),w
  5624  07D7  3A00               	xorlw	0	; case 0
  5625  07D8  1903               	skipnz
  5626  07D9  2FDB               	goto	l5163
  5627  07DA  2FFE               	goto	l361
  5628  07DB                     l5163:
  5629                           
  5630                           ; Switch size 1, requested type "simple"
  5631                           ; Number of cases is 11, Range of values is 0 to 12
  5632                           ; switch strategies available:
  5633                           ; Name         Instructions Cycles
  5634                           ; direct_byte           32     6 (fixed)
  5635                           ; simple_byte           34    18 (average)
  5636                           ; jumptable            260     6 (fixed)
  5637                           ;	Chosen strategy is simple_byte
  5638  07DB  0866               	movf	??_USBCheckStdRequest^(0+128),w
  5639  07DC  3A00               	xorlw	0	; case 0
  5640  07DD  1903               	skipnz
  5641  07DE  2FA4               	goto	l4651
  5642  07DF  3A01               	xorlw	1	; case 1
  5643  07E0  1903               	skipnz
  5644  07E1  2FA8               	goto	l4653
  5645  07E2  3A02               	xorlw	2	; case 3
  5646  07E3  1903               	skipnz
  5647  07E4  2FA8               	goto	l4653
  5648  07E5  3A06               	xorlw	6	; case 5
  5649  07E6  1903               	skipnz
  5650  07E7  2F8D               	goto	l363
  5651  07E8  3A03               	xorlw	3	; case 6
  5652  07E9  1903               	skipnz
  5653  07EA  2F93               	goto	l4639
  5654  07EB  3A01               	xorlw	1	; case 7
  5655  07EC  1903               	skipnz
  5656  07ED  2FC3               	goto	l4665
  5657  07EE  3A0F               	xorlw	15	; case 8
  5658  07EF  1903               	skipnz
  5659  07F0  2F9B               	goto	l4643
  5660  07F1  3A01               	xorlw	1	; case 9
  5661  07F2  1903               	skipnz
  5662  07F3  2F97               	goto	l4641
  5663  07F4  3A03               	xorlw	3	; case 10
  5664  07F5  1903               	skipnz
  5665  07F6  2FAC               	goto	l4655
  5666  07F7  3A01               	xorlw	1	; case 11
  5667  07F8  1903               	skipnz
  5668  07F9  2FB4               	goto	l372
  5669  07FA  3A07               	xorlw	7	; case 12
  5670  07FB  1903               	skipnz
  5671  07FC  2FFE               	goto	l361
  5672  07FD  2FFE               	goto	l361
  5673  07FE                     l361:
  5674  07FE  0008               	return
  5675  07FF                     __end_of_USBCheckStdRequest:
  5676                           
  5677                           	psect	text15
  5678  0DAD                     __ptext15:	
  5679 ;; *************** function _USBStdSetCfgHandler *****************
  5680 ;; Defined at:
  5681 ;;		line 1972 in file "lib/usb/usb_device.c"
  5682 ;; Parameters:    Size  Location     Type
  5683 ;;		None
  5684 ;; Auto vars:     Size  Location     Type
  5685 ;;  p               2    7[BANK1 ] PTR unsigned char 
  5686 ;;		 -> UEP1(1), 
  5687 ;;  i               1    9[BANK1 ] unsigned char 
  5688 ;;  i               1   10[BANK1 ] unsigned char 
  5689 ;; Return value:  Size  Location     Type
  5690 ;;                  1    wreg      void 
  5691 ;; Registers used:
  5692 ;;		wreg, fsr0l, fsr0h, fsr1l, fsr1h, status,2, status,0, pclath, cstack
  5693 ;; Tracked objects:
  5694 ;;		On entry : 0/0
  5695 ;;		On exit  : 0/0
  5696 ;;		Unchanged: 0/0
  5697 ;; Data sizes:     COMMON   BANK1   BANK2   BANK3   BANK4   BANK5   BANK6   BANK7   BANK8   BANK9  BANK10  BANK11  BANK1
      +2
  5698 ;;      Params:         0       0       0       0       0       0       0       0       0       0       0       0       
      +0
  5699 ;;      Locals:         0       4       0       0       0       0       0       0       0       0       0       0       
      +0
  5700 ;;      Temps:          0       1       0       0       0       0       0       0       0       0       0       0       
      +0
  5701 ;;      Totals:         0       5       0       0       0       0       0       0       0       0       0       0       
      +0
  5702 ;;Total ram usage:        5 bytes
  5703 ;; Hardware stack levels used: 1
  5704 ;; Hardware stack levels required when called: 5
  5705 ;; This function calls:
  5706 ;;		_USER_USB_CALLBACK_EVENT_HANDLER
  5707 ;;		_memset
  5708 ;; This function is called by:
  5709 ;;		_USBCheckStdRequest
  5710 ;; This function uses a non-reentrant model
  5711 ;;
  5712                           
  5713  0DAD                     _USBStdSetCfgHandler:	
  5714                           ;psect for function _USBStdSetCfgHandler
  5715                           
  5716  0DAD                     l4581:	
  5717                           ;incstack = 0
  5718                           ; Regs used in _USBStdSetCfgHandler: [wreg-fsr1h+status,2+status,0+pclath+cstack]
  5719                           
  5720                           
  5721                           ;lib/usb/usb_device.c: 1974:     uint8_t i;;lib/usb/usb_device.c: 1977:     inPipes[0].i
      +                          nfo.bits.busy = 1;
  5722  0DAD  0021               	movlb	1	; select bank1
  5723  0DAE  17BA               	bsf	(_inPipes^(0+128)+2),7
  5724                           
  5725                           ;lib/usb/usb_device.c: 1980:     { uint8_t i; uint8_t* p = (uint8_t*)&UEP1; for(i=0;i<3;
      +                          i++) *p++ = 0; };
  5726  0DAF  300E               	movlw	14
  5727  0DB0  00E1               	movwf	(USBStdSetCfgHandler@p+1)^(0+128)
  5728  0DB1  3099               	movlw	153
  5729  0DB2  00E0               	movwf	USBStdSetCfgHandler@p^(0+128)
  5730  0DB3                     l4583:
  5731  0DB3  01E2               	clrf	USBStdSetCfgHandler@i_1457^(0+128)
  5732  0DB4                     l4589:
  5733  0DB4  0860               	movf	USBStdSetCfgHandler@p^(0+128),w
  5734  0DB5  0086               	movwf	6
  5735  0DB6  0861               	movf	(USBStdSetCfgHandler@p+1)^(0+128),w
  5736  0DB7  0087               	movwf	7
  5737  0DB8  0181               	clrf	1
  5738  0DB9                     l4591:
  5739  0DB9  3001               	movlw	1
  5740  0DBA  07E0               	addwf	USBStdSetCfgHandler@p^(0+128),f
  5741  0DBB  3000               	movlw	0
  5742  0DBC  3DE1               	addwfc	(USBStdSetCfgHandler@p+1)^(0+128),f
  5743  0DBD                     l4593:
  5744  0DBD  3001               	movlw	1
  5745  0DBE  00DF               	movwf	??_USBStdSetCfgHandler^(0+128)
  5746  0DBF  085F               	movf	??_USBStdSetCfgHandler^(0+128),w
  5747  0DC0  07E2               	addwf	USBStdSetCfgHandler@i_1457^(0+128),f
  5748  0DC1                     l4595:
  5749  0DC1  3003               	movlw	3
  5750  0DC2  0262               	subwf	USBStdSetCfgHandler@i_1457^(0+128),w
  5751  0DC3  1C03               	skipc
  5752  0DC4  2DC6               	goto	u3441
  5753  0DC5  2DC7               	goto	u3440
  5754  0DC6                     u3441:
  5755  0DC6  2DB4               	goto	l4589
  5756  0DC7                     u3440:
  5757  0DC7                     l4597:
  5758                           
  5759                           ;lib/usb/usb_device.c: 1983:     memset((void*)&BDT[0], 0x00, sizeof(BDT));
  5760  0DC7  3020               	movlw	32
  5761  0DC8  00F0               	movwf	memset@dest
  5762  0DC9  3000               	movlw	0
  5763  0DCA  00F1               	movwf	memset@dest+1
  5764  0DCB  3000               	movlw	0
  5765  0DCC  00F2               	movwf	memset@c
  5766  0DCD  00F3               	movwf	memset@c+1
  5767  0DCE  3040               	movlw	64
  5768  0DCF  00F4               	movwf	memset@n
  5769  0DD0  3000               	movlw	0
  5770  0DD1  00F5               	movwf	memset@n+1
  5771  0DD2  3186  260F  318D   	fcall	_memset
  5772  0DD5                     l4599:
  5773                           
  5774                           ;lib/usb/usb_device.c: 1986:     UCONbits.PPBRST = 1;
  5775  0DD5  003D               	movlb	29	; select bank29
  5776  0DD6  170E               	bsf	14,6	;volatile
  5777  0DD7                     l4601:
  5778                           
  5779                           ;lib/usb/usb_device.c: 1991:  for(i = 0; i < (uint8_t)(3 +1u); i++)
  5780  0DD7  0021               	movlb	1	; select bank1
  5781  0DD8  01E3               	clrf	USBStdSetCfgHandler@i^(0+128)
  5782  0DD9                     l4607:
  5783                           
  5784                           ;lib/usb/usb_device.c: 1992:  {;lib/usb/usb_device.c: 1993:   ep_data_in[i].Val = 0u;
  5785  0DD9  0863               	movf	USBStdSetCfgHandler@i^(0+128),w
  5786  0DDA  3EB0               	addlw	(low (_ep_data_in| (0+256)))& (0+255)
  5787  0DDB  0086               	movwf	6
  5788  0DDC  3001               	movlw	1	; select bank3/4
  5789  0DDD  0087               	movwf	7
  5790  0DDE  0181               	clrf	1
  5791                           
  5792                           ;lib/usb/usb_device.c: 1994:         ep_data_out[i].Val = 0u;
  5793  0DDF  0863               	movf	USBStdSetCfgHandler@i^(0+128),w
  5794  0DE0  3EAC               	addlw	(low (_ep_data_out| (0+256)))& (0+255)
  5795  0DE1  0086               	movwf	6
  5796  0DE2  3001               	movlw	1	; select bank3/4
  5797  0DE3  0087               	movwf	7
  5798  0DE4  0181               	clrf	1
  5799  0DE5                     l4609:
  5800                           
  5801                           ;lib/usb/usb_device.c: 1995:  }
  5802  0DE5  3001               	movlw	1
  5803  0DE6  00DF               	movwf	??_USBStdSetCfgHandler^(0+128)
  5804  0DE7  085F               	movf	??_USBStdSetCfgHandler^(0+128),w
  5805  0DE8  07E3               	addwf	USBStdSetCfgHandler@i^(0+128),f
  5806  0DE9                     l4611:
  5807  0DE9  3004               	movlw	4
  5808  0DEA  0263               	subwf	USBStdSetCfgHandler@i^(0+128),w
  5809  0DEB  1C03               	skipc
  5810  0DEC  2DEE               	goto	u3451
  5811  0DED  2DEF               	goto	u3450
  5812  0DEE                     u3451:
  5813  0DEE  2DD9               	goto	l4607
  5814  0DEF                     u3450:
  5815  0DEF                     l4613:
  5816                           
  5817                           ;lib/usb/usb_device.c: 1998:     memset((void*)&USBAlternateInterface,0x00,3);
  5818  0DEF  30B8               	movlw	low _USBAlternateInterface
  5819  0DF0  00F0               	movwf	memset@dest
  5820  0DF1  3001               	movlw	high _USBAlternateInterface
  5821  0DF2  00F1               	movwf	memset@dest+1
  5822  0DF3  3000               	movlw	0
  5823  0DF4  00F2               	movwf	memset@c
  5824  0DF5  00F3               	movwf	memset@c+1
  5825  0DF6  3003               	movlw	3
  5826  0DF7  00F4               	movwf	memset@n
  5827  0DF8  3000               	movlw	0
  5828  0DF9  00F5               	movwf	memset@n+1
  5829  0DFA  3186  260F  318D   	fcall	_memset
  5830  0DFD                     l4615:
  5831                           
  5832                           ;lib/usb/usb_device.c: 2001:     UCONbits.PPBRST = 0;
  5833  0DFD  003D               	movlb	29	; select bank29
  5834  0DFE  130E               	bcf	14,6	;volatile
  5835  0DFF                     l4617:
  5836                           
  5837                           ;lib/usb/usb_device.c: 2003:     pBDTEntryIn[0] = (volatile BDT_ENTRY*)&BDT[2];
  5838  0DFF  3028               	movlw	40
  5839  0E00  0021               	movlb	1	; select bank1
  5840  0E01  00B0               	movwf	_pBDTEntryIn^(0+128)
  5841  0E02  3000               	movlw	0
  5842  0E03  00B1               	movwf	(_pBDTEntryIn+1)^(0+128)
  5843  0E04                     l4619:
  5844                           
  5845                           ;lib/usb/usb_device.c: 2006:     pBDTEntryEP0OutCurrent = (volatile BDT_ENTRY*)&BDT[0];
  5846  0E04  3020               	movlw	32
  5847  0E05  00DF               	movwf	??_USBStdSetCfgHandler^(0+128)
  5848  0E06  085F               	movf	??_USBStdSetCfgHandler^(0+128),w
  5849  0E07  00D3               	movwf	_pBDTEntryEP0OutCurrent^(0+128)
  5850  0E08                     l4621:
  5851                           
  5852                           ;lib/usb/usb_device.c: 2007:     pBDTEntryEP0OutNext = pBDTEntryEP0OutCurrent;
  5853  0E08  0853               	movf	_pBDTEntryEP0OutCurrent^(0+128),w
  5854  0E09  00BF               	movwf	_pBDTEntryEP0OutNext^(0+128)
  5855  0E0A  39FF               	andlw	255
  5856  0E0B  1D03               	skipz
  5857  0E0C  3000               	movlw	0
  5858  0E0D  00C0               	movwf	(_pBDTEntryEP0OutNext+1)^(0+128)
  5859  0E0E                     l4623:
  5860                           
  5861                           ;lib/usb/usb_device.c: 2010:     USBActiveConfiguration = SetupPkt.bConfigurationValue;
  5862  0E0E  0020               	movlb	0	; select bank0
  5863  0E0F  0862               	movf	98,w	;volatile
  5864  0E10  0021               	movlb	1	; select bank1
  5865  0E11  00DF               	movwf	??_USBStdSetCfgHandler^(0+128)
  5866  0E12  085F               	movf	??_USBStdSetCfgHandler^(0+128),w
  5867  0E13  00D8               	movwf	_USBActiveConfiguration^(0+128)
  5868  0E14                     l4625:
  5869                           
  5870                           ;lib/usb/usb_device.c: 2013:     if(USBActiveConfiguration == 0)
  5871  0E14  0858               	movf	_USBActiveConfiguration^(0+128),w
  5872  0E15  1D03               	btfss	3,2
  5873  0E16  2E18               	goto	u3461
  5874  0E17  2E19               	goto	u3460
  5875  0E18                     u3461:
  5876  0E18  2E1E               	goto	l4629
  5877  0E19                     u3460:
  5878  0E19                     l4627:
  5879                           
  5880                           ;lib/usb/usb_device.c: 2014:     {;lib/usb/usb_device.c: 2016:         USBDeviceState = 
      +                          ADDRESS_STATE;
  5881  0E19  3010               	movlw	16
  5882  0E1A  00DF               	movwf	??_USBStdSetCfgHandler^(0+128)
  5883  0E1B  085F               	movf	??_USBStdSetCfgHandler^(0+128),w
  5884  0E1C  00D4               	movwf	_USBDeviceState^(0+128)
  5885                           
  5886                           ;lib/usb/usb_device.c: 2017:     }
  5887  0E1D  2E32               	goto	l282
  5888  0E1E                     l4629:
  5889                           
  5890                           ;lib/usb/usb_device.c: 2019:     {;lib/usb/usb_device.c: 2021:         USER_USB_CALLBACK
      +                          _EVENT_HANDLER((USB_EVENT)EVENT_CONFIGURED,(void*)&USBActiveConfiguration,1);
  5891  0E1E  3001               	movlw	1
  5892  0E1F  00D9               	movwf	USER_USB_CALLBACK_EVENT_HANDLER@event^(0+128)
  5893  0E20  3000               	movlw	0
  5894  0E21  00DA               	movwf	(USER_USB_CALLBACK_EVENT_HANDLER@event^(0+128)+1)
  5895  0E22  30D8               	movlw	low _USBActiveConfiguration
  5896  0E23  00DB               	movwf	USER_USB_CALLBACK_EVENT_HANDLER@pdata^(0+128)
  5897  0E24  3000               	movlw	high _USBActiveConfiguration
  5898  0E25  00DC               	movwf	(USER_USB_CALLBACK_EVENT_HANDLER@pdata+1)^(0+128)
  5899  0E26  3001               	movlw	1
  5900  0E27  00DD               	movwf	USER_USB_CALLBACK_EVENT_HANDLER@size^(0+128)
  5901  0E28  3000               	movlw	0
  5902  0E29  00DE               	movwf	(USER_USB_CALLBACK_EVENT_HANDLER@size^(0+128)+1)
  5903  0E2A  3189  21B8  318D   	fcall	_USER_USB_CALLBACK_EVENT_HANDLER
  5904  0E2D                     l4631:
  5905                           
  5906                           ;lib/usb/usb_device.c: 2026:         USBDeviceState = CONFIGURED_STATE;
  5907  0E2D  3020               	movlw	32
  5908  0E2E  0021               	movlb	1	; select bank1
  5909  0E2F  00DF               	movwf	??_USBStdSetCfgHandler^(0+128)
  5910  0E30  085F               	movf	??_USBStdSetCfgHandler^(0+128),w
  5911  0E31  00D4               	movwf	_USBDeviceState^(0+128)
  5912  0E32                     l282:
  5913  0E32  0008               	return
  5914  0E33                     __end_of_USBStdSetCfgHandler:
  5915                           
  5916                           	psect	text16
  5917  060F                     __ptext16:	
  5918 ;; *************** function _memset *****************
  5919 ;; Defined at:
  5920 ;;		line 4 in file "E:\Atmel Studio\Comp-istall\pic\sources\c99\common\memset.c"
  5921 ;; Parameters:    Size  Location     Type
  5922 ;;  dest            2    0[COMMON] PTR void 
  5923 ;;		 -> USBAlternateInterface(3), BDT(64), 
  5924 ;;  c               2    2[COMMON] int 
  5925 ;;  n               2    4[COMMON] unsigned int 
  5926 ;; Auto vars:     Size  Location     Type
  5927 ;;  s               2   12[COMMON] PTR unsigned char 
  5928 ;;		 -> USBAlternateInterface(3), BDT(64), 
  5929 ;;  k               2   10[COMMON] unsigned int 
  5930 ;; Return value:  Size  Location     Type
  5931 ;;                  2    0[COMMON] PTR void 
  5932 ;; Registers used:
  5933 ;;		wreg, fsr1l, fsr1h, status,2, status,0
  5934 ;; Tracked objects:
  5935 ;;		On entry : 0/0
  5936 ;;		On exit  : 0/0
  5937 ;;		Unchanged: 0/0
  5938 ;; Data sizes:     COMMON   BANK1   BANK2   BANK3   BANK4   BANK5   BANK6   BANK7   BANK8   BANK9  BANK10  BANK11  BANK1
      +2
  5939 ;;      Params:         6       0       0       0       0       0       0       0       0       0       0       0       
      +0
  5940 ;;      Locals:         4       0       0       0       0       0       0       0       0       0       0       0       
      +0
  5941 ;;      Temps:          4       0       0       0       0       0       0       0       0       0       0       0       
      +0
  5942 ;;      Totals:        14       0       0       0       0       0       0       0       0       0       0       0       
      +0
  5943 ;;Total ram usage:       14 bytes
  5944 ;; Hardware stack levels used: 1
  5945 ;; Hardware stack levels required when called: 1
  5946 ;; This function calls:
  5947 ;;		Nothing
  5948 ;; This function is called by:
  5949 ;;		_USBStdSetCfgHandler
  5950 ;; This function uses a non-reentrant model
  5951 ;;
  5952                           
  5953  060F                     _memset:	
  5954                           ;psect for function _memset
  5955                           
  5956  060F                     l4539:	
  5957                           ;incstack = 0
  5958                           ; Regs used in _memset: [wreg+fsr1l+fsr1h+status,2+status,0]
  5959                           
  5960  060F  0871               	movf	memset@dest+1,w
  5961  0610  00FD               	movwf	memset@s+1
  5962  0611  0870               	movf	memset@dest,w
  5963  0612  00FC               	movwf	memset@s
  5964  0613                     l4541:
  5965  0613  0874               	movf	memset@n,w
  5966  0614  0475               	iorwf	memset@n+1,w
  5967  0615  1D03               	btfss	3,2
  5968  0616  2E18               	goto	u3391
  5969  0617  2E19               	goto	u3390
  5970  0618                     u3391:
  5971  0618  2E1A               	goto	l4545
  5972  0619                     u3390:
  5973  0619  2ED8               	goto	l1307
  5974  061A                     l4545:
  5975  061A  087C               	movf	memset@s,w
  5976  061B  0086               	movwf	6
  5977  061C  087D               	movf	memset@s+1,w
  5978  061D  0087               	movwf	7
  5979  061E  0872               	movf	memset@c,w
  5980  061F  0081               	movwf	1
  5981  0620                     l4547:
  5982  0620  0874               	movf	memset@n,w
  5983  0621  077C               	addwf	memset@s,w
  5984  0622  00F6               	movwf	??_memset
  5985  0623  0875               	movf	memset@n+1,w
  5986  0624  3D7D               	addwfc	memset@s+1,w
  5987  0625  00F7               	movwf	??_memset+1
  5988  0626  0876               	movf	??_memset,w
  5989  0627  3EFF               	addlw	255
  5990  0628  00F8               	movwf	??_memset+2
  5991  0629  30FF               	movlw	255
  5992  062A  3D77               	addwfc	??_memset+1,w
  5993  062B  00F9               	movwf	??_memset+3
  5994  062C  0878               	movf	??_memset+2,w
  5995  062D  0086               	movwf	6
  5996  062E  0879               	movf	??_memset+3,w
  5997  062F  0087               	movwf	7
  5998  0630  0872               	movf	memset@c,w
  5999  0631  0081               	movwf	1
  6000  0632                     l4549:
  6001  0632  3000               	movlw	0
  6002  0633  0275               	subwf	memset@n+1,w
  6003  0634  3003               	movlw	3
  6004  0635  1903               	skipnz
  6005  0636  0274               	subwf	memset@n,w
  6006  0637  1803               	skipnc
  6007  0638  2E3A               	goto	u3401
  6008  0639  2E3B               	goto	u3400
  6009  063A                     u3401:
  6010  063A  2E3C               	goto	l4553
  6011  063B                     u3400:
  6012  063B  2ED8               	goto	l1307
  6013  063C                     l4553:
  6014  063C  087C               	movf	memset@s,w
  6015  063D  3E01               	addlw	1
  6016  063E  00F6               	movwf	??_memset
  6017  063F  3000               	movlw	0
  6018  0640  3D7D               	addwfc	memset@s+1,w
  6019  0641  00F7               	movwf	??_memset+1
  6020  0642  0876               	movf	??_memset,w
  6021  0643  0086               	movwf	6
  6022  0644  0877               	movf	??_memset+1,w
  6023  0645  0087               	movwf	7
  6024  0646  0872               	movf	memset@c,w
  6025  0647  0081               	movwf	1
  6026  0648  087C               	movf	memset@s,w
  6027  0649  3E02               	addlw	2
  6028  064A  00F6               	movwf	??_memset
  6029  064B  3000               	movlw	0
  6030  064C  3D7D               	addwfc	memset@s+1,w
  6031  064D  00F7               	movwf	??_memset+1
  6032  064E  0876               	movf	??_memset,w
  6033  064F  0086               	movwf	6
  6034  0650  0877               	movf	??_memset+1,w
  6035  0651  0087               	movwf	7
  6036  0652  0872               	movf	memset@c,w
  6037  0653  0081               	movwf	1
  6038  0654  0874               	movf	memset@n,w
  6039  0655  077C               	addwf	memset@s,w
  6040  0656  00F6               	movwf	??_memset
  6041  0657  0875               	movf	memset@n+1,w
  6042  0658  3D7D               	addwfc	memset@s+1,w
  6043  0659  00F7               	movwf	??_memset+1
  6044  065A  0876               	movf	??_memset,w
  6045  065B  3EFE               	addlw	254
  6046  065C  00F8               	movwf	??_memset+2
  6047  065D  30FF               	movlw	255
  6048  065E  3D77               	addwfc	??_memset+1,w
  6049  065F  00F9               	movwf	??_memset+3
  6050  0660  0878               	movf	??_memset+2,w
  6051  0661  0086               	movwf	6
  6052  0662  0879               	movf	??_memset+3,w
  6053  0663  0087               	movwf	7
  6054  0664  0872               	movf	memset@c,w
  6055  0665  0081               	movwf	1
  6056  0666  0874               	movf	memset@n,w
  6057  0667  077C               	addwf	memset@s,w
  6058  0668  00F6               	movwf	??_memset
  6059  0669  0875               	movf	memset@n+1,w
  6060  066A  3D7D               	addwfc	memset@s+1,w
  6061  066B  00F7               	movwf	??_memset+1
  6062  066C  0876               	movf	??_memset,w
  6063  066D  3EFD               	addlw	253
  6064  066E  00F8               	movwf	??_memset+2
  6065  066F  30FF               	movlw	255
  6066  0670  3D77               	addwfc	??_memset+1,w
  6067  0671  00F9               	movwf	??_memset+3
  6068  0672  0878               	movf	??_memset+2,w
  6069  0673  0086               	movwf	6
  6070  0674  0879               	movf	??_memset+3,w
  6071  0675  0087               	movwf	7
  6072  0676  0872               	movf	memset@c,w
  6073  0677  0081               	movwf	1
  6074  0678                     l4555:
  6075  0678  3000               	movlw	0
  6076  0679  0275               	subwf	memset@n+1,w
  6077  067A  3007               	movlw	7
  6078  067B  1903               	skipnz
  6079  067C  0274               	subwf	memset@n,w
  6080  067D  1803               	skipnc
  6081  067E  2E80               	goto	u3411
  6082  067F  2E81               	goto	u3410
  6083  0680                     u3411:
  6084  0680  2E82               	goto	l4559
  6085  0681                     u3410:
  6086  0681  2ED8               	goto	l1307
  6087  0682                     l4559:
  6088  0682  087C               	movf	memset@s,w
  6089  0683  3E03               	addlw	3
  6090  0684  00F6               	movwf	??_memset
  6091  0685  3000               	movlw	0
  6092  0686  3D7D               	addwfc	memset@s+1,w
  6093  0687  00F7               	movwf	??_memset+1
  6094  0688  0876               	movf	??_memset,w
  6095  0689  0086               	movwf	6
  6096  068A  0877               	movf	??_memset+1,w
  6097  068B  0087               	movwf	7
  6098  068C  0872               	movf	memset@c,w
  6099  068D  0081               	movwf	1
  6100  068E  0874               	movf	memset@n,w
  6101  068F  077C               	addwf	memset@s,w
  6102  0690  00F6               	movwf	??_memset
  6103  0691  0875               	movf	memset@n+1,w
  6104  0692  3D7D               	addwfc	memset@s+1,w
  6105  0693  00F7               	movwf	??_memset+1
  6106  0694  0876               	movf	??_memset,w
  6107  0695  3EFC               	addlw	252
  6108  0696  00F8               	movwf	??_memset+2
  6109  0697  30FF               	movlw	255
  6110  0698  3D77               	addwfc	??_memset+1,w
  6111  0699  00F9               	movwf	??_memset+3
  6112  069A  0878               	movf	??_memset+2,w
  6113  069B  0086               	movwf	6
  6114  069C  0879               	movf	??_memset+3,w
  6115  069D  0087               	movwf	7
  6116  069E  0872               	movf	memset@c,w
  6117  069F  0081               	movwf	1
  6118  06A0                     l4561:
  6119  06A0  3000               	movlw	0
  6120  06A1  0275               	subwf	memset@n+1,w
  6121  06A2  3009               	movlw	9
  6122  06A3  1903               	skipnz
  6123  06A4  0274               	subwf	memset@n,w
  6124  06A5  1803               	skipnc
  6125  06A6  2EA8               	goto	u3421
  6126  06A7  2EA9               	goto	u3420
  6127  06A8                     u3421:
  6128  06A8  2EAA               	goto	l4565
  6129  06A9                     u3420:
  6130  06A9  2ED8               	goto	l1307
  6131  06AA                     l4565:
  6132  06AA  097C               	comf	memset@s,w
  6133  06AB  00F6               	movwf	??_memset
  6134  06AC  097D               	comf	memset@s+1,w
  6135  06AD  00F7               	movwf	??_memset+1
  6136  06AE  0AF6               	incf	??_memset,f
  6137  06AF  1903               	skipnz
  6138  06B0  0AF7               	incf	??_memset+1,f
  6139  06B1  3003               	movlw	3
  6140  06B2  0576               	andwf	??_memset,w
  6141  06B3  00FA               	movwf	memset@k
  6142  06B4  3000               	movlw	0
  6143  06B5  0577               	andwf	??_memset+1,w
  6144  06B6  00FB               	movwf	memset@k+1
  6145  06B7                     l4567:
  6146  06B7  087A               	movf	memset@k,w
  6147  06B8  07FC               	addwf	memset@s,f
  6148  06B9  087B               	movf	memset@k+1,w
  6149  06BA  3DFD               	addwfc	memset@s+1,f
  6150  06BB                     l4569:
  6151  06BB  087A               	movf	memset@k,w
  6152  06BC  02F4               	subwf	memset@n,f
  6153  06BD  087B               	movf	memset@k+1,w
  6154  06BE  3BF5               	subwfb	memset@n+1,f
  6155  06BF                     l4571:
  6156  06BF  30FC               	movlw	252
  6157  06C0  05F4               	andwf	memset@n,f
  6158  06C1  30FF               	movlw	255
  6159  06C2  05F5               	andwf	memset@n+1,f
  6160  06C3  2ED2               	goto	l4579
  6161  06C4                     l4573:
  6162  06C4  087C               	movf	memset@s,w
  6163  06C5  0086               	movwf	6
  6164  06C6  087D               	movf	memset@s+1,w
  6165  06C7  0087               	movwf	7
  6166  06C8  0872               	movf	memset@c,w
  6167  06C9  0081               	movwf	1
  6168  06CA                     l4575:
  6169  06CA  3001               	movlw	1
  6170  06CB  02F4               	subwf	memset@n,f
  6171  06CC  3000               	movlw	0
  6172  06CD  3BF5               	subwfb	memset@n+1,f
  6173  06CE                     l4577:
  6174  06CE  3001               	movlw	1
  6175  06CF  07FC               	addwf	memset@s,f
  6176  06D0  3000               	movlw	0
  6177  06D1  3DFD               	addwfc	memset@s+1,f
  6178  06D2                     l4579:
  6179  06D2  0874               	movf	memset@n,w
  6180  06D3  0475               	iorwf	memset@n+1,w
  6181  06D4  1D03               	btfss	3,2
  6182  06D5  2ED7               	goto	u3431
  6183  06D6  2ED8               	goto	u3430
  6184  06D7                     u3431:
  6185  06D7  2EC4               	goto	l4573
  6186  06D8                     u3430:
  6187  06D8                     l1307:
  6188  06D8  0008               	return
  6189  06D9                     __end_of_memset:
  6190                           
  6191                           	psect	text17
  6192  0B5C                     __ptext17:	
  6193 ;; *************** function _USBStdGetStatusHandler *****************
  6194 ;; Defined at:
  6195 ;;		line 2133 in file "lib/usb/usb_device.c"
  6196 ;; Parameters:    Size  Location     Type
  6197 ;;		None
  6198 ;; Auto vars:     Size  Location     Type
  6199 ;;  p               2    2[COMMON] PTR struct __BDT
  6200 ;;		 -> RAM(4096), NULL(0), BDT(64), 
  6201 ;; Return value:  Size  Location     Type
  6202 ;;                  1    wreg      void 
  6203 ;; Registers used:
  6204 ;;		wreg, fsr0l, fsr0h, fsr1l, fsr1h, status,2, status,0
  6205 ;; Tracked objects:
  6206 ;;		On entry : 0/0
  6207 ;;		On exit  : 0/0
  6208 ;;		Unchanged: 0/0
  6209 ;; Data sizes:     COMMON   BANK1   BANK2   BANK3   BANK4   BANK5   BANK6   BANK7   BANK8   BANK9  BANK10  BANK11  BANK1
      +2
  6210 ;;      Params:         0       0       0       0       0       0       0       0       0       0       0       0       
      +0
  6211 ;;      Locals:         2       0       0       0       0       0       0       0       0       0       0       0       
      +0
  6212 ;;      Temps:          2       0       0       0       0       0       0       0       0       0       0       0       
      +0
  6213 ;;      Totals:         4       0       0       0       0       0       0       0       0       0       0       0       
      +0
  6214 ;;Total ram usage:        4 bytes
  6215 ;; Hardware stack levels used: 1
  6216 ;; Hardware stack levels required when called: 1
  6217 ;; This function calls:
  6218 ;;		Nothing
  6219 ;; This function is called by:
  6220 ;;		_USBCheckStdRequest
  6221 ;; This function uses a non-reentrant model
  6222 ;;
  6223                           
  6224  0B5C                     _USBStdGetStatusHandler:	
  6225                           ;psect for function _USBStdGetStatusHandler
  6226                           
  6227  0B5C                     l3439:	
  6228                           ;incstack = 0
  6229                           ; Regs used in _USBStdGetStatusHandler: [wreg-fsr1h+status,2+status,0]
  6230                           
  6231                           
  6232                           ;lib/usb/usb_device.c: 2135:     CtrlTrfData[0] = 0;
  6233  0B5C  0020               	movlb	0	; select bank0
  6234  0B5D  01E8               	clrf	104	;volatile
  6235                           
  6236                           ;lib/usb/usb_device.c: 2136:     CtrlTrfData[1] = 0;
  6237  0B5E  01E9               	clrf	105	;volatile
  6238                           
  6239                           ;lib/usb/usb_device.c: 2138:     switch(SetupPkt.Recipient)
  6240  0B5F  2BA6               	goto	l3463
  6241  0B60                     l300:	
  6242                           ;lib/usb/usb_device.c: 2139:     {;lib/usb/usb_device.c: 2140:         case (0x00):
  6243                           
  6244                           
  6245                           ;lib/usb/usb_device.c: 2141:             inPipes[0].info.bits.busy = 1;
  6246  0B60  0021               	movlb	1	; select bank1
  6247  0B61  17BA               	bsf	(_inPipes^(0+128)+2),7
  6248  0B62                     l3443:	
  6249                           ;lib/usb/usb_device.c: 2146:             if(0 == 1)
  6250                           
  6251                           
  6252                           ;lib/usb/usb_device.c: 2151:             if(RemoteWakeup == 1)
  6253  0B62  034F               	decf	_RemoteWakeup^(0+128),w
  6254  0B63  1D03               	btfss	3,2
  6255  0B64  2B66               	goto	u2201
  6256  0B65  2B67               	goto	u2200
  6257  0B66                     u2201:
  6258  0B66  2BBA               	goto	l303
  6259  0B67                     u2200:
  6260  0B67                     l3445:
  6261                           
  6262                           ;lib/usb/usb_device.c: 2152:             {;lib/usb/usb_device.c: 2153:                 C
      +                          trlTrfData[0]|=0x02;
  6263  0B67  0020               	movlb	0	; select bank0
  6264  0B68  14E8               	bsf	104,1	;volatile
  6265  0B69  2BBA               	goto	l303
  6266  0B6A                     l304:	
  6267                           ;lib/usb/usb_device.c: 2156:         case (0x01):
  6268                           
  6269                           
  6270                           ;lib/usb/usb_device.c: 2157:             inPipes[0].info.bits.busy = 1;
  6271  0B6A  0021               	movlb	1	; select bank1
  6272  0B6B  17BA               	bsf	(_inPipes^(0+128)+2),7
  6273                           
  6274                           ;lib/usb/usb_device.c: 2158:             break;
  6275  0B6C  2BBA               	goto	l303
  6276  0B6D                     l305:	
  6277                           ;lib/usb/usb_device.c: 2159:         case (0x02):
  6278                           
  6279                           
  6280                           ;lib/usb/usb_device.c: 2160:             inPipes[0].info.bits.busy = 1;
  6281  0B6D  0021               	movlb	1	; select bank1
  6282  0B6E  17BA               	bsf	(_inPipes^(0+128)+2),7
  6283  0B6F                     l3447:
  6284                           
  6285                           ;lib/usb/usb_device.c: 2164:             if(SetupPkt.EPNum != 0)
  6286  0B6F  0020               	movlb	0	; select bank0
  6287  0B70  0864               	movf	100,w	;volatile
  6288  0B71  390F               	andlw	15
  6289  0B72  3A00               	xorlw	0
  6290  0B73  1903               	skipnz
  6291  0B74  2B76               	goto	u2211
  6292  0B75  2B77               	goto	u2210
  6293  0B76                     u2211:
  6294  0B76  2BBA               	goto	l303
  6295  0B77                     u2210:
  6296  0B77                     l3449:
  6297                           
  6298                           ;lib/usb/usb_device.c: 2165:             {;lib/usb/usb_device.c: 2166:                 B
      +                          DT_ENTRY *p;;lib/usb/usb_device.c: 2168:                 if(SetupPkt.EPDir == 0)
  6299  0B77  1BE4               	btfsc	100,7	;volatile
  6300  0B78  2B7A               	goto	u2221
  6301  0B79  2B7B               	goto	u2220
  6302  0B7A                     u2221:
  6303  0B7A  2B87               	goto	l3453
  6304  0B7B                     u2220:
  6305  0B7B                     l3451:
  6306                           
  6307                           ;lib/usb/usb_device.c: 2169:                 {;lib/usb/usb_device.c: 2170:              
      +                                 p = (BDT_ENTRY*)pBDTEntryOut[SetupPkt.EPNum];
  6308  0B7B  0864               	movf	100,w	;volatile
  6309  0B7C  390F               	andlw	15
  6310  0B7D  0709               	addwf	9,w
  6311  0B7E  3EA0               	addlw	(low (_pBDTEntryOut| (0+256)))& (0+255)
  6312  0B7F  0086               	movwf	6
  6313  0B80  3001               	movlw	1	; select bank3/4
  6314  0B81  0087               	movwf	7
  6315  0B82  3F40               	moviw [0]fsr1
  6316  0B83  00F2               	movwf	USBStdGetStatusHandler@p
  6317  0B84  3F41               	moviw [1]fsr1
  6318  0B85  00F3               	movwf	USBStdGetStatusHandler@p+1
  6319                           
  6320                           ;lib/usb/usb_device.c: 2171:                 }
  6321  0B86  2B91               	goto	l3455
  6322  0B87                     l3453:
  6323                           
  6324                           ;lib/usb/usb_device.c: 2173:                 {;lib/usb/usb_device.c: 2174:              
      +                                 p = (BDT_ENTRY*)pBDTEntryIn[SetupPkt.EPNum];
  6325  0B87  0864               	movf	100,w	;volatile
  6326  0B88  390F               	andlw	15
  6327  0B89  0709               	addwf	9,w
  6328  0B8A  3EB0               	addlw	(low (_pBDTEntryIn| 0))& (0+255)
  6329  0B8B  0086               	movwf	6
  6330  0B8C  0187               	clrf	7
  6331  0B8D  3F40               	moviw [0]fsr1
  6332  0B8E  00F2               	movwf	USBStdGetStatusHandler@p
  6333  0B8F  3F41               	moviw [1]fsr1
  6334  0B90  00F3               	movwf	USBStdGetStatusHandler@p+1
  6335  0B91                     l3455:
  6336                           
  6337                           ;lib/usb/usb_device.c: 2177:                 if((p->STAT.UOWN == 1) && (p->STAT.BSTALL =
      +                          = 1))
  6338  0B91  0872               	movf	USBStdGetStatusHandler@p,w
  6339  0B92  0086               	movwf	6
  6340  0B93  0873               	movf	USBStdGetStatusHandler@p+1,w
  6341  0B94  0087               	movwf	7
  6342  0B95  1F81               	btfss	1,7
  6343  0B96  2B98               	goto	u2231
  6344  0B97  2B99               	goto	u2230
  6345  0B98                     u2231:
  6346  0B98  2BBA               	goto	l303
  6347  0B99                     u2230:
  6348  0B99                     l3457:
  6349  0B99  0872               	movf	USBStdGetStatusHandler@p,w
  6350  0B9A  0086               	movwf	6
  6351  0B9B  0873               	movf	USBStdGetStatusHandler@p+1,w
  6352  0B9C  0087               	movwf	7
  6353  0B9D  1D01               	btfss	1,2
  6354  0B9E  2BA0               	goto	u2241
  6355  0B9F  2BA1               	goto	u2240
  6356  0BA0                     u2241:
  6357  0BA0  2BBA               	goto	l303
  6358  0BA1                     u2240:
  6359  0BA1                     l3459:
  6360                           
  6361                           ;lib/usb/usb_device.c: 2178:                 {;lib/usb/usb_device.c: 2179:              
      +                                 CtrlTrfData[0]=0x01;
  6362  0BA1  3001               	movlw	1
  6363  0BA2  00F0               	movwf	??_USBStdGetStatusHandler
  6364  0BA3  0870               	movf	??_USBStdGetStatusHandler,w
  6365  0BA4  00E8               	movwf	104	;volatile
  6366  0BA5  2BBA               	goto	l303
  6367  0BA6                     l3463:
  6368  0BA6  0860               	movf	96,w	;volatile
  6369  0BA7  391F               	andlw	31
  6370  0BA8  00F0               	movwf	??_USBStdGetStatusHandler
  6371  0BA9  01F1               	clrf	??_USBStdGetStatusHandler+1
  6372                           
  6373                           ; Switch on 2 bytes has been partitioned into a top level switch of size 1, and 1 sub-sw
      +                          itches
  6374                           ; Switch size 1, requested type "simple"
  6375                           ; Number of cases is 1, Range of values is 0 to 0
  6376                           ; switch strategies available:
  6377                           ; Name         Instructions Cycles
  6378                           ; simple_byte            4     3 (average)
  6379                           ; direct_byte            8     6 (fixed)
  6380                           ; jumptable            260     6 (fixed)
  6381                           ;	Chosen strategy is simple_byte
  6382  0BAA  0871               	movf	??_USBStdGetStatusHandler+1,w
  6383  0BAB  3A00               	xorlw	0	; case 0
  6384  0BAC  1903               	skipnz
  6385  0BAD  2BAF               	goto	l5165
  6386  0BAE  2BBA               	goto	l303
  6387  0BAF                     l5165:
  6388                           
  6389                           ; Switch size 1, requested type "simple"
  6390                           ; Number of cases is 3, Range of values is 0 to 2
  6391                           ; switch strategies available:
  6392                           ; Name         Instructions Cycles
  6393                           ; simple_byte           10     6 (average)
  6394                           ; direct_byte           12     6 (fixed)
  6395                           ; jumptable            260     6 (fixed)
  6396                           ;	Chosen strategy is simple_byte
  6397  0BAF  0870               	movf	??_USBStdGetStatusHandler,w
  6398  0BB0  3A00               	xorlw	0	; case 0
  6399  0BB1  1903               	skipnz
  6400  0BB2  2B60               	goto	l300
  6401  0BB3  3A01               	xorlw	1	; case 1
  6402  0BB4  1903               	skipnz
  6403  0BB5  2B6A               	goto	l304
  6404  0BB6  3A03               	xorlw	3	; case 2
  6405  0BB7  1903               	skipnz
  6406  0BB8  2B6D               	goto	l305
  6407  0BB9  2BBA               	goto	l303
  6408  0BBA                     l303:
  6409                           
  6410                           ;lib/usb/usb_device.c: 2185:     if(inPipes[0].info.bits.busy == 1)
  6411  0BBA  0021               	movlb	1	; select bank1
  6412  0BBB  1FBA               	btfss	(_inPipes^(0+128)+2),7
  6413  0BBC  2BBE               	goto	u2251
  6414  0BBD  2BBF               	goto	u2250
  6415  0BBE                     u2251:
  6416  0BBE  2BC8               	goto	l311
  6417  0BBF                     u2250:
  6418  0BBF                     l3465:
  6419                           
  6420                           ;lib/usb/usb_device.c: 2186:     {;lib/usb/usb_device.c: 2187:         inPipes[0].pSrc.b
      +                          Ram = (uint8_t*)&CtrlTrfData;
  6421  0BBF  3068               	movlw	104
  6422  0BC0  00B8               	movwf	_inPipes^(0+128)
  6423  0BC1  3000               	movlw	0
  6424  0BC2  00B9               	movwf	(_inPipes+1)^(0+128)
  6425  0BC3                     l3467:
  6426                           
  6427                           ;lib/usb/usb_device.c: 2188:         inPipes[0].info.bits.ctrl_trf_mem = 0x01;
  6428  0BC3  143A               	bsf	(_inPipes^(0+128)+2),0
  6429  0BC4                     l3469:
  6430                           
  6431                           ;lib/usb/usb_device.c: 2189:         inPipes[0].wCount.v[0] = 2;
  6432  0BC4  3002               	movlw	2
  6433  0BC5  00F0               	movwf	??_USBStdGetStatusHandler
  6434  0BC6  0870               	movf	??_USBStdGetStatusHandler,w
  6435  0BC7  00BB               	movwf	(_inPipes^(0+128)+3)
  6436  0BC8                     l311:
  6437  0BC8  0008               	return
  6438  0BC9                     __end_of_USBStdGetStatusHandler:
  6439                           
  6440                           	psect	text18
  6441  0D28                     __ptext18:	
  6442 ;; *************** function _USBStdGetDscHandler *****************
  6443 ;; Defined at:
  6444 ;;		line 2047 in file "lib/usb/usb_device.c"
  6445 ;; Parameters:    Size  Location     Type
  6446 ;;		None
  6447 ;; Auto vars:     Size  Location     Type
  6448 ;;		None
  6449 ;; Return value:  Size  Location     Type
  6450 ;;                  1    wreg      void 
  6451 ;; Registers used:
  6452 ;;		wreg, fsr0l, fsr0h, status,2, status,0, pclath
  6453 ;; Tracked objects:
  6454 ;;		On entry : 0/0
  6455 ;;		On exit  : 0/0
  6456 ;;		Unchanged: 0/0
  6457 ;; Data sizes:     COMMON   BANK1   BANK2   BANK3   BANK4   BANK5   BANK6   BANK7   BANK8   BANK9  BANK10  BANK11  BANK1
      +2
  6458 ;;      Params:         0       0       0       0       0       0       0       0       0       0       0       0       
      +0
  6459 ;;      Locals:         0       0       0       0       0       0       0       0       0       0       0       0       
      +0
  6460 ;;      Temps:          3       0       0       0       0       0       0       0       0       0       0       0       
      +0
  6461 ;;      Totals:         3       0       0       0       0       0       0       0       0       0       0       0       
      +0
  6462 ;;Total ram usage:        3 bytes
  6463 ;; Hardware stack levels used: 1
  6464 ;; Hardware stack levels required when called: 1
  6465 ;; This function calls:
  6466 ;;		Nothing
  6467 ;; This function is called by:
  6468 ;;		_USBCheckStdRequest
  6469 ;; This function uses a non-reentrant model
  6470 ;;
  6471                           
  6472  0D28                     _USBStdGetDscHandler:	
  6473                           ;psect for function _USBStdGetDscHandler
  6474                           
  6475  0D28                     l3405:	
  6476                           ;incstack = 0
  6477                           ; Regs used in _USBStdGetDscHandler: [wreg-fsr0h+status,2+status,0+pclath]
  6478                           
  6479                           
  6480                           ;lib/usb/usb_device.c: 2049:     if(SetupPkt.bmRequestType == 0x80)
  6481  0D28  3080               	movlw	128
  6482  0D29  0020               	movlb	0	; select bank0
  6483  0D2A  0660               	xorwf	96,w	;volatile
  6484  0D2B  1D03               	btfss	3,2
  6485  0D2C  2D2E               	goto	u2171
  6486  0D2D  2D2F               	goto	u2170
  6487  0D2E                     u2171:
  6488  0D2E  2DAC               	goto	l296
  6489  0D2F                     u2170:
  6490  0D2F                     l3407:
  6491                           
  6492                           ;lib/usb/usb_device.c: 2050:     {;lib/usb/usb_device.c: 2051:         inPipes[0].info.V
      +                          al = 0x00 | 0x80 | 0x40;
  6493  0D2F  30C0               	movlw	192
  6494  0D30  00F0               	movwf	??_USBStdGetDscHandler
  6495  0D31  0870               	movf	??_USBStdGetDscHandler,w
  6496  0D32  0021               	movlb	1	; select bank1
  6497  0D33  00BA               	movwf	(_inPipes^(0+128)+2)
  6498                           
  6499                           ;lib/usb/usb_device.c: 2053:         switch(SetupPkt.bDescriptorType)
  6500  0D34  2D98               	goto	l3433
  6501  0D35                     l3409:
  6502                           
  6503                           ;lib/usb/usb_device.c: 2059:                     inPipes[0].pSrc.bRom = (const uint8_t*)
      +                          &device_dsc;
  6504  0D35  304E               	movlw	low (_device_dsc| (0+32768))
  6505  0D36  0021               	movlb	1	; select bank1
  6506  0D37  00B8               	movwf	_inPipes^(0+128)
  6507  0D38  3098               	movlw	high (_device_dsc| (0+32768))
  6508  0D39  00B9               	movwf	(_inPipes^(0+128)+1)
  6509                           
  6510                           ;lib/usb/usb_device.c: 2061:                 inPipes[0].wCount.Val = sizeof(device_dsc);
  6511  0D3A  3012               	movlw	18
  6512  0D3B  00BB               	movwf	(_inPipes^(0+128)+3)
  6513  0D3C  3000               	movlw	0
  6514  0D3D  00BC               	movwf	(_inPipes^(0+128)+4)
  6515                           
  6516                           ;lib/usb/usb_device.c: 2062:                 break;
  6517  0D3E  2DAC               	goto	l296
  6518  0D3F                     l3411:
  6519                           
  6520                           ;lib/usb/usb_device.c: 2067:                 if(SetupPkt.bDscIndex < 1)
  6521  0D3F  0862               	movf	98,w	;volatile
  6522  0D40  1D03               	btfss	3,2
  6523  0D41  2D43               	goto	u2181
  6524  0D42  2D44               	goto	u2180
  6525  0D43                     u2181:
  6526  0D43  2D73               	goto	l3419
  6527  0D44                     u2180:
  6528  0D44                     l3413:
  6529                           
  6530                           ;lib/usb/usb_device.c: 2068:                 {;lib/usb/usb_device.c: 2072:              
      +                                     inPipes[0].pSrc.bRom = *(USB_CD_Ptr+SetupPkt.bDscIndex);
  6531  0D44  0862               	movf	98,w	;volatile
  6532  0D45  00F0               	movwf	??_USBStdGetDscHandler
  6533  0D46  01F1               	clrf	??_USBStdGetDscHandler+1
  6534  0D47  35F0               	lslf	??_USBStdGetDscHandler,f
  6535  0D48  0DF1               	rlf	??_USBStdGetDscHandler+1,f
  6536  0D49  306A               	movlw	low (_USB_CD_Ptr| (0+32768))
  6537  0D4A  0770               	addwf	??_USBStdGetDscHandler,w
  6538  0D4B  0084               	movwf	4
  6539  0D4C  3098               	movlw	high (_USB_CD_Ptr| (0+32768))
  6540  0D4D  3D71               	addwfc	??_USBStdGetDscHandler+1,w
  6541  0D4E  0085               	movwf	5
  6542  0D4F  3F00               	moviw [0]fsr0
  6543  0D50  0021               	movlb	1	; select bank1
  6544  0D51  00B8               	movwf	_inPipes^(0+128)
  6545  0D52  3F01               	moviw [1]fsr0
  6546  0D53  00B9               	movwf	(_inPipes+1)^(0+128)
  6547  0D54                     l3415:
  6548                           
  6549                           ;lib/usb/usb_device.c: 2078:                     inPipes[0].wCount.byte.LB = *(inPipes[0
      +                          ].pSrc.bRom+2);
  6550  0D54  0839               	movf	(_inPipes+1)^(0+128),w
  6551  0D55  00F1               	movwf	??_USBStdGetDscHandler+1
  6552  0D56  0838               	movf	_inPipes^(0+128),w
  6553  0D57  00F0               	movwf	??_USBStdGetDscHandler
  6554  0D58  3002               	movlw	2
  6555  0D59  0770               	addwf	??_USBStdGetDscHandler,w
  6556  0D5A  0084               	movwf	4
  6557  0D5B  0871               	movf	??_USBStdGetDscHandler+1,w
  6558  0D5C  1803               	skipnc
  6559  0D5D  0A71               	incf	??_USBStdGetDscHandler+1,w
  6560  0D5E  0085               	movwf	5
  6561  0D5F  0800               	movf	0,w	;code access
  6562  0D60  00F2               	movwf	??_USBStdGetDscHandler+2
  6563  0D61  0872               	movf	??_USBStdGetDscHandler+2,w
  6564  0D62  00BB               	movwf	(_inPipes^(0+128)+3)
  6565  0D63                     l3417:
  6566                           
  6567                           ;lib/usb/usb_device.c: 2079:                     inPipes[0].wCount.byte.HB = *(inPipes[0
      +                          ].pSrc.bRom+3);
  6568  0D63  0839               	movf	(_inPipes+1)^(0+128),w
  6569  0D64  00F1               	movwf	??_USBStdGetDscHandler+1
  6570  0D65  0838               	movf	_inPipes^(0+128),w
  6571  0D66  00F0               	movwf	??_USBStdGetDscHandler
  6572  0D67  3003               	movlw	3
  6573  0D68  0770               	addwf	??_USBStdGetDscHandler,w
  6574  0D69  0084               	movwf	4
  6575  0D6A  0871               	movf	??_USBStdGetDscHandler+1,w
  6576  0D6B  1803               	skipnc
  6577  0D6C  0A71               	incf	??_USBStdGetDscHandler+1,w
  6578  0D6D  0085               	movwf	5
  6579  0D6E  0800               	movf	0,w	;code access
  6580  0D6F  00F2               	movwf	??_USBStdGetDscHandler+2
  6581  0D70  0872               	movf	??_USBStdGetDscHandler+2,w
  6582  0D71  00BC               	movwf	(_inPipes^(0+128)+4)
  6583                           
  6584                           ;lib/usb/usb_device.c: 2080:                 }
  6585  0D72  2DAC               	goto	l296
  6586  0D73                     l3419:
  6587                           
  6588                           ;lib/usb/usb_device.c: 2082:     {;lib/usb/usb_device.c: 2083:      inPipes[0].info.Val 
      +                          = 0;
  6589  0D73  0021               	movlb	1	; select bank1
  6590  0D74  01BA               	clrf	(_inPipes^(0+128)+2)
  6591  0D75  2DAC               	goto	l296
  6592  0D76                     l3421:
  6593                           
  6594                           ;lib/usb/usb_device.c: 2090:                 if(SetupPkt.bDscIndex<3)
  6595  0D76  3003               	movlw	3
  6596  0D77  0262               	subwf	98,w	;volatile
  6597  0D78  1803               	skipnc
  6598  0D79  2D7B               	goto	u2191
  6599  0D7A  2D7C               	goto	u2190
  6600  0D7B                     u2191:
  6601  0D7B  2D73               	goto	l3419
  6602  0D7C                     u2190:
  6603  0D7C                     l3423:
  6604                           
  6605                           ;lib/usb/usb_device.c: 2091:                 {;lib/usb/usb_device.c: 2093:              
      +                                 inPipes[0].pSrc.bRom = *(USB_SD_Ptr+SetupPkt.bDscIndex);
  6606  0D7C  0862               	movf	98,w	;volatile
  6607  0D7D  00F0               	movwf	??_USBStdGetDscHandler
  6608  0D7E  01F1               	clrf	??_USBStdGetDscHandler+1
  6609  0D7F  35F0               	lslf	??_USBStdGetDscHandler,f
  6610  0D80  0DF1               	rlf	??_USBStdGetDscHandler+1,f
  6611  0D81  3060               	movlw	low (_USB_SD_Ptr| (0+32768))
  6612  0D82  0770               	addwf	??_USBStdGetDscHandler,w
  6613  0D83  0084               	movwf	4
  6614  0D84  3098               	movlw	high (_USB_SD_Ptr| (0+32768))
  6615  0D85  3D71               	addwfc	??_USBStdGetDscHandler+1,w
  6616  0D86  0085               	movwf	5
  6617  0D87  3F00               	moviw [0]fsr0
  6618  0D88  0021               	movlb	1	; select bank1
  6619  0D89  00B8               	movwf	_inPipes^(0+128)
  6620  0D8A  3F01               	moviw [1]fsr0
  6621  0D8B  00B9               	movwf	(_inPipes+1)^(0+128)
  6622  0D8C                     l3425:
  6623                           
  6624                           ;lib/usb/usb_device.c: 2095:                     inPipes[0].wCount.Val = *inPipes[0].pSr
      +                          c.bRom;
  6625  0D8C  0838               	movf	_inPipes^(0+128),w
  6626  0D8D  0084               	movwf	4
  6627  0D8E  0839               	movf	(_inPipes+1)^(0+128),w
  6628  0D8F  0085               	movwf	5
  6629  0D90  0800               	movf	0,w	;code access
  6630  0D91  00F0               	movwf	??_USBStdGetDscHandler
  6631  0D92  01F1               	clrf	??_USBStdGetDscHandler+1
  6632  0D93  0870               	movf	??_USBStdGetDscHandler,w
  6633  0D94  00BB               	movwf	(_inPipes^(0+128)+3)
  6634  0D95  0871               	movf	??_USBStdGetDscHandler+1,w
  6635  0D96  00BC               	movwf	((_inPipes+1)^(0+128)+3)
  6636                           
  6637                           ;lib/usb/usb_device.c: 2096:                 }
  6638  0D97  2DAC               	goto	l296
  6639  0D98                     l3433:
  6640  0D98  0020               	movlb	0	; select bank0
  6641  0D99  0863               	movf	99,w	;volatile
  6642  0D9A  00F0               	movwf	??_USBStdGetDscHandler
  6643  0D9B  01F1               	clrf	??_USBStdGetDscHandler+1
  6644                           
  6645                           ; Switch on 2 bytes has been partitioned into a top level switch of size 1, and 1 sub-sw
      +                          itches
  6646                           ; Switch size 1, requested type "simple"
  6647                           ; Number of cases is 1, Range of values is 0 to 0
  6648                           ; switch strategies available:
  6649                           ; Name         Instructions Cycles
  6650                           ; simple_byte            4     3 (average)
  6651                           ; direct_byte            8     6 (fixed)
  6652                           ; jumptable            260     6 (fixed)
  6653                           ;	Chosen strategy is simple_byte
  6654  0D9C  0871               	movf	??_USBStdGetDscHandler+1,w
  6655  0D9D  3A00               	xorlw	0	; case 0
  6656  0D9E  1903               	skipnz
  6657  0D9F  2DA1               	goto	l5167
  6658  0DA0  2D73               	goto	l3419
  6659  0DA1                     l5167:
  6660                           
  6661                           ; Switch size 1, requested type "simple"
  6662                           ; Number of cases is 3, Range of values is 1 to 3
  6663                           ; switch strategies available:
  6664                           ; Name         Instructions Cycles
  6665                           ; simple_byte           10     6 (average)
  6666                           ; direct_byte           15     9 (fixed)
  6667                           ; jumptable            263     9 (fixed)
  6668                           ;	Chosen strategy is simple_byte
  6669  0DA1  0870               	movf	??_USBStdGetDscHandler,w
  6670  0DA2  3A01               	xorlw	1	; case 1
  6671  0DA3  1903               	skipnz
  6672  0DA4  2D35               	goto	l3409
  6673  0DA5  3A03               	xorlw	3	; case 2
  6674  0DA6  1903               	skipnz
  6675  0DA7  2D3F               	goto	l3411
  6676  0DA8  3A01               	xorlw	1	; case 3
  6677  0DA9  1903               	skipnz
  6678  0DAA  2D76               	goto	l3421
  6679  0DAB  2D73               	goto	l3419
  6680  0DAC                     l296:
  6681  0DAC  0008               	return
  6682  0DAD                     __end_of_USBStdGetDscHandler:
  6683                           
  6684                           	psect	text19
  6685  0044                     __ptext19:	
  6686 ;; *************** function _USBStdFeatureReqHandler *****************
  6687 ;; Defined at:
  6688 ;;		line 2761 in file "lib/usb/usb_device.c"
  6689 ;; Parameters:    Size  Location     Type
  6690 ;;		None
  6691 ;; Auto vars:     Size  Location     Type
  6692 ;;  p               2   11[BANK1 ] PTR struct __BDT
  6693 ;;		 -> RAM(4096), NULL(0), BDT(64), 
  6694 ;;  pUEP            2    8[BANK1 ] PTR unsigned char 
  6695 ;;		 -> UEP0(1), 
  6696 ;;  current_ep_d    1   10[BANK1 ] struct .
  6697 ;; Return value:  Size  Location     Type
  6698 ;;                  1    wreg      void 
  6699 ;; Registers used:
  6700 ;;		wreg, fsr0l, fsr0h, fsr1l, fsr1h, status,2, status,0, pclath, cstack
  6701 ;; Tracked objects:
  6702 ;;		On entry : 0/0
  6703 ;;		On exit  : 0/0
  6704 ;;		Unchanged: 0/0
  6705 ;; Data sizes:     COMMON   BANK1   BANK2   BANK3   BANK4   BANK5   BANK6   BANK7   BANK8   BANK9  BANK10  BANK11  BANK1
      +2
  6706 ;;      Params:         0       0       0       0       0       0       0       0       0       0       0       0       
      +0
  6707 ;;      Locals:         0       5       0       0       0       0       0       0       0       0       0       0       
      +0
  6708 ;;      Temps:          0       2       0       0       0       0       0       0       0       0       0       0       
      +0
  6709 ;;      Totals:         0       7       0       0       0       0       0       0       0       0       0       0       
      +0
  6710 ;;Total ram usage:        7 bytes
  6711 ;; Hardware stack levels used: 1
  6712 ;; Hardware stack levels required when called: 5
  6713 ;; This function calls:
  6714 ;;		_USER_USB_CALLBACK_EVENT_HANDLER
  6715 ;; This function is called by:
  6716 ;;		_USBCheckStdRequest
  6717 ;; This function uses a non-reentrant model
  6718 ;;
  6719                           
  6720  0044                     _USBStdFeatureReqHandler:	
  6721                           ;psect for function _USBStdFeatureReqHandler
  6722                           
  6723  0044                     l3475:	
  6724                           ;incstack = 0
  6725                           ; Regs used in _USBStdFeatureReqHandler: [wreg-fsr1h+status,2+status,0+pclath+cstack]
  6726                           
  6727                           
  6728                           ;lib/usb/usb_device.c: 2763:     BDT_ENTRY *p;;lib/usb/usb_device.c: 2764:     EP_STATUS
      +                           current_ep_data;;lib/usb/usb_device.c: 2768:         unsigned char* pUEP;;lib/usb/usb_d
      +                          evice.c: 2772:     if((SetupPkt.bFeature == 1)&&
  6729  0044  0020               	movlb	0	; select bank0
  6730  0045  0362               	decf	98,w	;volatile
  6731  0046  1D03               	btfss	3,2
  6732  0047  2849               	goto	u2261
  6733  0048  284A               	goto	u2260
  6734  0049                     u2261:
  6735  0049  2860               	goto	l3487
  6736  004A                     u2260:
  6737  004A                     l3477:
  6738  004A  0860               	movf	96,w	;volatile
  6739  004B  391F               	andlw	31
  6740  004C  3A00               	xorlw	0
  6741  004D  1D03               	skipz
  6742  004E  2850               	goto	u2271
  6743  004F  2851               	goto	u2270
  6744  0050                     u2271:
  6745  0050  2860               	goto	l3487
  6746  0051                     u2270:
  6747  0051                     l3479:
  6748                           
  6749                           ;lib/usb/usb_device.c: 2774:     {;lib/usb/usb_device.c: 2775:         inPipes[0].info.b
      +                          its.busy = 1;
  6750  0051  0021               	movlb	1	; select bank1
  6751  0052  17BA               	bsf	(_inPipes^(0+128)+2),7
  6752  0053                     l3481:
  6753                           
  6754                           ;lib/usb/usb_device.c: 2776:         if(SetupPkt.bRequest == 3)
  6755  0053  3003               	movlw	3
  6756  0054  0020               	movlb	0	; select bank0
  6757  0055  0661               	xorwf	97,w	;volatile
  6758  0056  1D03               	btfss	3,2
  6759  0057  2859               	goto	u2281
  6760  0058  285A               	goto	u2280
  6761  0059                     u2281:
  6762  0059  285E               	goto	l3485
  6763  005A                     u2280:
  6764  005A                     l3483:
  6765                           
  6766                           ;lib/usb/usb_device.c: 2777:             RemoteWakeup = 1;
  6767  005A  0021               	movlb	1	; select bank1
  6768  005B  01CF               	clrf	_RemoteWakeup^(0+128)
  6769  005C  0ACF               	incf	_RemoteWakeup^(0+128),f
  6770  005D  2860               	goto	l3487
  6771  005E                     l3485:
  6772                           
  6773                           ;lib/usb/usb_device.c: 2779:             RemoteWakeup = 0;
  6774  005E  0021               	movlb	1	; select bank1
  6775  005F  01CF               	clrf	_RemoteWakeup^(0+128)
  6776  0060                     l3487:
  6777                           
  6778                           ;lib/usb/usb_device.c: 2783:     if((SetupPkt.bFeature == 0)&&
  6779  0060  0020               	movlb	0	; select bank0
  6780  0061  0862               	movf	98,w	;volatile
  6781  0062  1D03               	btfss	3,2
  6782  0063  2865               	goto	u2291
  6783  0064  2866               	goto	u2290
  6784  0065                     u2291:
  6785  0065  29AA               	goto	l401
  6786  0066                     u2290:
  6787  0066                     l3489:
  6788  0066  0860               	movf	96,w	;volatile
  6789  0067  391F               	andlw	31
  6790  0068  3A02               	xorlw	2
  6791  0069  1D03               	skipz
  6792  006A  286C               	goto	u2301
  6793  006B  286D               	goto	u2300
  6794  006C                     u2301:
  6795  006C  29AA               	goto	l401
  6796  006D                     u2300:
  6797  006D                     l3491:
  6798  006D  0864               	movf	100,w	;volatile
  6799  006E  390F               	andlw	15
  6800  006F  3A00               	xorlw	0
  6801  0070  1903               	skipnz
  6802  0071  2873               	goto	u2311
  6803  0072  2874               	goto	u2310
  6804  0073                     u2311:
  6805  0073  29AA               	goto	l401
  6806  0074                     u2310:
  6807  0074                     l3493:
  6808  0074  0864               	movf	100,w	;volatile
  6809  0075  390F               	andlw	15
  6810  0076  0021               	movlb	1	; select bank1
  6811  0077  00DF               	movwf	??_USBStdFeatureReqHandler^(0+128)
  6812  0078  3004               	movlw	4
  6813  0079  025F               	subwf	??_USBStdFeatureReqHandler^(0+128),w
  6814  007A  1803               	skipnc
  6815  007B  287D               	goto	u2321
  6816  007C  287E               	goto	u2320
  6817  007D                     u2321:
  6818  007D  29AA               	goto	l401
  6819  007E                     u2320:
  6820  007E                     l3495:
  6821  007E  3020               	movlw	32
  6822  007F  0654               	xorwf	_USBDeviceState^(0+128),w
  6823  0080  1D03               	btfss	3,2
  6824  0081  2883               	goto	u2331
  6825  0082  2884               	goto	u2330
  6826  0083                     u2331:
  6827  0083  29AA               	goto	l401
  6828  0084                     u2330:
  6829  0084                     l3497:
  6830                           
  6831                           ;lib/usb/usb_device.c: 2787:     {;lib/usb/usb_device.c: 2790:   inPipes[0].info.bits.bu
      +                          sy = 1;
  6832  0084  17BA               	bsf	(_inPipes^(0+128)+2),7
  6833                           
  6834                           ;lib/usb/usb_device.c: 2793:         if(SetupPkt.EPDir == 0)
  6835  0085  0020               	movlb	0	; select bank0
  6836  0086  1BE4               	btfsc	100,7	;volatile
  6837  0087  2889               	goto	u2341
  6838  0088  288A               	goto	u2340
  6839  0089                     u2341:
  6840  0089  28A3               	goto	l3501
  6841  008A                     u2340:
  6842  008A                     l3499:
  6843                           
  6844                           ;lib/usb/usb_device.c: 2794:         {;lib/usb/usb_device.c: 2795:             p = (BDT_
      +                          ENTRY*)pBDTEntryOut[SetupPkt.EPNum];
  6845  008A  0864               	movf	100,w	;volatile
  6846  008B  390F               	andlw	15
  6847  008C  0709               	addwf	9,w
  6848  008D  3EA0               	addlw	(low (_pBDTEntryOut| (0+256)))& (0+255)
  6849  008E  0086               	movwf	6
  6850  008F  3001               	movlw	1	; select bank3/4
  6851  0090  0087               	movwf	7
  6852  0091  3F40               	moviw [0]fsr1
  6853  0092  0021               	movlb	1	; select bank1
  6854  0093  00E4               	movwf	USBStdFeatureReqHandler@p^(0+128)
  6855  0094  3F41               	moviw [1]fsr1
  6856  0095  00E5               	movwf	(USBStdFeatureReqHandler@p+1)^(0+128)
  6857                           
  6858                           ;lib/usb/usb_device.c: 2796:             current_ep_data.Val = ep_data_out[SetupPkt.EPNu
      +                          m].Val;
  6859  0096  0020               	movlb	0	; select bank0
  6860  0097  0864               	movf	100,w	;volatile
  6861  0098  390F               	andlw	15
  6862  0099  3EAC               	addlw	(low (_ep_data_out| (0+256)))& (0+255)
  6863  009A  0086               	movwf	6
  6864  009B  3001               	movlw	1	; select bank3/4
  6865  009C  0087               	movwf	7
  6866  009D  0801               	movf	1,w
  6867  009E  0021               	movlb	1	; select bank1
  6868  009F  00DF               	movwf	??_USBStdFeatureReqHandler^(0+128)
  6869  00A0  085F               	movf	??_USBStdFeatureReqHandler^(0+128),w
  6870  00A1  00E3               	movwf	USBStdFeatureReqHandler@current_ep_data^(0+128)
  6871                           
  6872                           ;lib/usb/usb_device.c: 2797:         }
  6873  00A2  28BA               	goto	l3503
  6874  00A3                     l3501:
  6875                           
  6876                           ;lib/usb/usb_device.c: 2799:         {;lib/usb/usb_device.c: 2800:             p = (BDT_
      +                          ENTRY*)pBDTEntryIn[SetupPkt.EPNum];
  6877  00A3  0864               	movf	100,w	;volatile
  6878  00A4  390F               	andlw	15
  6879  00A5  0709               	addwf	9,w
  6880  00A6  3EB0               	addlw	(low (_pBDTEntryIn| 0))& (0+255)
  6881  00A7  0086               	movwf	6
  6882  00A8  0187               	clrf	7
  6883  00A9  3F40               	moviw [0]fsr1
  6884  00AA  0021               	movlb	1	; select bank1
  6885  00AB  00E4               	movwf	USBStdFeatureReqHandler@p^(0+128)
  6886  00AC  3F41               	moviw [1]fsr1
  6887  00AD  00E5               	movwf	(USBStdFeatureReqHandler@p+1)^(0+128)
  6888                           
  6889                           ;lib/usb/usb_device.c: 2801:             current_ep_data.Val = ep_data_in[SetupPkt.EPNum
      +                          ].Val;
  6890  00AE  0020               	movlb	0	; select bank0
  6891  00AF  0864               	movf	100,w	;volatile
  6892  00B0  390F               	andlw	15
  6893  00B1  3EB0               	addlw	(low (_ep_data_in| (0+256)))& (0+255)
  6894  00B2  0086               	movwf	6
  6895  00B3  3001               	movlw	1	; select bank3/4
  6896  00B4  0087               	movwf	7
  6897  00B5  0801               	movf	1,w
  6898  00B6  0021               	movlb	1	; select bank1
  6899  00B7  00DF               	movwf	??_USBStdFeatureReqHandler^(0+128)
  6900  00B8  085F               	movf	??_USBStdFeatureReqHandler^(0+128),w
  6901  00B9  00E3               	movwf	USBStdFeatureReqHandler@current_ep_data^(0+128)
  6902  00BA                     l3503:
  6903                           
  6904                           ;lib/usb/usb_device.c: 2808:             if(current_ep_data.bits.ping_pong_state == 0)
  6905  00BA  1863               	btfsc	USBStdFeatureReqHandler@current_ep_data^(0+128),0
  6906  00BB  28BD               	goto	u2351
  6907  00BC  28BE               	goto	u2350
  6908  00BD                     u2351:
  6909  00BD  28C9               	goto	l3507
  6910  00BE                     u2350:
  6911  00BE                     l3505:
  6912                           
  6913                           ;lib/usb/usb_device.c: 2809:             {;lib/usb/usb_device.c: 2810:                 p
      +                           = (BDT_ENTRY*)(((uint16_t)(p)) & (~0x0004u));
  6914  00BE  30FB               	movlw	251
  6915  00BF  00DF               	movwf	??_USBStdFeatureReqHandler^(0+128)
  6916  00C0  30FF               	movlw	255
  6917  00C1  00E0               	movwf	(??_USBStdFeatureReqHandler^(0+128)+1)
  6918  00C2  0864               	movf	USBStdFeatureReqHandler@p^(0+128),w
  6919  00C3  055F               	andwf	??_USBStdFeatureReqHandler^(0+128),w
  6920  00C4  00E4               	movwf	USBStdFeatureReqHandler@p^(0+128)
  6921  00C5  0865               	movf	(USBStdFeatureReqHandler@p+1)^(0+128),w
  6922  00C6  0560               	andwf	(??_USBStdFeatureReqHandler+1)^(0+128),w
  6923  00C7  00E5               	movwf	(USBStdFeatureReqHandler@p+1)^(0+128)
  6924                           
  6925                           ;lib/usb/usb_device.c: 2811:             }
  6926  00C8  28CF               	goto	l3509
  6927  00C9                     l3507:
  6928                           
  6929                           ;lib/usb/usb_device.c: 2813:             {;lib/usb/usb_device.c: 2814:                 p
      +                           = (BDT_ENTRY*)(((uint16_t)p) | 0x0004u);
  6930  00C9  3004               	movlw	4
  6931  00CA  0464               	iorwf	USBStdFeatureReqHandler@p^(0+128),w
  6932  00CB  00E4               	movwf	USBStdFeatureReqHandler@p^(0+128)
  6933  00CC  3000               	movlw	0
  6934  00CD  0465               	iorwf	(USBStdFeatureReqHandler@p+1)^(0+128),w
  6935  00CE  00E5               	movwf	(USBStdFeatureReqHandler@p+1)^(0+128)
  6936  00CF                     l3509:
  6937                           
  6938                           ;lib/usb/usb_device.c: 2820:         if(SetupPkt.EPDir == 0)
  6939  00CF  0020               	movlb	0	; select bank0
  6940  00D0  1BE4               	btfsc	100,7	;volatile
  6941  00D1  28D3               	goto	u2361
  6942  00D2  28D4               	goto	u2360
  6943  00D3                     u2361:
  6944  00D3  28E1               	goto	l3513
  6945  00D4                     u2360:
  6946  00D4                     l3511:
  6947                           
  6948                           ;lib/usb/usb_device.c: 2821:         {;lib/usb/usb_device.c: 2822:             pBDTEntry
      +                          Out[SetupPkt.EPNum] = (volatile BDT_ENTRY *)p;
  6949  00D4  0864               	movf	100,w	;volatile
  6950  00D5  390F               	andlw	15
  6951  00D6  0709               	addwf	9,w
  6952  00D7  3EA0               	addlw	(low (_pBDTEntryOut| (0+256)))& (0+255)
  6953  00D8  0086               	movwf	6
  6954  00D9  3001               	movlw	1	; select bank3/4
  6955  00DA  0087               	movwf	7
  6956  00DB  0021               	movlb	1	; select bank1
  6957  00DC  0864               	movf	USBStdFeatureReqHandler@p^(0+128),w
  6958  00DD  3FC0               	movwi [0]fsr1
  6959  00DE  0865               	movf	(USBStdFeatureReqHandler@p+1)^(0+128),w
  6960  00DF  3FC1               	movwi [1]fsr1
  6961                           
  6962                           ;lib/usb/usb_device.c: 2823:         }
  6963  00E0  28EC               	goto	l3515
  6964  00E1                     l3513:
  6965                           
  6966                           ;lib/usb/usb_device.c: 2825:         {;lib/usb/usb_device.c: 2826:             pBDTEntry
      +                          In[SetupPkt.EPNum] = (volatile BDT_ENTRY *)p;
  6967  00E1  0864               	movf	100,w	;volatile
  6968  00E2  390F               	andlw	15
  6969  00E3  0709               	addwf	9,w
  6970  00E4  3EB0               	addlw	(low (_pBDTEntryIn| 0))& (0+255)
  6971  00E5  0086               	movwf	6
  6972  00E6  0187               	clrf	7
  6973  00E7  0021               	movlb	1	; select bank1
  6974  00E8  0864               	movf	USBStdFeatureReqHandler@p^(0+128),w
  6975  00E9  3FC0               	movwi [0]fsr1
  6976  00EA  0865               	movf	(USBStdFeatureReqHandler@p+1)^(0+128),w
  6977  00EB  3FC1               	movwi [1]fsr1
  6978  00EC                     l3515:
  6979                           
  6980                           ;lib/usb/usb_device.c: 2830:         if(SetupPkt.bRequest == 3)
  6981  00EC  3003               	movlw	3
  6982  00ED  0020               	movlb	0	; select bank0
  6983  00EE  0661               	xorwf	97,w	;volatile
  6984  00EF  1D03               	btfss	3,2
  6985  00F0  28F2               	goto	u2371
  6986  00F1  28F3               	goto	u2370
  6987  00F2                     u2371:
  6988  00F2  291C               	goto	l3529
  6989  00F3                     u2370:
  6990  00F3                     l3517:
  6991                           
  6992                           ;lib/usb/usb_device.c: 2831:         {;lib/usb/usb_device.c: 2832:             if(p->STA
      +                          T.UOWN == 1)
  6993  00F3  0021               	movlb	1	; select bank1
  6994  00F4  0864               	movf	USBStdFeatureReqHandler@p^(0+128),w
  6995  00F5  0086               	movwf	6
  6996  00F6  0865               	movf	(USBStdFeatureReqHandler@p+1)^(0+128),w
  6997  00F7  0087               	movwf	7
  6998  00F8  1F81               	btfss	1,7
  6999  00F9  28FB               	goto	u2381
  7000  00FA  28FC               	goto	u2380
  7001  00FB                     u2381:
  7002  00FB  2910               	goto	l3525
  7003  00FC                     u2380:
  7004  00FC                     l3519:
  7005                           
  7006                           ;lib/usb/usb_device.c: 2833:             {;lib/usb/usb_device.c: 2836:                 i
      +                          f(SetupPkt.EPDir == 0)
  7007  00FC  0020               	movlb	0	; select bank0
  7008  00FD  1BE4               	btfsc	100,7	;volatile
  7009  00FE  2900               	goto	u2391
  7010  00FF  2901               	goto	u2390
  7011  0100                     u2391:
  7012  0100  2909               	goto	l3523
  7013  0101                     u2390:
  7014  0101                     l3521:
  7015                           
  7016                           ;lib/usb/usb_device.c: 2837:                 {;lib/usb/usb_device.c: 2838:              
      +                                 ep_data_out[SetupPkt.EPNum].bits.transfer_terminated = 1;
  7017  0101  0864               	movf	100,w	;volatile
  7018  0102  390F               	andlw	15
  7019  0103  3EAC               	addlw	(low (_ep_data_out| (0+256)))& (0+255)
  7020  0104  0086               	movwf	6
  7021  0105  3001               	movlw	1	; select bank3/4
  7022  0106  0087               	movwf	7
  7023  0107  1481               	bsf	1,1
  7024                           
  7025                           ;lib/usb/usb_device.c: 2839:                 }
  7026  0108  2910               	goto	l3525
  7027  0109                     l3523:
  7028                           
  7029                           ;lib/usb/usb_device.c: 2841:                 {;lib/usb/usb_device.c: 2842:              
      +                                 ep_data_in[SetupPkt.EPNum].bits.transfer_terminated = 1;
  7030  0109  0864               	movf	100,w	;volatile
  7031  010A  390F               	andlw	15
  7032  010B  3EB0               	addlw	(low (_ep_data_in| (0+256)))& (0+255)
  7033  010C  0086               	movwf	6
  7034  010D  3001               	movlw	1	; select bank3/4
  7035  010E  0087               	movwf	7
  7036  010F  1481               	bsf	1,1
  7037  0110                     l3525:
  7038                           
  7039                           ;lib/usb/usb_device.c: 2847:             p->STAT.Val |= 0x04;
  7040  0110  0021               	movlb	1	; select bank1
  7041  0111  0864               	movf	USBStdFeatureReqHandler@p^(0+128),w
  7042  0112  0086               	movwf	6
  7043  0113  0865               	movf	(USBStdFeatureReqHandler@p+1)^(0+128),w
  7044  0114  0087               	movwf	7
  7045  0115  1501               	bsf	1,2
  7046  0116                     l3527:
  7047                           
  7048                           ;lib/usb/usb_device.c: 2848:             p->STAT.Val |= 0x80;
  7049  0116  0864               	movf	USBStdFeatureReqHandler@p^(0+128),w
  7050  0117  0086               	movwf	6
  7051  0118  0865               	movf	(USBStdFeatureReqHandler@p+1)^(0+128),w
  7052  0119  0087               	movwf	7
  7053  011A  1781               	bsf	1,7
  7054                           
  7055                           ;lib/usb/usb_device.c: 2849:         }
  7056  011B  29AA               	goto	l401
  7057  011C                     l3529:
  7058                           
  7059                           ;lib/usb/usb_device.c: 2851:         {;lib/usb/usb_device.c: 2855:                 p = (
      +                          BDT_ENTRY*)(((uint16_t)p) ^ 0x0004u);
  7060  011C  3004               	movlw	4
  7061  011D  0021               	movlb	1	; select bank1
  7062  011E  0664               	xorwf	USBStdFeatureReqHandler@p^(0+128),w
  7063  011F  00E4               	movwf	USBStdFeatureReqHandler@p^(0+128)
  7064  0120  3000               	movlw	0
  7065  0121  0665               	xorwf	(USBStdFeatureReqHandler@p+1)^(0+128),w
  7066  0122  00E5               	movwf	(USBStdFeatureReqHandler@p+1)^(0+128)
  7067  0123                     l3531:
  7068                           
  7069                           ;lib/usb/usb_device.c: 2857:                 if(p->STAT.UOWN == 1)
  7070  0123  0864               	movf	USBStdFeatureReqHandler@p^(0+128),w
  7071  0124  0086               	movwf	6
  7072  0125  0865               	movf	(USBStdFeatureReqHandler@p+1)^(0+128),w
  7073  0126  0087               	movwf	7
  7074  0127  1F81               	btfss	1,7
  7075  0128  292A               	goto	u2401
  7076  0129  292B               	goto	u2400
  7077  012A                     u2401:
  7078  012A  2948               	goto	l3539
  7079  012B                     u2400:
  7080  012B                     l3533:
  7081                           
  7082                           ;lib/usb/usb_device.c: 2858:                 {;lib/usb/usb_device.c: 2861:              
      +                                 p->STAT.Val &= (~0x80);
  7083  012B  307F               	movlw	127
  7084  012C  00DF               	movwf	??_USBStdFeatureReqHandler^(0+128)
  7085  012D  0864               	movf	USBStdFeatureReqHandler@p^(0+128),w
  7086  012E  0086               	movwf	6
  7087  012F  0865               	movf	(USBStdFeatureReqHandler@p+1)^(0+128),w
  7088  0130  0087               	movwf	7
  7089  0131  085F               	movf	??_USBStdFeatureReqHandler^(0+128),w
  7090  0132  0581               	andwf	1,f
  7091  0133                     l3535:
  7092                           
  7093                           ;lib/usb/usb_device.c: 2862:                     p->STAT.Val |= 0x40;
  7094  0133  0864               	movf	USBStdFeatureReqHandler@p^(0+128),w
  7095  0134  0086               	movwf	6
  7096  0135  0865               	movf	(USBStdFeatureReqHandler@p+1)^(0+128),w
  7097  0136  0087               	movwf	7
  7098  0137  1701               	bsf	1,6
  7099  0138                     l3537:
  7100                           
  7101                           ;lib/usb/usb_device.c: 2863:                     USER_USB_CALLBACK_EVENT_HANDLER((USB_EV
      +                          ENT)EVENT_TRANSFER_TERMINATED,p,sizeof(p));
  7102  0138  3005               	movlw	5
  7103  0139  00D9               	movwf	USER_USB_CALLBACK_EVENT_HANDLER@event^(0+128)
  7104  013A  3000               	movlw	0
  7105  013B  00DA               	movwf	(USER_USB_CALLBACK_EVENT_HANDLER@event^(0+128)+1)
  7106  013C  0865               	movf	(USBStdFeatureReqHandler@p+1)^(0+128),w
  7107  013D  00DC               	movwf	(USER_USB_CALLBACK_EVENT_HANDLER@pdata+1)^(0+128)
  7108  013E  0864               	movf	USBStdFeatureReqHandler@p^(0+128),w
  7109  013F  00DB               	movwf	USER_USB_CALLBACK_EVENT_HANDLER@pdata^(0+128)
  7110  0140  3002               	movlw	2
  7111  0141  00DD               	movwf	USER_USB_CALLBACK_EVENT_HANDLER@size^(0+128)
  7112  0142  3000               	movlw	0
  7113  0143  00DE               	movwf	(USER_USB_CALLBACK_EVENT_HANDLER@size^(0+128)+1)
  7114  0144  3189  21B8  3180   	fcall	_USER_USB_CALLBACK_EVENT_HANDLER
  7115                           
  7116                           ;lib/usb/usb_device.c: 2864:                 }
  7117  0147  294D               	goto	l3541
  7118  0148                     l3539:
  7119                           
  7120                           ;lib/usb/usb_device.c: 2866:                 {;lib/usb/usb_device.c: 2868:      p->STAT.
      +                          Val |= 0x40;
  7121  0148  0864               	movf	USBStdFeatureReqHandler@p^(0+128),w
  7122  0149  0086               	movwf	6
  7123  014A  0865               	movf	(USBStdFeatureReqHandler@p+1)^(0+128),w
  7124  014B  0087               	movwf	7
  7125  014C  1701               	bsf	1,6
  7126  014D                     l3541:
  7127                           
  7128                           ;lib/usb/usb_device.c: 2873:                 p = (BDT_ENTRY*)(((uint16_t)p) ^ 0x0004u);
  7129  014D  3004               	movlw	4
  7130  014E  0021               	movlb	1	; select bank1
  7131  014F  0664               	xorwf	USBStdFeatureReqHandler@p^(0+128),w
  7132  0150  00E4               	movwf	USBStdFeatureReqHandler@p^(0+128)
  7133  0151  3000               	movlw	0
  7134  0152  0665               	xorwf	(USBStdFeatureReqHandler@p+1)^(0+128),w
  7135  0153  00E5               	movwf	(USBStdFeatureReqHandler@p+1)^(0+128)
  7136  0154                     l3543:
  7137                           
  7138                           ;lib/usb/usb_device.c: 2879:                 if((current_ep_data.bits.transfer_terminate
      +                          d != 0) || (p->STAT.UOWN == 1))
  7139  0154  18E3               	btfsc	USBStdFeatureReqHandler@current_ep_data^(0+128),1
  7140  0155  2957               	goto	u2411
  7141  0156  2958               	goto	u2410
  7142  0157                     u2411:
  7143  0157  2960               	goto	l397
  7144  0158                     u2410:
  7145  0158                     l3545:
  7146  0158  0864               	movf	USBStdFeatureReqHandler@p^(0+128),w
  7147  0159  0086               	movwf	6
  7148  015A  0865               	movf	(USBStdFeatureReqHandler@p+1)^(0+128),w
  7149  015B  0087               	movwf	7
  7150  015C  1F81               	btfss	1,7
  7151  015D  295F               	goto	u2421
  7152  015E  2960               	goto	u2420
  7153  015F                     u2421:
  7154  015F  298D               	goto	l3553
  7155  0160                     u2420:
  7156  0160                     l397:
  7157                           
  7158                           ;lib/usb/usb_device.c: 2880:                 {;lib/usb/usb_device.c: 2881:              
      +                                 if(SetupPkt.EPDir == 0)
  7159  0160  0020               	movlb	0	; select bank0
  7160  0161  1BE4               	btfsc	100,7	;volatile
  7161  0162  2964               	goto	u2431
  7162  0163  2965               	goto	u2430
  7163  0164                     u2431:
  7164  0164  296D               	goto	l3549
  7165  0165                     u2430:
  7166  0165                     l3547:
  7167                           
  7168                           ;lib/usb/usb_device.c: 2882:                     {;lib/usb/usb_device.c: 2883:          
      +                                         ep_data_out[SetupPkt.EPNum].bits.transfer_terminated = 0;
  7169  0165  0864               	movf	100,w	;volatile
  7170  0166  390F               	andlw	15
  7171  0167  3EAC               	addlw	(low (_ep_data_out| (0+256)))& (0+255)
  7172  0168  0086               	movwf	6
  7173  0169  3001               	movlw	1	; select bank3/4
  7174  016A  0087               	movwf	7
  7175  016B  1081               	bcf	1,1
  7176                           
  7177                           ;lib/usb/usb_device.c: 2884:                     }
  7178  016C  2974               	goto	l399
  7179  016D                     l3549:
  7180                           
  7181                           ;lib/usb/usb_device.c: 2886:                     {;lib/usb/usb_device.c: 2887:          
      +                                         ep_data_in[SetupPkt.EPNum].bits.transfer_terminated = 0;
  7182  016D  0864               	movf	100,w	;volatile
  7183  016E  390F               	andlw	15
  7184  016F  3EB0               	addlw	(low (_ep_data_in| (0+256)))& (0+255)
  7185  0170  0086               	movwf	6
  7186  0171  3001               	movlw	1	; select bank3/4
  7187  0172  0087               	movwf	7
  7188  0173  1081               	bcf	1,1
  7189  0174                     l399:	
  7190                           ;lib/usb/usb_device.c: 2888:                     }
  7191                           
  7192                           
  7193                           ;lib/usb/usb_device.c: 2890:                     p->STAT.Val &= ~(0x80 | 0x40 | 0x04);
  7194  0174  303B               	movlw	59
  7195  0175  0021               	movlb	1	; select bank1
  7196  0176  00DF               	movwf	??_USBStdFeatureReqHandler^(0+128)
  7197  0177  0864               	movf	USBStdFeatureReqHandler@p^(0+128),w
  7198  0178  0086               	movwf	6
  7199  0179  0865               	movf	(USBStdFeatureReqHandler@p+1)^(0+128),w
  7200  017A  0087               	movwf	7
  7201  017B  085F               	movf	??_USBStdFeatureReqHandler^(0+128),w
  7202  017C  0581               	andwf	1,f
  7203  017D                     l3551:
  7204                           
  7205                           ;lib/usb/usb_device.c: 2893:                     USER_USB_CALLBACK_EVENT_HANDLER((USB_EV
      +                          ENT)EVENT_TRANSFER_TERMINATED,p,sizeof(p));
  7206  017D  3005               	movlw	5
  7207  017E  00D9               	movwf	USER_USB_CALLBACK_EVENT_HANDLER@event^(0+128)
  7208  017F  3000               	movlw	0
  7209  0180  00DA               	movwf	(USER_USB_CALLBACK_EVENT_HANDLER@event^(0+128)+1)
  7210  0181  0865               	movf	(USBStdFeatureReqHandler@p+1)^(0+128),w
  7211  0182  00DC               	movwf	(USER_USB_CALLBACK_EVENT_HANDLER@pdata+1)^(0+128)
  7212  0183  0864               	movf	USBStdFeatureReqHandler@p^(0+128),w
  7213  0184  00DB               	movwf	USER_USB_CALLBACK_EVENT_HANDLER@pdata^(0+128)
  7214  0185  3002               	movlw	2
  7215  0186  00DD               	movwf	USER_USB_CALLBACK_EVENT_HANDLER@size^(0+128)
  7216  0187  3000               	movlw	0
  7217  0188  00DE               	movwf	(USER_USB_CALLBACK_EVENT_HANDLER@size^(0+128)+1)
  7218  0189  3189  21B8  3180   	fcall	_USER_USB_CALLBACK_EVENT_HANDLER
  7219                           
  7220                           ;lib/usb/usb_device.c: 2894:                 }
  7221  018C  2995               	goto	l3555
  7222  018D                     l3553:
  7223                           
  7224                           ;lib/usb/usb_device.c: 2896:                 {;lib/usb/usb_device.c: 2898:              
      +                                 p->STAT.Val &= ~(0x80 | 0x40 | 0x04);
  7225  018D  303B               	movlw	59
  7226  018E  00DF               	movwf	??_USBStdFeatureReqHandler^(0+128)
  7227  018F  0864               	movf	USBStdFeatureReqHandler@p^(0+128),w
  7228  0190  0086               	movwf	6
  7229  0191  0865               	movf	(USBStdFeatureReqHandler@p+1)^(0+128),w
  7230  0192  0087               	movwf	7
  7231  0193  085F               	movf	??_USBStdFeatureReqHandler^(0+128),w
  7232  0194  0581               	andwf	1,f
  7233  0195                     l3555:
  7234                           
  7235                           ;lib/usb/usb_device.c: 2946:                 pUEP = (unsigned char*)(&UEP0+SetupPkt.EPNu
      +                          m);
  7236  0195  0020               	movlb	0	; select bank0
  7237  0196  0864               	movf	100,w	;volatile
  7238  0197  390F               	andlw	15
  7239  0198  3E98               	addlw	152
  7240  0199  0021               	movlb	1	; select bank1
  7241  019A  00DF               	movwf	??_USBStdFeatureReqHandler^(0+128)
  7242  019B  01E0               	clrf	(??_USBStdFeatureReqHandler^(0+128)+1)
  7243  019C  300E               	movlw	14
  7244  019D  3DE0               	addwfc	(??_USBStdFeatureReqHandler^(0+128)+1),f
  7245  019E  085F               	movf	??_USBStdFeatureReqHandler^(0+128),w
  7246  019F  00E1               	movwf	USBStdFeatureReqHandler@pUEP^(0+128)
  7247  01A0  0860               	movf	(??_USBStdFeatureReqHandler+1)^(0+128),w
  7248  01A1  00E2               	movwf	(USBStdFeatureReqHandler@pUEP+1)^(0+128)
  7249  01A2                     l3557:
  7250                           
  7251                           ;lib/usb/usb_device.c: 2950:             *pUEP &= ~0x0001;
  7252  01A2  30FE               	movlw	254
  7253  01A3  00DF               	movwf	??_USBStdFeatureReqHandler^(0+128)
  7254  01A4  0861               	movf	USBStdFeatureReqHandler@pUEP^(0+128),w
  7255  01A5  0086               	movwf	6
  7256  01A6  0862               	movf	(USBStdFeatureReqHandler@pUEP+1)^(0+128),w
  7257  01A7  0087               	movwf	7
  7258  01A8  085F               	movf	??_USBStdFeatureReqHandler^(0+128),w
  7259  01A9  0581               	andwf	1,f
  7260  01AA                     l401:
  7261  01AA  0008               	return
  7262  01AB                     __end_of_USBStdFeatureReqHandler:
  7263                           
  7264                           	psect	text20
  7265  09B8                     __ptext20:	
  7266 ;; *************** function _USER_USB_CALLBACK_EVENT_HANDLER *****************
  7267 ;; Defined at:
  7268 ;;		line 50 in file "lib/usb/usb_events.c"
  7269 ;; Parameters:    Size  Location     Type
  7270 ;;  event           2    0[BANK1 ] enum E2426
  7271 ;;  pdata           2    2[BANK1 ] PTR void 
  7272 ;;		 -> RAM(4096), USTATcopy(1), USBActiveConfiguration(1), NULL(0), 
  7273 ;;		 -> BDT(64), 
  7274 ;;  size            2    4[BANK1 ] unsigned short 
  7275 ;; Auto vars:     Size  Location     Type
  7276 ;;		None
  7277 ;; Return value:  Size  Location     Type
  7278 ;;                  1    wreg      _Bool 
  7279 ;; Registers used:
  7280 ;;		wreg, fsr0l, fsr0h, fsr1l, fsr1h, status,2, status,0, pclath, cstack
  7281 ;; Tracked objects:
  7282 ;;		On entry : 0/0
  7283 ;;		On exit  : 0/0
  7284 ;;		Unchanged: 0/0
  7285 ;; Data sizes:     COMMON   BANK1   BANK2   BANK3   BANK4   BANK5   BANK6   BANK7   BANK8   BANK9  BANK10  BANK11  BANK1
      +2
  7286 ;;      Params:         0       6       0       0       0       0       0       0       0       0       0       0       
      +0
  7287 ;;      Locals:         0       0       0       0       0       0       0       0       0       0       0       0       
      +0
  7288 ;;      Temps:          0       0       0       0       0       0       0       0       0       0       0       0       
      +0
  7289 ;;      Totals:         0       6       0       0       0       0       0       0       0       0       0       0       
      +0
  7290 ;;Total ram usage:        6 bytes
  7291 ;; Hardware stack levels used: 1
  7292 ;; Hardware stack levels required when called: 4
  7293 ;; This function calls:
  7294 ;;		_APP_DeviceJoystickInitialize
  7295 ;;		_APP_LEDUpdateUSBStatus
  7296 ;;		_SYSTEM_Initialize
  7297 ;;		_USBCheckHIDRequest
  7298 ;; This function is called by:
  7299 ;;		_USBDeviceTasks
  7300 ;;		_USBStdSetCfgHandler
  7301 ;;		_USBSuspend
  7302 ;;		_USBWakeFromSuspend
  7303 ;;		_USBCtrlTrfSetupHandler
  7304 ;;		_USBCheckStdRequest
  7305 ;;		_USBStdFeatureReqHandler
  7306 ;; This function uses a non-reentrant model
  7307 ;;
  7308                           
  7309  09B8                     _USER_USB_CALLBACK_EVENT_HANDLER:	
  7310                           ;psect for function _USER_USB_CALLBACK_EVENT_HANDLER
  7311                           
  7312  09B8                     l3183:	
  7313                           ;incstack = 0
  7314                           ; Regs used in _USER_USB_CALLBACK_EVENT_HANDLER: [wreg-fsr1h+status,2+status,0+pclath+cs
      +                          tack]
  7315                           
  7316                           
  7317                           ;lib/usb/usb_events.c: 50: _Bool USER_USB_CALLBACK_EVENT_HANDLER(USB_EVENT event, void *
      +                          pdata, uint16_t size);lib/usb/usb_events.c: 51: {;lib/usb/usb_events.c: 52:     switch( 
      +                          (int) event )
  7318  09B8  29D5               	goto	l3197
  7319  09B9                     l3185:
  7320                           
  7321                           ;lib/usb/usb_events.c: 60:             APP_LEDUpdateUSBStatus();
  7322  09B9  318A  22F9  3189   	fcall	_APP_LEDUpdateUSBStatus
  7323                           
  7324                           ;lib/usb/usb_events.c: 61:             break;
  7325  09BC  29FD               	goto	l486
  7326  09BD                     l3187:
  7327                           
  7328                           ;lib/usb/usb_events.c: 65:             APP_LEDUpdateUSBStatus();
  7329  09BD  318A  22F9  3189   	fcall	_APP_LEDUpdateUSBStatus
  7330                           
  7331                           ;lib/usb/usb_events.c: 73:             SYSTEM_Initialize(SYSTEM_STATE_USB_SUSPEND);
  7332  09C0  3001               	movlw	1
  7333  09C1  3197  277A  3189   	fcall	_SYSTEM_Initialize
  7334                           
  7335                           ;lib/usb/usb_events.c: 74:             break;
  7336  09C4  29FD               	goto	l486
  7337  09C5                     l3189:
  7338                           
  7339                           ;lib/usb/usb_events.c: 78:             APP_LEDUpdateUSBStatus();
  7340  09C5  318A  22F9  3189   	fcall	_APP_LEDUpdateUSBStatus
  7341                           
  7342                           ;lib/usb/usb_events.c: 84:             SYSTEM_Initialize(SYSTEM_STATE_USB_RESUME);
  7343  09C8  3002               	movlw	2
  7344  09C9  3197  277A  3189   	fcall	_SYSTEM_Initialize
  7345                           
  7346                           ;lib/usb/usb_events.c: 85:             break;
  7347  09CC  29FD               	goto	l486
  7348  09CD                     l3191:
  7349                           
  7350                           ;lib/usb/usb_events.c: 90:             APP_DeviceJoystickInitialize();
  7351  09CD  3188  208B  3189   	fcall	_APP_DeviceJoystickInitialize
  7352                           
  7353                           ;lib/usb/usb_events.c: 91:             break;
  7354  09D0  29FD               	goto	l486
  7355  09D1                     l3193:
  7356                           
  7357                           ;lib/usb/usb_events.c: 99:             USBCheckHIDRequest();
  7358  09D1  3184  2420  3189   	fcall	_USBCheckHIDRequest
  7359                           
  7360                           ;lib/usb/usb_events.c: 100:             break;
  7361  09D4  29FD               	goto	l486
  7362  09D5                     l3197:
  7363                           
  7364                           ; Switch on 2 bytes has been partitioned into a top level switch of size 1, and 2 sub-sw
      +                          itches
  7365                           ; Switch size 1, requested type "simple"
  7366                           ; Number of cases is 2, Range of values is 0 to 127
  7367                           ; switch strategies available:
  7368                           ; Name         Instructions Cycles
  7369                           ; simple_byte            7     4 (average)
  7370                           ; direct_byte          262     6 (fixed)
  7371                           ; jumptable            260     6 (fixed)
  7372                           ;	Chosen strategy is simple_byte
  7373  09D5  0021               	movlb	1	; select bank1
  7374  09D6  085A               	movf	(USER_USB_CALLBACK_EVENT_HANDLER@event+1)^(0+128),w
  7375  09D7  3A00               	xorlw	0	; case 0
  7376  09D8  1903               	skipnz
  7377  09D9  29DE               	goto	l5169
  7378  09DA  3A7F               	xorlw	127	; case 127
  7379  09DB  1903               	skipnz
  7380  09DC  29F8               	goto	l5171
  7381  09DD  29FD               	goto	l486
  7382  09DE                     l5169:
  7383                           
  7384                           ; Switch size 1, requested type "simple"
  7385                           ; Number of cases is 8, Range of values is 1 to 117
  7386                           ; switch strategies available:
  7387                           ; Name         Instructions Cycles
  7388                           ; simple_byte           25    13 (average)
  7389                           ; direct_byte          243     9 (fixed)
  7390                           ; jumptable            263     9 (fixed)
  7391                           ;	Chosen strategy is simple_byte
  7392  09DE  0859               	movf	USER_USB_CALLBACK_EVENT_HANDLER@event^(0+128),w
  7393  09DF  3A01               	xorlw	1	; case 1
  7394  09E0  1903               	skipnz
  7395  09E1  29CD               	goto	l3191
  7396  09E2  3A03               	xorlw	3	; case 2
  7397  09E3  1903               	skipnz
  7398  09E4  29FD               	goto	l486
  7399  09E5  3A01               	xorlw	1	; case 3
  7400  09E6  1903               	skipnz
  7401  09E7  29D1               	goto	l3193
  7402  09E8  3A06               	xorlw	6	; case 5
  7403  09E9  1903               	skipnz
  7404  09EA  29FD               	goto	l486
  7405  09EB  3A77               	xorlw	119	; case 114
  7406  09EC  1903               	skipnz
  7407  09ED  29FD               	goto	l486
  7408  09EE  3A01               	xorlw	1	; case 115
  7409  09EF  1903               	skipnz
  7410  09F0  29B9               	goto	l3185
  7411  09F1  3A07               	xorlw	7	; case 116
  7412  09F2  1903               	skipnz
  7413  09F3  29C5               	goto	l3189
  7414  09F4  3A01               	xorlw	1	; case 117
  7415  09F5  1903               	skipnz
  7416  09F6  29BD               	goto	l3187
  7417  09F7  29FD               	goto	l486
  7418  09F8                     l5171:
  7419                           
  7420                           ; Switch size 1, requested type "simple"
  7421                           ; Number of cases is 1, Range of values is 255 to 255
  7422                           ; switch strategies available:
  7423                           ; Name         Instructions Cycles
  7424                           ; simple_byte            4     3 (average)
  7425                           ; direct_byte            7     5 (fixed)
  7426                           ; jumptable            263     9 (fixed)
  7427                           ;	Chosen strategy is simple_byte
  7428  09F8  0859               	movf	USER_USB_CALLBACK_EVENT_HANDLER@event^(0+128),w
  7429  09F9  3AFF               	xorlw	255	; case 255
  7430  09FA  1903               	skipnz
  7431  09FB  29FD               	goto	l486
  7432  09FC  29FD               	goto	l486
  7433  09FD                     l486:
  7434  09FD  0008               	return
  7435  09FE                     __end_of_USER_USB_CALLBACK_EVENT_HANDLER:
  7436                           
  7437                           	psect	text21
  7438  0420                     __ptext21:	
  7439 ;; *************** function _USBCheckHIDRequest *****************
  7440 ;; Defined at:
  7441 ;;		line 163 in file "lib/usb/usb_device_hid.c"
  7442 ;; Parameters:    Size  Location     Type
  7443 ;;		None
  7444 ;; Auto vars:     Size  Location     Type
  7445 ;;		None
  7446 ;; Return value:  Size  Location     Type
  7447 ;;                  1    wreg      void 
  7448 ;; Registers used:
  7449 ;;		wreg, fsr0l, fsr0h, status,2, status,0
  7450 ;; Tracked objects:
  7451 ;;		On entry : 0/0
  7452 ;;		On exit  : 0/0
  7453 ;;		Unchanged: 0/0
  7454 ;; Data sizes:     COMMON   BANK1   BANK2   BANK3   BANK4   BANK5   BANK6   BANK7   BANK8   BANK9  BANK10  BANK11  BANK1
      +2
  7455 ;;      Params:         0       0       0       0       0       0       0       0       0       0       0       0       
      +0
  7456 ;;      Locals:         0       0       0       0       0       0       0       0       0       0       0       0       
      +0
  7457 ;;      Temps:          2       0       0       0       0       0       0       0       0       0       0       0       
      +0
  7458 ;;      Totals:         2       0       0       0       0       0       0       0       0       0       0       0       
      +0
  7459 ;;Total ram usage:        2 bytes
  7460 ;; Hardware stack levels used: 1
  7461 ;; Hardware stack levels required when called: 1
  7462 ;; This function calls:
  7463 ;;		Nothing
  7464 ;; This function is called by:
  7465 ;;		_USER_USB_CALLBACK_EVENT_HANDLER
  7466 ;; This function uses a non-reentrant model
  7467 ;;
  7468                           
  7469  0420                     _USBCheckHIDRequest:	
  7470                           ;psect for function _USBCheckHIDRequest
  7471                           
  7472  0420                     l3041:	
  7473                           ;incstack = 0
  7474                           ; Regs used in _USBCheckHIDRequest: [wreg-fsr0h+status,2+status,0]
  7475                           
  7476                           
  7477                           ;lib/usb/usb_device_hid.c: 165:     if(SetupPkt.Recipient != (0x01)) return;
  7478  0420  0020               	movlb	0	; select bank0
  7479  0421  0860               	movf	96,w	;volatile
  7480  0422  391F               	andlw	31
  7481  0423  3A01               	xorlw	1
  7482  0424  1903               	skipnz
  7483  0425  2C27               	goto	u1761
  7484  0426  2C28               	goto	u1760
  7485  0427                     u1761:
  7486  0427  2C29               	goto	l3045
  7487  0428                     u1760:
  7488  0428  2D36               	goto	l431
  7489  0429                     l3045:
  7490                           
  7491                           ;lib/usb/usb_device_hid.c: 166:     if(SetupPkt.bIntfID != 0x00 && SetupPkt.bIntfID != 0
      +                          x01 && SetupPkt.bIntfID != 0x02 ) return;
  7492  0429  0864               	movf	100,w	;volatile
  7493  042A  1903               	btfsc	3,2
  7494  042B  2C2D               	goto	u1771
  7495  042C  2C2E               	goto	u1770
  7496  042D                     u1771:
  7497  042D  2C3A               	goto	l3053
  7498  042E                     u1770:
  7499  042E                     l3047:
  7500  042E  0364               	decf	100,w	;volatile
  7501  042F  1903               	btfsc	3,2
  7502  0430  2C32               	goto	u1781
  7503  0431  2C33               	goto	u1780
  7504  0432                     u1781:
  7505  0432  2C3A               	goto	l3053
  7506  0433                     u1780:
  7507  0433                     l3049:
  7508  0433  3002               	movlw	2
  7509  0434  0664               	xorwf	100,w	;volatile
  7510  0435  1903               	btfsc	3,2
  7511  0436  2C38               	goto	u1791
  7512  0437  2C39               	goto	u1790
  7513  0438                     u1791:
  7514  0438  2C3A               	goto	l3053
  7515  0439                     u1790:
  7516  0439  2D36               	goto	l431
  7517  043A                     l3053:
  7518                           
  7519                           ;lib/usb/usb_device_hid.c: 173:     if(SetupPkt.bRequest == 6)
  7520  043A  3006               	movlw	6
  7521  043B  0661               	xorwf	97,w	;volatile
  7522  043C  1D03               	btfss	3,2
  7523  043D  2C3F               	goto	u1801
  7524  043E  2C40               	goto	u1800
  7525  043F                     u1801:
  7526  043F  2CDC               	goto	l3089
  7527  0440                     u1800:
  7528  0440  2CC9               	goto	l3087
  7529  0441                     l3057:
  7530                           
  7531                           ;lib/usb/usb_device_hid.c: 178:                 if(USBActiveConfiguration == 1)
  7532  0441  0021               	movlb	1	; select bank1
  7533  0442  0358               	decf	_USBActiveConfiguration^(0+128),w
  7534  0443  1D03               	btfss	3,2
  7535  0444  2C46               	goto	u1811
  7536  0445  2C47               	goto	u1810
  7537  0446                     u1811:
  7538  0446  2CDC               	goto	l3089
  7539  0447                     u1810:
  7540  0447                     l3059:
  7541                           
  7542                           ;lib/usb/usb_device_hid.c: 179:                 {;lib/usb/usb_device_hid.c: 180:        
      +                                       if(SetupPkt.wIndex == 0x00)
  7543  0447  0020               	movlb	0	; select bank0
  7544  0448  0864               	movf	100,w	;volatile
  7545  0449  0465               	iorwf	101,w	;volatile
  7546  044A  1D03               	btfss	3,2
  7547  044B  2C4D               	goto	u1821
  7548  044C  2C4E               	goto	u1820
  7549  044D                     u1821:
  7550  044D  2C5B               	goto	l3063
  7551  044E                     u1820:
  7552  044E                     l3061:
  7553                           
  7554                           ;lib/usb/usb_device_hid.c: 181:                         { inPipes[0].pSrc.bRom = (const 
      +                          uint8_t*)&configDescriptor1 + 18; inPipes[0].wCount.Val = sizeof(USB_HID_DSC)+3; inPipes
      +                          [0].info.Val = 0x40 | 0x80 | 0x00; };
  7555  044E  3012               	movlw	low ((_configDescriptor1| (0+32768)+18))
  7556  044F  0021               	movlb	1	; select bank1
  7557  0450  00B8               	movwf	_inPipes^(0+128)
  7558  0451  3090               	movlw	high ((_configDescriptor1| (0+32768)+18))
  7559  0452  00B9               	movwf	(_inPipes^(0+128)+1)
  7560  0453  3009               	movlw	9
  7561  0454  00BB               	movwf	(_inPipes^(0+128)+3)
  7562  0455  3000               	movlw	0
  7563  0456  00BC               	movwf	(_inPipes^(0+128)+4)
  7564  0457  30C0               	movlw	192
  7565  0458  00F0               	movwf	??_USBCheckHIDRequest
  7566  0459  0870               	movf	??_USBCheckHIDRequest,w
  7567  045A  00BA               	movwf	(_inPipes^(0+128)+2)
  7568  045B                     l3063:
  7569                           
  7570                           ;lib/usb/usb_device_hid.c: 185:                     if(SetupPkt.wIndex == 0x01)
  7571  045B  0020               	movlb	0	; select bank0
  7572  045C  0364               	decf	100,w	;volatile
  7573  045D  0465               	iorwf	101,w	;volatile
  7574  045E  1D03               	btfss	3,2
  7575  045F  2C61               	goto	u1831
  7576  0460  2C62               	goto	u1830
  7577  0461                     u1831:
  7578  0461  2C6F               	goto	l3067
  7579  0462                     u1830:
  7580  0462                     l3065:
  7581                           
  7582                           ;lib/usb/usb_device_hid.c: 186:                         { inPipes[0].pSrc.bRom = (const 
      +                          uint8_t*)&configDescriptor1 + 50; inPipes[0].wCount.Val = sizeof(USB_HID_DSC)+3; inPipes
      +                          [0].info.Val = 0x40 | 0x80 | 0x00; };
  7583  0462  3032               	movlw	low ((_configDescriptor1| (0+32768)+50))
  7584  0463  0021               	movlb	1	; select bank1
  7585  0464  00B8               	movwf	_inPipes^(0+128)
  7586  0465  3090               	movlw	high ((_configDescriptor1| (0+32768)+50))
  7587  0466  00B9               	movwf	(_inPipes^(0+128)+1)
  7588  0467  3009               	movlw	9
  7589  0468  00BB               	movwf	(_inPipes^(0+128)+3)
  7590  0469  3000               	movlw	0
  7591  046A  00BC               	movwf	(_inPipes^(0+128)+4)
  7592  046B  30C0               	movlw	192
  7593  046C  00F0               	movwf	??_USBCheckHIDRequest
  7594  046D  0870               	movf	??_USBCheckHIDRequest,w
  7595  046E  00BA               	movwf	(_inPipes^(0+128)+2)
  7596  046F                     l3067:
  7597                           
  7598                           ;lib/usb/usb_device_hid.c: 190:                     if(SetupPkt.wIndex == 0x02)
  7599  046F  3002               	movlw	2
  7600  0470  0020               	movlb	0	; select bank0
  7601  0471  0664               	xorwf	100,w	;volatile
  7602  0472  0465               	iorwf	101,w	;volatile
  7603  0473  1D03               	btfss	3,2
  7604  0474  2C76               	goto	u1841
  7605  0475  2C77               	goto	u1840
  7606  0476                     u1841:
  7607  0476  2CDC               	goto	l440
  7608  0477                     u1840:
  7609  0477                     l3069:
  7610                           
  7611                           ;lib/usb/usb_device_hid.c: 191:                         { inPipes[0].pSrc.bRom = (const 
      +                          uint8_t*)&configDescriptor1 + 82; inPipes[0].wCount.Val = sizeof(USB_HID_DSC)+3; inPipes
      +                          [0].info.Val = 0x40 | 0x80 | 0x00; };
  7612  0477  3052               	movlw	low ((_configDescriptor1| (0+32768)+82))
  7613  0478  0021               	movlb	1	; select bank1
  7614  0479  00B8               	movwf	_inPipes^(0+128)
  7615  047A  3090               	movlw	high ((_configDescriptor1| (0+32768)+82))
  7616  047B  00B9               	movwf	(_inPipes^(0+128)+1)
  7617  047C  3009               	movlw	9
  7618  047D  00BB               	movwf	(_inPipes^(0+128)+3)
  7619  047E  3000               	movlw	0
  7620  047F  00BC               	movwf	(_inPipes^(0+128)+4)
  7621  0480  30C0               	movlw	192
  7622  0481  00F0               	movwf	??_USBCheckHIDRequest
  7623  0482  0870               	movf	??_USBCheckHIDRequest,w
  7624  0483  00BA               	movwf	(_inPipes^(0+128)+2)
  7625  0484  2CDC               	goto	l3089
  7626  0485                     l3071:
  7627                           
  7628                           ;lib/usb/usb_device_hid.c: 198:                 if(USBActiveConfiguration == 1)
  7629  0485  0021               	movlb	1	; select bank1
  7630  0486  0358               	decf	_USBActiveConfiguration^(0+128),w
  7631  0487  1D03               	btfss	3,2
  7632  0488  2C8A               	goto	u1851
  7633  0489  2C8B               	goto	u1850
  7634  048A                     u1851:
  7635  048A  2CDC               	goto	l3089
  7636  048B                     u1850:
  7637  048B                     l3073:
  7638                           
  7639                           ;lib/usb/usb_device_hid.c: 199:                 {;lib/usb/usb_device_hid.c: 200:        
      +                                       if(SetupPkt.wIndex == 0x00)
  7640  048B  0020               	movlb	0	; select bank0
  7641  048C  0864               	movf	100,w	;volatile
  7642  048D  0465               	iorwf	101,w	;volatile
  7643  048E  1D03               	btfss	3,2
  7644  048F  2C91               	goto	u1861
  7645  0490  2C92               	goto	u1860
  7646  0491                     u1861:
  7647  0491  2C9F               	goto	l3077
  7648  0492                     u1860:
  7649  0492                     l3075:
  7650                           
  7651                           ;lib/usb/usb_device_hid.c: 201:                         { inPipes[0].pSrc.bRom = (const 
      +                          uint8_t*)&HAPTIC_rpt; inPipes[0].wCount.Val = 87; inPipes[0].info.Val = 0x40 | 0x80 | 0x
      +                          00; };
  7652  0492  3069               	movlw	low (_HAPTIC_rpt| (0+32768))
  7653  0493  0021               	movlb	1	; select bank1
  7654  0494  00B8               	movwf	_inPipes^(0+128)
  7655  0495  3090               	movlw	high (_HAPTIC_rpt| (0+32768))
  7656  0496  00B9               	movwf	(_inPipes^(0+128)+1)
  7657  0497  3057               	movlw	87
  7658  0498  00BB               	movwf	(_inPipes^(0+128)+3)
  7659  0499  3000               	movlw	0
  7660  049A  00BC               	movwf	(_inPipes^(0+128)+4)
  7661  049B  30C0               	movlw	192
  7662  049C  00F0               	movwf	??_USBCheckHIDRequest
  7663  049D  0870               	movf	??_USBCheckHIDRequest,w
  7664  049E  00BA               	movwf	(_inPipes^(0+128)+2)
  7665  049F                     l3077:
  7666                           
  7667                           ;lib/usb/usb_device_hid.c: 206:                     if(SetupPkt.wIndex == 0x01)
  7668  049F  0020               	movlb	0	; select bank0
  7669  04A0  0364               	decf	100,w	;volatile
  7670  04A1  0465               	iorwf	101,w	;volatile
  7671  04A2  1D03               	btfss	3,2
  7672  04A3  2CA5               	goto	u1871
  7673  04A4  2CA6               	goto	u1870
  7674  04A5                     u1871:
  7675  04A5  2CB3               	goto	l3081
  7676  04A6                     u1870:
  7677  04A6                     l3079:
  7678                           
  7679                           ;lib/usb/usb_device_hid.c: 207:                         { inPipes[0].pSrc.bRom = (const 
      +                          uint8_t*)&LED_rpt; inPipes[0].wCount.Val = 28; inPipes[0].info.Val = 0x40 | 0x80 | 0x00;
      +                           };
  7680  04A6  3000               	movlw	low (_LED_rpt| (0+32768))
  7681  04A7  0021               	movlb	1	; select bank1
  7682  04A8  00B8               	movwf	_inPipes^(0+128)
  7683  04A9  3098               	movlw	high (_LED_rpt| (0+32768))
  7684  04AA  00B9               	movwf	(_inPipes^(0+128)+1)
  7685  04AB  301C               	movlw	28
  7686  04AC  00BB               	movwf	(_inPipes^(0+128)+3)
  7687  04AD  3000               	movlw	0
  7688  04AE  00BC               	movwf	(_inPipes^(0+128)+4)
  7689  04AF  30C0               	movlw	192
  7690  04B0  00F0               	movwf	??_USBCheckHIDRequest
  7691  04B1  0870               	movf	??_USBCheckHIDRequest,w
  7692  04B2  00BA               	movwf	(_inPipes^(0+128)+2)
  7693  04B3                     l3081:
  7694                           
  7695                           ;lib/usb/usb_device_hid.c: 212:                     if(SetupPkt.wIndex == 0x02)
  7696  04B3  3002               	movlw	2
  7697  04B4  0020               	movlb	0	; select bank0
  7698  04B5  0664               	xorwf	100,w	;volatile
  7699  04B6  0465               	iorwf	101,w	;volatile
  7700  04B7  1D03               	btfss	3,2
  7701  04B8  2CBA               	goto	u1881
  7702  04B9  2CBB               	goto	u1880
  7703  04BA                     u1881:
  7704  04BA  2CDC               	goto	l440
  7705  04BB                     u1880:
  7706  04BB                     l3083:
  7707                           
  7708                           ;lib/usb/usb_device_hid.c: 213:                         { inPipes[0].pSrc.bRom = (const 
      +                          uint8_t*)&DISPLAY_rpt; inPipes[0].wCount.Val = 28; inPipes[0].info.Val = 0x40 | 0x80 | 0
      +                          x00; };
  7709  04BB  3038               	movlw	low (_DISPLAY_rpt| (0+32768))
  7710  04BC  0021               	movlb	1	; select bank1
  7711  04BD  00B8               	movwf	_inPipes^(0+128)
  7712  04BE  3098               	movlw	high (_DISPLAY_rpt| (0+32768))
  7713  04BF  00B9               	movwf	(_inPipes^(0+128)+1)
  7714  04C0  301C               	movlw	28
  7715  04C1  00BB               	movwf	(_inPipes^(0+128)+3)
  7716  04C2  3000               	movlw	0
  7717  04C3  00BC               	movwf	(_inPipes^(0+128)+4)
  7718  04C4  30C0               	movlw	192
  7719  04C5  00F0               	movwf	??_USBCheckHIDRequest
  7720  04C6  0870               	movf	??_USBCheckHIDRequest,w
  7721  04C7  00BA               	movwf	(_inPipes^(0+128)+2)
  7722  04C8  2CDC               	goto	l3089
  7723  04C9                     l3087:
  7724  04C9  0863               	movf	99,w	;volatile
  7725  04CA  00F0               	movwf	??_USBCheckHIDRequest
  7726  04CB  01F1               	clrf	??_USBCheckHIDRequest+1
  7727                           
  7728                           ; Switch on 2 bytes has been partitioned into a top level switch of size 1, and 1 sub-sw
      +                          itches
  7729                           ; Switch size 1, requested type "simple"
  7730                           ; Number of cases is 1, Range of values is 0 to 0
  7731                           ; switch strategies available:
  7732                           ; Name         Instructions Cycles
  7733                           ; simple_byte            4     3 (average)
  7734                           ; direct_byte            8     6 (fixed)
  7735                           ; jumptable            260     6 (fixed)
  7736                           ;	Chosen strategy is simple_byte
  7737  04CC  0871               	movf	??_USBCheckHIDRequest+1,w
  7738  04CD  3A00               	xorlw	0	; case 0
  7739  04CE  1903               	skipnz
  7740  04CF  2CD1               	goto	l5173
  7741  04D0  2CDC               	goto	l3089
  7742  04D1                     l5173:
  7743                           
  7744                           ; Switch size 1, requested type "simple"
  7745                           ; Number of cases is 3, Range of values is 33 to 35
  7746                           ; switch strategies available:
  7747                           ; Name         Instructions Cycles
  7748                           ; simple_byte           10     6 (average)
  7749                           ; direct_byte           15     9 (fixed)
  7750                           ; jumptable            263     9 (fixed)
  7751                           ;	Chosen strategy is simple_byte
  7752  04D1  0870               	movf	??_USBCheckHIDRequest,w
  7753  04D2  3A21               	xorlw	33	; case 33
  7754  04D3  1903               	skipnz
  7755  04D4  2C41               	goto	l3057
  7756  04D5  3A03               	xorlw	3	; case 34
  7757  04D6  1903               	skipnz
  7758  04D7  2C85               	goto	l3071
  7759  04D8  3A01               	xorlw	1	; case 35
  7760  04D9  1903               	skipnz
  7761  04DA  2CDC               	goto	l3089
  7762  04DB  2CDC               	goto	l3089
  7763  04DC                     l440:
  7764  04DC                     l3089:
  7765                           
  7766                           ;lib/usb/usb_device_hid.c: 235:     if(SetupPkt.RequestType != (0x20>>5))
  7767  04DC  0020               	movlb	0	; select bank0
  7768  04DD  0E60               	swapf	96,w	;volatile
  7769  04DE  0C89               	rrf	9,f
  7770  04DF  3903               	andlw	3
  7771  04E0  3A01               	xorlw	1
  7772  04E1  1903               	skipnz
  7773  04E2  2CE4               	goto	u1891
  7774  04E3  2CE5               	goto	u1890
  7775  04E4                     u1891:
  7776  04E4  2D1A               	goto	l3111
  7777  04E5                     u1890:
  7778  04E5  2D36               	goto	l431
  7779  04E6                     l3093:
  7780                           
  7781                           ;lib/usb/usb_device_hid.c: 253:             { inPipes[0].pSrc.bRam = (uint8_t*)&idle_rat
      +                          e; inPipes[0].wCount.Val = 1; inPipes[0].info.Val = 0x40 | 0x80 | 0x01; };
  7782  04E6  30D6               	movlw	low _idle_rate
  7783  04E7  0021               	movlb	1	; select bank1
  7784  04E8  00B8               	movwf	_inPipes^(0+128)
  7785  04E9  3000               	movlw	high _idle_rate
  7786  04EA  00B9               	movwf	(_inPipes+1)^(0+128)
  7787  04EB                     l3095:
  7788  04EB  3001               	movlw	1
  7789  04EC  00BB               	movwf	(_inPipes^(0+128)+3)
  7790  04ED  3000               	movlw	0
  7791  04EE  00BC               	movwf	(_inPipes^(0+128)+4)
  7792  04EF                     l3097:
  7793  04EF  30C1               	movlw	193
  7794  04F0  00F0               	movwf	??_USBCheckHIDRequest
  7795  04F1  0870               	movf	??_USBCheckHIDRequest,w
  7796  04F2  00BA               	movwf	(_inPipes^(0+128)+2)
  7797                           
  7798                           ;lib/usb/usb_device_hid.c: 257:             break;
  7799  04F3  2D36               	goto	l431
  7800  04F4                     l3099:
  7801                           
  7802                           ;lib/usb/usb_device_hid.c: 259:             inPipes[0].info.Val = 0x00 | 0x80;
  7803  04F4  3080               	movlw	128
  7804  04F5  00F0               	movwf	??_USBCheckHIDRequest
  7805  04F6  0870               	movf	??_USBCheckHIDRequest,w
  7806  04F7  0021               	movlb	1	; select bank1
  7807  04F8  00BA               	movwf	(_inPipes^(0+128)+2)
  7808                           
  7809                           ;lib/usb/usb_device_hid.c: 260:             idle_rate = SetupPkt.W_Value.byte.HB;
  7810  04F9  0020               	movlb	0	; select bank0
  7811  04FA  0863               	movf	99,w	;volatile
  7812  04FB  00F0               	movwf	??_USBCheckHIDRequest
  7813  04FC  0870               	movf	??_USBCheckHIDRequest,w
  7814  04FD  0021               	movlb	1	; select bank1
  7815  04FE  00D6               	movwf	_idle_rate^(0+128)
  7816                           
  7817                           ;lib/usb/usb_device_hid.c: 262:             break;
  7818  04FF  2D36               	goto	l431
  7819  0500                     l3101:
  7820                           
  7821                           ;lib/usb/usb_device_hid.c: 264:             { inPipes[0].pSrc.bRam = (uint8_t*)&active_p
      +                          rotocol; inPipes[0].wCount.Val = 1; inPipes[0].info.Val = 0x00 | 0x80 | 0x01; };
  7822  0500  30D5               	movlw	low _active_protocol
  7823  0501  0021               	movlb	1	; select bank1
  7824  0502  00B8               	movwf	_inPipes^(0+128)
  7825  0503  3000               	movlw	high _active_protocol
  7826  0504  00B9               	movwf	(_inPipes+1)^(0+128)
  7827  0505                     l3103:
  7828  0505  3001               	movlw	1
  7829  0506  00BB               	movwf	(_inPipes^(0+128)+3)
  7830  0507  3000               	movlw	0
  7831  0508  00BC               	movwf	(_inPipes^(0+128)+4)
  7832  0509                     l3105:
  7833  0509  3081               	movlw	129
  7834  050A  00F0               	movwf	??_USBCheckHIDRequest
  7835  050B  0870               	movf	??_USBCheckHIDRequest,w
  7836  050C  00BA               	movwf	(_inPipes^(0+128)+2)
  7837                           
  7838                           ;lib/usb/usb_device_hid.c: 268:             break;
  7839  050D  2D36               	goto	l431
  7840  050E                     l3107:
  7841                           
  7842                           ;lib/usb/usb_device_hid.c: 270:             inPipes[0].info.Val = 0x00 | 0x80;
  7843  050E  3080               	movlw	128
  7844  050F  00F0               	movwf	??_USBCheckHIDRequest
  7845  0510  0870               	movf	??_USBCheckHIDRequest,w
  7846  0511  0021               	movlb	1	; select bank1
  7847  0512  00BA               	movwf	(_inPipes^(0+128)+2)
  7848                           
  7849                           ;lib/usb/usb_device_hid.c: 271:             active_protocol = SetupPkt.W_Value.byte.LB;
  7850  0513  0020               	movlb	0	; select bank0
  7851  0514  0862               	movf	98,w	;volatile
  7852  0515  00F0               	movwf	??_USBCheckHIDRequest
  7853  0516  0870               	movf	??_USBCheckHIDRequest,w
  7854  0517  0021               	movlb	1	; select bank1
  7855  0518  00D5               	movwf	_active_protocol^(0+128)
  7856                           
  7857                           ;lib/usb/usb_device_hid.c: 272:             break;
  7858  0519  2D36               	goto	l431
  7859  051A                     l3111:
  7860  051A  0861               	movf	97,w	;volatile
  7861  051B  00F0               	movwf	??_USBCheckHIDRequest
  7862  051C  01F1               	clrf	??_USBCheckHIDRequest+1
  7863                           
  7864                           ; Switch on 2 bytes has been partitioned into a top level switch of size 1, and 1 sub-sw
      +                          itches
  7865                           ; Switch size 1, requested type "simple"
  7866                           ; Number of cases is 1, Range of values is 0 to 0
  7867                           ; switch strategies available:
  7868                           ; Name         Instructions Cycles
  7869                           ; simple_byte            4     3 (average)
  7870                           ; direct_byte            8     6 (fixed)
  7871                           ; jumptable            260     6 (fixed)
  7872                           ;	Chosen strategy is simple_byte
  7873  051D  0871               	movf	??_USBCheckHIDRequest+1,w
  7874  051E  3A00               	xorlw	0	; case 0
  7875  051F  1903               	skipnz
  7876  0520  2D22               	goto	l5175
  7877  0521  2D36               	goto	l431
  7878  0522                     l5175:
  7879                           
  7880                           ; Switch size 1, requested type "simple"
  7881                           ; Number of cases is 6, Range of values is 1 to 11
  7882                           ; switch strategies available:
  7883                           ; Name         Instructions Cycles
  7884                           ; simple_byte           19    10 (average)
  7885                           ; direct_byte           31     9 (fixed)
  7886                           ; jumptable            263     9 (fixed)
  7887                           ;	Chosen strategy is simple_byte
  7888  0522  0870               	movf	??_USBCheckHIDRequest,w
  7889  0523  3A01               	xorlw	1	; case 1
  7890  0524  1903               	skipnz
  7891  0525  2D36               	goto	l431
  7892  0526  3A03               	xorlw	3	; case 2
  7893  0527  1903               	skipnz
  7894  0528  2CE6               	goto	l3093
  7895  0529  3A01               	xorlw	1	; case 3
  7896  052A  1903               	skipnz
  7897  052B  2D00               	goto	l3101
  7898  052C  3A0A               	xorlw	10	; case 9
  7899  052D  1903               	skipnz
  7900  052E  2D36               	goto	l431
  7901  052F  3A03               	xorlw	3	; case 10
  7902  0530  1903               	skipnz
  7903  0531  2CF4               	goto	l3099
  7904  0532  3A01               	xorlw	1	; case 11
  7905  0533  1903               	skipnz
  7906  0534  2D0E               	goto	l3107
  7907  0535  2D36               	goto	l431
  7908  0536                     l431:
  7909  0536  0008               	return
  7910  0537                     __end_of_USBCheckHIDRequest:
  7911                           
  7912                           	psect	text22
  7913  177A                     __ptext22:	
  7914 ;; *************** function _SYSTEM_Initialize *****************
  7915 ;; Defined at:
  7916 ;;		line 85 in file "lib/system.c"
  7917 ;; Parameters:    Size  Location     Type
  7918 ;;  state           1    wreg     enum E2217
  7919 ;; Auto vars:     Size  Location     Type
  7920 ;;  state           1    5[COMMON] enum E2217
  7921 ;; Return value:  Size  Location     Type
  7922 ;;                  1    wreg      void 
  7923 ;; Registers used:
  7924 ;;		wreg, fsr0l, fsr0h, status,2, status,0, pclath, cstack
  7925 ;; Tracked objects:
  7926 ;;		On entry : 0/0
  7927 ;;		On exit  : 0/0
  7928 ;;		Unchanged: 0/0
  7929 ;; Data sizes:     COMMON   BANK1   BANK2   BANK3   BANK4   BANK5   BANK6   BANK7   BANK8   BANK9  BANK10  BANK11  BANK1
      +2
  7930 ;;      Params:         0       0       0       0       0       0       0       0       0       0       0       0       
      +0
  7931 ;;      Locals:         1       0       0       0       0       0       0       0       0       0       0       0       
      +0
  7932 ;;      Temps:          2       0       0       0       0       0       0       0       0       0       0       0       
      +0
  7933 ;;      Totals:         3       0       0       0       0       0       0       0       0       0       0       0       
      +0
  7934 ;;Total ram usage:        3 bytes
  7935 ;; Hardware stack levels used: 1
  7936 ;; Hardware stack levels required when called: 2
  7937 ;; This function calls:
  7938 ;;		_BUTTON_Enable
  7939 ;;		_LED_Enable
  7940 ;; This function is called by:
  7941 ;;		_USER_USB_CALLBACK_EVENT_HANDLER
  7942 ;; This function uses a non-reentrant model
  7943 ;;
  7944                           
  7945  177A                     _SYSTEM_Initialize:	
  7946                           ;psect for function _SYSTEM_Initialize
  7947                           
  7948                           
  7949                           ;incstack = 0
  7950                           ; Regs used in _SYSTEM_Initialize: [wreg-fsr0h+status,2+status,0+pclath+cstack]
  7951                           ;SYSTEM_Initialize@state stored from wreg
  7952  177A  00F5               	movwf	SYSTEM_Initialize@state
  7953  177B                     l3161:
  7954                           
  7955                           ;lib/system.c: 85: void SYSTEM_Initialize( SYSTEM_STATE state );lib/system.c: 86: {;lib/
      +                          system.c: 87:     ANSELC = 0;
  7956  177B  0023               	movlb	3	; select bank3
  7957  177C  018E               	clrf	14	;volatile
  7958                           
  7959                           ;lib/system.c: 88:     switch(state)
  7960  177D  2F87               	goto	l3167
  7961  177E                     l3163:
  7962                           
  7963                           ;lib/system.c: 97:             LED_Enable(LED_D1);
  7964  177E  3001               	movlw	1
  7965  177F  3188  201E  3197   	fcall	_LED_Enable
  7966                           
  7967                           ;lib/system.c: 100:             BUTTON_Enable(BUTTON_S1);
  7968  1782  3001               	movlw	1
  7969  1783  3197  274C  3197   	fcall	_BUTTON_Enable
  7970                           
  7971                           ;lib/system.c: 101:             break;
  7972  1786  2F9A               	goto	l699
  7973  1787                     l3167:
  7974  1787  0875               	movf	SYSTEM_Initialize@state,w
  7975  1788  00F3               	movwf	??_SYSTEM_Initialize
  7976  1789  01F4               	clrf	??_SYSTEM_Initialize+1
  7977                           
  7978                           ; Switch on 2 bytes has been partitioned into a top level switch of size 1, and 1 sub-sw
      +                          itches
  7979                           ; Switch size 1, requested type "simple"
  7980                           ; Number of cases is 1, Range of values is 0 to 0
  7981                           ; switch strategies available:
  7982                           ; Name         Instructions Cycles
  7983                           ; simple_byte            4     3 (average)
  7984                           ; direct_byte            8     6 (fixed)
  7985                           ; jumptable            260     6 (fixed)
  7986                           ;	Chosen strategy is simple_byte
  7987  178A  0874               	movf	??_SYSTEM_Initialize+1,w
  7988  178B  3A00               	xorlw	0	; case 0
  7989  178C  1903               	skipnz
  7990  178D  2F8F               	goto	l5177
  7991  178E  2F9A               	goto	l699
  7992  178F                     l5177:
  7993                           
  7994                           ; Switch size 1, requested type "simple"
  7995                           ; Number of cases is 3, Range of values is 0 to 2
  7996                           ; switch strategies available:
  7997                           ; Name         Instructions Cycles
  7998                           ; simple_byte           10     6 (average)
  7999                           ; direct_byte           12     6 (fixed)
  8000                           ; jumptable            260     6 (fixed)
  8001                           ;	Chosen strategy is simple_byte
  8002  178F  0873               	movf	??_SYSTEM_Initialize,w
  8003  1790  3A00               	xorlw	0	; case 0
  8004  1791  1903               	skipnz
  8005  1792  2F7E               	goto	l3163
  8006  1793  3A01               	xorlw	1	; case 1
  8007  1794  1903               	skipnz
  8008  1795  2F9A               	goto	l699
  8009  1796  3A03               	xorlw	3	; case 2
  8010  1797  1903               	skipnz
  8011  1798  2F9A               	goto	l699
  8012  1799  2F9A               	goto	l699
  8013  179A                     l699:
  8014  179A  0008               	return
  8015  179B                     __end_of_SYSTEM_Initialize:
  8016                           
  8017                           	psect	text23
  8018  081E                     __ptext23:	
  8019 ;; *************** function _LED_Enable *****************
  8020 ;; Defined at:
  8021 ;;		line 220 in file "lib/leds.c"
  8022 ;; Parameters:    Size  Location     Type
  8023 ;;  led             1    wreg     enum E2
  8024 ;; Auto vars:     Size  Location     Type
  8025 ;;  led             1    2[COMMON] enum E2
  8026 ;; Return value:  Size  Location     Type
  8027 ;;                  1    wreg      void 
  8028 ;; Registers used:
  8029 ;;		wreg, fsr0l, fsr0h, status,2, status,0
  8030 ;; Tracked objects:
  8031 ;;		On entry : 0/0
  8032 ;;		On exit  : 0/0
  8033 ;;		Unchanged: 0/0
  8034 ;; Data sizes:     COMMON   BANK1   BANK2   BANK3   BANK4   BANK5   BANK6   BANK7   BANK8   BANK9  BANK10  BANK11  BANK1
      +2
  8035 ;;      Params:         0       0       0       0       0       0       0       0       0       0       0       0       
      +0
  8036 ;;      Locals:         1       0       0       0       0       0       0       0       0       0       0       0       
      +0
  8037 ;;      Temps:          2       0       0       0       0       0       0       0       0       0       0       0       
      +0
  8038 ;;      Totals:         3       0       0       0       0       0       0       0       0       0       0       0       
      +0
  8039 ;;Total ram usage:        3 bytes
  8040 ;; Hardware stack levels used: 1
  8041 ;; Hardware stack levels required when called: 1
  8042 ;; This function calls:
  8043 ;;		Nothing
  8044 ;; This function is called by:
  8045 ;;		_SYSTEM_Initialize
  8046 ;; This function uses a non-reentrant model
  8047 ;;
  8048                           
  8049  081E                     _LED_Enable:	
  8050                           ;psect for function _LED_Enable
  8051                           
  8052                           
  8053                           ;incstack = 0
  8054                           ; Regs used in _LED_Enable: [wreg-fsr0h+status,2+status,0]
  8055                           ;LED_Enable@led stored from wreg
  8056  081E  00F2               	movwf	LED_Enable@led
  8057  081F                     l3031:
  8058                           
  8059                           ;lib/leds.c: 220: void LED_Enable(LED led);lib/leds.c: 221: {;lib/leds.c: 222:     switc
      +                          h(led)
  8060  081F  2829               	goto	l3035
  8061  0820                     l680:	
  8062                           ;lib/leds.c: 223:     {;lib/leds.c: 224:         case LED_D1:
  8063                           
  8064                           
  8065                           ;lib/leds.c: 225:             TRISCbits.TRISC4 = 0;
  8066  0820  0021               	movlb	1	; select bank1
  8067  0821  120E               	bcf	14,4	;volatile
  8068                           
  8069                           ;lib/leds.c: 226:             break;
  8070  0822  283F               	goto	l685
  8071  0823                     l682:	
  8072                           ;lib/leds.c: 228:         case LED_D2:
  8073                           
  8074                           
  8075                           ;lib/leds.c: 229:             TRISCbits.TRISC1 = 0;
  8076  0823  0021               	movlb	1	; select bank1
  8077  0824  108E               	bcf	14,1	;volatile
  8078                           
  8079                           ;lib/leds.c: 230:             break;
  8080  0825  283F               	goto	l685
  8081  0826                     l683:	
  8082                           ;lib/leds.c: 232:         case LED_D3:
  8083                           
  8084                           
  8085                           ;lib/leds.c: 233:             TRISCbits.TRISC2 = 0;
  8086  0826  0021               	movlb	1	; select bank1
  8087  0827  110E               	bcf	14,2	;volatile
  8088                           
  8089                           ;lib/leds.c: 234:             break;
  8090  0828  283F               	goto	l685
  8091  0829                     l3035:
  8092  0829  0872               	movf	LED_Enable@led,w
  8093  082A  00F0               	movwf	??_LED_Enable
  8094  082B  01F1               	clrf	??_LED_Enable+1
  8095                           
  8096                           ; Switch on 2 bytes has been partitioned into a top level switch of size 1, and 1 sub-sw
      +                          itches
  8097                           ; Switch size 1, requested type "simple"
  8098                           ; Number of cases is 1, Range of values is 0 to 0
  8099                           ; switch strategies available:
  8100                           ; Name         Instructions Cycles
  8101                           ; simple_byte            4     3 (average)
  8102                           ; direct_byte            8     6 (fixed)
  8103                           ; jumptable            260     6 (fixed)
  8104                           ;	Chosen strategy is simple_byte
  8105  082C  0871               	movf	??_LED_Enable+1,w
  8106  082D  3A00               	xorlw	0	; case 0
  8107  082E  1903               	skipnz
  8108  082F  2831               	goto	l5179
  8109  0830  283F               	goto	l685
  8110  0831                     l5179:
  8111                           
  8112                           ; Switch size 1, requested type "simple"
  8113                           ; Number of cases is 4, Range of values is 0 to 3
  8114                           ; switch strategies available:
  8115                           ; Name         Instructions Cycles
  8116                           ; simple_byte           13     7 (average)
  8117                           ; direct_byte           14     6 (fixed)
  8118                           ; jumptable            260     6 (fixed)
  8119                           ;	Chosen strategy is simple_byte
  8120  0831  0870               	movf	??_LED_Enable,w
  8121  0832  3A00               	xorlw	0	; case 0
  8122  0833  1903               	skipnz
  8123  0834  283F               	goto	l685
  8124  0835  3A01               	xorlw	1	; case 1
  8125  0836  1903               	skipnz
  8126  0837  2820               	goto	l680
  8127  0838  3A03               	xorlw	3	; case 2
  8128  0839  1903               	skipnz
  8129  083A  2823               	goto	l682
  8130  083B  3A01               	xorlw	1	; case 3
  8131  083C  1903               	skipnz
  8132  083D  2826               	goto	l683
  8133  083E  283F               	goto	l685
  8134  083F                     l685:
  8135  083F  0008               	return
  8136  0840                     __end_of_LED_Enable:
  8137                           
  8138                           	psect	text24
  8139  174C                     __ptext24:	
  8140 ;; *************** function _BUTTON_Enable *****************
  8141 ;; Defined at:
  8142 ;;		line 86 in file "lib/buttons.c"
  8143 ;; Parameters:    Size  Location     Type
  8144 ;;  button          1    wreg     enum E2193
  8145 ;; Auto vars:     Size  Location     Type
  8146 ;;  button          1    2[COMMON] enum E2193
  8147 ;; Return value:  Size  Location     Type
  8148 ;;                  1    wreg      void 
  8149 ;; Registers used:
  8150 ;;		wreg, fsr0l, fsr0h, status,2, status,0
  8151 ;; Tracked objects:
  8152 ;;		On entry : 0/0
  8153 ;;		On exit  : 0/0
  8154 ;;		Unchanged: 0/0
  8155 ;; Data sizes:     COMMON   BANK1   BANK2   BANK3   BANK4   BANK5   BANK6   BANK7   BANK8   BANK9  BANK10  BANK11  BANK1
      +2
  8156 ;;      Params:         0       0       0       0       0       0       0       0       0       0       0       0       
      +0
  8157 ;;      Locals:         1       0       0       0       0       0       0       0       0       0       0       0       
      +0
  8158 ;;      Temps:          2       0       0       0       0       0       0       0       0       0       0       0       
      +0
  8159 ;;      Totals:         3       0       0       0       0       0       0       0       0       0       0       0       
      +0
  8160 ;;Total ram usage:        3 bytes
  8161 ;; Hardware stack levels used: 1
  8162 ;; Hardware stack levels required when called: 1
  8163 ;; This function calls:
  8164 ;;		Nothing
  8165 ;; This function is called by:
  8166 ;;		_SYSTEM_Initialize
  8167 ;; This function uses a non-reentrant model
  8168 ;;
  8169                           
  8170  174C                     _BUTTON_Enable:	
  8171                           ;psect for function _BUTTON_Enable
  8172                           
  8173                           
  8174                           ;incstack = 0
  8175                           ; Regs used in _BUTTON_Enable: [wreg-fsr0h+status,2+status,0]
  8176                           ;BUTTON_Enable@button stored from wreg
  8177  174C  00F2               	movwf	BUTTON_Enable@button
  8178  174D                     l3021:
  8179  174D                     l3025:	
  8180                           ;lib/buttons.c: 86: void BUTTON_Enable(BUTTON button);lib/buttons.c: 87: {;lib/buttons.c
      +                          : 88:     switch(button)
  8181                           
  8182  174D  0872               	movf	BUTTON_Enable@button,w
  8183  174E  00F0               	movwf	??_BUTTON_Enable
  8184  174F  01F1               	clrf	??_BUTTON_Enable+1
  8185                           
  8186                           ; Switch on 2 bytes has been partitioned into a top level switch of size 1, and 1 sub-sw
      +                          itches
  8187                           ; Switch size 1, requested type "simple"
  8188                           ; Number of cases is 1, Range of values is 0 to 0
  8189                           ; switch strategies available:
  8190                           ; Name         Instructions Cycles
  8191                           ; simple_byte            4     3 (average)
  8192                           ; direct_byte            8     6 (fixed)
  8193                           ; jumptable            260     6 (fixed)
  8194                           ;	Chosen strategy is simple_byte
  8195  1750  0871               	movf	??_BUTTON_Enable+1,w
  8196  1751  3A00               	xorlw	0	; case 0
  8197  1752  1903               	skipnz
  8198  1753  2F55               	goto	l5181
  8199  1754  2F5D               	goto	l636
  8200  1755                     l5181:
  8201                           
  8202                           ; Switch size 1, requested type "simple"
  8203                           ; Number of cases is 2, Range of values is 0 to 1
  8204                           ; switch strategies available:
  8205                           ; Name         Instructions Cycles
  8206                           ; simple_byte            7     4 (average)
  8207                           ; direct_byte           10     6 (fixed)
  8208                           ; jumptable            260     6 (fixed)
  8209                           ;	Chosen strategy is simple_byte
  8210  1755  0870               	movf	??_BUTTON_Enable,w
  8211  1756  3A00               	xorlw	0	; case 0
  8212  1757  1903               	skipnz
  8213  1758  2F5D               	goto	l636
  8214  1759  3A01               	xorlw	1	; case 1
  8215  175A  1903               	skipnz
  8216  175B  2F5D               	goto	l636
  8217  175C  2F5D               	goto	l636
  8218  175D                     l636:
  8219  175D  0008               	return
  8220  175E                     __end_of_BUTTON_Enable:
  8221                           
  8222                           	psect	text25
  8223  0AF9                     __ptext25:	
  8224 ;; *************** function _APP_LEDUpdateUSBStatus *****************
  8225 ;; Defined at:
  8226 ;;		line 50 in file "lib/app_led_usb_status.c"
  8227 ;; Parameters:    Size  Location     Type
  8228 ;;		None
  8229 ;; Auto vars:     Size  Location     Type
  8230 ;;		None
  8231 ;; Return value:  Size  Location     Type
  8232 ;;                  1    wreg      void 
  8233 ;; Registers used:
  8234 ;;		wreg, fsr0l, fsr0h, status,2, status,0, pclath, cstack
  8235 ;; Tracked objects:
  8236 ;;		On entry : 0/0
  8237 ;;		On exit  : 0/0
  8238 ;;		Unchanged: 0/0
  8239 ;; Data sizes:     COMMON   BANK1   BANK2   BANK3   BANK4   BANK5   BANK6   BANK7   BANK8   BANK9  BANK10  BANK11  BANK1
      +2
  8240 ;;      Params:         0       0       0       0       0       0       0       0       0       0       0       0       
      +0
  8241 ;;      Locals:         0       0       0       0       0       0       0       0       0       0       0       0       
      +0
  8242 ;;      Temps:          2       0       0       0       0       0       0       0       0       0       0       0       
      +0
  8243 ;;      Totals:         2       0       0       0       0       0       0       0       0       0       0       0       
      +0
  8244 ;;Total ram usage:        2 bytes
  8245 ;; Hardware stack levels used: 1
  8246 ;; Hardware stack levels required when called: 2
  8247 ;; This function calls:
  8248 ;;		_LED_Off
  8249 ;;		_LED_On
  8250 ;; This function is called by:
  8251 ;;		_USER_USB_CALLBACK_EVENT_HANDLER
  8252 ;; This function uses a non-reentrant model
  8253 ;;
  8254                           
  8255  0AF9                     _APP_LEDUpdateUSBStatus:	
  8256                           ;psect for function _APP_LEDUpdateUSBStatus
  8257                           
  8258  0AF9                     l3121:	
  8259                           ;incstack = 0
  8260                           ; Regs used in _APP_LEDUpdateUSBStatus: [wreg-fsr0h+status,2+status,0+pclath+cstack]
  8261                           
  8262                           
  8263                           ;lib/app_led_usb_status.c: 52:     static uint16_t ledCount = 0;;lib/app_led_usb_status.
      +                          c: 54:     if(UCONbits.SUSPND == 1)
  8264  0AF9  003D               	movlb	29	; select bank29
  8265  0AFA  1C8E               	btfss	14,1	;volatile
  8266  0AFB  2AFD               	goto	u1901
  8267  0AFC  2AFE               	goto	u1900
  8268  0AFD                     u1901:
  8269  0AFD  2B48               	goto	l3153
  8270  0AFE                     u1900:
  8271  0AFE                     l3123:
  8272                           
  8273                           ;lib/app_led_usb_status.c: 55:     {;lib/app_led_usb_status.c: 56:         LED_Off(LED_D
      +                          1);
  8274  0AFE  3001               	movlw	1
  8275  0AFF  3197  27BC  318A   	fcall	_LED_Off
  8276  0B02  2B5B               	goto	l604
  8277  0B03                     l3127:
  8278                           
  8279                           ;lib/app_led_usb_status.c: 65:             if(ledCount == 1)
  8280  0B03  033D               	decf	APP_LEDUpdateUSBStatus@ledCount^(0+128),w
  8281  0B04  043E               	iorwf	(APP_LEDUpdateUSBStatus@ledCount+1)^(0+128),w
  8282  0B05  1D03               	btfss	3,2
  8283  0B06  2B08               	goto	u1911
  8284  0B07  2B09               	goto	u1910
  8285  0B08                     u1911:
  8286  0B08  2B0E               	goto	l3131
  8287  0B09                     u1910:
  8288  0B09                     l3129:
  8289                           
  8290                           ;lib/app_led_usb_status.c: 66:             {;lib/app_led_usb_status.c: 67:              
      +                             LED_On(LED_D1);
  8291  0B09  3001               	movlw	1
  8292  0B0A  3197  27DE  318A   	fcall	_LED_On
  8293                           
  8294                           ;lib/app_led_usb_status.c: 68:             }
  8295  0B0D  2B56               	goto	l3155
  8296  0B0E                     l3131:
  8297  0B0E  304B               	movlw	75
  8298  0B0F  063D               	xorwf	APP_LEDUpdateUSBStatus@ledCount^(0+128),w
  8299  0B10  043E               	iorwf	(APP_LEDUpdateUSBStatus@ledCount+1)^(0+128),w
  8300  0B11  1D03               	btfss	3,2
  8301  0B12  2B14               	goto	u1921
  8302  0B13  2B15               	goto	u1920
  8303  0B14                     u1921:
  8304  0B14  2B1A               	goto	l3135
  8305  0B15                     u1920:
  8306  0B15                     l3133:
  8307                           
  8308                           ;lib/app_led_usb_status.c: 70:             {;lib/app_led_usb_status.c: 71:              
      +                             LED_Off(LED_D1);
  8309  0B15  3001               	movlw	1
  8310  0B16  3197  27BC  318A   	fcall	_LED_Off
  8311                           
  8312                           ;lib/app_led_usb_status.c: 72:             }
  8313  0B19  2B56               	goto	l3155
  8314  0B1A                     l3135:
  8315  0B1A  3000               	movlw	0
  8316  0B1B  023E               	subwf	(APP_LEDUpdateUSBStatus@ledCount+1)^(0+128),w
  8317  0B1C  3097               	movlw	151
  8318  0B1D  1903               	skipnz
  8319  0B1E  023D               	subwf	APP_LEDUpdateUSBStatus@ledCount^(0+128),w
  8320  0B1F  1C03               	skipc
  8321  0B20  2B22               	goto	u1931
  8322  0B21  2B23               	goto	u1930
  8323  0B22                     u1931:
  8324  0B22  2B26               	goto	l608
  8325  0B23                     u1930:
  8326  0B23                     l3137:
  8327                           
  8328                           ;lib/app_led_usb_status.c: 74:             {;lib/app_led_usb_status.c: 75:              
      +                             ledCount = 0;
  8329  0B23  01BD               	clrf	APP_LEDUpdateUSBStatus@ledCount^(0+128)
  8330  0B24  01BE               	clrf	(APP_LEDUpdateUSBStatus@ledCount+1)^(0+128)
  8331  0B25  2B56               	goto	l3155
  8332  0B26                     l608:
  8333                           
  8334                           ;lib/app_led_usb_status.c: 77:             break;
  8335  0B26  2B56               	goto	l3155
  8336  0B27                     l3139:
  8337                           
  8338                           ;lib/app_led_usb_status.c: 82:             if(ledCount == 1)
  8339  0B27  033D               	decf	APP_LEDUpdateUSBStatus@ledCount^(0+128),w
  8340  0B28  043E               	iorwf	(APP_LEDUpdateUSBStatus@ledCount+1)^(0+128),w
  8341  0B29  1D03               	btfss	3,2
  8342  0B2A  2B2C               	goto	u1941
  8343  0B2B  2B2D               	goto	u1940
  8344  0B2C                     u1941:
  8345  0B2C  2B32               	goto	l3143
  8346  0B2D                     u1940:
  8347  0B2D                     l3141:
  8348                           
  8349                           ;lib/app_led_usb_status.c: 83:             {;lib/app_led_usb_status.c: 84:              
      +                             LED_On(LED_D1);
  8350  0B2D  3001               	movlw	1
  8351  0B2E  3197  27DE  318A   	fcall	_LED_On
  8352                           
  8353                           ;lib/app_led_usb_status.c: 85:             }
  8354  0B31  2B56               	goto	l3155
  8355  0B32                     l3143:
  8356  0B32  3032               	movlw	50
  8357  0B33  063D               	xorwf	APP_LEDUpdateUSBStatus@ledCount^(0+128),w
  8358  0B34  043E               	iorwf	(APP_LEDUpdateUSBStatus@ledCount+1)^(0+128),w
  8359  0B35  1D03               	btfss	3,2
  8360  0B36  2B38               	goto	u1951
  8361  0B37  2B39               	goto	u1950
  8362  0B38                     u1951:
  8363  0B38  2B3E               	goto	l3147
  8364  0B39                     u1950:
  8365  0B39                     l3145:
  8366                           
  8367                           ;lib/app_led_usb_status.c: 87:             {;lib/app_led_usb_status.c: 88:              
      +                             LED_Off(LED_D1);
  8368  0B39  3001               	movlw	1
  8369  0B3A  3197  27BC  318A   	fcall	_LED_Off
  8370                           
  8371                           ;lib/app_led_usb_status.c: 89:             }
  8372  0B3D  2B56               	goto	l3155
  8373  0B3E                     l3147:
  8374  0B3E  3003               	movlw	3
  8375  0B3F  023E               	subwf	(APP_LEDUpdateUSBStatus@ledCount+1)^(0+128),w
  8376  0B40  30B7               	movlw	183
  8377  0B41  1903               	skipnz
  8378  0B42  023D               	subwf	APP_LEDUpdateUSBStatus@ledCount^(0+128),w
  8379  0B43  1C03               	skipc
  8380  0B44  2B46               	goto	u1961
  8381  0B45  2B47               	goto	u1960
  8382  0B46                     u1961:
  8383  0B46  2B56               	goto	l3155
  8384  0B47                     u1960:
  8385  0B47  2B23               	goto	l3137
  8386  0B48                     l3153:
  8387  0B48  0021               	movlb	1	; select bank1
  8388  0B49  0854               	movf	_USBDeviceState^(0+128),w
  8389  0B4A  00F3               	movwf	??_APP_LEDUpdateUSBStatus
  8390  0B4B  01F4               	clrf	??_APP_LEDUpdateUSBStatus+1
  8391                           
  8392                           ; Switch on 2 bytes has been partitioned into a top level switch of size 1, and 1 sub-sw
      +                          itches
  8393                           ; Switch size 1, requested type "simple"
  8394                           ; Number of cases is 1, Range of values is 0 to 0
  8395                           ; switch strategies available:
  8396                           ; Name         Instructions Cycles
  8397                           ; simple_byte            4     3 (average)
  8398                           ; direct_byte            8     6 (fixed)
  8399                           ; jumptable            260     6 (fixed)
  8400                           ;	Chosen strategy is simple_byte
  8401  0B4C  0874               	movf	??_APP_LEDUpdateUSBStatus+1,w
  8402  0B4D  3A00               	xorlw	0	; case 0
  8403  0B4E  1903               	skipnz
  8404  0B4F  2B51               	goto	l5183
  8405  0B50  2B27               	goto	l3139
  8406  0B51                     l5183:
  8407                           
  8408                           ; Switch size 1, requested type "simple"
  8409                           ; Number of cases is 1, Range of values is 32 to 32
  8410                           ; switch strategies available:
  8411                           ; Name         Instructions Cycles
  8412                           ; simple_byte            4     3 (average)
  8413                           ; direct_byte           11     9 (fixed)
  8414                           ; jumptable            263     9 (fixed)
  8415                           ;	Chosen strategy is simple_byte
  8416  0B51  0873               	movf	??_APP_LEDUpdateUSBStatus,w
  8417  0B52  3A20               	xorlw	32	; case 32
  8418  0B53  1903               	skipnz
  8419  0B54  2B03               	goto	l3127
  8420  0B55  2B27               	goto	l3139
  8421  0B56                     l3155:
  8422                           
  8423                           ;lib/app_led_usb_status.c: 98:     ledCount++;
  8424  0B56  3001               	movlw	1
  8425  0B57  0021               	movlb	1	; select bank1
  8426  0B58  07BD               	addwf	APP_LEDUpdateUSBStatus@ledCount^(0+128),f
  8427  0B59  3000               	movlw	0
  8428  0B5A  3DBE               	addwfc	(APP_LEDUpdateUSBStatus@ledCount+1)^(0+128),f
  8429  0B5B                     l604:
  8430  0B5B  0008               	return
  8431  0B5C                     __end_of_APP_LEDUpdateUSBStatus:
  8432                           
  8433                           	psect	text26
  8434  17DE                     __ptext26:	
  8435 ;; *************** function _LED_On *****************
  8436 ;; Defined at:
  8437 ;;		line 59 in file "lib/leds.c"
  8438 ;; Parameters:    Size  Location     Type
  8439 ;;  led             1    wreg     enum E2
  8440 ;; Auto vars:     Size  Location     Type
  8441 ;;  led             1    2[COMMON] enum E2
  8442 ;; Return value:  Size  Location     Type
  8443 ;;                  1    wreg      void 
  8444 ;; Registers used:
  8445 ;;		wreg, fsr0l, fsr0h, status,2, status,0
  8446 ;; Tracked objects:
  8447 ;;		On entry : 0/0
  8448 ;;		On exit  : 0/0
  8449 ;;		Unchanged: 0/0
  8450 ;; Data sizes:     COMMON   BANK1   BANK2   BANK3   BANK4   BANK5   BANK6   BANK7   BANK8   BANK9  BANK10  BANK11  BANK1
      +2
  8451 ;;      Params:         0       0       0       0       0       0       0       0       0       0       0       0       
      +0
  8452 ;;      Locals:         1       0       0       0       0       0       0       0       0       0       0       0       
      +0
  8453 ;;      Temps:          2       0       0       0       0       0       0       0       0       0       0       0       
      +0
  8454 ;;      Totals:         3       0       0       0       0       0       0       0       0       0       0       0       
      +0
  8455 ;;Total ram usage:        3 bytes
  8456 ;; Hardware stack levels used: 1
  8457 ;; Hardware stack levels required when called: 1
  8458 ;; This function calls:
  8459 ;;		Nothing
  8460 ;; This function is called by:
  8461 ;;		_APP_LEDUpdateUSBStatus
  8462 ;; This function uses a non-reentrant model
  8463 ;;
  8464                           
  8465  17DE                     _LED_On:	
  8466                           ;psect for function _LED_On
  8467                           
  8468                           
  8469                           ;incstack = 0
  8470                           ; Regs used in _LED_On: [wreg-fsr0h+status,2+status,0]
  8471                           ;LED_On@led stored from wreg
  8472  17DE  00F2               	movwf	LED_On@led
  8473  17DF                     l3011:
  8474                           
  8475                           ;lib/leds.c: 59: void LED_On(LED led);lib/leds.c: 60: {;lib/leds.c: 61:     switch(led)
  8476  17DF  2FE9               	goto	l3015
  8477  17E0                     l644:	
  8478                           ;lib/leds.c: 62:     {;lib/leds.c: 63:         case LED_D1:
  8479                           
  8480                           
  8481                           ;lib/leds.c: 64:             LATCbits.LATC4 = 1;
  8482  17E0  0022               	movlb	2	; select bank2
  8483  17E1  160E               	bsf	14,4	;volatile
  8484                           
  8485                           ;lib/leds.c: 65:             break;
  8486  17E2  2FFF               	goto	l649
  8487  17E3                     l646:	
  8488                           ;lib/leds.c: 67:         case LED_D2:
  8489                           
  8490                           
  8491                           ;lib/leds.c: 68:             LATCbits.LATC1 = 1;
  8492  17E3  0022               	movlb	2	; select bank2
  8493  17E4  148E               	bsf	14,1	;volatile
  8494                           
  8495                           ;lib/leds.c: 69:             break;
  8496  17E5  2FFF               	goto	l649
  8497  17E6                     l647:	
  8498                           ;lib/leds.c: 71:         case LED_D3:
  8499                           
  8500                           
  8501                           ;lib/leds.c: 72:             LATCbits.LATC2 = 1;
  8502  17E6  0022               	movlb	2	; select bank2
  8503  17E7  150E               	bsf	14,2	;volatile
  8504                           
  8505                           ;lib/leds.c: 73:             break;
  8506  17E8  2FFF               	goto	l649
  8507  17E9                     l3015:
  8508  17E9  0872               	movf	LED_On@led,w
  8509  17EA  00F0               	movwf	??_LED_On
  8510  17EB  01F1               	clrf	??_LED_On+1
  8511                           
  8512                           ; Switch on 2 bytes has been partitioned into a top level switch of size 1, and 1 sub-sw
      +                          itches
  8513                           ; Switch size 1, requested type "simple"
  8514                           ; Number of cases is 1, Range of values is 0 to 0
  8515                           ; switch strategies available:
  8516                           ; Name         Instructions Cycles
  8517                           ; simple_byte            4     3 (average)
  8518                           ; direct_byte            8     6 (fixed)
  8519                           ; jumptable            260     6 (fixed)
  8520                           ;	Chosen strategy is simple_byte
  8521  17EC  0871               	movf	??_LED_On+1,w
  8522  17ED  3A00               	xorlw	0	; case 0
  8523  17EE  1903               	skipnz
  8524  17EF  2FF1               	goto	l5185
  8525  17F0  2FFF               	goto	l649
  8526  17F1                     l5185:
  8527                           
  8528                           ; Switch size 1, requested type "simple"
  8529                           ; Number of cases is 4, Range of values is 0 to 3
  8530                           ; switch strategies available:
  8531                           ; Name         Instructions Cycles
  8532                           ; simple_byte           13     7 (average)
  8533                           ; direct_byte           14     6 (fixed)
  8534                           ; jumptable            260     6 (fixed)
  8535                           ;	Chosen strategy is simple_byte
  8536  17F1  0870               	movf	??_LED_On,w
  8537  17F2  3A00               	xorlw	0	; case 0
  8538  17F3  1903               	skipnz
  8539  17F4  2FFF               	goto	l649
  8540  17F5  3A01               	xorlw	1	; case 1
  8541  17F6  1903               	skipnz
  8542  17F7  2FE0               	goto	l644
  8543  17F8  3A03               	xorlw	3	; case 2
  8544  17F9  1903               	skipnz
  8545  17FA  2FE3               	goto	l646
  8546  17FB  3A01               	xorlw	1	; case 3
  8547  17FC  1903               	skipnz
  8548  17FD  2FE6               	goto	l647
  8549  17FE  2FFF               	goto	l649
  8550  17FF                     l649:
  8551  17FF  0008               	return
  8552  1800                     __end_of_LED_On:
  8553                           
  8554                           	psect	text27
  8555  17BC                     __ptext27:	
  8556 ;; *************** function _LED_Off *****************
  8557 ;; Defined at:
  8558 ;;		line 100 in file "lib/leds.c"
  8559 ;; Parameters:    Size  Location     Type
  8560 ;;  led             1    wreg     enum E2
  8561 ;; Auto vars:     Size  Location     Type
  8562 ;;  led             1    2[COMMON] enum E2
  8563 ;; Return value:  Size  Location     Type
  8564 ;;                  1    wreg      void 
  8565 ;; Registers used:
  8566 ;;		wreg, fsr0l, fsr0h, status,2, status,0
  8567 ;; Tracked objects:
  8568 ;;		On entry : 0/0
  8569 ;;		On exit  : 0/0
  8570 ;;		Unchanged: 0/0
  8571 ;; Data sizes:     COMMON   BANK1   BANK2   BANK3   BANK4   BANK5   BANK6   BANK7   BANK8   BANK9  BANK10  BANK11  BANK1
      +2
  8572 ;;      Params:         0       0       0       0       0       0       0       0       0       0       0       0       
      +0
  8573 ;;      Locals:         1       0       0       0       0       0       0       0       0       0       0       0       
      +0
  8574 ;;      Temps:          2       0       0       0       0       0       0       0       0       0       0       0       
      +0
  8575 ;;      Totals:         3       0       0       0       0       0       0       0       0       0       0       0       
      +0
  8576 ;;Total ram usage:        3 bytes
  8577 ;; Hardware stack levels used: 1
  8578 ;; Hardware stack levels required when called: 1
  8579 ;; This function calls:
  8580 ;;		Nothing
  8581 ;; This function is called by:
  8582 ;;		_APP_LEDUpdateUSBStatus
  8583 ;; This function uses a non-reentrant model
  8584 ;;
  8585                           
  8586  17BC                     _LED_Off:	
  8587                           ;psect for function _LED_Off
  8588                           
  8589                           
  8590                           ;incstack = 0
  8591                           ; Regs used in _LED_Off: [wreg-fsr0h+status,2+status,0]
  8592                           ;LED_Off@led stored from wreg
  8593  17BC  00F2               	movwf	LED_Off@led
  8594  17BD                     l3001:
  8595                           
  8596                           ;lib/leds.c: 100: void LED_Off(LED led);lib/leds.c: 101: {;lib/leds.c: 102:     switch(l
      +                          ed)
  8597  17BD  2FC7               	goto	l3005
  8598  17BE                     l653:	
  8599                           ;lib/leds.c: 103:     {;lib/leds.c: 104:         case LED_D1:
  8600                           
  8601                           
  8602                           ;lib/leds.c: 105:             LATCbits.LATC4 = 0;
  8603  17BE  0022               	movlb	2	; select bank2
  8604  17BF  120E               	bcf	14,4	;volatile
  8605                           
  8606                           ;lib/leds.c: 106:             break;
  8607  17C0  2FDD               	goto	l658
  8608  17C1                     l655:	
  8609                           ;lib/leds.c: 108:         case LED_D2:
  8610                           
  8611                           
  8612                           ;lib/leds.c: 109:             LATCbits.LATC1 = 0;
  8613  17C1  0022               	movlb	2	; select bank2
  8614  17C2  108E               	bcf	14,1	;volatile
  8615                           
  8616                           ;lib/leds.c: 110:             break;
  8617  17C3  2FDD               	goto	l658
  8618  17C4                     l656:	
  8619                           ;lib/leds.c: 112:         case LED_D3:
  8620                           
  8621                           
  8622                           ;lib/leds.c: 113:             LATCbits.LATC2 = 0;
  8623  17C4  0022               	movlb	2	; select bank2
  8624  17C5  110E               	bcf	14,2	;volatile
  8625                           
  8626                           ;lib/leds.c: 114:             break;
  8627  17C6  2FDD               	goto	l658
  8628  17C7                     l3005:
  8629  17C7  0872               	movf	LED_Off@led,w
  8630  17C8  00F0               	movwf	??_LED_Off
  8631  17C9  01F1               	clrf	??_LED_Off+1
  8632                           
  8633                           ; Switch on 2 bytes has been partitioned into a top level switch of size 1, and 1 sub-sw
      +                          itches
  8634                           ; Switch size 1, requested type "simple"
  8635                           ; Number of cases is 1, Range of values is 0 to 0
  8636                           ; switch strategies available:
  8637                           ; Name         Instructions Cycles
  8638                           ; simple_byte            4     3 (average)
  8639                           ; direct_byte            8     6 (fixed)
  8640                           ; jumptable            260     6 (fixed)
  8641                           ;	Chosen strategy is simple_byte
  8642  17CA  0871               	movf	??_LED_Off+1,w
  8643  17CB  3A00               	xorlw	0	; case 0
  8644  17CC  1903               	skipnz
  8645  17CD  2FCF               	goto	l5187
  8646  17CE  2FDD               	goto	l658
  8647  17CF                     l5187:
  8648                           
  8649                           ; Switch size 1, requested type "simple"
  8650                           ; Number of cases is 4, Range of values is 0 to 3
  8651                           ; switch strategies available:
  8652                           ; Name         Instructions Cycles
  8653                           ; simple_byte           13     7 (average)
  8654                           ; direct_byte           14     6 (fixed)
  8655                           ; jumptable            260     6 (fixed)
  8656                           ;	Chosen strategy is simple_byte
  8657  17CF  0870               	movf	??_LED_Off,w
  8658  17D0  3A00               	xorlw	0	; case 0
  8659  17D1  1903               	skipnz
  8660  17D2  2FDD               	goto	l658
  8661  17D3  3A01               	xorlw	1	; case 1
  8662  17D4  1903               	skipnz
  8663  17D5  2FBE               	goto	l653
  8664  17D6  3A03               	xorlw	3	; case 2
  8665  17D7  1903               	skipnz
  8666  17D8  2FC1               	goto	l655
  8667  17D9  3A01               	xorlw	1	; case 3
  8668  17DA  1903               	skipnz
  8669  17DB  2FC4               	goto	l656
  8670  17DC  2FDD               	goto	l658
  8671  17DD                     l658:
  8672  17DD  0008               	return
  8673  17DE                     __end_of_LED_Off:
  8674                           
  8675                           	psect	text28
  8676  088B                     __ptext28:	
  8677 ;; *************** function _APP_DeviceJoystickInitialize *****************
  8678 ;; Defined at:
  8679 ;;		line 58 in file "lib/app_device_joystick.c"
  8680 ;; Parameters:    Size  Location     Type
  8681 ;;		None
  8682 ;; Auto vars:     Size  Location     Type
  8683 ;;		None
  8684 ;; Return value:  Size  Location     Type
  8685 ;;                  1    wreg      void 
  8686 ;; Registers used:
  8687 ;;		wreg, fsr1l, fsr1h, status,2, status,0, pclath, cstack
  8688 ;; Tracked objects:
  8689 ;;		On entry : 0/0
  8690 ;;		On exit  : 0/0
  8691 ;;		Unchanged: 0/0
  8692 ;; Data sizes:     COMMON   BANK1   BANK2   BANK3   BANK4   BANK5   BANK6   BANK7   BANK8   BANK9  BANK10  BANK11  BANK1
      +2
  8693 ;;      Params:         0       0       0       0       0       0       0       0       0       0       0       0       
      +0
  8694 ;;      Locals:         0       0       0       0       0       0       0       0       0       0       0       0       
      +0
  8695 ;;      Temps:          1       0       0       0       0       0       0       0       0       0       0       0       
      +0
  8696 ;;      Totals:         1       0       0       0       0       0       0       0       0       0       0       0       
      +0
  8697 ;;Total ram usage:        1 bytes
  8698 ;; Hardware stack levels used: 1
  8699 ;; Hardware stack levels required when called: 3
  8700 ;; This function calls:
  8701 ;;		_USBEnableEndpoint
  8702 ;; This function is called by:
  8703 ;;		_USER_USB_CALLBACK_EVENT_HANDLER
  8704 ;; This function uses a non-reentrant model
  8705 ;;
  8706                           
  8707  088B                     _APP_DeviceJoystickInitialize:	
  8708                           ;psect for function _APP_DeviceJoystickInitialize
  8709                           
  8710  088B                     l3175:	
  8711                           ;incstack = 0
  8712                           ; Regs used in _APP_DeviceJoystickInitialize: [wreg+fsr1l+fsr1h+status,2+status,0+pclath
      +                          +cstack]
  8713                           
  8714                           
  8715                           ;lib/app_device_joystick.c: 62:     last_HAP_IN = 0;
  8716  088B  0022               	movlb	2	; select bank2
  8717  088C  01AB               	clrf	_last_HAP_IN^(0+256)
  8718  088D  01AC               	clrf	(_last_HAP_IN+1)^(0+256)
  8719                           
  8720                           ;lib/app_device_joystick.c: 63:     last_HAP_OUT = 0;
  8721  088E  01A9               	clrf	_last_HAP_OUT^(0+256)
  8722  088F  01AA               	clrf	(_last_HAP_OUT+1)^(0+256)
  8723                           
  8724                           ;lib/app_device_joystick.c: 64:     last_LED_OUT = 0;
  8725  0890  01A7               	clrf	_last_LED_OUT^(0+256)
  8726  0891  01A8               	clrf	(_last_LED_OUT+1)^(0+256)
  8727                           
  8728                           ;lib/app_device_joystick.c: 65:     last_DSP_OUT = 0;
  8729  0892  0023               	movlb	3	; select bank3
  8730  0893  01B6               	clrf	_last_DSP_OUT^(0+384)
  8731  0894  01B7               	clrf	(_last_DSP_OUT+1)^(0+384)
  8732                           
  8733                           ;lib/app_device_joystick.c: 68:     display_pkt_ready=0;
  8734  0895  0021               	movlb	1	; select bank1
  8735  0896  01C3               	clrf	_display_pkt_ready^(0+128)
  8736                           
  8737                           ;lib/app_device_joystick.c: 69:     LED_pkt_ready=0;
  8738  0897  01C2               	clrf	_LED_pkt_ready^(0+128)
  8739                           
  8740                           ;lib/app_device_joystick.c: 70:     hap_IN_pkt_ready=0;
  8741  0898  01C1               	clrf	_hap_IN_pkt_ready^(0+128)
  8742                           
  8743                           ;lib/app_device_joystick.c: 71:     hap_OUT_pkt_ready=0;
  8744  0899  0022               	movlb	2	; select bank2
  8745  089A  01AE               	clrf	_hap_OUT_pkt_ready^(0+256)
  8746  089B                     l3177:
  8747                           
  8748                           ;lib/app_device_joystick.c: 74:     USBEnableEndpoint(1,0x04|0x02|0x10|0x08);
  8749  089B  301E               	movlw	30
  8750  089C  00FD               	movwf	??_APP_DeviceJoystickInitialize
  8751  089D  087D               	movf	??_APP_DeviceJoystickInitialize,w
  8752  089E  00F7               	movwf	USBEnableEndpoint@options
  8753  089F  3001               	movlw	1
  8754  08A0  3188  2040  3188   	fcall	_USBEnableEndpoint
  8755  08A3                     l3179:
  8756                           
  8757                           ;lib/app_device_joystick.c: 75:     USBEnableEndpoint(2 ,0x04|0x02|0x10|0x08);
  8758  08A3  301E               	movlw	30
  8759  08A4  00FD               	movwf	??_APP_DeviceJoystickInitialize
  8760  08A5  087D               	movf	??_APP_DeviceJoystickInitialize,w
  8761  08A6  00F7               	movwf	USBEnableEndpoint@options
  8762  08A7  3002               	movlw	2
  8763  08A8  3188  2040  3188   	fcall	_USBEnableEndpoint
  8764  08AB                     l3181:
  8765                           
  8766                           ;lib/app_device_joystick.c: 76:     USBEnableEndpoint(3 ,0x04|0x02|0x10|0x08);
  8767  08AB  301E               	movlw	30
  8768  08AC  00FD               	movwf	??_APP_DeviceJoystickInitialize
  8769  08AD  087D               	movf	??_APP_DeviceJoystickInitialize,w
  8770  08AE  00F7               	movwf	USBEnableEndpoint@options
  8771  08AF  3003               	movlw	3
  8772  08B0  3188  2040  3188   	fcall	_USBEnableEndpoint
  8773  08B3                     l571:
  8774  08B3  0008               	return
  8775  08B4                     __end_of_APP_DeviceJoystickInitialize:
  8776                           
  8777                           	psect	text29
  8778  0840                     __ptext29:	
  8779 ;; *************** function _USBEnableEndpoint *****************
  8780 ;; Defined at:
  8781 ;;		line 882 in file "lib/usb/usb_device.c"
  8782 ;; Parameters:    Size  Location     Type
  8783 ;;  ep              1    wreg     unsigned char 
  8784 ;;  options         1    7[COMMON] unsigned char 
  8785 ;; Auto vars:     Size  Location     Type
  8786 ;;  ep              1   12[COMMON] unsigned char 
  8787 ;;  p               2   10[COMMON] PTR unsigned char 
  8788 ;;		 -> UEP0(1), 
  8789 ;; Return value:  Size  Location     Type
  8790 ;;                  1    wreg      void 
  8791 ;; Registers used:
  8792 ;;		wreg, fsr1l, fsr1h, status,2, status,0, pclath, cstack
  8793 ;; Tracked objects:
  8794 ;;		On entry : 0/0
  8795 ;;		On exit  : 0/0
  8796 ;;		Unchanged: 0/0
  8797 ;; Data sizes:     COMMON   BANK1   BANK2   BANK3   BANK4   BANK5   BANK6   BANK7   BANK8   BANK9  BANK10  BANK11  BANK1
      +2
  8798 ;;      Params:         1       0       0       0       0       0       0       0       0       0       0       0       
      +0
  8799 ;;      Locals:         3       0       0       0       0       0       0       0       0       0       0       0       
      +0
  8800 ;;      Temps:          2       0       0       0       0       0       0       0       0       0       0       0       
      +0
  8801 ;;      Totals:         6       0       0       0       0       0       0       0       0       0       0       0       
      +0
  8802 ;;Total ram usage:        6 bytes
  8803 ;; Hardware stack levels used: 1
  8804 ;; Hardware stack levels required when called: 2
  8805 ;; This function calls:
  8806 ;;		_USBConfigureEndpoint
  8807 ;; This function is called by:
  8808 ;;		_APP_DeviceJoystickInitialize
  8809 ;; This function uses a non-reentrant model
  8810 ;;
  8811                           
  8812  0840                     _USBEnableEndpoint:	
  8813                           ;psect for function _USBEnableEndpoint
  8814                           
  8815                           
  8816                           ;incstack = 0
  8817                           ; Regs used in _USBEnableEndpoint: [wreg+fsr1l+fsr1h+status,2+status,0+pclath+cstack]
  8818                           ;USBEnableEndpoint@ep stored from wreg
  8819  0840  00FC               	movwf	USBEnableEndpoint@ep
  8820  0841                     l2989:
  8821                           
  8822                           ;lib/usb/usb_device.c: 882: void USBEnableEndpoint(uint8_t ep, uint8_t options);lib/usb/
      +                          usb_device.c: 883: {;lib/usb/usb_device.c: 884:     unsigned char* p;;lib/usb/usb_device
      +                          .c: 888:     if(options & 0x04)
  8823  0841  1D77               	btfss	USBEnableEndpoint@options,2
  8824  0842  2844               	goto	u1741
  8825  0843  2845               	goto	u1740
  8826  0844                     u1741:
  8827  0844  284A               	goto	l2993
  8828  0845                     u1740:
  8829  0845                     l2991:
  8830                           
  8831                           ;lib/usb/usb_device.c: 889:     {;lib/usb/usb_device.c: 890:         USBConfigureEndpoin
      +                          t(ep, 0);
  8832  0845  01F0               	clrf	USBConfigureEndpoint@direction
  8833  0846  087C               	movf	USBEnableEndpoint@ep,w
  8834  0847  3189  2175  3188   	fcall	_USBConfigureEndpoint
  8835  084A                     l2993:
  8836                           
  8837                           ;lib/usb/usb_device.c: 892:     if(options & 0x02)
  8838  084A  1CF7               	btfss	USBEnableEndpoint@options,1
  8839  084B  284D               	goto	u1751
  8840  084C  284E               	goto	u1750
  8841  084D                     u1751:
  8842  084D  2854               	goto	l2997
  8843  084E                     u1750:
  8844  084E                     l2995:
  8845                           
  8846                           ;lib/usb/usb_device.c: 893:     {;lib/usb/usb_device.c: 894:         USBConfigureEndpoin
      +                          t(ep, 1);
  8847  084E  01F0               	clrf	USBConfigureEndpoint@direction
  8848  084F  0AF0               	incf	USBConfigureEndpoint@direction,f
  8849  0850  087C               	movf	USBEnableEndpoint@ep,w
  8850  0851  3189  2175  3188   	fcall	_USBConfigureEndpoint
  8851  0854                     l2997:
  8852                           
  8853                           ;lib/usb/usb_device.c: 903:         p = (unsigned char*)(&UEP0+ep);
  8854  0854  087C               	movf	USBEnableEndpoint@ep,w
  8855  0855  3E98               	addlw	152
  8856  0856  00F8               	movwf	??_USBEnableEndpoint
  8857  0857  01F9               	clrf	??_USBEnableEndpoint+1
  8858  0858  300E               	movlw	14
  8859  0859  3DF9               	addwfc	??_USBEnableEndpoint+1,f
  8860  085A  0878               	movf	??_USBEnableEndpoint,w
  8861  085B  00FA               	movwf	USBEnableEndpoint@p
  8862  085C  0879               	movf	??_USBEnableEndpoint+1,w
  8863  085D  00FB               	movwf	USBEnableEndpoint@p+1
  8864  085E                     l2999:
  8865                           
  8866                           ;lib/usb/usb_device.c: 905:     *p = options;
  8867  085E  087A               	movf	USBEnableEndpoint@p,w
  8868  085F  0086               	movwf	6
  8869  0860  087B               	movf	USBEnableEndpoint@p+1,w
  8870  0861  0087               	movwf	7
  8871  0862  0877               	movf	USBEnableEndpoint@options,w
  8872  0863  0081               	movwf	1
  8873  0864                     l196:
  8874  0864  0008               	return
  8875  0865                     __end_of_USBEnableEndpoint:
  8876                           
  8877                           	psect	text30
  8878  0975                     __ptext30:	
  8879 ;; *************** function _USBConfigureEndpoint *****************
  8880 ;; Defined at:
  8881 ;;		line 1547 in file "lib/usb/usb_device.c"
  8882 ;; Parameters:    Size  Location     Type
  8883 ;;  EPNum           1    wreg     unsigned char 
  8884 ;;  direction       1    0[COMMON] unsigned char 
  8885 ;; Auto vars:     Size  Location     Type
  8886 ;;  EPNum           1    5[COMMON] unsigned char 
  8887 ;;  handle          1    6[COMMON] PTR volatile struct __BD
  8888 ;;		 -> BDT(64), 
  8889 ;; Return value:  Size  Location     Type
  8890 ;;                  1    wreg      void 
  8891 ;; Registers used:
  8892 ;;		wreg, fsr1l, fsr1h, status,2, status,0
  8893 ;; Tracked objects:
  8894 ;;		On entry : 0/0
  8895 ;;		On exit  : 0/0
  8896 ;;		Unchanged: 0/0
  8897 ;; Data sizes:     COMMON   BANK1   BANK2   BANK3   BANK4   BANK5   BANK6   BANK7   BANK8   BANK9  BANK10  BANK11  BANK1
      +2
  8898 ;;      Params:         1       0       0       0       0       0       0       0       0       0       0       0       
      +0
  8899 ;;      Locals:         2       0       0       0       0       0       0       0       0       0       0       0       
      +0
  8900 ;;      Temps:          4       0       0       0       0       0       0       0       0       0       0       0       
      +0
  8901 ;;      Totals:         7       0       0       0       0       0       0       0       0       0       0       0       
      +0
  8902 ;;Total ram usage:        7 bytes
  8903 ;; Hardware stack levels used: 1
  8904 ;; Hardware stack levels required when called: 1
  8905 ;; This function calls:
  8906 ;;		Nothing
  8907 ;; This function is called by:
  8908 ;;		_USBEnableEndpoint
  8909 ;; This function uses a non-reentrant model
  8910 ;;
  8911                           
  8912  0975                     _USBConfigureEndpoint:	
  8913                           ;psect for function _USBConfigureEndpoint
  8914                           
  8915                           
  8916                           ;incstack = 0
  8917                           ; Regs used in _USBConfigureEndpoint: [wreg+fsr1l+fsr1h+status,2+status,0]
  8918                           ;USBConfigureEndpoint@EPNum stored from wreg
  8919  0975  00F5               	movwf	USBConfigureEndpoint@EPNum
  8920  0976                     l2973:
  8921                           
  8922                           ;lib/usb/usb_device.c: 1547: static void USBConfigureEndpoint(uint8_t EPNum, uint8_t dir
      +                          ection);lib/usb/usb_device.c: 1548: {;lib/usb/usb_device.c: 1549:     volatile BDT_ENTRY
      +                          * handle;;lib/usb/usb_device.c: 1553:     handle = (volatile BDT_ENTRY*)&BDT[0];
  8923  0976  3020               	movlw	32
  8924  0977  00F1               	movwf	??_USBConfigureEndpoint
  8925  0978  0871               	movf	??_USBConfigureEndpoint,w
  8926  0979  00F6               	movwf	USBConfigureEndpoint@handle
  8927  097A                     l2975:
  8928                           
  8929                           ;lib/usb/usb_device.c: 1554:     handle += (4*EPNum+2*direction+0u);
  8930  097A  0870               	movf	USBConfigureEndpoint@direction,w
  8931  097B  00F1               	movwf	??_USBConfigureEndpoint
  8932  097C  3001               	movlw	1
  8933  097D                     u1705:
  8934  097D  35F1               	lslf	??_USBConfigureEndpoint,f
  8935  097E  0B89               	decfsz	9,f
  8936  097F  297D               	goto	u1705
  8937  0980  0875               	movf	USBConfigureEndpoint@EPNum,w
  8938  0981  00F2               	movwf	??_USBConfigureEndpoint+1
  8939  0982  3001               	movlw	1
  8940  0983                     u1715:
  8941  0983  35F2               	lslf	??_USBConfigureEndpoint+1,f
  8942  0984  3EFF               	addlw	-1
  8943  0985  1D03               	skipz
  8944  0986  2983               	goto	u1715
  8945  0987  3572               	lslf	??_USBConfigureEndpoint+1,w
  8946  0988  0771               	addwf	??_USBConfigureEndpoint,w
  8947  0989  00F3               	movwf	??_USBConfigureEndpoint+2
  8948  098A  3001               	movlw	1
  8949  098B                     u1725:
  8950  098B  35F3               	lslf	??_USBConfigureEndpoint+2,f
  8951  098C  3EFF               	addlw	-1
  8952  098D  1D03               	skipz
  8953  098E  298B               	goto	u1725
  8954  098F  3573               	lslf	??_USBConfigureEndpoint+2,w
  8955  0990  00F4               	movwf	??_USBConfigureEndpoint+3
  8956  0991  0874               	movf	??_USBConfigureEndpoint+3,w
  8957  0992  07F6               	addwf	USBConfigureEndpoint@handle,f
  8958  0993                     l2977:
  8959                           
  8960                           ;lib/usb/usb_device.c: 1556:     handle->STAT.UOWN = 0;
  8961  0993  0876               	movf	USBConfigureEndpoint@handle,w
  8962  0994  0086               	movwf	6
  8963  0995  0187               	clrf	7
  8964  0996  1381               	bcf	1,7
  8965  0997                     l2979:
  8966                           
  8967                           ;lib/usb/usb_device.c: 1561:     if(direction == 0)
  8968  0997  0870               	movf	USBConfigureEndpoint@direction,w
  8969  0998  1D03               	btfss	3,2
  8970  0999  299B               	goto	u1731
  8971  099A  299C               	goto	u1730
  8972  099B                     u1731:
  8973  099B  29A6               	goto	l2983
  8974  099C                     u1730:
  8975  099C                     l2981:
  8976                           
  8977                           ;lib/usb/usb_device.c: 1562:     {;lib/usb/usb_device.c: 1563:         pBDTEntryOut[EPNu
      +                          m] = handle;
  8978  099C  3575               	lslf	USBConfigureEndpoint@EPNum,w
  8979  099D  3EA0               	addlw	(low (_pBDTEntryOut| (0+256)))& (0+255)
  8980  099E  0086               	movwf	6
  8981  099F  3001               	movlw	1	; select bank3/4
  8982  09A0  0087               	movwf	7
  8983  09A1  0876               	movf	USBConfigureEndpoint@handle,w
  8984  09A2  3FC0               	movwi [0]fsr1
  8985  09A3  3000               	movlw	0
  8986  09A4  3FC1               	movwi [1]fsr1
  8987                           
  8988                           ;lib/usb/usb_device.c: 1564:     }
  8989  09A5  29AE               	goto	l2985
  8990  09A6                     l2983:
  8991                           
  8992                           ;lib/usb/usb_device.c: 1566:     {;lib/usb/usb_device.c: 1567:         pBDTEntryIn[EPNum
      +                          ] = handle;
  8993  09A6  3575               	lslf	USBConfigureEndpoint@EPNum,w
  8994  09A7  3EB0               	addlw	(low (_pBDTEntryIn| 0))& (0+255)
  8995  09A8  0086               	movwf	6
  8996  09A9  0187               	clrf	7
  8997  09AA  0876               	movf	USBConfigureEndpoint@handle,w
  8998  09AB  3FC0               	movwi [0]fsr1
  8999  09AC  3000               	movlw	0
  9000  09AD  3FC1               	movwi [1]fsr1
  9001  09AE                     l2985:
  9002                           
  9003                           ;lib/usb/usb_device.c: 1571:         handle->STAT.DTS = 0;
  9004  09AE  0876               	movf	USBConfigureEndpoint@handle,w
  9005  09AF  0086               	movwf	6
  9006  09B0  0187               	clrf	7
  9007  09B1  1301               	bcf	1,6
  9008  09B2                     l2987:
  9009                           
  9010                           ;lib/usb/usb_device.c: 1572:         (handle+1)->STAT.DTS = 1;
  9011  09B2  0876               	movf	USBConfigureEndpoint@handle,w
  9012  09B3  3E04               	addlw	4
  9013  09B4  0086               	movwf	6
  9014  09B5  0187               	clrf	7
  9015  09B6  1701               	bsf	1,6
  9016  09B7                     l232:
  9017  09B7  0008               	return
  9018  09B8                     __end_of_USBConfigureEndpoint:
  9019                           
  9020                           	psect	text31
  9021  093D                     __ptext31:	
  9022 ;; *************** function _USBCtrlTrfOutHandler *****************
  9023 ;; Defined at:
  9024 ;;		line 2545 in file "lib/usb/usb_device.c"
  9025 ;; Parameters:    Size  Location     Type
  9026 ;;		None
  9027 ;; Auto vars:     Size  Location     Type
  9028 ;;		None
  9029 ;; Return value:  Size  Location     Type
  9030 ;;                  1    wreg      void 
  9031 ;; Registers used:
  9032 ;;		wreg, fsr1l, fsr1h, status,2, status,0, pclath, cstack
  9033 ;; Tracked objects:
  9034 ;;		On entry : 0/0
  9035 ;;		On exit  : 0/0
  9036 ;;		Unchanged: 0/0
  9037 ;; Data sizes:     COMMON   BANK1   BANK2   BANK3   BANK4   BANK5   BANK6   BANK7   BANK8   BANK9  BANK10  BANK11  BANK1
      +2
  9038 ;;      Params:         0       0       0       0       0       0       0       0       0       0       0       0       
      +0
  9039 ;;      Locals:         0       0       0       0       0       0       0       0       0       0       0       0       
      +0
  9040 ;;      Temps:          2       0       0       0       0       0       0       0       0       0       0       0       
      +0
  9041 ;;      Totals:         2       0       0       0       0       0       0       0       0       0       0       0       
      +0
  9042 ;;Total ram usage:        2 bytes
  9043 ;; Hardware stack levels used: 1
  9044 ;; Hardware stack levels required when called: 3
  9045 ;; This function calls:
  9046 ;;		_USBCtrlTrfRxService
  9047 ;; This function is called by:
  9048 ;;		_USBCtrlEPService
  9049 ;; This function uses a non-reentrant model
  9050 ;;
  9051                           
  9052  093D                     _USBCtrlTrfOutHandler:	
  9053                           ;psect for function _USBCtrlTrfOutHandler
  9054                           
  9055  093D                     l3739:	
  9056                           ;incstack = 0
  9057                           ; Regs used in _USBCtrlTrfOutHandler: [wreg+fsr1l+fsr1h+status,2+status,0+pclath+cstack]
  9058                           
  9059                           
  9060                           ;lib/usb/usb_device.c: 2547:     if(controlTransferState == 2)
  9061  093D  3002               	movlw	2
  9062  093E  0021               	movlb	1	; select bank1
  9063  093F  0651               	xorwf	_controlTransferState^(0+128),w
  9064  0940  1D03               	btfss	3,2
  9065  0941  2943               	goto	u2581
  9066  0942  2944               	goto	u2580
  9067  0943                     u2581:
  9068  0943  2948               	goto	l3743
  9069  0944                     u2580:
  9070  0944                     l3741:
  9071                           
  9072                           ;lib/usb/usb_device.c: 2548:     {;lib/usb/usb_device.c: 2549:         USBCtrlTrfRxServi
      +                          ce();
  9073  0944  318F  2756  3189   	fcall	_USBCtrlTrfRxService
  9074                           
  9075                           ;lib/usb/usb_device.c: 2550:     }
  9076  0947  2974               	goto	l343
  9077  0948                     l3743:
  9078                           
  9079                           ;lib/usb/usb_device.c: 2552:     {;lib/usb/usb_device.c: 2555:         controlTransferSt
      +                          ate = 0;
  9080  0948  01D1               	clrf	_controlTransferState^(0+128)
  9081  0949                     l3745:
  9082                           
  9083                           ;lib/usb/usb_device.c: 2562:         if(BothEP0OutUOWNsSet == 0)
  9084  0949  084C               	movf	_BothEP0OutUOWNsSet^(0+128),w
  9085  094A  1D03               	btfss	3,2
  9086  094B  294D               	goto	u2591
  9087  094C  294E               	goto	u2590
  9088  094D                     u2591:
  9089  094D  2973               	goto	l3755
  9090  094E                     u2590:
  9091  094E                     l3747:
  9092                           
  9093                           ;lib/usb/usb_device.c: 2563:         {;lib/usb/usb_device.c: 2564:             pBDTEntry
      +                          EP0OutNext->CNT = 8;
  9094  094E  083F               	movf	_pBDTEntryEP0OutNext^(0+128),w
  9095  094F  3E01               	addlw	1
  9096  0950  00F6               	movwf	??_USBCtrlTrfOutHandler
  9097  0951  3000               	movlw	0
  9098  0952  3D40               	addwfc	(_pBDTEntryEP0OutNext+1)^(0+128),w
  9099  0953  00F7               	movwf	??_USBCtrlTrfOutHandler+1
  9100  0954  0876               	movf	??_USBCtrlTrfOutHandler,w
  9101  0955  0086               	movwf	6
  9102  0956  0877               	movf	??_USBCtrlTrfOutHandler+1,w
  9103  0957  0087               	movwf	7
  9104  0958  3008               	movlw	8
  9105  0959  0081               	movwf	1
  9106  095A                     l3749:
  9107                           
  9108                           ;lib/usb/usb_device.c: 2565:             pBDTEntryEP0OutNext->ADR = (((uint16_t)(&SetupP
      +                          kt)) & 0x7FFF);
  9109  095A  3060               	movlw	96
  9110  095B  00F6               	movwf	??_USBCtrlTrfOutHandler
  9111  095C  3000               	movlw	0
  9112  095D  00F7               	movwf	??_USBCtrlTrfOutHandler+1
  9113  095E  083F               	movf	_pBDTEntryEP0OutNext^(0+128),w
  9114  095F  0086               	movwf	6
  9115  0960  0840               	movf	(_pBDTEntryEP0OutNext+1)^(0+128),w
  9116  0961  0087               	movwf	7
  9117  0962  3142               	addfsr 1,2
  9118  0963  0876               	movf	??_USBCtrlTrfOutHandler,w
  9119  0964  3FC0               	movwi [0]fsr1
  9120  0965  0877               	movf	??_USBCtrlTrfOutHandler+1,w
  9121  0966  3FC1               	movwi [1]fsr1
  9122  0967                     l3751:
  9123                           
  9124                           ;lib/usb/usb_device.c: 2566:             pBDTEntryEP0OutNext->STAT.Val = 0x00|(0x08 & 0x
      +                          08)|0x04;
  9125  0967  083F               	movf	_pBDTEntryEP0OutNext^(0+128),w
  9126  0968  0086               	movwf	6
  9127  0969  0840               	movf	(_pBDTEntryEP0OutNext+1)^(0+128),w
  9128  096A  0087               	movwf	7
  9129  096B  300C               	movlw	12
  9130  096C  0081               	movwf	1
  9131  096D                     l3753:
  9132                           
  9133                           ;lib/usb/usb_device.c: 2567:             pBDTEntryEP0OutNext->STAT.Val |= 0x80;
  9134  096D  083F               	movf	_pBDTEntryEP0OutNext^(0+128),w
  9135  096E  0086               	movwf	6
  9136  096F  0840               	movf	(_pBDTEntryEP0OutNext+1)^(0+128),w
  9137  0970  0087               	movwf	7
  9138  0971  1781               	bsf	1,7
  9139                           
  9140                           ;lib/usb/usb_device.c: 2568:         }
  9141  0972  2974               	goto	l343
  9142  0973                     l3755:
  9143                           
  9144                           ;lib/usb/usb_device.c: 2570:         {;lib/usb/usb_device.c: 2571:             BothEP0Ou
      +                          tUOWNsSet = 0;
  9145  0973  01CC               	clrf	_BothEP0OutUOWNsSet^(0+128)
  9146  0974                     l343:
  9147  0974  0008               	return
  9148  0975                     __end_of_USBCtrlTrfOutHandler:
  9149                           
  9150                           	psect	text32
  9151  0F56                     __ptext32:	
  9152 ;; *************** function _USBCtrlTrfRxService *****************
  9153 ;; Defined at:
  9154 ;;		line 1856 in file "lib/usb/usb_device.c"
  9155 ;; Parameters:    Size  Location     Type
  9156 ;;		None
  9157 ;; Auto vars:     Size  Location     Type
  9158 ;;  byteToRead      1    5[COMMON] unsigned char 
  9159 ;;  i               1    4[COMMON] unsigned char 
  9160 ;; Return value:  Size  Location     Type
  9161 ;;                  1    wreg      void 
  9162 ;; Registers used:
  9163 ;;		wreg, fsr1l, fsr1h, status,2, status,0, pclath, cstack
  9164 ;; Tracked objects:
  9165 ;;		On entry : 0/0
  9166 ;;		On exit  : 0/0
  9167 ;;		Unchanged: 0/0
  9168 ;; Data sizes:     COMMON   BANK1   BANK2   BANK3   BANK4   BANK5   BANK6   BANK7   BANK8   BANK9  BANK10  BANK11  BANK1
      +2
  9169 ;;      Params:         0       0       0       0       0       0       0       0       0       0       0       0       
      +0
  9170 ;;      Locals:         2       0       0       0       0       0       0       0       0       0       0       0       
      +0
  9171 ;;      Temps:          2       0       0       0       0       0       0       0       0       0       0       0       
      +0
  9172 ;;      Totals:         4       0       0       0       0       0       0       0       0       0       0       0       
      +0
  9173 ;;Total ram usage:        4 bytes
  9174 ;; Hardware stack levels used: 1
  9175 ;; Hardware stack levels required when called: 2
  9176 ;; This function calls:
  9177 ;;		_USBCtrlEPAllowStatusStage
  9178 ;; This function is called by:
  9179 ;;		_USBCtrlTrfOutHandler
  9180 ;; This function uses a non-reentrant model
  9181 ;;
  9182                           
  9183  0F56                     _USBCtrlTrfRxService:	
  9184                           ;psect for function _USBCtrlTrfRxService
  9185                           
  9186  0F56                     l3615:	
  9187                           ;incstack = 0
  9188                           ; Regs used in _USBCtrlTrfRxService: [wreg+fsr1l+fsr1h+status,2+status,0+pclath+cstack]
  9189                           
  9190                           
  9191                           ;lib/usb/usb_device.c: 1858:     uint8_t byteToRead;;lib/usb/usb_device.c: 1859:     uin
      +                          t8_t i;;lib/usb/usb_device.c: 1863:     byteToRead = pBDTEntryEP0OutCurrent->CNT;
  9192  0F56  0021               	movlb	1	; select bank1
  9193  0F57  0853               	movf	_pBDTEntryEP0OutCurrent^(0+128),w
  9194  0F58  0086               	movwf	6
  9195  0F59  0187               	clrf	7
  9196  0F5A  3F41               	moviw [1]fsr1
  9197  0F5B  00F5               	movwf	USBCtrlTrfRxService@byteToRead
  9198  0F5C                     l3617:
  9199                           
  9200                           ;lib/usb/usb_device.c: 1869:     if(byteToRead > outPipes[0].wCount.Val)
  9201  0F5C  0875               	movf	USBCtrlTrfRxService@byteToRead,w
  9202  0F5D  00F2               	movwf	??_USBCtrlTrfRxService
  9203  0F5E  01F3               	clrf	??_USBCtrlTrfRxService+1
  9204  0F5F  0873               	movf	??_USBCtrlTrfRxService+1,w
  9205  0F60  0022               	movlb	2	; select bank2
  9206  0F61  0224               	subwf	((_outPipes+1)^(0+256)+3),w
  9207  0F62  1D03               	skipz
  9208  0F63  2F66               	goto	u2515
  9209  0F64  0872               	movf	??_USBCtrlTrfRxService,w
  9210  0F65  0223               	subwf	(_outPipes^(0+256)+3),w
  9211  0F66                     u2515:
  9212  0F66  1803               	skipnc
  9213  0F67  2F69               	goto	u2511
  9214  0F68  2F6A               	goto	u2510
  9215  0F69                     u2511:
  9216  0F69  2F6E               	goto	l263
  9217  0F6A                     u2510:
  9218  0F6A                     l3619:
  9219                           
  9220                           ;lib/usb/usb_device.c: 1870:     {;lib/usb/usb_device.c: 1871:         byteToRead = (uin
      +                          t8_t)(outPipes[0].wCount.Val);
  9221  0F6A  0823               	movf	(_outPipes^(0+256)+3),w
  9222  0F6B  00F2               	movwf	??_USBCtrlTrfRxService
  9223  0F6C  0872               	movf	??_USBCtrlTrfRxService,w
  9224  0F6D  00F5               	movwf	USBCtrlTrfRxService@byteToRead
  9225  0F6E                     l263:	
  9226                           ;lib/usb/usb_device.c: 1872:     }
  9227                           
  9228                           
  9229                           ;lib/usb/usb_device.c: 1874:     outPipes[0].wCount.Val -= byteToRead;
  9230  0F6E  0875               	movf	USBCtrlTrfRxService@byteToRead,w
  9231  0F6F  00F2               	movwf	??_USBCtrlTrfRxService
  9232  0F70  01F3               	clrf	??_USBCtrlTrfRxService+1
  9233  0F71  0872               	movf	??_USBCtrlTrfRxService,w
  9234  0F72  02A3               	subwf	(_outPipes^(0+256)+3),f
  9235  0F73  0873               	movf	??_USBCtrlTrfRxService+1,w
  9236  0F74  3BA4               	subwfb	((_outPipes+1)^(0+256)+3),f
  9237  0F75                     l3621:
  9238                           
  9239                           ;lib/usb/usb_device.c: 1878:     for(i=0;i<byteToRead;i++)
  9240  0F75  01F4               	clrf	USBCtrlTrfRxService@i
  9241  0F76  2F8A               	goto	l3629
  9242  0F77                     l3623:
  9243                           
  9244                           ;lib/usb/usb_device.c: 1879:     {;lib/usb/usb_device.c: 1880:         *outPipes[0].pDst
      +                          .bRam++ = CtrlTrfData[i];
  9245  0F77  0874               	movf	USBCtrlTrfRxService@i,w
  9246  0F78  3E68               	addlw	104
  9247  0F79  0086               	movwf	6
  9248  0F7A  0187               	clrf	7
  9249  0F7B  0801               	movf	1,w
  9250  0F7C  00F2               	movwf	??_USBCtrlTrfRxService
  9251  0F7D  0820               	movf	_outPipes^(0+256),w
  9252  0F7E  0086               	movwf	6
  9253  0F7F  0187               	clrf	7
  9254  0F80  0872               	movf	??_USBCtrlTrfRxService,w
  9255  0F81  0081               	movwf	1
  9256  0F82                     l3625:
  9257  0F82  3001               	movlw	1
  9258  0F83  00F2               	movwf	??_USBCtrlTrfRxService
  9259  0F84  0872               	movf	??_USBCtrlTrfRxService,w
  9260  0F85  07A0               	addwf	_outPipes^(0+256),f
  9261  0F86                     l3627:
  9262                           
  9263                           ;lib/usb/usb_device.c: 1881:     }
  9264  0F86  3001               	movlw	1
  9265  0F87  00F2               	movwf	??_USBCtrlTrfRxService
  9266  0F88  0872               	movf	??_USBCtrlTrfRxService,w
  9267  0F89  07F4               	addwf	USBCtrlTrfRxService@i,f
  9268  0F8A                     l3629:
  9269  0F8A  0875               	movf	USBCtrlTrfRxService@byteToRead,w
  9270  0F8B  0274               	subwf	USBCtrlTrfRxService@i,w
  9271  0F8C  1C03               	skipc
  9272  0F8D  2F8F               	goto	u2521
  9273  0F8E  2F90               	goto	u2520
  9274  0F8F                     u2521:
  9275  0F8F  2F77               	goto	l3623
  9276  0F90                     u2520:
  9277  0F90                     l3631:
  9278                           
  9279                           ;lib/usb/usb_device.c: 1885:     if(outPipes[0].wCount.Val > 0)
  9280  0F90  0823               	movf	(_outPipes^(0+256)+3),w
  9281  0F91  0424               	iorwf	((_outPipes+1)^(0+256)+3),w
  9282  0F92  1903               	btfsc	3,2
  9283  0F93  2F95               	goto	u2531
  9284  0F94  2F96               	goto	u2530
  9285  0F95                     u2531:
  9286  0F95  2FCF               	goto	l3643
  9287  0F96                     u2530:
  9288  0F96                     l3633:
  9289                           
  9290                           ;lib/usb/usb_device.c: 1886:     {;lib/usb/usb_device.c: 1887:         pBDTEntryEP0OutNe
      +                          xt->CNT = 8;
  9291  0F96  0021               	movlb	1	; select bank1
  9292  0F97  083F               	movf	_pBDTEntryEP0OutNext^(0+128),w
  9293  0F98  3E01               	addlw	1
  9294  0F99  00F2               	movwf	??_USBCtrlTrfRxService
  9295  0F9A  3000               	movlw	0
  9296  0F9B  3D40               	addwfc	(_pBDTEntryEP0OutNext+1)^(0+128),w
  9297  0F9C  00F3               	movwf	??_USBCtrlTrfRxService+1
  9298  0F9D  0872               	movf	??_USBCtrlTrfRxService,w
  9299  0F9E  0086               	movwf	6
  9300  0F9F  0873               	movf	??_USBCtrlTrfRxService+1,w
  9301  0FA0  0087               	movwf	7
  9302  0FA1  3008               	movlw	8
  9303  0FA2  0081               	movwf	1
  9304  0FA3                     l3635:
  9305                           
  9306                           ;lib/usb/usb_device.c: 1888:         pBDTEntryEP0OutNext->ADR = (((uint16_t)(&CtrlTrfDat
      +                          a)) & 0x7FFF);
  9307  0FA3  3068               	movlw	104
  9308  0FA4  00F2               	movwf	??_USBCtrlTrfRxService
  9309  0FA5  3000               	movlw	0
  9310  0FA6  00F3               	movwf	??_USBCtrlTrfRxService+1
  9311  0FA7  083F               	movf	_pBDTEntryEP0OutNext^(0+128),w
  9312  0FA8  0086               	movwf	6
  9313  0FA9  0840               	movf	(_pBDTEntryEP0OutNext+1)^(0+128),w
  9314  0FAA  0087               	movwf	7
  9315  0FAB  3142               	addfsr 1,2
  9316  0FAC  0872               	movf	??_USBCtrlTrfRxService,w
  9317  0FAD  3FC0               	movwi [0]fsr1
  9318  0FAE  0873               	movf	??_USBCtrlTrfRxService+1,w
  9319  0FAF  3FC1               	movwi [1]fsr1
  9320  0FB0                     l3637:
  9321                           
  9322                           ;lib/usb/usb_device.c: 1889:         if(pBDTEntryEP0OutCurrent->STAT.DTS == 0)
  9323  0FB0  0853               	movf	_pBDTEntryEP0OutCurrent^(0+128),w
  9324  0FB1  0086               	movwf	6
  9325  0FB2  0187               	clrf	7
  9326  0FB3  1B01               	btfsc	1,6
  9327  0FB4  2FB6               	goto	u2541
  9328  0FB5  2FB7               	goto	u2540
  9329  0FB6                     u2541:
  9330  0FB6  2FC3               	goto	l3641
  9331  0FB7                     u2540:
  9332  0FB7                     l3639:
  9333                           
  9334                           ;lib/usb/usb_device.c: 1890:         {;lib/usb/usb_device.c: 1891:             pBDTEntry
      +                          EP0OutNext->STAT.Val = 0x40|(0x08 & 0x08);
  9335  0FB7  083F               	movf	_pBDTEntryEP0OutNext^(0+128),w
  9336  0FB8  0086               	movwf	6
  9337  0FB9  0840               	movf	(_pBDTEntryEP0OutNext+1)^(0+128),w
  9338  0FBA  0087               	movwf	7
  9339  0FBB  3048               	movlw	72
  9340  0FBC  0081               	movwf	1
  9341                           
  9342                           ;lib/usb/usb_device.c: 1892:             pBDTEntryEP0OutNext->STAT.Val |= 0x80;
  9343  0FBD  083F               	movf	_pBDTEntryEP0OutNext^(0+128),w
  9344  0FBE  0086               	movwf	6
  9345  0FBF  0840               	movf	(_pBDTEntryEP0OutNext+1)^(0+128),w
  9346  0FC0  0087               	movwf	7
  9347  0FC1  1781               	bsf	1,7
  9348                           
  9349                           ;lib/usb/usb_device.c: 1893:         }
  9350  0FC2  2FFF               	goto	l273
  9351  0FC3                     l3641:
  9352                           
  9353                           ;lib/usb/usb_device.c: 1895:         {;lib/usb/usb_device.c: 1896:             pBDTEntry
      +                          EP0OutNext->STAT.Val = 0x00|(0x08 & 0x08);
  9354  0FC3  083F               	movf	_pBDTEntryEP0OutNext^(0+128),w
  9355  0FC4  0086               	movwf	6
  9356  0FC5  0840               	movf	(_pBDTEntryEP0OutNext+1)^(0+128),w
  9357  0FC6  0087               	movwf	7
  9358  0FC7  3008               	movlw	8
  9359  0FC8  0081               	movwf	1
  9360                           
  9361                           ;lib/usb/usb_device.c: 1897:             pBDTEntryEP0OutNext->STAT.Val |= 0x80;
  9362  0FC9  083F               	movf	_pBDTEntryEP0OutNext^(0+128),w
  9363  0FCA  0086               	movwf	6
  9364  0FCB  0840               	movf	(_pBDTEntryEP0OutNext+1)^(0+128),w
  9365  0FCC  0087               	movwf	7
  9366  0FCD  1781               	bsf	1,7
  9367  0FCE  2FFF               	goto	l273
  9368  0FCF                     l3643:
  9369                           
  9370                           ;lib/usb/usb_device.c: 1901:     {;lib/usb/usb_device.c: 1905:         pBDTEntryEP0OutNe
      +                          xt->CNT = 8;
  9371  0FCF  0021               	movlb	1	; select bank1
  9372  0FD0  083F               	movf	_pBDTEntryEP0OutNext^(0+128),w
  9373  0FD1  3E01               	addlw	1
  9374  0FD2  00F2               	movwf	??_USBCtrlTrfRxService
  9375  0FD3  3000               	movlw	0
  9376  0FD4  3D40               	addwfc	(_pBDTEntryEP0OutNext+1)^(0+128),w
  9377  0FD5  00F3               	movwf	??_USBCtrlTrfRxService+1
  9378  0FD6  0872               	movf	??_USBCtrlTrfRxService,w
  9379  0FD7  0086               	movwf	6
  9380  0FD8  0873               	movf	??_USBCtrlTrfRxService+1,w
  9381  0FD9  0087               	movwf	7
  9382  0FDA  3008               	movlw	8
  9383  0FDB  0081               	movwf	1
  9384  0FDC                     l3645:
  9385                           
  9386                           ;lib/usb/usb_device.c: 1906:         pBDTEntryEP0OutNext->ADR = (((uint16_t)(&SetupPkt))
      +                           & 0x7FFF);
  9387  0FDC  3060               	movlw	96
  9388  0FDD  00F2               	movwf	??_USBCtrlTrfRxService
  9389  0FDE  3000               	movlw	0
  9390  0FDF  00F3               	movwf	??_USBCtrlTrfRxService+1
  9391  0FE0  083F               	movf	_pBDTEntryEP0OutNext^(0+128),w
  9392  0FE1  0086               	movwf	6
  9393  0FE2  0840               	movf	(_pBDTEntryEP0OutNext+1)^(0+128),w
  9394  0FE3  0087               	movwf	7
  9395  0FE4  3142               	addfsr 1,2
  9396  0FE5  0872               	movf	??_USBCtrlTrfRxService,w
  9397  0FE6  3FC0               	movwi [0]fsr1
  9398  0FE7  0873               	movf	??_USBCtrlTrfRxService+1,w
  9399  0FE8  3FC1               	movwi [1]fsr1
  9400  0FE9                     l3647:
  9401                           
  9402                           ;lib/usb/usb_device.c: 1910:         pBDTEntryEP0OutNext->STAT.Val = 0x04;
  9403  0FE9  083F               	movf	_pBDTEntryEP0OutNext^(0+128),w
  9404  0FEA  0086               	movwf	6
  9405  0FEB  0840               	movf	(_pBDTEntryEP0OutNext+1)^(0+128),w
  9406  0FEC  0087               	movwf	7
  9407  0FED  3004               	movlw	4
  9408  0FEE  0081               	movwf	1
  9409  0FEF                     l3649:
  9410                           
  9411                           ;lib/usb/usb_device.c: 1911:         pBDTEntryEP0OutNext->STAT.Val |= 0x80;
  9412  0FEF  083F               	movf	_pBDTEntryEP0OutNext^(0+128),w
  9413  0FF0  0086               	movwf	6
  9414  0FF1  0840               	movf	(_pBDTEntryEP0OutNext+1)^(0+128),w
  9415  0FF2  0087               	movwf	7
  9416  0FF3  1781               	bsf	1,7
  9417  0FF4                     l271:
  9418  0FF4  0022               	movlb	2	; select bank2
  9419  0FF5  13A2               	bcf	(_outPipes^(0+256)+2),7
  9420  0FF6                     l3653:
  9421                           
  9422                           ;lib/usb/usb_device.c: 1945:         if(USBDeferStatusStagePacket == 0)
  9423  0FF6  0021               	movlb	1	; select bank1
  9424  0FF7  084A               	movf	_USBDeferStatusStagePacket^(0+128),w	;volatile
  9425  0FF8  1D03               	btfss	3,2
  9426  0FF9  2FFB               	goto	u2551
  9427  0FFA  2FFC               	goto	u2550
  9428  0FFB                     u2551:
  9429  0FFB  2FFF               	goto	l273
  9430  0FFC                     u2550:
  9431  0FFC                     l3655:
  9432                           
  9433                           ;lib/usb/usb_device.c: 1946:         {;lib/usb/usb_device.c: 1947:             USBCtrlEP
      +                          AllowStatusStage();
  9434  0FFC  318B  23C9  318F   	fcall	_USBCtrlEPAllowStatusStage
  9435  0FFF                     l273:
  9436  0FFF  0008               	return
  9437  1000                     __end_of_USBCtrlTrfRxService:
  9438                           
  9439                           	psect	text33
  9440  0BC9                     __ptext33:	
  9441 ;; *************** function _USBCtrlEPAllowStatusStage *****************
  9442 ;; Defined at:
  9443 ;;		line 1420 in file "lib/usb/usb_device.c"
  9444 ;; Parameters:    Size  Location     Type
  9445 ;;		None
  9446 ;; Auto vars:     Size  Location     Type
  9447 ;;		None
  9448 ;; Return value:  Size  Location     Type
  9449 ;;                  1    wreg      void 
  9450 ;; Registers used:
  9451 ;;		wreg, fsr1l, fsr1h, status,2, status,0
  9452 ;; Tracked objects:
  9453 ;;		On entry : 0/0
  9454 ;;		On exit  : 0/0
  9455 ;;		Unchanged: 0/0
  9456 ;; Data sizes:     COMMON   BANK1   BANK2   BANK3   BANK4   BANK5   BANK6   BANK7   BANK8   BANK9  BANK10  BANK11  BANK1
      +2
  9457 ;;      Params:         0       0       0       0       0       0       0       0       0       0       0       0       
      +0
  9458 ;;      Locals:         0       0       0       0       0       0       0       0       0       0       0       0       
      +0
  9459 ;;      Temps:          2       0       0       0       0       0       0       0       0       0       0       0       
      +0
  9460 ;;      Totals:         2       0       0       0       0       0       0       0       0       0       0       0       
      +0
  9461 ;;Total ram usage:        2 bytes
  9462 ;; Hardware stack levels used: 1
  9463 ;; Hardware stack levels required when called: 1
  9464 ;; This function calls:
  9465 ;;		Nothing
  9466 ;; This function is called by:
  9467 ;;		_USBDeviceTasks
  9468 ;;		_USBCtrlEPServiceComplete
  9469 ;;		_USBCtrlTrfRxService
  9470 ;; This function uses a non-reentrant model
  9471 ;;
  9472                           
  9473  0BC9                     _USBCtrlEPAllowStatusStage:	
  9474                           ;psect for function _USBCtrlEPAllowStatusStage
  9475                           
  9476  0BC9                     l3293:	
  9477                           ;incstack = 0
  9478                           ; Regs used in _USBCtrlEPAllowStatusStage: [wreg+fsr1l+fsr1h+status,2+status,0]
  9479                           
  9480                           
  9481                           ;lib/usb/usb_device.c: 1427:     if(USBStatusStageEnabledFlag1 == 0)
  9482  0BC9  0021               	movlb	1	; select bank1
  9483  0BCA  0849               	movf	_USBStatusStageEnabledFlag1^(0+128),w	;volatile
  9484  0BCB  1D03               	btfss	3,2
  9485  0BCC  2BCE               	goto	u2081
  9486  0BCD  2BCF               	goto	u2080
  9487  0BCE                     u2081:
  9488  0BCE  2C3A               	goto	l221
  9489  0BCF                     u2080:
  9490  0BCF                     l3295:
  9491                           
  9492                           ;lib/usb/usb_device.c: 1428:     {;lib/usb/usb_device.c: 1429:         USBStatusStageEna
      +                          bledFlag1 = 1;
  9493  0BCF  3001               	movlw	1
  9494  0BD0  00F0               	movwf	??_USBCtrlEPAllowStatusStage
  9495  0BD1  0870               	movf	??_USBCtrlEPAllowStatusStage,w
  9496  0BD2  00C9               	movwf	_USBStatusStageEnabledFlag1^(0+128)	;volatile
  9497  0BD3                     l3297:
  9498                           
  9499                           ;lib/usb/usb_device.c: 1430:         if(USBStatusStageEnabledFlag2 == 0)
  9500  0BD3  0848               	movf	_USBStatusStageEnabledFlag2^(0+128),w	;volatile
  9501  0BD4  1D03               	btfss	3,2
  9502  0BD5  2BD7               	goto	u2091
  9503  0BD6  2BD8               	goto	u2090
  9504  0BD7                     u2091:
  9505  0BD7  2C3A               	goto	l221
  9506  0BD8                     u2090:
  9507  0BD8                     l3299:
  9508                           
  9509                           ;lib/usb/usb_device.c: 1431:         {;lib/usb/usb_device.c: 1432:             USBStatus
      +                          StageEnabledFlag2 = 1;
  9510  0BD8  3001               	movlw	1
  9511  0BD9  00F0               	movwf	??_USBCtrlEPAllowStatusStage
  9512  0BDA  0870               	movf	??_USBCtrlEPAllowStatusStage,w
  9513  0BDB  00C8               	movwf	_USBStatusStageEnabledFlag2^(0+128)	;volatile
  9514  0BDC                     l3301:
  9515                           
  9516                           ;lib/usb/usb_device.c: 1436:             if(controlTransferState == 2)
  9517  0BDC  3002               	movlw	2
  9518  0BDD  0651               	xorwf	_controlTransferState^(0+128),w
  9519  0BDE  1D03               	btfss	3,2
  9520  0BDF  2BE1               	goto	u2101
  9521  0BE0  2BE2               	goto	u2100
  9522  0BE1                     u2101:
  9523  0BE1  2BF4               	goto	l3309
  9524  0BE2                     u2100:
  9525  0BE2                     l3303:
  9526                           
  9527                           ;lib/usb/usb_device.c: 1437:             {;lib/usb/usb_device.c: 1438:                 p
      +                          BDTEntryIn[0]->CNT = 0;
  9528  0BE2  0830               	movf	_pBDTEntryIn^(0+128),w
  9529  0BE3  0086               	movwf	6
  9530  0BE4  0831               	movf	(_pBDTEntryIn+1)^(0+128),w
  9531  0BE5  0087               	movwf	7
  9532  0BE6  3141               	addfsr 1,1
  9533  0BE7  0181               	clrf	1
  9534  0BE8                     l3305:
  9535                           
  9536                           ;lib/usb/usb_device.c: 1439:                 pBDTEntryIn[0]->STAT.Val = 0x40|(0x08 & 0x0
      +                          8);
  9537  0BE8  0830               	movf	_pBDTEntryIn^(0+128),w
  9538  0BE9  0086               	movwf	6
  9539  0BEA  0831               	movf	(_pBDTEntryIn+1)^(0+128),w
  9540  0BEB  0087               	movwf	7
  9541  0BEC  3048               	movlw	72
  9542  0BED  0081               	movwf	1
  9543  0BEE                     l3307:
  9544                           
  9545                           ;lib/usb/usb_device.c: 1440:                 pBDTEntryIn[0]->STAT.Val |= 0x80;
  9546  0BEE  0830               	movf	_pBDTEntryIn^(0+128),w
  9547  0BEF  0086               	movwf	6
  9548  0BF0  0831               	movf	(_pBDTEntryIn+1)^(0+128),w
  9549  0BF1  0087               	movwf	7
  9550  0BF2  1781               	bsf	1,7
  9551                           
  9552                           ;lib/usb/usb_device.c: 1441:             }
  9553  0BF3  2C3A               	goto	l221
  9554  0BF4                     l3309:
  9555  0BF4  0351               	decf	_controlTransferState^(0+128),w
  9556  0BF5  1D03               	btfss	3,2
  9557  0BF6  2BF8               	goto	u2111
  9558  0BF7  2BF9               	goto	u2110
  9559  0BF8                     u2111:
  9560  0BF8  2C3A               	goto	l217
  9561  0BF9                     u2110:
  9562  0BF9                     l3311:
  9563                           
  9564                           ;lib/usb/usb_device.c: 1443:             {;lib/usb/usb_device.c: 1444:                 B
      +                          othEP0OutUOWNsSet = 0;
  9565  0BF9  01CC               	clrf	_BothEP0OutUOWNsSet^(0+128)
  9566  0BFA                     l3313:
  9567                           
  9568                           ;lib/usb/usb_device.c: 1449:                     pBDTEntryEP0OutCurrent->CNT = 8;
  9569  0BFA  3008               	movlw	8
  9570  0BFB  00F0               	movwf	??_USBCtrlEPAllowStatusStage
  9571  0BFC  0A53               	incf	_pBDTEntryEP0OutCurrent^(0+128),w
  9572  0BFD  0086               	movwf	6
  9573  0BFE  0187               	clrf	7
  9574  0BFF  0870               	movf	??_USBCtrlEPAllowStatusStage,w
  9575  0C00  0081               	movwf	1
  9576  0C01                     l3315:
  9577                           
  9578                           ;lib/usb/usb_device.c: 1450:                     pBDTEntryEP0OutCurrent->ADR = (((uint16
      +                          _t)(&SetupPkt)) & 0x7FFF);
  9579  0C01  3060               	movlw	96
  9580  0C02  00F0               	movwf	??_USBCtrlEPAllowStatusStage
  9581  0C03  3000               	movlw	0
  9582  0C04  00F1               	movwf	??_USBCtrlEPAllowStatusStage+1
  9583  0C05  0853               	movf	_pBDTEntryEP0OutCurrent^(0+128),w
  9584  0C06  3E02               	addlw	2
  9585  0C07  0086               	movwf	6
  9586  0C08  0187               	clrf	7
  9587  0C09  0870               	movf	??_USBCtrlEPAllowStatusStage,w
  9588  0C0A  3FC0               	movwi [0]fsr1
  9589  0C0B  0871               	movf	??_USBCtrlEPAllowStatusStage+1,w
  9590  0C0C  3FC1               	movwi [1]fsr1
  9591  0C0D                     l3317:
  9592                           
  9593                           ;lib/usb/usb_device.c: 1451:                     pBDTEntryEP0OutCurrent->STAT.Val = 0x04
      +                          ;
  9594  0C0D  3004               	movlw	4
  9595  0C0E  00F0               	movwf	??_USBCtrlEPAllowStatusStage
  9596  0C0F  0853               	movf	_pBDTEntryEP0OutCurrent^(0+128),w
  9597  0C10  0086               	movwf	6
  9598  0C11  0187               	clrf	7
  9599  0C12  0870               	movf	??_USBCtrlEPAllowStatusStage,w
  9600  0C13  0081               	movwf	1
  9601  0C14                     l3319:
  9602                           
  9603                           ;lib/usb/usb_device.c: 1452:                     pBDTEntryEP0OutCurrent->STAT.Val |= 0x8
      +                          0;
  9604  0C14  0853               	movf	_pBDTEntryEP0OutCurrent^(0+128),w
  9605  0C15  0086               	movwf	6
  9606  0C16  0187               	clrf	7
  9607  0C17  1781               	bsf	1,7
  9608  0C18                     l3321:
  9609                           
  9610                           ;lib/usb/usb_device.c: 1453:                     BothEP0OutUOWNsSet = 1;
  9611  0C18  01CC               	clrf	_BothEP0OutUOWNsSet^(0+128)
  9612  0C19  0ACC               	incf	_BothEP0OutUOWNsSet^(0+128),f
  9613  0C1A                     l3323:
  9614                           
  9615                           ;lib/usb/usb_device.c: 1457:                 pBDTEntryEP0OutNext->CNT = 8;
  9616  0C1A  083F               	movf	_pBDTEntryEP0OutNext^(0+128),w
  9617  0C1B  3E01               	addlw	1
  9618  0C1C  00F0               	movwf	??_USBCtrlEPAllowStatusStage
  9619  0C1D  3000               	movlw	0
  9620  0C1E  3D40               	addwfc	(_pBDTEntryEP0OutNext+1)^(0+128),w
  9621  0C1F  00F1               	movwf	??_USBCtrlEPAllowStatusStage+1
  9622  0C20  0870               	movf	??_USBCtrlEPAllowStatusStage,w
  9623  0C21  0086               	movwf	6
  9624  0C22  0871               	movf	??_USBCtrlEPAllowStatusStage+1,w
  9625  0C23  0087               	movwf	7
  9626  0C24  3008               	movlw	8
  9627  0C25  0081               	movwf	1
  9628  0C26                     l3325:
  9629                           
  9630                           ;lib/usb/usb_device.c: 1458:                 pBDTEntryEP0OutNext->ADR = (((uint16_t)(&Se
      +                          tupPkt)) & 0x7FFF);
  9631  0C26  3060               	movlw	96
  9632  0C27  00F0               	movwf	??_USBCtrlEPAllowStatusStage
  9633  0C28  3000               	movlw	0
  9634  0C29  00F1               	movwf	??_USBCtrlEPAllowStatusStage+1
  9635  0C2A  083F               	movf	_pBDTEntryEP0OutNext^(0+128),w
  9636  0C2B  0086               	movwf	6
  9637  0C2C  0840               	movf	(_pBDTEntryEP0OutNext+1)^(0+128),w
  9638  0C2D  0087               	movwf	7
  9639  0C2E  3142               	addfsr 1,2
  9640  0C2F  0870               	movf	??_USBCtrlEPAllowStatusStage,w
  9641  0C30  3FC0               	movwi [0]fsr1
  9642  0C31  0871               	movf	??_USBCtrlEPAllowStatusStage+1,w
  9643  0C32  3FC1               	movwi [1]fsr1
  9644  0C33                     l3327:
  9645                           
  9646                           ;lib/usb/usb_device.c: 1459:                 pBDTEntryEP0OutNext->STAT.Val = 0x80;
  9647  0C33  083F               	movf	_pBDTEntryEP0OutNext^(0+128),w
  9648  0C34  0086               	movwf	6
  9649  0C35  0840               	movf	(_pBDTEntryEP0OutNext+1)^(0+128),w
  9650  0C36  0087               	movwf	7
  9651  0C37  3080               	movlw	128
  9652  0C38  0081               	movwf	1
  9653  0C39  2C3A               	goto	l221
  9654  0C3A                     l217:	
  9655                           ;lib/usb/usb_device.c: 1461:         }
  9656                           
  9657  0C3A                     l221:
  9658  0C3A  0008               	return
  9659  0C3B                     __end_of_USBCtrlEPAllowStatusStage:
  9660                           
  9661                           	psect	text34
  9662  0CB0                     __ptext34:	
  9663 ;; *************** function _USBCtrlTrfInHandler *****************
  9664 ;; Defined at:
  9665 ;;		line 2599 in file "lib/usb/usb_device.c"
  9666 ;; Parameters:    Size  Location     Type
  9667 ;;		None
  9668 ;; Auto vars:     Size  Location     Type
  9669 ;;  lastDTS         1    5[COMMON] unsigned char 
  9670 ;; Return value:  Size  Location     Type
  9671 ;;                  1    wreg      void 
  9672 ;; Registers used:
  9673 ;;		wreg, fsr0l, fsr0h, fsr1l, fsr1h, status,2, status,0, pclath, cstack
  9674 ;; Tracked objects:
  9675 ;;		On entry : 0/0
  9676 ;;		On exit  : 0/0
  9677 ;;		Unchanged: 0/0
  9678 ;; Data sizes:     COMMON   BANK1   BANK2   BANK3   BANK4   BANK5   BANK6   BANK7   BANK8   BANK9  BANK10  BANK11  BANK1
      +2
  9679 ;;      Params:         0       0       0       0       0       0       0       0       0       0       0       0       
      +0
  9680 ;;      Locals:         1       0       0       0       0       0       0       0       0       0       0       0       
      +0
  9681 ;;      Temps:          2       0       0       0       0       0       0       0       0       0       0       0       
      +0
  9682 ;;      Totals:         3       0       0       0       0       0       0       0       0       0       0       0       
      +0
  9683 ;;Total ram usage:        3 bytes
  9684 ;; Hardware stack levels used: 1
  9685 ;; Hardware stack levels required when called: 2
  9686 ;; This function calls:
  9687 ;;		_USBCtrlTrfTxService
  9688 ;; This function is called by:
  9689 ;;		_USBCtrlEPService
  9690 ;; This function uses a non-reentrant model
  9691 ;;
  9692                           
  9693  0CB0                     _USBCtrlTrfInHandler:	
  9694                           ;psect for function _USBCtrlTrfInHandler
  9695                           
  9696  0CB0                     l3757:	
  9697                           ;incstack = 0
  9698                           ; Regs used in _USBCtrlTrfInHandler: [wreg-fsr1h+status,2+status,0+pclath+cstack]
  9699                           
  9700                           
  9701                           ;lib/usb/usb_device.c: 2601:     uint8_t lastDTS;;lib/usb/usb_device.c: 2603:     lastDT
      +                          S = pBDTEntryIn[0]->STAT.DTS;
  9702  0CB0  0021               	movlb	1	; select bank1
  9703  0CB1  0830               	movf	_pBDTEntryIn^(0+128),w
  9704  0CB2  0086               	movwf	6
  9705  0CB3  0831               	movf	(_pBDTEntryIn+1)^(0+128),w
  9706  0CB4  0087               	movwf	7
  9707  0CB5  3000               	movlw	0
  9708  0CB6  1B01               	btfsc	1,6
  9709  0CB7  3001               	movlw	1
  9710  0CB8  00F5               	movwf	USBCtrlTrfInHandler@lastDTS
  9711  0CB9                     l3759:
  9712                           
  9713                           ;lib/usb/usb_device.c: 2606:     pBDTEntryIn[0] = (volatile BDT_ENTRY*)(((uint16_t)pBDTE
      +                          ntryIn[0]) ^ 0x0004);
  9714  0CB9  3004               	movlw	4
  9715  0CBA  0630               	xorwf	_pBDTEntryIn^(0+128),w
  9716  0CBB  00B0               	movwf	_pBDTEntryIn^(0+128)
  9717  0CBC  3000               	movlw	0
  9718  0CBD  0631               	xorwf	(_pBDTEntryIn+1)^(0+128),w
  9719  0CBE  00B1               	movwf	(_pBDTEntryIn+1)^(0+128)
  9720  0CBF                     l3761:
  9721                           
  9722                           ;lib/usb/usb_device.c: 2611:     if(USBDeviceState == ADR_PENDING_STATE)
  9723  0CBF  3008               	movlw	8
  9724  0CC0  0654               	xorwf	_USBDeviceState^(0+128),w
  9725  0CC1  1D03               	btfss	3,2
  9726  0CC2  2CC4               	goto	u2601
  9727  0CC3  2CC5               	goto	u2600
  9728  0CC4                     u2601:
  9729  0CC4  2CDA               	goto	l3771
  9730  0CC5                     u2600:
  9731  0CC5                     l3763:
  9732                           
  9733                           ;lib/usb/usb_device.c: 2612:     {;lib/usb/usb_device.c: 2613:         UADDR = (SetupPkt
      +                          .bDevADR & 0x7F);
  9734  0CC5  0020               	movlb	0	; select bank0
  9735  0CC6  0862               	movf	98,w	;volatile
  9736  0CC7  397F               	andlw	127
  9737  0CC8  003D               	movlb	29	; select bank29
  9738  0CC9  0096               	movwf	22	;volatile
  9739  0CCA                     l3765:
  9740                           
  9741                           ;lib/usb/usb_device.c: 2614:         if(UADDR != 0u)
  9742  0CCA  0816               	movf	22,w	;volatile
  9743  0CCB  1903               	btfsc	3,2
  9744  0CCC  2CCE               	goto	u2611
  9745  0CCD  2CCF               	goto	u2610
  9746  0CCE                     u2611:
  9747  0CCE  2CD5               	goto	l3769
  9748  0CCF                     u2610:
  9749  0CCF                     l3767:
  9750                           
  9751                           ;lib/usb/usb_device.c: 2615:         {;lib/usb/usb_device.c: 2616:             USBDevice
      +                          State=ADDRESS_STATE;
  9752  0CCF  3010               	movlw	16
  9753  0CD0  00F3               	movwf	??_USBCtrlTrfInHandler
  9754  0CD1  0873               	movf	??_USBCtrlTrfInHandler,w
  9755  0CD2  0021               	movlb	1	; select bank1
  9756  0CD3  00D4               	movwf	_USBDeviceState^(0+128)
  9757                           
  9758                           ;lib/usb/usb_device.c: 2617:         }
  9759  0CD4  2CDA               	goto	l3771
  9760  0CD5                     l3769:
  9761                           
  9762                           ;lib/usb/usb_device.c: 2619:         {;lib/usb/usb_device.c: 2620:             USBDevice
      +                          State=DEFAULT_STATE;
  9763  0CD5  3004               	movlw	4
  9764  0CD6  00F3               	movwf	??_USBCtrlTrfInHandler
  9765  0CD7  0873               	movf	??_USBCtrlTrfInHandler,w
  9766  0CD8  0021               	movlb	1	; select bank1
  9767  0CD9  00D4               	movwf	_USBDeviceState^(0+128)
  9768  0CDA                     l3771:
  9769                           
  9770                           ;lib/usb/usb_device.c: 2625:     if(controlTransferState == 1)
  9771  0CDA  0351               	decf	_controlTransferState^(0+128),w
  9772  0CDB  1D03               	btfss	3,2
  9773  0CDC  2CDE               	goto	u2621
  9774  0CDD  2CDF               	goto	u2620
  9775  0CDE                     u2621:
  9776  0CDE  2D1F               	goto	l349
  9777  0CDF                     u2620:
  9778  0CDF                     l3773:
  9779                           
  9780                           ;lib/usb/usb_device.c: 2626:     {;lib/usb/usb_device.c: 2627:         pBDTEntryIn[0]->A
      +                          DR = (((uint16_t)(CtrlTrfData)) & 0x7FFF);
  9781  0CDF  3068               	movlw	104
  9782  0CE0  00F3               	movwf	??_USBCtrlTrfInHandler
  9783  0CE1  3000               	movlw	0
  9784  0CE2  00F4               	movwf	??_USBCtrlTrfInHandler+1
  9785  0CE3  0830               	movf	_pBDTEntryIn^(0+128),w
  9786  0CE4  0086               	movwf	6
  9787  0CE5  0831               	movf	(_pBDTEntryIn+1)^(0+128),w
  9788  0CE6  0087               	movwf	7
  9789  0CE7  3142               	addfsr 1,2
  9790  0CE8  0873               	movf	??_USBCtrlTrfInHandler,w
  9791  0CE9  3FC0               	movwi [0]fsr1
  9792  0CEA  0874               	movf	??_USBCtrlTrfInHandler+1,w
  9793  0CEB  3FC1               	movwi [1]fsr1
  9794  0CEC                     l3775:
  9795                           
  9796                           ;lib/usb/usb_device.c: 2628:         USBCtrlTrfTxService();
  9797  0CEC  318C  243B  318C   	fcall	_USBCtrlTrfTxService
  9798  0CEF                     l3777:
  9799                           
  9800                           ;lib/usb/usb_device.c: 2634:         if(shortPacketStatus == 2)
  9801  0CEF  3002               	movlw	2
  9802  0CF0  0021               	movlb	1	; select bank1
  9803  0CF1  0652               	xorwf	_shortPacketStatus^(0+128),w
  9804  0CF2  1D03               	btfss	3,2
  9805  0CF3  2CF5               	goto	u2631
  9806  0CF4  2CF6               	goto	u2630
  9807  0CF5                     u2631:
  9808  0CF5  2D02               	goto	l3781
  9809  0CF6                     u2630:
  9810  0CF6                     l3779:
  9811                           
  9812                           ;lib/usb/usb_device.c: 2635:         {;lib/usb/usb_device.c: 2638:             pBDTEntry
      +                          In[0]->STAT.Val = 0x04;
  9813  0CF6  0830               	movf	_pBDTEntryIn^(0+128),w
  9814  0CF7  0086               	movwf	6
  9815  0CF8  0831               	movf	(_pBDTEntryIn+1)^(0+128),w
  9816  0CF9  0087               	movwf	7
  9817  0CFA  3004               	movlw	4
  9818  0CFB  0081               	movwf	1
  9819                           
  9820                           ;lib/usb/usb_device.c: 2639:             pBDTEntryIn[0]->STAT.Val |= 0x80;
  9821  0CFC  0830               	movf	_pBDTEntryIn^(0+128),w
  9822  0CFD  0086               	movwf	6
  9823  0CFE  0831               	movf	(_pBDTEntryIn+1)^(0+128),w
  9824  0CFF  0087               	movwf	7
  9825  0D00  1781               	bsf	1,7
  9826                           
  9827                           ;lib/usb/usb_device.c: 2640:         }
  9828  0D01  2D27               	goto	l357
  9829  0D02                     l3781:
  9830                           
  9831                           ;lib/usb/usb_device.c: 2642:         {;lib/usb/usb_device.c: 2643:             if(lastDT
      +                          S == 0)
  9832  0D02  0875               	movf	USBCtrlTrfInHandler@lastDTS,w
  9833  0D03  1D03               	btfss	3,2
  9834  0D04  2D06               	goto	u2641
  9835  0D05  2D07               	goto	u2640
  9836  0D06                     u2641:
  9837  0D06  2D13               	goto	l3785
  9838  0D07                     u2640:
  9839  0D07                     l3783:
  9840                           
  9841                           ;lib/usb/usb_device.c: 2644:             {;lib/usb/usb_device.c: 2645:                 p
      +                          BDTEntryIn[0]->STAT.Val = 0x40|(0x08 & 0x08);
  9842  0D07  0830               	movf	_pBDTEntryIn^(0+128),w
  9843  0D08  0086               	movwf	6
  9844  0D09  0831               	movf	(_pBDTEntryIn+1)^(0+128),w
  9845  0D0A  0087               	movwf	7
  9846  0D0B  3048               	movlw	72
  9847  0D0C  0081               	movwf	1
  9848                           
  9849                           ;lib/usb/usb_device.c: 2646:                 pBDTEntryIn[0]->STAT.Val |= 0x80;
  9850  0D0D  0830               	movf	_pBDTEntryIn^(0+128),w
  9851  0D0E  0086               	movwf	6
  9852  0D0F  0831               	movf	(_pBDTEntryIn+1)^(0+128),w
  9853  0D10  0087               	movwf	7
  9854  0D11  1781               	bsf	1,7
  9855                           
  9856                           ;lib/usb/usb_device.c: 2647:             }
  9857  0D12  2D27               	goto	l357
  9858  0D13                     l3785:
  9859                           
  9860                           ;lib/usb/usb_device.c: 2649:             {;lib/usb/usb_device.c: 2650:                 p
      +                          BDTEntryIn[0]->STAT.Val = 0x00|(0x08 & 0x08);
  9861  0D13  0830               	movf	_pBDTEntryIn^(0+128),w
  9862  0D14  0086               	movwf	6
  9863  0D15  0831               	movf	(_pBDTEntryIn+1)^(0+128),w
  9864  0D16  0087               	movwf	7
  9865  0D17  3008               	movlw	8
  9866  0D18  0081               	movwf	1
  9867                           
  9868                           ;lib/usb/usb_device.c: 2651:                 pBDTEntryIn[0]->STAT.Val |= 0x80;
  9869  0D19  0830               	movf	_pBDTEntryIn^(0+128),w
  9870  0D1A  0086               	movwf	6
  9871  0D1B  0831               	movf	(_pBDTEntryIn+1)^(0+128),w
  9872  0D1C  0087               	movwf	7
  9873  0D1D  1781               	bsf	1,7
  9874  0D1E  2D27               	goto	l357
  9875  0D1F                     l349:	
  9876                           ;lib/usb/usb_device.c: 2655:  else
  9877                           
  9878                           
  9879                           ;lib/usb/usb_device.c: 2656:  {;lib/usb/usb_device.c: 2660:         if(outPipes[0].info.
      +                          bits.busy == 1)
  9880  0D1F  0022               	movlb	2	; select bank2
  9881  0D20  1FA2               	btfss	(_outPipes^(0+256)+2),7
  9882  0D21  2D23               	goto	u2651
  9883  0D22  2D24               	goto	u2650
  9884  0D23                     u2651:
  9885  0D23  2D25               	goto	l3789
  9886  0D24                     u2650:
  9887  0D24                     l356:	
  9888                           ;lib/usb/usb_device.c: 2665:             }
  9889                           
  9890                           
  9891                           ;lib/usb/usb_device.c: 2666:             outPipes[0].info.bits.busy = 0;
  9892  0D24  13A2               	bcf	(_outPipes^(0+256)+2),7
  9893  0D25                     l3789:
  9894                           
  9895                           ;lib/usb/usb_device.c: 2669:         controlTransferState = 0;
  9896  0D25  0021               	movlb	1	; select bank1
  9897  0D26  01D1               	clrf	_controlTransferState^(0+128)
  9898  0D27                     l357:
  9899  0D27  0008               	return
  9900  0D28                     __end_of_USBCtrlTrfInHandler:
  9901                           
  9902                           	psect	text35
  9903  0C3B                     __ptext35:	
  9904 ;; *************** function _USBCtrlTrfTxService *****************
  9905 ;; Defined at:
  9906 ;;		line 1775 in file "lib/usb/usb_device.c"
  9907 ;; Parameters:    Size  Location     Type
  9908 ;;		None
  9909 ;; Auto vars:     Size  Location     Type
  9910 ;;  byteToSend      1    2[COMMON] unsigned char 
  9911 ;; Return value:  Size  Location     Type
  9912 ;;                  1    wreg      void 
  9913 ;; Registers used:
  9914 ;;		wreg, fsr0l, fsr0h, fsr1l, fsr1h, status,2, status,0, pclath
  9915 ;; Tracked objects:
  9916 ;;		On entry : 0/0
  9917 ;;		On exit  : 0/0
  9918 ;;		Unchanged: 0/0
  9919 ;; Data sizes:     COMMON   BANK1   BANK2   BANK3   BANK4   BANK5   BANK6   BANK7   BANK8   BANK9  BANK10  BANK11  BANK1
      +2
  9920 ;;      Params:         0       0       0       0       0       0       0       0       0       0       0       0       
      +0
  9921 ;;      Locals:         1       0       0       0       0       0       0       0       0       0       0       0       
      +0
  9922 ;;      Temps:          2       0       0       0       0       0       0       0       0       0       0       0       
      +0
  9923 ;;      Totals:         3       0       0       0       0       0       0       0       0       0       0       0       
      +0
  9924 ;;Total ram usage:        3 bytes
  9925 ;; Hardware stack levels used: 1
  9926 ;; Hardware stack levels required when called: 1
  9927 ;; This function calls:
  9928 ;;		Nothing
  9929 ;; This function is called by:
  9930 ;;		_USBCtrlEPAllowDataStage
  9931 ;;		_USBCtrlTrfInHandler
  9932 ;; This function uses a non-reentrant model
  9933 ;;
  9934                           
  9935  0C3B                     _USBCtrlTrfTxService:	
  9936                           ;psect for function _USBCtrlTrfTxService
  9937                           
  9938  0C3B                     l3211:	
  9939                           ;incstack = 0
  9940                           ; Regs used in _USBCtrlTrfTxService: [wreg-fsr1h+status,2+status,0+pclath]
  9941                           
  9942                           
  9943                           ;lib/usb/usb_device.c: 1777:     uint8_t byteToSend;;lib/usb/usb_device.c: 1781:     byt
      +                          eToSend = 8;
  9944  0C3B  3008               	movlw	8
  9945  0C3C  00F0               	movwf	??_USBCtrlTrfTxService
  9946  0C3D  0870               	movf	??_USBCtrlTrfTxService,w
  9947  0C3E  00F2               	movwf	USBCtrlTrfTxService@byteToSend
  9948                           
  9949                           ;lib/usb/usb_device.c: 1782:     if(inPipes[0].wCount.Val < (uint8_t)8)
  9950  0C3F  3000               	movlw	0
  9951  0C40  0021               	movlb	1	; select bank1
  9952  0C41  023C               	subwf	((_inPipes+1)^(0+128)+3),w
  9953  0C42  3008               	movlw	8
  9954  0C43  1903               	skipnz
  9955  0C44  023B               	subwf	(_inPipes^(0+128)+3),w
  9956  0C45  1803               	skipnc
  9957  0C46  2C48               	goto	u1971
  9958  0C47  2C49               	goto	u1970
  9959  0C48                     u1971:
  9960  0C48  2C5E               	goto	l248
  9961  0C49                     u1970:
  9962  0C49                     l3213:
  9963                           
  9964                           ;lib/usb/usb_device.c: 1783:     {;lib/usb/usb_device.c: 1784:         byteToSend = (uin
      +                          t8_t)(inPipes[0].wCount.Val);
  9965  0C49  083B               	movf	(_inPipes^(0+128)+3),w
  9966  0C4A  00F0               	movwf	??_USBCtrlTrfTxService
  9967  0C4B  0870               	movf	??_USBCtrlTrfTxService,w
  9968  0C4C  00F2               	movwf	USBCtrlTrfTxService@byteToSend
  9969  0C4D                     l3215:
  9970                           
  9971                           ;lib/usb/usb_device.c: 1791:         if(shortPacketStatus == 0)
  9972  0C4D  0852               	movf	_shortPacketStatus^(0+128),w
  9973  0C4E  1D03               	btfss	3,2
  9974  0C4F  2C51               	goto	u1981
  9975  0C50  2C52               	goto	u1980
  9976  0C51                     u1981:
  9977  0C51  2C55               	goto	l3219
  9978  0C52                     u1980:
  9979  0C52                     l3217:
  9980                           
  9981                           ;lib/usb/usb_device.c: 1792:         {;lib/usb/usb_device.c: 1793:             shortPack
      +                          etStatus = 1;
  9982  0C52  01D2               	clrf	_shortPacketStatus^(0+128)
  9983  0C53  0AD2               	incf	_shortPacketStatus^(0+128),f
  9984                           
  9985                           ;lib/usb/usb_device.c: 1794:         }
  9986  0C54  2C5E               	goto	l248
  9987  0C55                     l3219:
  9988  0C55  0352               	decf	_shortPacketStatus^(0+128),w
  9989  0C56  1D03               	btfss	3,2
  9990  0C57  2C59               	goto	u1991
  9991  0C58  2C5A               	goto	u1990
  9992  0C59                     u1991:
  9993  0C59  2C5E               	goto	l248
  9994  0C5A                     u1990:
  9995  0C5A                     l3221:
  9996                           
  9997                           ;lib/usb/usb_device.c: 1796:         {;lib/usb/usb_device.c: 1797:             shortPack
      +                          etStatus = 2;
  9998  0C5A  3002               	movlw	2
  9999  0C5B  00F0               	movwf	??_USBCtrlTrfTxService
 10000  0C5C  0870               	movf	??_USBCtrlTrfTxService,w
 10001  0C5D  00D2               	movwf	_shortPacketStatus^(0+128)
 10002  0C5E                     l248:	
 10003                           ;lib/usb/usb_device.c: 1799:     }
 10004                           
 10005                           
 10006                           ;lib/usb/usb_device.c: 1803:     inPipes[0].wCount.Val -= byteToSend;
 10007  0C5E  0872               	movf	USBCtrlTrfTxService@byteToSend,w
 10008  0C5F  00F0               	movwf	??_USBCtrlTrfTxService
 10009  0C60  01F1               	clrf	??_USBCtrlTrfTxService+1
 10010  0C61  0870               	movf	??_USBCtrlTrfTxService,w
 10011  0C62  02BB               	subwf	(_inPipes^(0+128)+3),f
 10012  0C63  0871               	movf	??_USBCtrlTrfTxService+1,w
 10013  0C64  3BBC               	subwfb	((_inPipes+1)^(0+128)+3),f
 10014  0C65                     l3223:
 10015                           
 10016                           ;lib/usb/usb_device.c: 1808:     pBDTEntryIn[0]->CNT = byteToSend;
 10017  0C65  0830               	movf	_pBDTEntryIn^(0+128),w
 10018  0C66  3E01               	addlw	1
 10019  0C67  00F0               	movwf	??_USBCtrlTrfTxService
 10020  0C68  3000               	movlw	0
 10021  0C69  3D31               	addwfc	(_pBDTEntryIn+1)^(0+128),w
 10022  0C6A  00F1               	movwf	??_USBCtrlTrfTxService+1
 10023  0C6B  0870               	movf	??_USBCtrlTrfTxService,w
 10024  0C6C  0086               	movwf	6
 10025  0C6D  0871               	movf	??_USBCtrlTrfTxService+1,w
 10026  0C6E  0087               	movwf	7
 10027  0C6F  0872               	movf	USBCtrlTrfTxService@byteToSend,w
 10028  0C70  0081               	movwf	1
 10029  0C71                     l3225:
 10030                           
 10031                           ;lib/usb/usb_device.c: 1812:     pDst = ( uint8_t*)CtrlTrfData;
 10032  0C71  3068               	movlw	104
 10033  0C72  00F0               	movwf	??_USBCtrlTrfTxService
 10034  0C73  0870               	movf	??_USBCtrlTrfTxService,w
 10035  0C74  00D0               	movwf	_pDst^(0+128)
 10036  0C75                     l3227:
 10037                           
 10038                           ;lib/usb/usb_device.c: 1813:     if(inPipes[0].info.bits.ctrl_trf_mem == 0x00)
 10039  0C75  183A               	btfsc	(_inPipes^(0+128)+2),0
 10040  0C76  2C78               	goto	u2001
 10041  0C77  2C79               	goto	u2000
 10042  0C78                     u2001:
 10043  0C78  2CAA               	goto	l3249
 10044  0C79                     u2000:
 10045  0C79  2C8F               	goto	l3239
 10046  0C7A                     l3231:
 10047                           
 10048                           ;lib/usb/usb_device.c: 1816:         {;lib/usb/usb_device.c: 1817:             *pDst++ =
      +                           *inPipes[0].pSrc.bRom++;
 10049  0C7A  0838               	movf	_inPipes^(0+128),w
 10050  0C7B  0084               	movwf	4
 10051  0C7C  0839               	movf	(_inPipes+1)^(0+128),w
 10052  0C7D  0085               	movwf	5
 10053  0C7E  0800               	movf	0,w	;code access
 10054  0C7F  00F0               	movwf	??_USBCtrlTrfTxService
 10055  0C80  0850               	movf	_pDst^(0+128),w
 10056  0C81  0086               	movwf	6
 10057  0C82  0187               	clrf	7
 10058  0C83  0870               	movf	??_USBCtrlTrfTxService,w
 10059  0C84  0081               	movwf	1
 10060  0C85                     l3233:
 10061  0C85  3001               	movlw	1
 10062  0C86  07B8               	addwf	_inPipes^(0+128),f
 10063  0C87  3000               	movlw	0
 10064  0C88  3DB9               	addwfc	(_inPipes+1)^(0+128),f
 10065  0C89                     l3235:
 10066  0C89  3001               	movlw	1
 10067  0C8A  00F0               	movwf	??_USBCtrlTrfTxService
 10068  0C8B  0870               	movf	??_USBCtrlTrfTxService,w
 10069  0C8C  07D0               	addwf	_pDst^(0+128),f
 10070  0C8D                     l3237:
 10071                           
 10072                           ;lib/usb/usb_device.c: 1818:             byteToSend--;
 10073  0C8D  3001               	movlw	1
 10074  0C8E  02F2               	subwf	USBCtrlTrfTxService@byteToSend,f
 10075  0C8F                     l3239:
 10076                           
 10077                           ;lib/usb/usb_device.c: 1815:         while(byteToSend)
 10078  0C8F  0872               	movf	USBCtrlTrfTxService@byteToSend,w
 10079  0C90  1D03               	btfss	3,2
 10080  0C91  2C93               	goto	u2011
 10081  0C92  2C94               	goto	u2010
 10082  0C93                     u2011:
 10083  0C93  2C7A               	goto	l3231
 10084  0C94                     u2010:
 10085  0C94  2CAF               	goto	l260
 10086  0C95                     l3241:
 10087                           
 10088                           ;lib/usb/usb_device.c: 1824:         {;lib/usb/usb_device.c: 1825:             *pDst++ =
      +                           *inPipes[0].pSrc.bRam++;
 10089  0C95  0838               	movf	_inPipes^(0+128),w
 10090  0C96  0084               	movwf	4
 10091  0C97  0839               	movf	(_inPipes+1)^(0+128),w
 10092  0C98  0085               	movwf	5
 10093  0C99  0800               	movf	0,w	;code access
 10094  0C9A  00F0               	movwf	??_USBCtrlTrfTxService
 10095  0C9B  0850               	movf	_pDst^(0+128),w
 10096  0C9C  0086               	movwf	6
 10097  0C9D  0187               	clrf	7
 10098  0C9E  0870               	movf	??_USBCtrlTrfTxService,w
 10099  0C9F  0081               	movwf	1
 10100  0CA0                     l3243:
 10101  0CA0  3001               	movlw	1
 10102  0CA1  07B8               	addwf	_inPipes^(0+128),f
 10103  0CA2  3000               	movlw	0
 10104  0CA3  3DB9               	addwfc	(_inPipes+1)^(0+128),f
 10105  0CA4                     l3245:
 10106  0CA4  3001               	movlw	1
 10107  0CA5  00F0               	movwf	??_USBCtrlTrfTxService
 10108  0CA6  0870               	movf	??_USBCtrlTrfTxService,w
 10109  0CA7  07D0               	addwf	_pDst^(0+128),f
 10110  0CA8                     l3247:
 10111                           
 10112                           ;lib/usb/usb_device.c: 1826:             byteToSend--;
 10113  0CA8  3001               	movlw	1
 10114  0CA9  02F2               	subwf	USBCtrlTrfTxService@byteToSend,f
 10115  0CAA                     l3249:
 10116                           
 10117                           ;lib/usb/usb_device.c: 1823:         while(byteToSend)
 10118  0CAA  0872               	movf	USBCtrlTrfTxService@byteToSend,w
 10119  0CAB  1D03               	btfss	3,2
 10120  0CAC  2CAE               	goto	u2021
 10121  0CAD  2CAF               	goto	u2020
 10122  0CAE                     u2021:
 10123  0CAE  2C95               	goto	l3241
 10124  0CAF                     u2020:
 10125  0CAF                     l260:
 10126  0CAF  0008               	return
 10127  0CB0                     __end_of_USBCtrlTrfTxService:
 10128                           
 10129                           	psect	text36
 10130  1735                     __ptext36:	
 10131 ;; *************** function _MasterinitSPI *****************
 10132 ;; Defined at:
 10133 ;;		line 164 in file "lib/spi.c"
 10134 ;; Parameters:    Size  Location     Type
 10135 ;;		None
 10136 ;; Auto vars:     Size  Location     Type
 10137 ;;		None
 10138 ;; Return value:  Size  Location     Type
 10139 ;;                  1    wreg      void 
 10140 ;; Registers used:
 10141 ;;		wreg
 10142 ;; Tracked objects:
 10143 ;;		On entry : 0/0
 10144 ;;		On exit  : 0/0
 10145 ;;		Unchanged: 0/0
 10146 ;; Data sizes:     COMMON   BANK1   BANK2   BANK3   BANK4   BANK5   BANK6   BANK7   BANK8   BANK9  BANK10  BANK11  BANK1
      +2
 10147 ;;      Params:         0       0       0       0       0       0       0       0       0       0       0       0       
      +0
 10148 ;;      Locals:         0       0       0       0       0       0       0       0       0       0       0       0       
      +0
 10149 ;;      Temps:          0       0       0       0       0       0       0       0       0       0       0       0       
      +0
 10150 ;;      Totals:         0       0       0       0       0       0       0       0       0       0       0       0       
      +0
 10151 ;;Total ram usage:        0 bytes
 10152 ;; Hardware stack levels used: 1
 10153 ;; Hardware stack levels required when called: 1
 10154 ;; This function calls:
 10155 ;;		Nothing
 10156 ;; This function is called by:
 10157 ;;		_main
 10158 ;; This function uses a non-reentrant model
 10159 ;;
 10160                           
 10161  1735                     _MasterinitSPI:	
 10162                           ;psect for function _MasterinitSPI
 10163                           
 10164  1735                     l4093:	
 10165                           ;incstack = 0
 10166                           ; Regs used in _MasterinitSPI: [wreg]
 10167                           
 10168                           
 10169                           ;lib/spi.c: 165:     TRISC3 = 0;TRISC0 = 0;
 10170  1735  0021               	movlb	1	; select bank1
 10171  1736  118E               	bcf	14,3	;volatile
 10172  1737  100E               	bcf	14,0	;volatile
 10173  1738                     l4095:
 10174                           
 10175                           ;lib/spi.c: 168:     SSPADD = 1;
 10176  1738  3001               	movlw	1
 10177  1739  0024               	movlb	4	; select bank4
 10178  173A  0092               	movwf	18	;volatile
 10179                           
 10180                           ;lib/spi.c: 170:     SSPSTAT = SAMPLE_MIDDLE | ACTIVE_TO_IDLE;
 10181  173B  3040               	movlw	64
 10182  173C  0094               	movwf	20	;volatile
 10183                           
 10184                           ;lib/spi.c: 171:     SSPCON = MASTER_OSC_SPADD | IDLE_LOW;
 10185  173D  302A               	movlw	42
 10186  173E  0095               	movwf	21	;volatile
 10187  173F                     l770:
 10188  173F  0008               	return
 10189  1740                     __end_of_MasterinitSPI:
 10190                           
 10191                           	psect	text37
 10192  0537                     __ptext37:	
 10193 ;; *************** function _APP_DeviceJoystickTasks *****************
 10194 ;; Defined at:
 10195 ;;		line 96 in file "lib/app_device_joystick.c"
 10196 ;; Parameters:    Size  Location     Type
 10197 ;;		None
 10198 ;; Auto vars:     Size  Location     Type
 10199 ;;		None
 10200 ;; Return value:  Size  Location     Type
 10201 ;;                  1    wreg      void 
 10202 ;; Registers used:
 10203 ;;		wreg, fsr1l, fsr1h, status,2, status,0, pclath, cstack
 10204 ;; Tracked objects:
 10205 ;;		On entry : 0/0
 10206 ;;		On exit  : 0/0
 10207 ;;		Unchanged: 0/0
 10208 ;; Data sizes:     COMMON   BANK1   BANK2   BANK3   BANK4   BANK5   BANK6   BANK7   BANK8   BANK9  BANK10  BANK11  BANK1
      +2
 10209 ;;      Params:         0       0       0       0       0       0       0       0       0       0       0       0       
      +0
 10210 ;;      Locals:         0       0       0       0       0       0       0       0       0       0       0       0       
      +0
 10211 ;;      Temps:          1       0       0       0       0       0       0       0       0       0       0       0       
      +0
 10212 ;;      Totals:         1       0       0       0       0       0       0       0       0       0       0       0       
      +0
 10213 ;;Total ram usage:        1 bytes
 10214 ;; Hardware stack levels used: 1
 10215 ;; Hardware stack levels required when called: 2
 10216 ;; This function calls:
 10217 ;;		_USBTransferOnePacket
 10218 ;; This function is called by:
 10219 ;;		_main
 10220 ;; This function uses a non-reentrant model
 10221 ;;
 10222                           
 10223  0537                     _APP_DeviceJoystickTasks:	
 10224                           ;psect for function _APP_DeviceJoystickTasks
 10225                           
 10226  0537                     l4111:	
 10227                           ;incstack = 0
 10228                           ; Regs used in _APP_DeviceJoystickTasks: [wreg+fsr1l+fsr1h+status,2+status,0+pclath+csta
      +                          ck]
 10229                           
 10230                           
 10231                           ;lib/app_device_joystick.c: 101:     if( USBDeviceState < CONFIGURED_STATE )
 10232  0537  3020               	movlw	32
 10233  0538  0021               	movlb	1	; select bank1
 10234  0539  0254               	subwf	_USBDeviceState^(0+128),w
 10235  053A  1803               	skipnc
 10236  053B  2D3D               	goto	u3111
 10237  053C  2D3E               	goto	u3110
 10238  053D                     u3111:
 10239  053D  2D3F               	goto	l576
 10240  053E                     u3110:
 10241  053E  2E0E               	goto	l577
 10242  053F                     l576:	
 10243                           ;lib/app_device_joystick.c: 105:     }
 10244                           
 10245                           
 10246                           ;lib/app_device_joystick.c: 111:     if( UCONbits.SUSPND == 1 )
 10247  053F  003D               	movlb	29	; select bank29
 10248  0540  1C8E               	btfss	14,1	;volatile
 10249  0541  2D43               	goto	u3121
 10250  0542  2D44               	goto	u3120
 10251  0543                     u3121:
 10252  0543  2D45               	goto	l4117
 10253  0544                     u3120:
 10254  0544  2E0E               	goto	l577
 10255  0545                     l4117:
 10256                           
 10257                           ;lib/app_device_joystick.c: 118:     if(!((last_HAP_IN != 0x0000) && ((*(volatile uint8_
      +                          t*)last_HAP_IN & 0x80) != 0x00)) && hap_IN_pkt_ready)
 10258  0545  0022               	movlb	2	; select bank2
 10259  0546  082B               	movf	_last_HAP_IN^(0+256),w
 10260  0547  042C               	iorwf	(_last_HAP_IN+1)^(0+256),w
 10261  0548  1903               	btfsc	3,2
 10262  0549  2D4B               	goto	u3131
 10263  054A  2D4C               	goto	u3130
 10264  054B                     u3131:
 10265  054B  2D54               	goto	l4121
 10266  054C                     u3130:
 10267  054C                     l4119:
 10268  054C  082B               	movf	_last_HAP_IN^(0+256),w
 10269  054D  0086               	movwf	6
 10270  054E  082C               	movf	(_last_HAP_IN+1)^(0+256),w
 10271  054F  0087               	movwf	7
 10272  0550  1B81               	btfsc	1,7
 10273  0551  2D53               	goto	u3141
 10274  0552  2D54               	goto	u3140
 10275  0553                     u3141:
 10276  0553  2D97               	goto	l4137
 10277  0554                     u3140:
 10278  0554                     l4121:
 10279  0554  0021               	movlb	1	; select bank1
 10280  0555  0841               	movf	_hap_IN_pkt_ready^(0+128),w
 10281  0556  1903               	btfsc	3,2
 10282  0557  2D59               	goto	u3151
 10283  0558  2D5A               	goto	u3150
 10284  0559                     u3151:
 10285  0559  2D97               	goto	l4137
 10286  055A                     u3150:
 10287  055A                     l4123:
 10288                           
 10289                           ;lib/app_device_joystick.c: 119:     {;lib/app_device_joystick.c: 122:         haptic_in
      +                          [0] = display_output[0];
 10290  055A  30B0               	movlw	176
 10291  055B  0086               	movwf	6
 10292  055C  3021               	movlw	33
 10293  055D  0087               	movwf	7
 10294  055E  0801               	movf	1,w
 10295  055F  00FB               	movwf	??_APP_DeviceJoystickTasks
 10296  0560  087B               	movf	??_APP_DeviceJoystickTasks,w
 10297  0561  00A0               	movwf	32
 10298                           
 10299                           ;lib/app_device_joystick.c: 123:         haptic_in[1] = display_output[1];
 10300  0562  30B0               	movlw	176
 10301  0563  0086               	movwf	6
 10302  0564  3021               	movlw	33
 10303  0565  0087               	movwf	7
 10304  0566  3141               	addfsr 1,1
 10305  0567  0801               	movf	1,w
 10306  0568  00FB               	movwf	??_APP_DeviceJoystickTasks
 10307  0569  087B               	movf	??_APP_DeviceJoystickTasks,w
 10308  056A  00A1               	movwf	33
 10309  056B                     l4125:
 10310                           
 10311                           ;lib/app_device_joystick.c: 124:         haptic_in[2] = TESTB;
 10312  056B  0844               	movf	_TESTB^(0+128),w
 10313  056C  00FB               	movwf	??_APP_DeviceJoystickTasks
 10314  056D  087B               	movf	??_APP_DeviceJoystickTasks,w
 10315  056E  00A2               	movwf	34
 10316  056F                     l4127:
 10317                           
 10318                           ;lib/app_device_joystick.c: 125:         haptic_in[3] = SSPCON1;
 10319  056F  0024               	movlb	4	; select bank4
 10320  0570  0815               	movf	21,w	;volatile
 10321  0571  00FB               	movwf	??_APP_DeviceJoystickTasks
 10322  0572  087B               	movf	??_APP_DeviceJoystickTasks,w
 10323  0573  0021               	movlb	1	; select bank1
 10324  0574  00A3               	movwf	35
 10325  0575                     l4129:
 10326                           
 10327                           ;lib/app_device_joystick.c: 126:         haptic_in[4] = SSPSTAT;
 10328  0575  0024               	movlb	4	; select bank4
 10329  0576  0814               	movf	20,w	;volatile
 10330  0577  00FB               	movwf	??_APP_DeviceJoystickTasks
 10331  0578  087B               	movf	??_APP_DeviceJoystickTasks,w
 10332  0579  0021               	movlb	1	; select bank1
 10333  057A  00A4               	movwf	36
 10334  057B                     l4131:
 10335                           
 10336                           ;lib/app_device_joystick.c: 127:         haptic_in[5] = display_output[63];
 10337  057B  30EF               	movlw	239
 10338  057C  0086               	movwf	6
 10339  057D  3021               	movlw	33
 10340  057E  0087               	movwf	7
 10341  057F  0801               	movf	1,w
 10342  0580  00FB               	movwf	??_APP_DeviceJoystickTasks
 10343  0581  087B               	movf	??_APP_DeviceJoystickTasks,w
 10344  0582  00A5               	movwf	37
 10345  0583                     l4133:
 10346                           
 10347                           ;lib/app_device_joystick.c: 128:         hap_IN_pkt_ready = 0;
 10348  0583  01C1               	clrf	_hap_IN_pkt_ready^(0+128)
 10349  0584                     l4135:
 10350                           
 10351                           ;lib/app_device_joystick.c: 130:         last_HAP_IN = USBTransferOnePacket(1,1,(uint8_t
      +                          *)&haptic_in,sizeof(haptic_in));
 10352  0584  01F0               	clrf	USBTransferOnePacket@dir
 10353  0585  0AF0               	incf	USBTransferOnePacket@dir,f
 10354  0586  30A0               	movlw	160
 10355  0587  00F1               	movwf	USBTransferOnePacket@data
 10356  0588  3000               	movlw	0
 10357  0589  00F2               	movwf	USBTransferOnePacket@data+1
 10358  058A  3010               	movlw	16
 10359  058B  00FB               	movwf	??_APP_DeviceJoystickTasks
 10360  058C  087B               	movf	??_APP_DeviceJoystickTasks,w
 10361  058D  00F3               	movwf	USBTransferOnePacket@len
 10362  058E  3001               	movlw	1
 10363  058F  318E  2633  3185   	fcall	_USBTransferOnePacket
 10364  0592  0871               	movf	?_USBTransferOnePacket+1,w
 10365  0593  0022               	movlb	2	; select bank2
 10366  0594  00AC               	movwf	(_last_HAP_IN+1)^(0+256)
 10367  0595  0870               	movf	?_USBTransferOnePacket,w
 10368  0596  00AB               	movwf	_last_HAP_IN^(0+256)
 10369  0597                     l4137:
 10370                           
 10371                           ;lib/app_device_joystick.c: 134:     if(!((last_HAP_OUT != 0x0000) && ((*(volatile uint8
      +                          _t*)last_HAP_OUT & 0x80) != 0x00)) && hap_OUT_pkt_ready){
 10372  0597  0022               	movlb	2	; select bank2
 10373  0598  0829               	movf	_last_HAP_OUT^(0+256),w
 10374  0599  042A               	iorwf	(_last_HAP_OUT+1)^(0+256),w
 10375  059A  1903               	btfsc	3,2
 10376  059B  2D9D               	goto	u3161
 10377  059C  2D9E               	goto	u3160
 10378  059D                     u3161:
 10379  059D  2DA6               	goto	l4141
 10380  059E                     u3160:
 10381  059E                     l4139:
 10382  059E  0829               	movf	_last_HAP_OUT^(0+256),w
 10383  059F  0086               	movwf	6
 10384  05A0  082A               	movf	(_last_HAP_OUT+1)^(0+256),w
 10385  05A1  0087               	movwf	7
 10386  05A2  1B81               	btfsc	1,7
 10387  05A3  2DA5               	goto	u3171
 10388  05A4  2DA6               	goto	u3170
 10389  05A5                     u3171:
 10390  05A5  2DBE               	goto	l4147
 10391  05A6                     u3170:
 10392  05A6                     l4141:
 10393  05A6  082E               	movf	_hap_OUT_pkt_ready^(0+256),w
 10394  05A7  1903               	btfsc	3,2
 10395  05A8  2DAA               	goto	u3181
 10396  05A9  2DAB               	goto	u3180
 10397  05AA                     u3181:
 10398  05AA  2DBE               	goto	l4147
 10399  05AB                     u3180:
 10400  05AB                     l4143:
 10401                           
 10402                           ;lib/app_device_joystick.c: 135:         hap_OUT_pkt_ready = 0;
 10403  05AB  01AE               	clrf	_hap_OUT_pkt_ready^(0+256)
 10404  05AC                     l4145:
 10405                           
 10406                           ;lib/app_device_joystick.c: 136:         last_HAP_OUT = USBTransferOnePacket(1,0,(uint8_
      +                          t*)&haptic_out,sizeof(haptic_out));
 10407  05AC  01F0               	clrf	USBTransferOnePacket@dir
 10408  05AD  3030               	movlw	48
 10409  05AE  00F1               	movwf	USBTransferOnePacket@data
 10410  05AF  3001               	movlw	1
 10411  05B0  00F2               	movwf	USBTransferOnePacket@data+1
 10412  05B1  3040               	movlw	64
 10413  05B2  00FB               	movwf	??_APP_DeviceJoystickTasks
 10414  05B3  087B               	movf	??_APP_DeviceJoystickTasks,w
 10415  05B4  00F3               	movwf	USBTransferOnePacket@len
 10416  05B5  3001               	movlw	1
 10417  05B6  318E  2633  3185   	fcall	_USBTransferOnePacket
 10418  05B9  0871               	movf	?_USBTransferOnePacket+1,w
 10419  05BA  0022               	movlb	2	; select bank2
 10420  05BB  00AA               	movwf	(_last_HAP_OUT+1)^(0+256)
 10421  05BC  0870               	movf	?_USBTransferOnePacket,w
 10422  05BD  00A9               	movwf	_last_HAP_OUT^(0+256)
 10423  05BE                     l4147:
 10424                           
 10425                           ;lib/app_device_joystick.c: 138:     if(!((last_DSP_OUT != 0x0000) && ((*(volatile uint8
      +                          _t*)last_DSP_OUT & 0x80) != 0x00)) && display_pkt_ready){
 10426  05BE  0023               	movlb	3	; select bank3
 10427  05BF  0836               	movf	_last_DSP_OUT^(0+384),w
 10428  05C0  0437               	iorwf	(_last_DSP_OUT+1)^(0+384),w
 10429  05C1  1903               	btfsc	3,2
 10430  05C2  2DC4               	goto	u3191
 10431  05C3  2DC5               	goto	u3190
 10432  05C4                     u3191:
 10433  05C4  2DCD               	goto	l4151
 10434  05C5                     u3190:
 10435  05C5                     l4149:
 10436  05C5  0836               	movf	_last_DSP_OUT^(0+384),w
 10437  05C6  0086               	movwf	6
 10438  05C7  0837               	movf	(_last_DSP_OUT+1)^(0+384),w
 10439  05C8  0087               	movwf	7
 10440  05C9  1B81               	btfsc	1,7
 10441  05CA  2DCC               	goto	u3201
 10442  05CB  2DCD               	goto	u3200
 10443  05CC                     u3201:
 10444  05CC  2DE6               	goto	l4157
 10445  05CD                     u3200:
 10446  05CD                     l4151:
 10447  05CD  0021               	movlb	1	; select bank1
 10448  05CE  0843               	movf	_display_pkt_ready^(0+128),w
 10449  05CF  1903               	btfsc	3,2
 10450  05D0  2DD2               	goto	u3211
 10451  05D1  2DD3               	goto	u3210
 10452  05D2                     u3211:
 10453  05D2  2DE6               	goto	l4157
 10454  05D3                     u3210:
 10455  05D3                     l4153:
 10456                           
 10457                           ;lib/app_device_joystick.c: 139:         display_pkt_ready = 0;
 10458  05D3  01C3               	clrf	_display_pkt_ready^(0+128)
 10459  05D4                     l4155:
 10460                           
 10461                           ;lib/app_device_joystick.c: 140:         last_DSP_OUT = USBTransferOnePacket(3,0,(uint8_
      +                          t*)&display_output,sizeof(display_output));
 10462  05D4  01F0               	clrf	USBTransferOnePacket@dir
 10463  05D5  30B0               	movlw	176
 10464  05D6  00F1               	movwf	USBTransferOnePacket@data
 10465  05D7  3021               	movlw	33
 10466  05D8  00F2               	movwf	USBTransferOnePacket@data+1
 10467  05D9  3040               	movlw	64
 10468  05DA  00FB               	movwf	??_APP_DeviceJoystickTasks
 10469  05DB  087B               	movf	??_APP_DeviceJoystickTasks,w
 10470  05DC  00F3               	movwf	USBTransferOnePacket@len
 10471  05DD  3003               	movlw	3
 10472  05DE  318E  2633  3185   	fcall	_USBTransferOnePacket
 10473  05E1  0871               	movf	?_USBTransferOnePacket+1,w
 10474  05E2  0023               	movlb	3	; select bank3
 10475  05E3  00B7               	movwf	(_last_DSP_OUT+1)^(0+384)
 10476  05E4  0870               	movf	?_USBTransferOnePacket,w
 10477  05E5  00B6               	movwf	_last_DSP_OUT^(0+384)
 10478  05E6                     l4157:
 10479                           
 10480                           ;lib/app_device_joystick.c: 142:     if(!((last_LED_OUT != 0x0000) && ((*(volatile uint8
      +                          _t*)last_LED_OUT & 0x80) != 0x00)) && LED_pkt_ready){
 10481  05E6  0022               	movlb	2	; select bank2
 10482  05E7  0827               	movf	_last_LED_OUT^(0+256),w
 10483  05E8  0428               	iorwf	(_last_LED_OUT+1)^(0+256),w
 10484  05E9  1903               	btfsc	3,2
 10485  05EA  2DEC               	goto	u3221
 10486  05EB  2DED               	goto	u3220
 10487  05EC                     u3221:
 10488  05EC  2DF5               	goto	l4161
 10489  05ED                     u3220:
 10490  05ED                     l4159:
 10491  05ED  0827               	movf	_last_LED_OUT^(0+256),w
 10492  05EE  0086               	movwf	6
 10493  05EF  0828               	movf	(_last_LED_OUT+1)^(0+256),w
 10494  05F0  0087               	movwf	7
 10495  05F1  1B81               	btfsc	1,7
 10496  05F2  2DF4               	goto	u3231
 10497  05F3  2DF5               	goto	u3230
 10498  05F4                     u3231:
 10499  05F4  2E0E               	goto	l577
 10500  05F5                     u3230:
 10501  05F5                     l4161:
 10502  05F5  0021               	movlb	1	; select bank1
 10503  05F6  0842               	movf	_LED_pkt_ready^(0+128),w
 10504  05F7  1903               	btfsc	3,2
 10505  05F8  2DFA               	goto	u3241
 10506  05F9  2DFB               	goto	u3240
 10507  05FA                     u3241:
 10508  05FA  2E0E               	goto	l577
 10509  05FB                     u3240:
 10510  05FB                     l4163:
 10511                           
 10512                           ;lib/app_device_joystick.c: 143:         LED_pkt_ready = 0;
 10513  05FB  01C2               	clrf	_LED_pkt_ready^(0+128)
 10514  05FC                     l4165:
 10515                           
 10516                           ;lib/app_device_joystick.c: 144:         last_LED_OUT = USBTransferOnePacket(2,0,(uint8_
      +                          t*)&leds_output,sizeof(leds_output));
 10517  05FC  01F0               	clrf	USBTransferOnePacket@dir
 10518  05FD  3030               	movlw	48
 10519  05FE  00F1               	movwf	USBTransferOnePacket@data
 10520  05FF  3021               	movlw	33
 10521  0600  00F2               	movwf	USBTransferOnePacket@data+1
 10522  0601  3031               	movlw	49
 10523  0602  00FB               	movwf	??_APP_DeviceJoystickTasks
 10524  0603  087B               	movf	??_APP_DeviceJoystickTasks,w
 10525  0604  00F3               	movwf	USBTransferOnePacket@len
 10526  0605  3002               	movlw	2
 10527  0606  318E  2633  3185   	fcall	_USBTransferOnePacket
 10528  0609  0871               	movf	?_USBTransferOnePacket+1,w
 10529  060A  0022               	movlb	2	; select bank2
 10530  060B  00A8               	movwf	(_last_LED_OUT+1)^(0+256)
 10531  060C  0870               	movf	?_USBTransferOnePacket,w
 10532  060D  00A7               	movwf	_last_LED_OUT^(0+256)
 10533  060E                     l577:
 10534  060E  0008               	return
 10535  060F                     __end_of_APP_DeviceJoystickTasks:
 10536                           
 10537                           	psect	text38
 10538  0E33                     __ptext38:	
 10539 ;; *************** function _USBTransferOnePacket *****************
 10540 ;; Defined at:
 10541 ;;		line 999 in file "lib/usb/usb_device.c"
 10542 ;; Parameters:    Size  Location     Type
 10543 ;;  ep              1    wreg     unsigned char 
 10544 ;;  dir             1    0[COMMON] unsigned char 
 10545 ;;  data            2    1[COMMON] PTR unsigned char 
 10546 ;;		 -> leds_output(49), haptic_out(64), display_output(64), haptic_in(16), 
 10547 ;;  len             1    3[COMMON] unsigned char 
 10548 ;; Auto vars:     Size  Location     Type
 10549 ;;  ep              1    8[COMMON] unsigned char 
 10550 ;;  handle          2    9[COMMON] PTR volatile struct __BD
 10551 ;;		 -> RAM(4096), NULL(0), BDT(64), 
 10552 ;; Return value:  Size  Location     Type
 10553 ;;                  2    0[COMMON] PTR void 
 10554 ;; Registers used:
 10555 ;;		wreg, fsr1l, fsr1h, status,2, status,0
 10556 ;; Tracked objects:
 10557 ;;		On entry : 0/0
 10558 ;;		On exit  : 0/0
 10559 ;;		Unchanged: 0/0
 10560 ;; Data sizes:     COMMON   BANK1   BANK2   BANK3   BANK4   BANK5   BANK6   BANK7   BANK8   BANK9  BANK10  BANK11  BANK1
      +2
 10561 ;;      Params:         4       0       0       0       0       0       0       0       0       0       0       0       
      +0
 10562 ;;      Locals:         3       0       0       0       0       0       0       0       0       0       0       0       
      +0
 10563 ;;      Temps:          4       0       0       0       0       0       0       0       0       0       0       0       
      +0
 10564 ;;      Totals:        11       0       0       0       0       0       0       0       0       0       0       0       
      +0
 10565 ;;Total ram usage:       11 bytes
 10566 ;; Hardware stack levels used: 1
 10567 ;; Hardware stack levels required when called: 1
 10568 ;; This function calls:
 10569 ;;		Nothing
 10570 ;; This function is called by:
 10571 ;;		_APP_DeviceJoystickTasks
 10572 ;; This function uses a non-reentrant model
 10573 ;;
 10574                           
 10575  0E33                     _USBTransferOnePacket:	
 10576                           ;psect for function _USBTransferOnePacket
 10577                           
 10578                           
 10579                           ;incstack = 0
 10580                           ; Regs used in _USBTransferOnePacket: [wreg+fsr1l+fsr1h+status,2+status,0]
 10581                           ;USBTransferOnePacket@ep stored from wreg
 10582  0E33  00F8               	movwf	USBTransferOnePacket@ep
 10583  0E34                     l3945:
 10584                           
 10585                           ;lib/usb/usb_device.c: 999: void* USBTransferOnePacket(uint8_t ep,uint8_t dir,uint8_t* d
      +                          ata,uint8_t len);lib/usb/usb_device.c: 1000: {;lib/usb/usb_device.c: 1001:     volatile 
      +                          BDT_ENTRY* handle;;lib/usb/usb_device.c: 1004:     if(dir != 0)
 10586  0E34  0870               	movf	USBTransferOnePacket@dir,w
 10587  0E35  1903               	btfsc	3,2
 10588  0E36  2E38               	goto	u2811
 10589  0E37  2E39               	goto	u2810
 10590  0E38                     u2811:
 10591  0E38  2E42               	goto	l3949
 10592  0E39                     u2810:
 10593  0E39                     l3947:
 10594                           
 10595                           ;lib/usb/usb_device.c: 1005:     {;lib/usb/usb_device.c: 1007:         handle = pBDTEntr
      +                          yIn[ep];
 10596  0E39  3578               	lslf	USBTransferOnePacket@ep,w
 10597  0E3A  3EB0               	addlw	(low (_pBDTEntryIn| 0))& (0+255)
 10598  0E3B  0086               	movwf	6
 10599  0E3C  0187               	clrf	7
 10600  0E3D  3F40               	moviw [0]fsr1
 10601  0E3E  00F9               	movwf	USBTransferOnePacket@handle
 10602  0E3F  3F41               	moviw [1]fsr1
 10603  0E40  00FA               	movwf	USBTransferOnePacket@handle+1
 10604                           
 10605                           ;lib/usb/usb_device.c: 1008:     }
 10606  0E41  2E4B               	goto	l3951
 10607  0E42                     l3949:
 10608                           
 10609                           ;lib/usb/usb_device.c: 1010:     {;lib/usb/usb_device.c: 1012:         handle = pBDTEntr
      +                          yOut[ep];
 10610  0E42  3578               	lslf	USBTransferOnePacket@ep,w
 10611  0E43  3EA0               	addlw	(low (_pBDTEntryOut| (0+256)))& (0+255)
 10612  0E44  0086               	movwf	6
 10613  0E45  3001               	movlw	1	; select bank3/4
 10614  0E46  0087               	movwf	7
 10615  0E47  3F40               	moviw [0]fsr1
 10616  0E48  00F9               	movwf	USBTransferOnePacket@handle
 10617  0E49  3F41               	moviw [1]fsr1
 10618  0E4A  00FA               	movwf	USBTransferOnePacket@handle+1
 10619  0E4B                     l3951:
 10620                           
 10621                           ;lib/usb/usb_device.c: 1017:     if(handle == 0)
 10622  0E4B  0879               	movf	USBTransferOnePacket@handle,w
 10623  0E4C  047A               	iorwf	USBTransferOnePacket@handle+1,w
 10624  0E4D  1D03               	btfss	3,2
 10625  0E4E  2E50               	goto	u2821
 10626  0E4F  2E51               	goto	u2820
 10627  0E50                     u2821:
 10628  0E50  2E54               	goto	l3957
 10629  0E51                     u2820:
 10630  0E51                     l3953:
 10631                           
 10632                           ;lib/usb/usb_device.c: 1018:     {;lib/usb/usb_device.c: 1019:         return 0;
 10633  0E51  01F0               	clrf	?_USBTransferOnePacket
 10634  0E52  01F1               	clrf	?_USBTransferOnePacket+1
 10635  0E53  2EB9               	goto	l202
 10636  0E54                     l3957:
 10637                           
 10638                           ;lib/usb/usb_device.c: 1033:     handle->ADR = (((uint16_t)(data)) & 0x7FFF);
 10639  0E54  30FF               	movlw	255
 10640  0E55  0571               	andwf	USBTransferOnePacket@data,w
 10641  0E56  00F4               	movwf	??_USBTransferOnePacket
 10642  0E57  307F               	movlw	127
 10643  0E58  0572               	andwf	USBTransferOnePacket@data+1,w
 10644  0E59  00F5               	movwf	??_USBTransferOnePacket+1
 10645  0E5A  0879               	movf	USBTransferOnePacket@handle,w
 10646  0E5B  0086               	movwf	6
 10647  0E5C  087A               	movf	USBTransferOnePacket@handle+1,w
 10648  0E5D  0087               	movwf	7
 10649  0E5E  3142               	addfsr 1,2
 10650  0E5F  0874               	movf	??_USBTransferOnePacket,w
 10651  0E60  3FC0               	movwi [0]fsr1
 10652  0E61  0875               	movf	??_USBTransferOnePacket+1,w
 10653  0E62  3FC1               	movwi [1]fsr1
 10654  0E63                     l3959:
 10655                           
 10656                           ;lib/usb/usb_device.c: 1034:     handle->CNT = len;
 10657  0E63  0879               	movf	USBTransferOnePacket@handle,w
 10658  0E64  3E01               	addlw	1
 10659  0E65  00F4               	movwf	??_USBTransferOnePacket
 10660  0E66  3000               	movlw	0
 10661  0E67  3D7A               	addwfc	USBTransferOnePacket@handle+1,w
 10662  0E68  00F5               	movwf	??_USBTransferOnePacket+1
 10663  0E69  0874               	movf	??_USBTransferOnePacket,w
 10664  0E6A  0086               	movwf	6
 10665  0E6B  0875               	movf	??_USBTransferOnePacket+1,w
 10666  0E6C  0087               	movwf	7
 10667  0E6D  0873               	movf	USBTransferOnePacket@len,w
 10668  0E6E  0081               	movwf	1
 10669  0E6F                     l3961:
 10670                           
 10671                           ;lib/usb/usb_device.c: 1035:     handle->STAT.Val &= 0x40;
 10672  0E6F  3040               	movlw	64
 10673  0E70  00F4               	movwf	??_USBTransferOnePacket
 10674  0E71  0879               	movf	USBTransferOnePacket@handle,w
 10675  0E72  0086               	movwf	6
 10676  0E73  087A               	movf	USBTransferOnePacket@handle+1,w
 10677  0E74  0087               	movwf	7
 10678  0E75  0874               	movf	??_USBTransferOnePacket,w
 10679  0E76  0581               	andwf	1,f
 10680                           
 10681                           ;lib/usb/usb_device.c: 1036:     handle->STAT.Val |= (0x08 & 0x08);
 10682  0E77  0879               	movf	USBTransferOnePacket@handle,w
 10683  0E78  0086               	movwf	6
 10684  0E79  087A               	movf	USBTransferOnePacket@handle+1,w
 10685  0E7A  0087               	movwf	7
 10686  0E7B  1581               	bsf	1,3
 10687                           
 10688                           ;lib/usb/usb_device.c: 1037:     handle->STAT.Val |= 0x80;
 10689  0E7C  0879               	movf	USBTransferOnePacket@handle,w
 10690  0E7D  0086               	movwf	6
 10691  0E7E  087A               	movf	USBTransferOnePacket@handle+1,w
 10692  0E7F  0087               	movwf	7
 10693  0E80  1781               	bsf	1,7
 10694  0E81                     l3963:
 10695                           
 10696                           ;lib/usb/usb_device.c: 1040:     if(dir != 0)
 10697  0E81  0870               	movf	USBTransferOnePacket@dir,w
 10698  0E82  1903               	btfsc	3,2
 10699  0E83  2E85               	goto	u2831
 10700  0E84  2E86               	goto	u2830
 10701  0E85                     u2831:
 10702  0E85  2E9D               	goto	l3967
 10703  0E86                     u2830:
 10704  0E86                     l3965:
 10705                           
 10706                           ;lib/usb/usb_device.c: 1041:     {;lib/usb/usb_device.c: 1043:         pBDTEntryIn[ep] =
      +                           (BDT_ENTRY*)(((uint16_t)pBDTEntryIn[ep]) ^ 0x0004u);
 10707  0E86  3578               	lslf	USBTransferOnePacket@ep,w
 10708  0E87  3EB0               	addlw	(low (_pBDTEntryIn| 0))& (0+255)
 10709  0E88  0086               	movwf	6
 10710  0E89  0187               	clrf	7
 10711  0E8A  3F40               	moviw [0]fsr1
 10712  0E8B  00F4               	movwf	??_USBTransferOnePacket
 10713  0E8C  3F41               	moviw [1]fsr1
 10714  0E8D  00F5               	movwf	??_USBTransferOnePacket+1
 10715  0E8E  3004               	movlw	4
 10716  0E8F  0674               	xorwf	??_USBTransferOnePacket,w
 10717  0E90  00F6               	movwf	??_USBTransferOnePacket+2
 10718  0E91  3000               	movlw	0
 10719  0E92  0675               	xorwf	??_USBTransferOnePacket+1,w
 10720  0E93  00F7               	movwf	??_USBTransferOnePacket+3
 10721  0E94  3578               	lslf	USBTransferOnePacket@ep,w
 10722  0E95  3EB0               	addlw	(low (_pBDTEntryIn| 0))& (0+255)
 10723  0E96  0086               	movwf	6
 10724  0E97  0187               	clrf	7
 10725  0E98  0876               	movf	??_USBTransferOnePacket+2,w
 10726  0E99  3FC0               	movwi [0]fsr1
 10727  0E9A  0877               	movf	??_USBTransferOnePacket+3,w
 10728  0E9B  3FC1               	movwi [1]fsr1
 10729                           
 10730                           ;lib/usb/usb_device.c: 1044:     }
 10731  0E9C  2EB5               	goto	l3969
 10732  0E9D                     l3967:
 10733                           
 10734                           ;lib/usb/usb_device.c: 1046:     {;lib/usb/usb_device.c: 1048:         pBDTEntryOut[ep] 
      +                          = (BDT_ENTRY*)(((uint16_t)pBDTEntryOut[ep]) ^ 0x0004u);
 10735  0E9D  3578               	lslf	USBTransferOnePacket@ep,w
 10736  0E9E  3EA0               	addlw	(low (_pBDTEntryOut| (0+256)))& (0+255)
 10737  0E9F  0086               	movwf	6
 10738  0EA0  3001               	movlw	1	; select bank3/4
 10739  0EA1  0087               	movwf	7
 10740  0EA2  3F40               	moviw [0]fsr1
 10741  0EA3  00F4               	movwf	??_USBTransferOnePacket
 10742  0EA4  3F41               	moviw [1]fsr1
 10743  0EA5  00F5               	movwf	??_USBTransferOnePacket+1
 10744  0EA6  3004               	movlw	4
 10745  0EA7  0674               	xorwf	??_USBTransferOnePacket,w
 10746  0EA8  00F6               	movwf	??_USBTransferOnePacket+2
 10747  0EA9  3000               	movlw	0
 10748  0EAA  0675               	xorwf	??_USBTransferOnePacket+1,w
 10749  0EAB  00F7               	movwf	??_USBTransferOnePacket+3
 10750  0EAC  3578               	lslf	USBTransferOnePacket@ep,w
 10751  0EAD  3EA0               	addlw	(low (_pBDTEntryOut| (0+256)))& (0+255)
 10752  0EAE  0086               	movwf	6
 10753  0EAF  3001               	movlw	1	; select bank3/4
 10754  0EB0  0087               	movwf	7
 10755  0EB1  0876               	movf	??_USBTransferOnePacket+2,w
 10756  0EB2  3FC0               	movwi [0]fsr1
 10757  0EB3  0877               	movf	??_USBTransferOnePacket+3,w
 10758  0EB4  3FC1               	movwi [1]fsr1
 10759  0EB5                     l3969:
 10760                           
 10761                           ;lib/usb/usb_device.c: 1050:     return (void*)handle;
 10762  0EB5  087A               	movf	USBTransferOnePacket@handle+1,w
 10763  0EB6  00F1               	movwf	?_USBTransferOnePacket+1
 10764  0EB7  0879               	movf	USBTransferOnePacket@handle,w
 10765  0EB8  00F0               	movwf	?_USBTransferOnePacket
 10766  0EB9                     l202:
 10767  0EB9  0008               	return
 10768  0EBA                     __end_of_USBTransferOnePacket:
 10769                           
 10770                           	psect	intentry
 10771  0004                     __pintentry:	
 10772 ;; *************** function _SYS_InterruptHigh *****************
 10773 ;; Defined at:
 10774 ;;		line 117 in file "lib/system.c"
 10775 ;; Parameters:    Size  Location     Type
 10776 ;;		None
 10777 ;; Auto vars:     Size  Location     Type
 10778 ;;		None
 10779 ;; Return value:  Size  Location     Type
 10780 ;;                  1    wreg      void 
 10781 ;; Registers used:
 10782 ;;		None
 10783 ;; Tracked objects:
 10784 ;;		On entry : 0/0
 10785 ;;		On exit  : 0/0
 10786 ;;		Unchanged: 0/0
 10787 ;; Data sizes:     COMMON   BANK1   BANK2   BANK3   BANK4   BANK5   BANK6   BANK7   BANK8   BANK9  BANK10  BANK11  BANK1
      +2
 10788 ;;      Params:         0       0       0       0       0       0       0       0       0       0       0       0       
      +0
 10789 ;;      Locals:         0       0       0       0       0       0       0       0       0       0       0       0       
      +0
 10790 ;;      Temps:          0       0       0       0       0       0       0       0       0       0       0       0       
      +0
 10791 ;;      Totals:         0       0       0       0       0       0       0       0       0       0       0       0       
      +0
 10792 ;;Total ram usage:        0 bytes
 10793 ;; Hardware stack levels used: 1
 10794 ;; This function calls:
 10795 ;;		Nothing
 10796 ;; This function is called by:
 10797 ;;		Interrupt level 1
 10798 ;; This function uses a non-reentrant model
 10799 ;;
 10800                           
 10801  0004                     _SYS_InterruptHigh:
 10802                           
 10803                           ;incstack = 0
 10804  0004  147E               	bsf	int$flags,0	;set compiler interrupt flag (level 1)
 10805                           
 10806                           ; Regs used in _SYS_InterruptHigh: []
 10807  0005  3180               	pagesel	$
 10808  0006                     i1l704:
 10809  0006  107E               	bcf	int$flags,0	;clear compiler interrupt flag (level 1)
 10810  0007  0009               	retfie
 10811  0008                     __end_of_SYS_InterruptHigh:
 10812  007E                     btemp	set	126	;btemp
 10813  007E                     int$flags	set	126
 10814  007E                     wtemp0	set	126
 10815                           
 10816                           	psect	idloc
 10817                           
 10818                           ;Config register IDLOC0 @ 0x8000
 10819                           ;	unspecified, using default values
 10820  8000                     	org	32768
 10821  8000  3FFF               	dw	16383
 10822                           
 10823                           ;Config register IDLOC1 @ 0x8001
 10824                           ;	unspecified, using default values
 10825  8001                     	org	32769
 10826  8001  3FFF               	dw	16383
 10827                           
 10828                           ;Config register IDLOC2 @ 0x8002
 10829                           ;	unspecified, using default values
 10830  8002                     	org	32770
 10831  8002  3FFF               	dw	16383
 10832                           
 10833                           ;Config register IDLOC3 @ 0x8003
 10834                           ;	unspecified, using default values
 10835  8003                     	org	32771
 10836  8003  3FFF               	dw	16383
 10837                           
 10838                           	psect	config
 10839                           
 10840                           ;Config register CONFIG1 @ 0x8007
 10841                           ;	Oscillator Selection Bits
 10842                           ;	FOSC = HS, HS Oscillator, High-speed crystal/resonator connected between OSC1 and OSC2
      +                           pins
 10843                           ;	Watchdog Timer Enable
 10844                           ;	WDTE = OFF, WDT disabled
 10845                           ;	Power-up Timer Enable
 10846                           ;	PWRTE = ON, PWRT enabled
 10847                           ;	MCLR Pin Function Select
 10848                           ;	MCLRE = ON, MCLR/VPP pin function is MCLR
 10849                           ;	Flash Program Memory Code Protection
 10850                           ;	CP = OFF, Program memory code protection is disabled
 10851                           ;	Brown-out Reset Enable
 10852                           ;	BOREN = ON, Brown-out Reset enabled
 10853                           ;	Clock Out Enable
 10854                           ;	CLKOUTEN = OFF, CLKOUT function is disabled. I/O or oscillator function on the CLKOUT 
      +                          pin
 10855                           ;	Internal/External Switchover Mode
 10856                           ;	IESO = OFF, Internal/External Switchover Mode is disabled
 10857                           ;	Fail-Safe Clock Monitor Enable
 10858                           ;	FCMEN = OFF, Fail-Safe Clock Monitor is disabled
 10859  8007                     	org	32775
 10860  8007  0FC2               	dw	4034
 10861                           
 10862                           ;Config register CONFIG2 @ 0x8008
 10863                           ;	Flash Memory Self-Write Protection
 10864                           ;	WRT = OFF, Write protection off
 10865                           ;	CPU System Clock Selection Bit
 10866                           ;	CPUDIV = NOCLKDIV, NO CPU system divide
 10867                           ;	USB Low SPeed Clock Selection bit
 10868                           ;	USBLSCLK = 48MHz, System clock expects 48 MHz, FS/LS USB CLKENs divide-by is set to 8.
 10869                           ;	PLL Multipler Selection Bit
 10870                           ;	PLLMULT = 4x, 4x Output Frequency Selected
 10871                           ;	PLL Enable Bit
 10872                           ;	PLLEN = ENABLED, 3x or 4x PLL Enabled
 10873                           ;	Stack Overflow/Underflow Reset Enable
 10874                           ;	STVREN = ON, Stack Overflow or Underflow will cause a Reset
 10875                           ;	Brown-out Reset Voltage Selection
 10876                           ;	BORV = LO, Brown-out Reset Voltage (Vbor), low trip point selected.
 10877                           ;	Low-Power Brown Out Reset
 10878                           ;	LPBOR = OFF, Low-Power BOR is disabled
 10879                           ;	Low-Voltage Programming Enable
 10880                           ;	LVP = ON, Low-voltage programmi 10881  8008                     	org	32776
 10882  8008  3F4F               	dw	16207

Data Sizes:
    Strings     0
    Constant    352
    Data        8
    BSS         84
    Persistent  32
    Stack       0

Auto Spaces:
    Space          Size  Autos    Used
    COMMON           14     14      14
    BANK1            64     23      64
    BANK2            16      0      16
    BANK3            64      0      35
    BANK4            47      0       0
    BANK5            32      0       0
    BANK6            64      0       0
    BANK7            80      0       0
    BANK8            80      0       0
    BANK9            80      0       0
    BANK10           80      0       0
    BANK11           80      0       0
    BANK12           48      0       0

Pointer List with Targets:

    USER_USB_CALLBACK_EVENT_HANDLER@pdata	PTR void  size(2) Largest target is 4096
		 -> RAM(DATA[4096]), USTATcopy(BANK1[1]), USBActiveConfiguration(BANK1[1]), NULL(NULL[0]), 
		 -> BDT(ABS[64]), 

    memset@dest	PTR void  size(2) Largest target is 64
		 -> USBAlternateInterface(BANK3[3]), BDT(ABS[64]), 

    memset@s	PTR unsigned char  size(2) Largest target is 64
		 -> USBAlternateInterface(BANK3[3]), BDT(ABS[64]), 

    memcpy@d1	PTR void  size(1) Largest target is 8
		 -> SetupPkt(ABS[8]), 

    memcpy@d	PTR unsigned char  size(1) Largest target is 8
		 -> SetupPkt(ABS[8]), 

    memcpy@s1	PTR const void  size(2) Largest target is 4096
		 -> CtrlTrfData(ABS[8]), RAM(DATA[4096]), SetupPkt(ABS[8]), 

    memcpy@s	PTR const unsigned char  size(2) Largest target is 4096
		 -> CtrlTrfData(ABS[8]), RAM(DATA[4096]), SetupPkt(ABS[8]), 

    last_DSP_OUT	PTR void  size(2) Largest target is 4096
		 -> RAM(DATA[4096]), NULL(NULL[0]), BDT(ABS[64]), 

    last_LED_OUT	PTR void  size(2) Largest target is 4096
		 -> RAM(DATA[4096]), NULL(NULL[0]), BDT(ABS[64]), 

    last_HAP_OUT	PTR void  size(2) Largest target is 4096
		 -> RAM(DATA[4096]), NULL(NULL[0]), BDT(ABS[64]), 

    last_HAP_IN	PTR void  size(2) Largest target is 4096
		 -> RAM(DATA[4096]), NULL(NULL[0]), BDT(ABS[64]), 

    USBStdFeatureReqHandler@pUEP	PTR unsigned char  size(2) Largest target is 1
		 -> UEP0(SFR29[1]), 

    USBStdFeatureReqHandler@p	PTR struct __BDT size(2) Largest target is 4096
		 -> RAM(DATA[4096]), NULL(NULL[0]), BDT(ABS[64]), 

    sp__memcpy	PTR void  size(1) Largest target is 8
		 -> SetupPkt(ABS[8]), 

    USBStdGetStatusHandler@p	PTR struct __BDT size(2) Largest target is 4096
		 -> RAM(DATA[4096]), NULL(NULL[0]), BDT(ABS[64]), 

    sp__memset	PTR void  size(2) Largest target is 64
		 -> USBAlternateInterface(BANK3[3]), BDT(ABS[64]), 

    USBStdSetCfgHandler@p	PTR unsigned char  size(2) Largest target is 1
		 -> UEP1(SFR29[1]), 

    pDst	PTR unsigned char  size(1) Largest target is 8
		 -> CtrlTrfData(ABS[8]), NULL(NULL[0]), 

    USBConfigureEndpoint@handle	PTR volatile struct __BDT size(1) Largest target is 64
		 -> BDT(ABS[64]), 

    pBDTEntryEP0OutCurrent	PTR volatile struct __BDT size(1) Largest target is 64
		 -> NULL(NULL[0]), BDT(ABS[64]), 

    pBDTEntryEP0OutNext	PTR volatile struct __BDT size(2) Largest target is 4096
		 -> RAM(DATA[4096]), NULL(NULL[0]), BDT(ABS[64]), 

    USBTransferOnePacket@data	PTR unsigned char  size(2) Largest target is 64
		 -> leds_output(BIGRAM[49]), haptic_out(BANK2[64]), display_output(BIGRAM[64]), haptic_in(BANK1[16]), 

    sp__USBTransferOnePacket	PTR void  size(2) Largest target is 4096
		 -> RAM(DATA[4096]), NULL(NULL[0]), BDT(ABS[64]), 

    USBTransferOnePacket@handle	PTR volatile struct __BDT size(2) Largest target is 4096
		 -> RAM(DATA[4096]), NULL(NULL[0]), BDT(ABS[64]), 

    USBEnableEndpoint@p	PTR unsigned char  size(2) Largest target is 1
		 -> UEP0(SFR29[1]), 

    pBDTEntryOut	PTR volatile struct __BDT[4] size(2) Largest target is 4096
		 -> RAM(DATA[4096]), NULL(NULL[0]), BDT(ABS[64]), 

    pBDTEntryIn	PTR volatile struct __BDT[4] size(2) Largest target is 4096
		 -> RAM(DATA[4096]), NULL(NULL[0]), BDT(ABS[64]), 

    S174$pFunc	PTR FTN()void  size(2) Largest target is 0

    outPipes.pFunc	PTR FTN()void  size(2) Largest target is 0

    S164$wRam	PTR unsigned short  size(1) Largest target is 0

    outPipes.pDst.wRam	PTR unsigned short  size(1) Largest target is 0

    S164$bRam	PTR unsigned char  size(1) Largest target is 0

    outPipes.pDst.bRam	PTR unsigned char  size(1) Largest target is 0

    S140$wRom	PTR const unsigned short  size(1) Largest target is 0

    inPipes.pSrc.wRom	PTR const unsigned short  size(1) Largest target is 0

    S140$wRam	PTR unsigned short  size(1) Largest target is 0

    inPipes.pSrc.wRam	PTR unsigned short  size(1) Largest target is 0

    S140$bRom	PTR const unsigned char  size(1) Largest target is 0

    inPipes.pSrc.bRom	PTR const unsigned char  size(1) Largest target is 0

    S140$bRam	PTR unsigned char  size(1) Largest target is 0

    inPipes.pSrc.bRam	PTR unsigned char  size(1) Largest target is 0

    USBDeviceInit@p	PTR unsigned char  size(2) Largest target is 1
		 -> UEP1(SFR29[1]), 

    USB_SD_Ptr	const PTR const unsigned char [3] size(2) Largest target is 52
		 -> sd002(CODE[28]), sd001(CODE[52]), sd000(CODE[4]), 

    USB_CD_Ptr	const PTR const unsigned char [1] size(2) Largest target is 105
		 -> configDescriptor1(CODE[105]), 


Critical Paths under _main in COMMON

    _USBCtrlEPServiceComplete->_USBCtrlEPAllowDataStage
    _USBCtrlEPAllowDataStage->_USBCtrlTrfTxService
    _USBStdSetCfgHandler->_memset
    _USER_USB_CALLBACK_EVENT_HANDLER->_APP_DeviceJoystickInitialize
    _SYSTEM_Initialize->_BUTTON_Enable
    _SYSTEM_Initialize->_LED_Enable
    _APP_LEDUpdateUSBStatus->_LED_Off
    _APP_LEDUpdateUSBStatus->_LED_On
    _APP_DeviceJoystickInitialize->_USBEnableEndpoint
    _USBEnableEndpoint->_USBConfigureEndpoint
    _USBCtrlTrfOutHandler->_USBCtrlTrfRxService
    _USBCtrlTrfRxService->_USBCtrlEPAllowStatusStage
    _USBCtrlTrfInHandler->_USBCtrlTrfTxService
    _APP_DeviceJoystickTasks->_USBTransferOnePacket

Critical Paths under _SYS_InterruptHigh in COMMON

    None.

Critical Paths under _main in BANK1

    _main->_USBDeviceTasks
    _USBDeviceTasks->_USBCtrlEPService
    _USBWakeFromSuspend->_USER_USB_CALLBACK_EVENT_HANDLER
    _USBSuspend->_USER_USB_CALLBACK_EVENT_HANDLER
    _USBCtrlEPService->_USBCtrlTrfSetupHandler
    _USBCtrlTrfSetupHandler->_USBCheckStdRequest
    _USBCheckStdRequest->_USBStdFeatureReqHandler
    _USBStdSetCfgHandler->_USER_USB_CALLBACK_EVENT_HANDLER
    _USBStdFeatureReqHandler->_USER_USB_CALLBACK_EVENT_HANDLER

Critical Paths under _SYS_InterruptHigh in BANK1

    None.

Critical Paths under _main in BANK2

    None.

Critical Paths under _SYS_InterruptHigh in BANK2

    None.

Critical Paths under _main in BANK3

    None.

Critical Paths under _SYS_InterruptHigh in BANK3

    None.

Critical Paths under _main in BANK4

    None.

Critical Paths under _SYS_InterruptHigh in BANK4

    None.

Critical Paths under _main in BANK5

    None.

Critical Paths under _SYS_InterruptHigh in BANK5

    None.

Critical Paths under _main in BANK6

    None.

Critical Paths under _SYS_InterruptHigh in BANK6

    None.

Critical Paths under _main in BANK7

    None.

Critical Paths under _SYS_InterruptHigh in BANK7

    None.

Critical Paths under _main in BANK8

    None.

Critical Paths under _SYS_InterruptHigh in BANK8

    None.

Critical Paths under _main in BANK9

    None.

Critical Paths under _SYS_InterruptHigh in BANK9

    None.

Critical Paths under _main in BANK10

    None.

Critical Paths under _SYS_InterruptHigh in BANK10

    None.

Critical Paths under _main in BANK11

    None.

Critical Paths under _SYS_InterruptHigh in BANK11

    None.

Critical Paths under _main in BANK12

    None.

Critical Paths under _SYS_InterruptHigh in BANK12

    None.

Call Graph Tables:

 ---------------------------------------------------------------------------------
 (Depth) Function   	        Calls       Base Space   Used Autos Params    Refs
 ---------------------------------------------------------------------------------
 (0) _main                                                 2     2      0   30379
                                             21 BANK1      2     2      0
            _APP_DeviceJoystickTasks
                      _MasterinitSPI
                      _USBDeviceInit
                     _USBDeviceTasks
                           _spiWrite
 ---------------------------------------------------------------------------------
 (1) _spiWrite                                             1     1      0       0
                                              0 COMMON     1     1      0
                              _spwrh
 ---------------------------------------------------------------------------------
 (2) _spwrh                                                0     0      0       0
 ---------------------------------------------------------------------------------
 (1) _USBDeviceTasks                                       3     3      0   28663
                                             18 BANK1      3     3      0
          _USBCtrlEPAllowStatusStage
                   _USBCtrlEPService
                      _USBDeviceInit
      _USBIncrement1msInternalTimers
                    _USBStallHandler
                         _USBSuspend
                 _USBWakeFromSuspend
    _USER_USB_CALLBACK_EVENT_HANDLER
 ---------------------------------------------------------------------------------
 (2) _USBWakeFromSuspend                                   1     1      0    3624
                                              6 BANK1      1     1      0
    _USER_USB_CALLBACK_EVENT_HANDLER
 ---------------------------------------------------------------------------------
 (2) _USBSuspend                                           1     1      0    3624
                                              6 BANK1      1     1      0
    _USER_USB_CALLBACK_EVENT_HANDLER
 ---------------------------------------------------------------------------------
 (2) _USBStallHandler                                      1     1      0       0
                                              0 COMMON     1     1      0
 ---------------------------------------------------------------------------------
 (2) _USBIncrement1msInternalTimers                        1     1      0       0
                                              0 COMMON     1     1      0
 ---------------------------------------------------------------------------------
 (2) _USBDeviceInit                                        5     5      0     272
                                              0 COMMON     5     5      0
 ---------------------------------------------------------------------------------
 (2) _USBCtrlEPService                                     2     2      0   17451
                                             16 BANK1      2     2      0
                _USBCtrlTrfInHandler
               _USBCtrlTrfOutHandler
             _USBCtrlTrfSetupHandler
                             _memcpy
 ---------------------------------------------------------------------------------
 (3) _memcpy                                              10     6      4     363
                                              0 COMMON    10     6      4
 ---------------------------------------------------------------------------------
 (3) _USBCtrlTrfSetupHandler                               1     1      0   16859
                                             15 BANK1      1     1      0
                 _USBCheckStdRequest
           _USBCtrlEPServiceComplete
    _USER_USB_CALLBACK_EVENT_HANDLER
 ---------------------------------------------------------------------------------
 (4) _USBCtrlEPServiceComplete                             2     2      0      92
                                              5 COMMON     2     2      0
            _USBCtrlEPAllowDataStage
          _USBCtrlEPAllowStatusStage
 ---------------------------------------------------------------------------------
 (5) _USBCtrlEPAllowDataStage                              2     2      0      92
                                              3 COMMON     2     2      0
                _USBCtrlTrfTxService
 ---------------------------------------------------------------------------------
 (4) _USBCheckStdRequest                                   2     2      0   13143
                                             13 BANK1      2     2      0
            _USBStdFeatureReqHandler
                _USBStdGetDscHandler
             _USBStdGetStatusHandler
                _USBStdSetCfgHandler
    _USER_USB_CALLBACK_EVENT_HANDLER
 ---------------------------------------------------------------------------------
 (5) _USBStdSetCfgHandler                                  5     5      0    5378
                                              6 BANK1      5     5      0
    _USER_USB_CALLBACK_EVENT_HANDLER
                             _memset
 ---------------------------------------------------------------------------------
 (6) _memset                                              14     8      6    1519
                                              0 COMMON    14     8      6
 ---------------------------------------------------------------------------------
 (5) _USBStdGetStatusHandler                               4     4      0      46
                                              0 COMMON     4     4      0
 ---------------------------------------------------------------------------------
 (5) _USBStdGetDscHandler                                  3     3      0       0
                                              0 COMMON     3     3      0
 ---------------------------------------------------------------------------------
 (5) _USBStdFeatureReqHandler                              7     7      0    4095
                                              6 BANK1      7     7      0
    _USER_USB_CALLBACK_EVENT_HANDLER
 ---------------------------------------------------------------------------------
 (2) _USER_USB_CALLBACK_EVENT_HANDLER                      6     0      6    3624
                                              0 BANK1      6     0      6
       _APP_DeviceJoystickInitialize
             _APP_LEDUpdateUSBStatus
                  _SYSTEM_Initialize
                 _USBCheckHIDRequest
 ---------------------------------------------------------------------------------
 (3) _USBCheckHIDRequest                                   2     2      0       0
                                              0 COMMON     2     2      0
 ---------------------------------------------------------------------------------
 (3) _SYSTEM_Initialize                                    3     3      0      66
                                              3 COMMON     3     3      0
                      _BUTTON_Enable
                         _LED_Enable
 ---------------------------------------------------------------------------------
 (4) _LED_Enable                                           3     3      0      22
                                              0 COMMON     3     3      0
 ---------------------------------------------------------------------------------
 (4) _BUTTON_Enable                                        3     3      0      22
                                              0 COMMON     3     3      0
 ---------------------------------------------------------------------------------
 (3) _APP_LEDUpdateUSBStatus                               2     2      0      44
                                              3 COMMON     2     2      0
                            _LED_Off
                             _LED_On
 ---------------------------------------------------------------------------------
 (4) _LED_On                                               3     3      0      22
                                              0 COMMON     3     3      0
 ---------------------------------------------------------------------------------
 (4) _LED_Off                                              3     3      0      22
                                              0 COMMON     3     3      0
 ---------------------------------------------------------------------------------
 (3) _APP_DeviceJoystickInitialize                         1     1      0     822
                                             13 COMMON     1     1      0
                  _USBEnableEndpoint
 ---------------------------------------------------------------------------------
 (4) _USBEnableEndpoint                                    6     5      1     822
                                              7 COMMON     6     5      1
               _USBConfigureEndpoint
 ---------------------------------------------------------------------------------
 (5) _USBConfigureEndpoint                                 7     6      1     400
                                              0 COMMON     7     6      1
 ---------------------------------------------------------------------------------
 (3) _USBCtrlTrfOutHandler                                 2     2      0     114
                                              6 COMMON     2     2      0
                _USBCtrlTrfRxService
 ---------------------------------------------------------------------------------
 (4) _USBCtrlTrfRxService                                  4     4      0     114
                                              2 COMMON     4     4      0
          _USBCtrlEPAllowStatusStage
 ---------------------------------------------------------------------------------
 (5) _USBCtrlEPAllowStatusStage                            2     2      0       0
                                              0 COMMON     2     2      0
 ---------------------------------------------------------------------------------
 (3) _USBCtrlTrfInHandler                                  3     3      0     115
                                              3 COMMON     3     3      0
                _USBCtrlTrfTxService
 ---------------------------------------------------------------------------------
 (6) _USBCtrlTrfTxService                                  3     3      0      92
                                              0 COMMON     3     3      0
 ---------------------------------------------------------------------------------
 (1) _MasterinitSPI                                        0     0      0       0
 ---------------------------------------------------------------------------------
 (1) _APP_DeviceJoystickTasks                              1     1      0    1444
                                             11 COMMON     1     1      0
               _USBTransferOnePacket
 ---------------------------------------------------------------------------------
 (2) _USBTransferOnePacket                                11     7      4    1444
                                              0 COMMON    11     7      4
 ---------------------------------------------------------------------------------
 Estimated maximum stack depth 6
 ---------------------------------------------------------------------------------
 (Depth) Function   	        Calls       Base Space   Used Autos Params    Refs
 ---------------------------------------------------------------------------------
 (10) _SYS_InterruptHigh                                   0     0      0       0
 ---------------------------------------------------------------------------------
 Estimated maximum stack depth 10
 ---------------------------------------------------------------------------------

 Call Graph Graphs:

 _main (ROOT)
   _APP_DeviceJoystickTasks
     _USBTransferOnePacket
   _MasterinitSPI
   _USBDeviceInit
   _USBDeviceTasks
     _USBCtrlEPAllowStatusStage
     _USBCtrlEPService
       _USBCtrlTrfInHandler
         _USBCtrlTrfTxService
       _USBCtrlTrfOutHandler
         _USBCtrlTrfRxService
           _USBCtrlEPAllowStatusStage
       _USBCtrlTrfSetupHandler
         _USBCheckStdRequest
           _USBStdFeatureReqHandler
             _USER_USB_CALLBACK_EVENT_HANDLER
               _APP_DeviceJoystickInitialize
                 _USBEnableEndpoint
                   _USBConfigureEndpoint
               _APP_LEDUpdateUSBStatus
                 _LED_Off
                 _LED_On
               _SYSTEM_Initialize
                 _BUTTON_Enable
                 _LED_Enable
               _USBCheckHIDRequest
           _USBStdGetDscHandler
           _USBStdGetStatusHandler
           _USBStdSetCfgHandler
             _USER_USB_CALLBACK_EVENT_HANDLER
             _memset
           _USER_USB_CALLBACK_EVENT_HANDLER
         _USBCtrlEPServiceComplete
           _USBCtrlEPAllowDataStage
             _USBCtrlTrfTxService
           _USBCtrlEPAllowStatusStage
         _USER_USB_CALLBACK_EVENT_HANDLER
       _memcpy
     _USBDeviceInit
     _USBIncrement1msInternalTimers
     _USBStallHandler
     _USBSuspend
       _USER_USB_CALLBACK_EVENT_HANDLER
     _USBWakeFromSuspend
       _USER_USB_CALLBACK_EVENT_HANDLER
     _USER_USB_CALLBACK_EVENT_HANDLER
   _spiWrite
     _spwrh

 _SYS_InterruptHigh (ROOT)

 Address spaces:
Name               Size   Autos  Total    Cost      Usage
BIGRAM             3F0      0       0       0        0.0%
NULL                 0      0       0       0        0.0%
CODE                 0      0       0       0        0.0%
BITCOMMON            E      0       0       1        0.0%
BITSFR0              0      0       0       1        0.0%
SFR0                 0      0       0       1        0.0%
COMMON               E      E       E       2      100.0%
BITSFR1              0      0       0       2        0.0%
SFR1                 0      0       0       2        0.0%
BITSFR2              0      0       0       3        0.0%
SFR2                 0      0       0       3        0.0%
STACK                0      0       0       3        0.0%
BITBANK1            40      0       0       4        0.0%
BITSFR3              0      0       0       4        0.0%
SFR3                 0      0       0       4        0.0%
BANK1               40     17      40       5      100.0%
BITSFR4              0      0       0       5        0.0%
SFR4                 0      0       0       5        0.0%
BITBANK2            10      0       0       6        0.0%
BITSFR5              0      0       0       6        0.0%
SFR5                 0      0       0       6        0.0%
BANK2               10      0      10       7      100.0%
BITSFR6              0      0       0       7        0.0%
SFR6                 0      0       0       7        0.0%
BITBANK3            50      0       0       8        0.0%
BITSFR7              0      0       0       8        0.0%
SFR7                 0      0       0       8        0.0%
BANK3               40      0      23       9       54.7%
BITSFR8              0      0       0       9        0.0%
SFR8                 0      0       0       9        0.0%
BITBANK4            50      0       0      10        0.0%
BITSFR9              0      0       0      10        0.0%
SFR9                 0      0       0      10        0.0%
BANK4               2F      0       0      11        0.0%
BITSFR10             0      0       0      11        0.0%
SFR10                0      0       0      11        0.0%
BITBANK5            50      0       0      12        0.0%
BITSFR11             0      0       0      12        0.0%
SFR11                0      0       0      12        0.0%
BANK5               20      0       0      13        0.0%
BITSFR12             0      0       0      13        0.0%
SFR12                0      0       0      13        0.0%
BITBANK6            50      0       0      14        0.0%
BITSFR13             0      0       0      14        0.0%
SFR13                0      0       0      14        0.0%
BANK6               40      0       0      15        0.0%
BITSFR14             0      0       0      15        0.0%
SFR14                0      0       0      15        0.0%
BITBANK7            50      0       0      16        0.0%
BITSFR15             0      0       0      16        0.0%
SFR15                0      0       0      16        0.0%
BANK7               50      0       0      17        0.0%
BITSFR16             0      0       0      17        0.0%
SFR16                0      0       0      17        0.0%
BITSFR17             0      0       0      18        0.0%
SFR17                0      0       0      18        0.0%
ABS                  0      0      81      18        0.0%
BITBANK8            50      0       0      19        0.0%
BITSFR18             0      0       0      19        0.0%
SFR18                0      0       0      19        0.0%
BANK8               50      0       0      20        0.0%
BITSFR19             0      0       0      20        0.0%
SFR19                0      0       0      20        0.0%
BITBANK9            50      0       0      21        0.0%
BITSFR20             0      0       0      21        0.0%
SFR20                0      0       0      21        0.0%
BANK9               50      0       0      22        0.0%
BITSFR21             0      0       0      22        0.0%
SFR21                0      0       0      22        0.0%
BITBANK10           50      0       0      23        0.0%
BITSFR22             0      0       0      23        0.0%
SFR22                0      0       0      23        0.0%
BANK10              50      0       0      24        0.0%
BITSFR23             0      0       0      24        0.0%
SFR23                0      0       0      24        0.0%
BITBANK11           50      0       0      25        0.0%
BITSFR24             0      0       0      25        0.0%
SFR24                0      0       0      25        0.0%
BANK11              50      0       0      26        0.0%
BITSFR25             0      0       0      26        0.0%
SFR25                0      0       0      26        0.0%
BITBANK12           30      0       0      27        0.0%
BITSFR26             0      0       0      27        0.0%
SFR26                0      0       0      27        0.0%
BANK12              30      0       0      28        0.0%
BITSFR27             0      0       0      28        0.0%
SFR27                0      0       0      28        0.0%
BITSFR28             0      0       0      29        0.0%
SFR28                0      0       0      29        0.0%
DATA                 0      0      81      29        0.0%
BITSFR29             0      0       0      30        0.0%
SFR29                0      0       0      30        0.0%
BITSFR30             0      0       0      31        0.0%
SFR30                0      0       0      31        0.0%
BITSFR31             0      0       0      32        0.0%
SFR31                0      0       0      32        0.0%


Microchip Technology PIC Macro Assembler V2.36 build 20220127204148 
Symbol Table                                                                                   Tue Oct 25 22:14:24 2022

                             _USB_SD_Ptr 1860                                        _v 01BB  
                                     _BF 10A0                              ?_LED_Enable 0070  
                          _USBDeviceInit 06D9                       _USBCheckHIDRequest 0420  
   USER_USB_CALLBACK_EVENT_HANDLER@event 00D9     USER_USB_CALLBACK_EVENT_HANDLER@pdata 00DB  
                                    l202 0EB9                                      l300 0B60  
                                    l221 0C3A                                      l311 0BC8  
                                    l303 0BBA                                      l232 09B7  
                                    l304 0B6A                                      l217 0C3A  
                                    l401 01AA                                      l305 0B6D  
                                    l161 0782                                      l227 0AF8  
                                    l235 0F08                                      l260 0CAF  
                                    l156 071A                                      l316 08DE  
                                    l245 0F55                                      l333 0A99  
                                    l325 17BB                                      l165 041F  
                                    l173 0336              __end_of_USBStdGetDscHandler 0DAD  
                                    l406 081D                                      l182 03B9  
                                    l271 0FF4                                      l263 0F6E  
                                    l343 0974                                      l431 0536  
                                    l319 1779                                      l183 041D  
                                    l167 0302                                      l248 0C5E  
                                    l440 04DC                                      l336 0A45  
                                    l184 03C0                                      l168 0301  
                                    l273 0FFF                                      l361 07FE  
                                    l169 0306                                      l282 0E32  
                                    l178 0380                                      l363 078D  
                                    l356 0D24                                      l196 0864  
                                    l604 0B5B                                      l372 07B4  
                                    l524 0931                                      l357 0D27  
                                    l349 0D1F                                      l608 0B26  
                                    l296 0DAC                                      l571 08B3  
                                    l644 17E0                                      l636 175D  
                                    l653 17BE                                      l397 0160  
                                    l646 17E3                                      l486 09FD  
                                    l655 17C1                                      l647 17E6  
                                    l399 0174                                      l576 053F  
                                    l656 17C4                                      l680 0820  
                                    l577 060E                                      l649 17FF  
                                    l770 173F                                      l658 17DD  
                                    l682 0823                                      l683 0826  
                                    l764 088A                                      _BDT 0020  
                                    l685 083F                                      l765 0884  
                                    l758 02F0                                      l767 0888  
                                    l699 179A                                      _UIE 0E92  
                                    _UIR 0E90                   _APP_LEDUpdateUSBStatus 0AF9  
                             _USBSuspend 175E                     USBStdSetCfgHandler@i 00E3  
                   USBStdSetCfgHandler@p 00E0                                      wreg 0009  
                         _USBDeviceTasks 02F1                      ?_USBCheckHIDRequest 0070  
                         _USBDeviceState 00D4                            _BUTTON_Enable 174C  
                  ??_USBCtrlTrfRxService 0072                 USBEnableEndpoint@options 0077  
                                   FSR1H 0007                                     FSR1L 0006  
                        __end_of_LED_Off 17DE                                     l1303 090C  
                                   l3001 17BD                                     l3011 17DF  
                                   l1307 06D8                                     l3005 17C7  
                                   l3021 174D                                     l3101 0500  
                                   l3015 17E9                                     l3031 081F  
                                   l3103 0505                                     l3111 051A  
                                   l3121 0AF9                                     l3025 174D  
                                   l3105 0509                                     l3041 0420  
                                   l3211 0C3B                                     l3131 0B0E  
                                   l3123 0AFE                                     l3035 0829  
                                   l3107 050E                                     l3221 0C5A  
                                   l3213 0C49                                     l3301 0BDC  
                                   l3141 0B2D                                     l3133 0B15  
                                   l3061 044E                                     l3053 043A  
                                   l3045 0429                                     l4111 0537  
                                   l3231 0C7A                                     l3223 0C65  
                                   l3215 0C4D                                     l3311 0BF9  
                                   l3303 0BE2                                     l3143 0B32  
                                   l3135 0B1A                                     l3127 0B03  
                                   l3071 0485                                     l3063 045B  
                                   l3047 042E                                     l4103 0879  
                                   l4121 0554                                     l3241 0C95  
                                   l3233 0C85                                     l3225 0C71  
                                   l3217 0C52                                     l3321 0C18  
                                   l3313 0BFA                                     l3305 0BE8  
                                   l3145 0B39                                     l3137 0B23  
                                   l3129 0B09                                     l3153 0B48  
                                   l3161 177B                                     l3081 04B3  
                                   l3073 048B                                     l3065 0462  
                                   l3057 0441                                     l3049 0433  
                                   l4105 087C                                     l4131 057B  
                                   l4123 055A                                     l3243 0CA0  
                                   l3235 0C89                                     l3227 0C75  
                                   l3219 0C55                                     l3323 0C1A  
                                   l3315 0C01                                     l3307 0BEE  
                                   l3147 0B3E                                     l3139 0B27  
                                   l3155 0B56                                     l3163 177E  
                                   l3083 04BB                                     l3075 0492  
                                   l3067 046F                                     l3059 0447  
                                   l3411 0D3F                                     l3331 0A9D  
                                   l4107 087E               USBConfigureEndpoint@handle 0076  
                                   l4141 05A6                                     l4133 0583  
                                   l4125 056B                                     l4117 0545  
                                   l3245 0CA4                                     l3237 0C8D  
                                   l3325 0C26                                     l3317 0C0D  
                                   l3309 0BF4                                     l3181 08AB  
                                   l3093 04E6                                     l3077 049F  
                                   l3069 0477                                     l3501 00A3  
                                   l3421 0D76                                     l3413 0D44  
                                   l3405 0D28                                     l3333 0AA3  
                                   l3341 0AC8                                     l4109 0881  
                                   l4151 05CD                                     l4143 05AB  
                                   l4135 0584                                     l4127 056F  
                                   l4119 054C                                     l3247 0CA8  
                                   l3239 0C8F                                     l3327 0C33  
                                   l3319 0C14                                     l3175 088B  
                                   l3167 1787                                     l3095 04EB  
                                   l3079 04A6                                     l3087 04C9  
                                   l3191 09CD                                     l3183 09B8  
                                   l3511 00D4                                     l3503 00BA  
                                   l3423 0D7C                                     l3415 0D54  
                                   l3407 0D2F                                     l3351 0AF3  
                                   l3343 0AD5                                     l3335 0AAF  
                                   l4161 05F5                                     l4153 05D3  
                                   l4145 05AC                                     l4129 0575  
                                   l4137 0597                                     l3249 0CAA  
                                   l3177 089B                                     l3097 04EF  
                                   l3089 04DC                                     l3193 09D1  
                                   l3185 09B9                                     l3521 0101  
                                   l3513 00E1                                     l3505 00BE  
                                   l3425 0D8C                                     l3417 0D63  
                                   l3409 0D35                                     l3433 0D98  
                                   l3345 0ADC                                     l3337 0ABC  
                                   l3329 0A9A                                     l3601 0F29  
                                   l4163 05FB                                     l4155 05D4  
                                   l4147 05BE                                     l4139 059E  
                                   l3179 08A3                                     l3099 04F4  
                                   l3187 09BD                                     l3531 0123  
                                   l3523 0109                                     l3515 00EC  
                                   l3507 00C9                                     l3419 0D73  
                                   l3451 0B7B                                     l3443 0B62  
                                   l3347 0ADF                                     l3339 0AC2  
                                   l3611 0F4E                                     l3603 0F35  
                                   l4165 05FC                                     l4157 05E6  
                                   l4149 05C5                                     l4093 1735  
                                   l3293 0BC9                                     l3621 0F75  
                                   l3189 09C5                                     l3197 09D5  
                                   l3541 014D                                     l3533 012B  
                                   l3525 0110                                     l3517 00F3  
                                   l3509 00CF                                     l3453 0B87  
                                   l3445 0B67                                     l3349 0AED  
                                   l3605 0F42                                     l3701 08E0  
                                   l4159 05ED                                     l4095 1738  
                                   l3295 0BCF                                     l3631 0F90  
                                   l3623 0F77                                     l3615 0F56  
                                   l3551 017D                                     l3543 0154  
                                   l3535 0133                                     l3527 0116  
                                   l3519 00FC                                     l3455 0B91  
                                   l3447 0B6F                                     l3463 0BA6  
                                   l3439 0B5C                                     l3607 0F48  
                                   l3703 08E9                                     l3711 0900  
                                   l3297 0BD3                                     l3641 0FC3  
                                   l3633 0F96                                     l3625 0F82  
                                   l3617 0F5C                                     l3553 018D  
                                   l3545 0158                                     l3537 0138  
                                   l3529 011C                                     l3481 0053  
                                   l3465 0BBF                                     l3457 0B99  
                                   l3449 0B77                                     l4601 0DD7  
                                   l3609 0F4D                                     l3561 0EC1  
                                   l3705 08F1                                     l3801 06E4  
                                   l4097 0865                                     l3299 0BD8  
                                   l3635 0FA3                                     l3643 0FCF  
                                   l3627 0F86                                     l3619 0F6A  
                                   l5171 09F8                                     l3555 0195  
                                   l3547 0165                                     l3539 0148  
                                   l3491 006D                                     l3483 005A  
                                   l3475 0044                                     l3467 0BC3  
                                   l3459 0BA1                                     l4611 0DE9  
                                   l5163 07DB                                     l3571 0ED5  
                                   l3563 0EC6                                     l3707 08F5  
                                   l3811 06FE                                     l3803 06E9  
                                   l4099 0873                                     l3653 0FF6  
                                   l3645 0FDC                                     l3637 0FB0  
                                   l3629 0F8A                                     l3741 0944  
                                   l5181 1755                                     l5173 04D1  
                                   l3557 01A2                                     l3549 016D  
                                   l3493 0074                                     l3485 005E  
                                   l3477 004A                                     l3469 0BC4  
                                   l5165 0BAF                                     l4541 0613  
                                   l4621 0E08                                     l4613 0DEF  
                                   l3581 0EFC                                     l3565 0ECB  
                                   l3573 0ED7                                     l4701 0A42  
                                   l3709 08FC                                     l3821 0714  
                                   l3805 06ED                                     l3901 176B  
                                   l3655 0FFC                                     l3647 0FE9  
                                   l3639 0FB7                                     l3751 0967  
                                   l3743 0948                                     l5183 0B51  
                                   l5175 0522                                     l3495 007E  
                                   l3479 0051                                     l3487 0060  
                                   l5167 0DA1                                     l4631 0E2D  
                                   l4623 0E0E                                     l4615 0DFD  
                                   l4607 0DD9                                     l3591 0F18  
                                   l3583 0F02                                     l3575 0EE4  
                                   l3567 0ED0                                     l3559 0EBA  
                                   l4711 0A64                                     l4703 0A46  
                                   l3831 0723                                     l3823 071C  
                                   l3807 06F1                                     l3903 0801  
                                   l3911 08B4                                     l3761 0CBF  
                                   l3649 0FEF                                     l3753 096D  
                                   l3745 0949                                     l5185 17F1  
                                   l5177 178F                                     l5169 09DE  
                                   l3497 0084                                     l3489 0066  
                                   l4561 06A0                                     l4553 063C  
                                   l4545 061A                                     l4625 0E14  
                                   l4617 0DFF                                     l4609 0DE5  
                                   l4641 0797                                     l4633 0783  
                                   l3593 0F1A                                     l3585 0F0D  
                                   l3577 0EF1                                     l3569 0ED3  
                                   l4713 0A6A                                     l4721 0A8D  
                                   l4705 0A4B                                     l3841 0737  
                                   l3833 0725                                     l3825 071D  
                                   l3817 06FF                                     l3809 06F7  
                                   l3905 080A                                     l3913 08B9  
                                   l3921 08DA                                     l4801 0391  
                                   l3763 0CC5                                     l3771 0CDA  
                                   l3747 094E                                     l3755 0973  
                                   l3739 093D                                     l5187 17CF  
                                   l5179 0831                                     l3499 008A  
                                   l4571 06BF                                     l4555 0678  
                                   l4547 0620                                     l4539 060F  
                                   l4627 0E19                                     l4619 0E04  
                                   l4651 07A4                                     l4643 079B  
                                   l3595 0F1B                                     l3587 0F10  
                                   l3579 0EF7                                     l4723 0A96  
                                   l4715 0A75                                     l4707 0A51  
                                   l3851 073B                                     l3843 0738  
                                   l3835 0727                                     l3827 071E  
                                   l3819 0710                                     l3907 0810  
                                   l3915 08C3                                     l4811 03AF  
                                   l4803 0394                                     l3781 0D02  
                                   l3773 0CDF                                     l3765 0CCA  
                                   l3757 0CB0                                     l3749 095A  
                                   l2981 099C                                     l2973 0976  
                                   l4573 06C4                                     l4565 06AA  
                                   l4549 0632                                     l4629 0E1E  
                                   l4581 0DAD                                     l4653 07A8  
                                   l4645 079F                                     l4637 078E  
                                   l3597 0F20                                     l3589 0F15  
                                   l4717 0A85                                     l4709 0A5E  
                                   l3861 0768                                     l3853 0756  
                                   l3845 0739                                     l3837 0729  
                                   l3829 071F                                     l3909 0819  
                                   l3917 08CD                                     l4821 03C5  
                                   l4813 03B6                                     l4805 0399  
                                   l4741 02FE                                     l4733 02F1  
                                   l4725 02F1                                     l3951 0E4B  
                                   l3783 0D07                                     l3775 0CEC  
                                   l3767 0CCF                                     l3759 0CB9  
                                   l2983 09A6                                     l2975 097A  
                                   l2991 0845                                     l4575 06CA  
                                   l4567 06B7                                     l4559 0682  
                                   l4591 0DB9                                     l4583 0DB3  
                                   l4663 07B5                                     l4655 07AC  
                                   l4647 07A0                                     l4639 0793  
                                   l3599 0F24                                     l4719 0A89  
                                   l3871 0776                                     l3863 076D  
                                   l3855 075A                                     l3847 073A  
                                   l3839 072E                                     l3791 06D9  
                                   l3919 08D8                                     l4831 03EC  
                                   l4823 03CA                                     l4815 03BE  
                                   l4807 039D                                     l4751 0316  
                                   l4735 02F7                                     l4743 0309  
                                   l3961 0E6F                                     l3953 0E51  
                                   l3945 0E34                                     l3785 0D13  
                                   l3777 0CEF                                     l3769 0CD5  
                                   l2985 09AE                                     l2977 0993  
                                   l2993 084A                                     l4577 06CE  
                                   l4569 06BB                                     l4593 0DBD  
                                   l4665 07C3                                     l4649 07A2  
                                   l4681 0A0D                                     l3873 077F  
                                   l3865 076F                                     l3857 0760  
                                   l3793 06DB                                     l3881 17AB  
                                   l4841 0417                                     l4833 03FB  
                                   l4825 03D2                                     l4809 03AD  
                                   l4761 032B                                     l4753 0317  
                                   l4745 030E                                     l4737 02FA  
                                   l3963 0E81                                     l3947 0E39  
                                   l3779 0CF6                                     l2987 09B2  
                                   l2979 0997                                     l2995 084E  
                                   l4579 06D2                                     l4595 0DC1  
                                   l4691 0A2A                                     l4683 0A13  
                                   l3875 0781                                     l3867 0773  
                                   l3859 0765                                     l3795 06DF  
                                   l3891 175E                                     l3883 17AD  
                                   l4835 0400                                     l4827 03D7  
                                   l4771 0341                                     l4763 032E  
                                   l4747 0313                                     l4755 031C  
                                   l4739 02FC                                     l4851 0923  
                                   l4843 090D                                     l3965 0E86  
                                   l3957 0E54                                     l3949 0E42  
                                   l3789 0D25                                     l2997 0854  
                                   l2989 0841                                     l4597 0DC7  
                                   l4589 0DB4                                     l4669 07D2  
                                   l4693 0A2C                                     l4685 0A1B  
                                   l4677 09FE                                     l3869 0774  
                                   l3893 1760                                     l3885 17AF  
                                   l3877 179B                                     l4837 0404  
                                   l4829 03DC                                     l4781 0356  
                                   l4773 0346                                     l4765 0333  
                                   l4757 0321                                     l4749 0315  
                                   l3973 01AB                                     l4861 0937  
                                   l4853 0926                                     l4845 0910  
                                   l3967 0E9D                                     l3959 0E63  
                                   l2999 085E                                     l4599 0DD5  
                                   l4695 0A2E                                     l4687 0A21  
                                   l4679 0A05                                     l3895 1766  
                                   l3887 17B5                                     l3879 179D  
                                   l4839 0412                                     l4791 0378  
                                   l4783 035B                                     l4767 033A  
                                   l4775 034B                                     l4759 0325  
                                   l4855 0929                                     l4847 091D  
                        __end_of_LED_rpt 181C                                     l3969 0EB5  
                                   l4697 0A30                                     l4689 0A29  
                                   l3897 1767                                     l3889 17B9  
                                   l4793 037E                                     l4785 035F  
                                   l4777 034F                                     l4769 033E  
                                   l4849 0920                                     l4699 0A33  
                                   l3899 176A                                     l4795 0385  
                                   l4787 036F                                     l4779 0353  
                                   l4789 0375                                     l4797 0388  
                                   l4799 038D                                     u2000 0C79  
                                   u2001 0C78                                     u2010 0C94  
                                   u2011 0C93                                     u2020 0CAF  
                                   u2100 0BE2                                     u2021 0CAE  
                                   u2101 0BE1                                     u2110 0BF9  
                                   u2111 0BF8                                     u2200 0B67  
                                   u2120 0AA3                                     u2201 0B66  
                                   u2121 0AA2                                     u2210 0B77  
                                   u2130 0AD5                                     u2211 0B76  
                                   u2131 0AD4                                     u2300 006D  
                                   u2220 0B7B                                     u3100 0888  
                                   u2301 006C                                     u2221 0B7A  
                                   u3101 0887                                     u3110 053E  
                                   u2310 0074                                     u2230 0B99  
                                   u3111 053D                                     u2311 0073  
                                   u2231 0B98                                     u2135 0AD1  
                                   u3200 05CD                                     u3120 0544  
                                   u2080 0BCF                                     u2400 012B  
                                   u2320 007E                                     u2240 0BA1  
                                   u3201 05CC                                     u3121 0543  
                                   u2081 0BCE                                     u2401 012A  
                                   u2321 007D                                     u2241 0BA0  
                                   u3210 05D3                                     u3130 054C  
                                   u2090 0BD8                                     u2410 0158  
                                   u2330 0084                                     u2170 0D2F  
                                   u2250 0BBF                                     u3211 05D2  
                                   u3131 054B                                     u2091 0BD7  
                                   u2411 0157                                     u2331 0083  
                                   u2171 0D2E                                     u2251 0BBE  
                                   u3220 05ED                                     u3140 0554  
                                   u2420 0160                                     u2340 008A  
                                   u2260 004A                                     u2180 0D44  
                                   u2500 0F54                                     u3221 05EC  
                                   u3141 0553                                     u2421 015F  
                                   u2341 0089                                     u2261 0049  
                                   u2181 0D43                                     u2501 0F53  
                                   u3230 05F5                                     u3150 055A  
                                   u2510 0F6A                                     u2430 0165  
                                   u2350 00BE                                     u2270 0051  
                                   u2190 0D7C                                     u3231 05F4  
                                   u3151 0559                                     u2511 0F69  
                                   u2431 0164                                     u2351 00BD  
                                   u2271 0050                                     u2191 0D7B  
                                   u3240 05FB                                     u3160 059E  
                                   u2600 0CC5                                     u2520 0F90  
                                   u1800 0440                                     u2360 00D4  
                                   u2280 005A                                     u3400 063B  
                                   u2440 0EC1                                     u3241 05FA  
                                   u3161 059D                                     u2601 0CC4  
                                   u2521 0F8F                                     u1705 097D  
                                   u1801 043F                                     u2361 00D3  
                                   u2281 0059                                     u3401 063A  
                                   u2441 0EC0                                     u3170 05A6  
                                   u2610 0CCF                                     u2530 0F96  
                                   u1730 099C                                     u1810 0447  
                                   u2370 00F3                                     u2290 0066  
                                   u3410 0681                                     u2450 0EC6  
                                   u3090 0873                                     u3171 05A5  
                                   u2611 0CCE                                     u2531 0F95  
                                   u2515 0F66                                     u1731 099B  
                                   u1715 0983                                     u1811 0446  
                                   u2371 00F2                                     u2291 0065  
                                   u3411 0680                                     u2451 0EC5  
                                   u3091 0872                                     u3180 05AB  
                                   u2620 0CDF                                     u2540 0FB7  
                                   u1740 0845                                     u1900 0AFE  
                                   u1820 044E                                     u2380 00FC  
                                   u3420 06A9                                     u2460 0ED0  
                                   u3500 0A75                                     u2700 0760  
                                   u3181 05AA                                     u2621 0CDE  
                                   u2541 0FB6                                     u1725 098B  
                                   u1741 0844                                     u1901 0AFD  
                                   u1821 044D                                     u2381 00FB  
                                   u3421 06A8                                     u2461 0ECF  
                                   u3501 0A74                                     u2701 075F  
                                   u3190 05C5                                     u2630 0CF6  
                                   u2550 0FFC                                     u1750 084E  
                                   u1910 0B09                                     u1830 0462  
                                   u2390 0101                                     u3430 06D8  
                                   u2470 0F0D                                     u3510 0A96  
                                   u2710 17B9                                     u3191 05C4  
                                   u2631 0CF5                                     u2551 0FFB  
                                   u1751 084D                                     u1911 0B08  
                                   u1831 0461                                     u2391 0100  
                                   u3431 06D7                                     u2471 0F0C  
                                   u3511 0A95                                     u2711 17B8  
                                   u3095 086F                                     u2640 0D07  
                                   u1920 0B15                                     u1840 0477  
                                   u1760 0428                                     u3440 0DC7  
                                   u2480 0F15                                     u2720 0810  
                                   u3600 033E                                     u3520 02F7  
                                   u2641 0D06                                     u1921 0B14  
                                   u1841 0476                                     u1761 0427  
                                   u3441 0DC6                                     u2481 0F14  
                                   u2721 080F                                     u3601 033D  
                                   u3521 02F6                                     u2810 0E39  
                                   u2650 0D24                                     u1930 0B23  
                                   u1850 048B                                     u1770 042E  
                                   u3450 0DEF                                     u2490 0F20  
                                   u2570 090C                                     u2730 0819  
                                   u3610 034F                                     u3530 0306  
                                   u2811 0E38                                     u2651 0D23  
                                   u1931 0B22                                     u1851 048A  
                                   u1771 042D                                     u3451 0DEE  
                                   u2491 0F1F                                     u2571 090B  
                                   u2731 0818                                     u3611 034E  
                                   u3531 0305                                     u2820 0E51  
                                   u2580 0944                                     u1940 0B2D  
                                   u1860 0492                                     u1780 0433  
                                   u3460 0E19                                     u2660 06F7  
                                   u2740 08B9                                     u3700 039D  
                                   u3620 0353                                     u3540 030E  
                                   u2821 0E50                                     u2581 0943  
                                   u1941 0B2C                                     u1861 0491  
                                   u1781 0432                                     u3461 0E18  
                                   u2661 06F6                                     u2741 08B8  
                                   u3701 039C                                     u3621 0352  
                                   u3541 030D                                     u2830 0E86  
                                   u2590 094E                                     u1950 0B39  
                                   u1870 04A6                                     u1790 0439  
                                   u3390 0619                                     u3470 078C  
                                   u2750 08C3                                     u3710 03B6  
                                   u3630 035B                                     u3550 0313  
                                   u2831 0E85                                     u2591 094D  
                                   u1951 0B38                                     u1871 04A5  
                                   u1791 0438                                     u3391 0618  
                                   u3471 078B                                     u2751 08C2  
                                   u3711 03B5                                     u3631 035A  
                                   u3551 0312                                     u1960 0B47  
                                   u1880 04BB                                     u3480 0A51  
                                   u2680 071A                                     u2760 08CD  
                                   u3720 03BE                                     u3640 035F  
                                   u3560 0321                                     u1961 0B46  
                                   u1881 04BA                                     u3481 0A50  
                                   u2681 0719                                     u2761 08CC  
                                   u3721 03BD                                     u3641 035E  
                                   u3561 0320                                     u1970 0C49  
                                   u1890 04E5                                     u2690 072E  
                                   u3730 03C5                                     u3650 037E  
                                   u3570 0325                                     u1971 0C48  
                                   u1891 04E4                                     u2691 072D  
                                   u2675 0702                                     u3731 03C4  
                                   u3651 037D                                     u3571 0324  
                                   u1980 0C52                                     u3740 03DC  
                                   u3660 0385                                     u3580 0333  
                                   u1981 0C51                                     u3741 03DB  
                                   u3661 0384                                     u3581 0332  
                                   u1990 0C5A                                     u3750 0400  
                                   u3670 038D                                     u3590 033A  
                                   u1991 0C59                                     u3495 0A55  
                                   u3751 03FF                                     u3671 038C  
                                   u3591 0339                                     u3760 041D  
                                   u3680 0391                                     u3761 041C  
                                   u3681 0390                                     u3690 0399  
                                   u3770 0930                                     u3691 0398  
                                   u3771 092F                                     u3780 0936  
                                   u3781 0935                                     u3797 0916  
                  ??_USBCtrlTrfTxService 0070                                     _REGT 012F  
                                   _UCFG 0E91                                     _UEP0 0E98  
                                   _UEP1 0E99                                     _UEIE 0E97  
                                   _UEIR 0E93                                     _UCON 0E8E  
                                   _WCOL 10AF   USBStdFeatureReqHandler@current_ep_data 00E3  
                                   _pDst 00D0                                     _cntr 012D  
                                   _main 090D                                     fsr0h 0005  
                                   fsr1h 0007                                     indf0 0000  
                                   fsr0l 0004                                     indf1 0001  
                                   fsr1l 0006                                     btemp 007E  
                                   start 0008          __end_of_APP_DeviceJoystickTasks 060F  
                   ??_USBCheckHIDRequest 0070               __end_of_USBCheckStdRequest 07FF  
                 ??_USBCtrlTrfOutHandler 0076                ??_USBStdFeatureReqHandler 00DF  
               ??_USBStdGetStatusHandler 0070                           ?_USBDeviceInit 0070  
                                  ?_main 0070                   __end_of_USBDeviceTasks 0420  
              ?_USBCtrlEPServiceComplete 0070                                    i1l704 0006  
                                  _UADDR 0E96                                    _TESTB 00C4  
                                  _SSPOV 10AE                                    _USTAT 0E8F  
                         ?_BUTTON_Enable 0070          __end_of_USBCtrlEPAllowDataStage 0AF9  
                                  _sd000 1866                                    _sd001 10C0  
                                  _sd002 181C           ?_USBIncrement1msInternalTimers 0070  
                                  _spwrh 01AB                                    status 0003  
                                  wtemp0 007E                          __initialization 000A  
                           __end_of_main 093D                                   ??_main 00EE  
                        ?_USBDeviceTasks 0070                              ?_USBSuspend 0070  
                              ??_LED_Off 0070                                   SSP1BUF 0211  
                                 _ANSELC 018E                                   ?_spwrh 0070  
                 SYSTEM_Initialize@state 0075                                   _LED_On 17DE  
                          _MasterinitSPI 1735                                   _SSPADD 0212  
                                 _TRISC0 0470                                   _TRISC1 0471  
                                 _TRISC2 0472                                   _TRISC3 0473  
                                 _SSPBUF 0211                                   _SSPCON 0215  
                      _shortPacketStatus 00D2                          USBDeviceTasks@i 00ED  
            USBStdFeatureReqHandler@pUEP 00E1                 USBTransferOnePacket@data 0071  
             USBCtrlTrfInHandler@lastDTS 0075                          ??_USBDeviceInit 0070  
                      _USBEnableEndpoint 0840                                   _cnt_tr 01B4  
                                 _memcpy 08DF                                   _memset 060F  
                     ?_USBEnableEndpoint 0077                          ??_BUTTON_Enable 0070  
                       __end_of_spiWrite 088B                            _LED_pkt_ready 00C2  
                    ??_USBEnableEndpoint 0078                              _CtrlTrfData 0068  
                   _controlTransferState 00D1                           ?_MasterinitSPI 0070  
                      _SYSTEM_Initialize 177A                  __end_of__initialization 0040  
                     ?_SYSTEM_Initialize 0070                           __pcstackCOMMON 0070  
              __end_of_USBEnableEndpoint 0865                            __end_of_sd000 186A  
                          __end_of_sd001 10F4                            __end_of_sd002 1838  
                           __pidataBANK3 172D                      ??_SYSTEM_Initialize 0073  
                              LED_On@led 0072                       __end_of_HAPTIC_rpt 10C0  
                        _active_protocol 00D5                             ??_LED_Enable 0070  
            __end_of_USBCtrlTrfInHandler 0D28                            __end_of_spwrh 02F1  
                ?_APP_LEDUpdateUSBStatus 0070                 ??_USBCtrlTrfSetupHandler 00E8  
                _USBTicksSinceSuspendEnd 00C5                __end_of_SYSTEM_Initialize 179B  
                 _USBStdGetStatusHandler 0B5C                                  ??_spwrh 0070  
                             __pbssBANK1 00B0                               __pbssBANK2 0120  
                             __pbssBANK3 01A0                                  ?_LED_On 0070  
                     __end_of_LED_Enable 0840                              _pBDTEntryIn 00B0  
       __end_of_USBCtrlEPServiceComplete 0F56                               __pmaintext 090D  
                   USBCtrlTrfRxService@i 0074                            LED_Enable@led 0072  
                                SSP1STAT 0214           __end_of_APP_LEDUpdateUSBStatus 0B5C  
                             __pintentry 0004                                  ?_memcpy 0070  
                                ?_memset 0070                               _device_dsc 184E  
                       _USBCtrlEPService 0A46                               _ep_data_in 01B0  
            __end_of_USBCtrlTrfRxService 1000                       _USBCheckStdRequest 0783  
                      _configDescriptor1 1000                                  _LED_Off 17BC  
                                _LED_rpt 1800              __end_of_USBCtrlTrfTxService 0CB0  
                    _USBStdSetCfgHandler 0DAD                               _haptic_out 0130  
                        ??_MasterinitSPI 0070                                  _SSPCON1 0215  
                    ?_USBCheckStdRequest 0070                                  _UIEbits 0E92  
                                _SSPSTAT 0214                                  _UIRbits 0E90  
         APP_LEDUpdateUSBStatus@ledCount 00BD          ??_USBIncrement1msInternalTimers 0070  
                   ?_USBStdSetCfgHandler 0070                                ?_spiWrite 0070  
                   ??_USBCheckStdRequest 00E6                         ??_USBDeviceTasks 00EB  
                      ??_USBStallHandler 0070                __end_of_configDescriptor1 1069  
                                __ptext1 0865                                  __ptext2 01AB  
                                __ptext3 02F1                                  __ptext4 179B  
                                __ptext5 175E                                  __ptext6 08B4  
                                __ptext7 0801                                  __ptext8 06D9  
                                __ptext9 0A46                                  _inPipes 00B8  
            _USBDeferOUTDataStagePackets 00C6                             ??_USBSuspend 00DF  
                _APP_DeviceJoystickTasks 0537                       __end_of_USB_CD_Ptr 186C  
                                clrloop0 1741                     end_of_initialization 0040  
                     __end_of_USB_SD_Ptr 1866                                  memcpy@d 0079  
                                memcpy@n 0072                                  memcpy@s 0075  
                    _pBDTEntryEP0OutNext 00BF                                  memset@c 0072  
                                memset@k 007A                                  memset@n 0074  
                                memset@s 007C                          _USB1msTickCount 01A8  
               ?_USBStdFeatureReqHandler 0070                    ??_USBStdSetCfgHandler 00DF  
                     __end_of_USBSuspend 177A                  _USBCtrlEPAllowDataStage 0A9A  
                             ??_spiWrite 0070                 _USBCtrlEPServiceComplete 0EBA  
             _USBStatusStageEnabledFlag1 00C9               _USBStatusStageEnabledFlag2 00C8  
                     USBEnableEndpoint@p 007A                                _PORTCbits 000E  
                              _TRISCbits 008E                       _BothEP0OutUOWNsSet 00CC  
              USBStdSetCfgHandler@i_1457 00E2                USBConfigureEndpoint@EPNum 0075  
             ?_USBCtrlEPAllowStatusStage 0070      USER_USB_CALLBACK_EVENT_HANDLER@size 00DD  
                              _USTATcopy 00D7             __end_of_USBTransferOnePacket 0EBA  
                         __end_of_LED_On 1800                       USBDeviceInit@i_722 0073  
                 _USBCtrlTrfSetupHandler 09FE                    __end_of_USBDeviceInit 0783  
  __end_of_USBIncrement1msInternalTimers 081E            _USBIncrement1msInternalTimers 0801  
                             LED_Off@led 0072                             _last_HAP_OUT 0129  
              ??_APP_DeviceJoystickTasks 007B                           __end_of_memcpy 090D  
                    __end_of_DISPLAY_rpt 184E                           __end_of_memset 06D9  
                           _last_LED_OUT 0127                             _last_DSP_OUT 01B6  
                      _USBBusIsSuspended 00CE                      start_initialization 000A  
                ?_USBStdGetStatusHandler 0070                    __end_of_BUTTON_Enable 175E  
          USBCtrlTrfRxService@byteToRead 0075             __end_of_USBConfigureEndpoint 09B8  
        __end_of_USBStdFeatureReqHandler 01AB                                 ??_LED_On 0070  
      __end_of_USBCtrlEPAllowStatusStage 0C3B                 __end_of_USBCtrlEPService 0A9A  
              ??_USBCtrlEPAllowDataStage 0073                           USBDeviceInit@i 0074  
                         USBDeviceInit@p 0071                   _pBDTEntryEP0OutCurrent 00D3  
                USBTransferOnePacket@dir 0070                  USBTransferOnePacket@len 0073  
   __end_of_APP_DeviceJoystickInitialize 08B4             _APP_DeviceJoystickInitialize 088B  
                    _USBStdGetDscHandler 0D28                              __pdataBANK3 01BB  
                               ??_memcpy 0074                                 ??_memset 0076  
                             memset@dest 0070                   _USBActiveConfiguration 00D8  
         __end_of_USBStdGetStatusHandler 0BC9                                 ?_LED_Off 0070  
                              ___latbits 0002                            __pcstackBANK1 00D9  
                      _hap_OUT_pkt_ready 012E                     ?_USBStdGetDscHandler 0070  
             __end_of_USBWakeFromSuspend 17BC                         _hap_IN_pkt_ready 00C1  
                        _USBStallHandler 08B4                             _pBDTEntryOut 01A0  
                            _DISPLAY_rpt 1838            ?_APP_DeviceJoystickInitialize 0070  
                              _idle_rate 00D6                                _haptic_in 00A0  
                   _USBTransferOnePacket 0E33             __end_of_USBCtrlTrfOutHandler 0975  
                  ??_USBStdGetDscHandler 0070                              _ep_data_out 01AC  
          USBConfigureEndpoint@direction 0070                    __end_of_MasterinitSPI 1740  
                               _LATCbits 010E               __end_of_USBCheckHIDRequest 0537  
             ??_USBCtrlEPServiceComplete 0075                                clear_ram0 1740  
                               _PIE2bits 0092                                 _PIR2bits 0012  
                               _UEP0bits 0E98               _USBDeferINDataStagePackets 00C7  
                               _UCONbits 0E8E                     _USBConfigureEndpoint 0975  
                      _display_pkt_ready 00C3                    ?_USBTransferOnePacket 0070  
                      _SYS_InterruptHigh 0004                             _RemoteWakeup 00CF  
                     ?_SYS_InterruptHigh 0070                  __end_of_USBStallHandler 08DF  
                            _last_HAP_IN 012B              ??_USBCtrlEPAllowStatusStage 0070  
            __end_of_USBStdSetCfgHandler 0E33                      ??_SYS_InterruptHigh 0070  
                            _leds_output 2130                       __end_of_device_dsc 1860  
               ??_APP_LEDUpdateUSBStatus 0073                  ?_USBCtrlTrfSetupHandler 0070  
                USBStdGetStatusHandler@p 0072                                memcpy@tmp 0077  
                 USBTransferOnePacket@ep 0078                                 _SetupPkt 0060  
                  ?_USBConfigureEndpoint 0070                __end_of_SYS_InterruptHigh 0008  
         ??_APP_DeviceJoystickInitialize 007D                               _HAPTIC_rpt 1069  
                               __ptext10 08DF                                 __ptext11 09FE  
                               __ptext20 09B8                                 __ptext12 0EBA  
                               __ptext21 0420                                 __ptext13 0A9A  
                               __ptext30 0975                                 __ptext22 177A  
                               __ptext14 0783                                 __ptext31 093D  
                               __ptext23 081E                                 __ptext15 0DAD  
                               __ptext32 0F56                                 __ptext24 174C  
                               __ptext16 060F                                 __ptext33 0BC9  
                               __ptext25 0AF9                                 __ptext17 0B5C  
                               __ptext34 0CB0                                 __ptext26 17DE  
                               __ptext18 0D28                                 __ptext35 0C3B  
                               __ptext27 17BC                                 __ptext19 0044  
                               __ptext36 1735                                 __ptext28 088B  
                               __ptext37 0537                                 __ptext29 0840  
                               __ptext38 0E33           __end_of_USBCtrlTrfSetupHandler 0A46  
                      ?_USBCtrlEPService 0070                       ??_USBCtrlEPService 00E9  
                    _USBCtrlTrfInHandler 0CB0                      BUTTON_Enable@button 0072  
                               _outPipes 0120                                 _spiWrite 0865  
                   _USBCtrlTrfOutHandler 093D                                 int$flags 007E  
              _USBCtrlEPAllowStatusStage 0BC9                               _LED_Enable 081E  
                 ??_USBTransferOnePacket 0074                _USBDeferStatusStagePacket 00CA  
                   ?_USBCtrlTrfInHandler 0070                                 memcpy@d1 0078  
                               memcpy@s1 0070            USBCtrlTrfTxService@byteToSend 0072  
                         __pstringtext10 1866                         ?_USBStallHandler 0070  
               USBStdFeatureReqHandler@p 00E4                                 intlevel1 0000  
__end_of_USER_USB_CALLBACK_EVENT_HANDLER 09FE        ??_USER_USB_CALLBACK_EVENT_HANDLER 007E  
       ?_USER_USB_CALLBACK_EVENT_HANDLER 00D9          _USER_USB_CALLBACK_EVENT_HANDLER 09B8  
                 ??_USBConfigureEndpoint 0071                    ?_USBCtrlTrfOutHandler 0070  
               ?_APP_DeviceJoystickTasks 0070                      _USBCtrlTrfRxService 0F56  
                     _USBWakeFromSuspend 179B                  _USBStdFeatureReqHandler 0044  
                    _USBCtrlTrfTxService 0C3B                            __pstringtext1 1860  
                          __pstringtext2 186A                            __pstringtext3 1000  
                          __pstringtext4 1069                            __pstringtext5 10C0  
                          __pstringtext6 1800                            __pstringtext7 181C  
                          __pstringtext8 1838                            __pstringtext9 184E  
                    ?_USBWakeFromSuspend 0070                    ??_USBCtrlTrfInHandler 0073  
                  _USBAlternateInterface 01B8                      USBEnableEndpoint@ep 007C  
                        _endpoint_number 00CD                           _display_output 21B0  
                   ?_USBCtrlTrfRxService 0070                 ?_USBCtrlEPAllowDataStage 0070  
                   ?_USBCtrlTrfTxService 0070             _USBStatusStageTimeoutCounter 00CB  
                   ??_USBWakeFromSuspend 00DF               USBTransferOnePacket@handle 0079  
                             _USB_CD_Ptr 186A  
