

Microchip MPLAB XC8 Assembler V2.36 build 20220127204148 
                                                                                               Sat Oct 29 01:12:35 2022

Microchip MPLAB XC8 C Compiler v2.36 (Free license) build 20220127204148 Og1 
     1                           	processor	16F1455
     2                           	pagewidth 120
     3                           	opt	flic
     4                           	psect	idataBANK3,global,class=CODE,delta=2,noexec
     5                           	psect	stringtext1,global,class=STRCODE,delta=2,noexec
     6                           	psect	stringtext2,global,class=STRCODE,delta=2,noexec
     7                           	psect	stringtext3,global,class=STRCODE,delta=2,noexec
     8                           	psect	stringtext4,global,class=STRCODE,delta=2,noexec
     9                           	psect	stringtext5,global,class=STRCODE,delta=2,noexec
    10                           	psect	stringtext6,global,class=STRCODE,delta=2,noexec
    11                           	psect	stringtext7,global,class=STRCODE,delta=2,noexec
    12                           	psect	stringtext8,global,class=STRCODE,delta=2,noexec
    13                           	psect	stringtext9,global,class=STRCODE,delta=2,noexec
    14                           	psect	stringtext10,global,class=STRCODE,delta=2,noexec
    15                           	psect	cinit,global,class=CODE,merge=1,delta=2
    16                           	psect	bssBANK1,global,class=BANK1,space=1,delta=1,noexec
    17                           	psect	bssBANK2,global,class=BANK2,space=1,delta=1,noexec
    18                           	psect	bssBANK3,global,class=BANK3,space=1,delta=1,noexec
    19                           	psect	dataBANK3,global,class=BANK3,space=1,delta=1,noexec
    20                           	psect	clrtext,global,class=CODE,delta=2
    21                           	psect	cstackBANK1,global,class=BANK1,space=1,delta=1,noexec
    22                           	psect	cstackCOMMON,global,class=COMMON,space=1,delta=1,noexec
    23                           	psect	maintext,global,class=CODE,merge=1,split=1,delta=2
    24                           	psect	text1,local,class=CODE,merge=1,delta=2
    25                           	psect	text2,local,class=CODE,merge=1,delta=2
    26                           	psect	text3,local,class=CODE,merge=1,delta=2
    27                           	psect	text4,local,class=CODE,merge=1,delta=2
    28                           	psect	text5,local,class=CODE,merge=1,delta=2
    29                           	psect	text6,local,class=CODE,merge=1,delta=2
    30                           	psect	text7,local,class=CODE,merge=1,delta=2
    31                           	psect	text8,local,class=CODE,merge=1,delta=2
    32                           	psect	text9,local,class=CODE,merge=1,delta=2,group=2
    33                           	psect	text10,local,class=CODE,merge=1,delta=2
    34                           	psect	text11,local,class=CODE,merge=1,delta=2
    35                           	psect	text12,local,class=CODE,merge=1,delta=2
    36                           	psect	text13,local,class=CODE,merge=1,delta=2
    37                           	psect	text14,local,class=CODE,merge=1,delta=2
    38                           	psect	text15,local,class=CODE,merge=1,delta=2,group=2
    39                           	psect	text16,local,class=CODE,merge=1,delta=2
    40                           	psect	text17,local,class=CODE,merge=1,delta=2
    41                           	psect	text18,local,class=CODE,merge=1,delta=2
    42                           	psect	text19,local,class=CODE,merge=1,delta=2
    43                           	psect	text20,local,class=CODE,merge=1,delta=2
    44                           	psect	text21,local,class=CODE,merge=1,delta=2
    45                           	psect	text22,local,class=CODE,merge=1,delta=2
    46                           	psect	text23,local,class=CODE,merge=1,delta=2
    47                           	psect	text24,local,class=CODE,merge=1,delta=2
    48                           	psect	text25,local,class=CODE,merge=1,delta=2
    49                           	psect	text26,local,class=CODE,merge=1,delta=2
    50                           	psect	text27,local,class=CODE,merge=1,delta=2
    51                           	psect	text28,local,class=CODE,merge=1,delta=2
    52                           	psect	text29,local,class=CODE,merge=1,delta=2
    53                           	psect	text30,local,class=CODE,merge=1,delta=2
    54                           	psect	text31,local,class=CODE,merge=1,delta=2
    55                           	psect	text32,local,class=CODE,merge=1,delta=2
    56                           	psect	text33,local,class=CODE,merge=1,delta=2
    57                           	psect	text34,local,class=CODE,merge=1,delta=2
    58                           	psect	text35,local,class=CODE,merge=1,delta=2
    59                           	psect	text36,local,class=CODE,merge=1,delta=2
    60                           	psect	text37,local,class=CODE,merge=1,delta=2
    61                           	psect	intentry,global,class=CODE,delta=2
    62                           	psect	idloc,global,abs,ovrld,class=IDLOC,space=5,delta=2,noexec
    63                           	psect	config,global,abs,ovrld,class=CONFIG,space=4,delta=2,noexec
    64                           	dabs	1,0x320,16
    65                           	dabs	1,0x2C0,48
    66                           	dabs	1,0x220,33
    67                           	dabs	1,0x1E0,16
    68                           	dabs	1,0x20,64,_BDT
    69                           	dabs	1,0x68,8,_CtrlTrfData
    70                           	dabs	1,0x60,8,_SetupPkt
    71                           	dabs	1,0xA0,16,_haptic_in
    72                           	dabs	1,0x130,64,_haptic_out
    73                           	dabs	1,0x7E,2
    74  0000                     
    75                           ; Version 2.40
    76                           ; Generated 17/11/2021 GMT
    77                           ; 
    78                           ; Copyright © 2021, Microchip Technology Inc. and its subsidiaries ("Microchip")
    79                           ; All rights reserved.
    80                           ; 
    81                           ; This software is developed by Microchip Technology Inc. and its subsidiaries ("Microch
      +                          ip").
    82                           ; 
    83                           ; Redistribution and use in source and binary forms, with or without modification, are
    84                           ; permitted provided that the following conditions are met:
    85                           ; 
    86                           ;     1. Redistributions of source code must retain the above copyright notice, this lis
      +                          t of
    87                           ;        conditions and the following disclaimer.
    88                           ; 
    89                           ;     2. Redistributions in binary form must reproduce the above copyright notice, this 
      +                          list
    90                           ;        of conditions and the following disclaimer in the documentation and/or other
    91                           ;        materials provided with the distribution. Publication is not required when
    92                           ;        this file is used in an embedded application.
    93                           ; 
    94                           ;     3. Microchip's name may not be used to endorse or promote products derived from th
      +                          is
    95                           ;        software without specific prior written permission.
    96                           ; 
    97                           ; THIS SOFTWARE IS PROVIDED BY MICROCHIP "AS IS" AND ANY EXPRESS OR IMPLIED WARRANTIES,
    98                           ; INCLUDING, BUT NOT LIMITED TO, THE IMPLIED WARRANTIES OF MERCHANTABILITY AND FITNESS F
      +                          OR
    99                           ; PURPOSE ARE DISCLAIMED.  IN NO EVENT SHALL MICROCHIP BE LIABLE FOR ANY DIRECT, INDIREC
      +                          T,
   100                           ; INCIDENTAL, SPECIAL, EXEMPLARY, OR CONSEQUENTIAL DAMAGES (INCLUDING BUT NOT LIMITED TO
   101                           ; PROCUREMENT OF SUBSTITUTE GOODS OR SERVICES; LOSS OF USE, DATA OR PROFITS; OR BUSINESS
   102                           ; INTERRUPTION) HOWSOEVER CAUSED AND ON ANY THEORY OF LIABILITY, WHETHER IN CONTRACT, ST
      +                          RICT
   103                           ; LIABILITY, OR TORT (INCLUDING NEGLIGENCE OR OTHERWISE) ARISING IN ANY WAY OUT OF THE U
      +                          SE OF
   104                           ; THIS SOFTWARE, EVEN IF ADVISED OF THE POSSIBILITY OF SUCH DAMAGE.
   105                           ; 
   106                           ; 
   107                           ; Code-generator required, PIC16F1455 Definitions
   108                           ; 
   109                           ; SFR Addresses
   110  0000                     	;# 
   111  0001                     	;# 
   112  0002                     	;# 
   113  0003                     	;# 
   114  0004                     	;# 
   115  0005                     	;# 
   116  0006                     	;# 
   117  0007                     	;# 
   118  0008                     	;# 
   119  0009                     	;# 
   120  000A                     	;# 
   121  000B                     	;# 
   122  000C                     	;# 
   123  000E                     	;# 
   124  0011                     	;# 
   125  0012                     	;# 
   126  0015                     	;# 
   127  0016                     	;# 
   128  0016                     	;# 
   129  0017                     	;# 
   130  0018                     	;# 
   131  0019                     	;# 
   132  001A                     	;# 
   133  001B                     	;# 
   134  001C                     	;# 
   135  008C                     	;# 
   136  008E                     	;# 
   137  0091                     	;# 
   138  0092                     	;# 
   139  0095                     	;# 
   140  0096                     	;# 
   141  0097                     	;# 
   142  0098                     	;# 
   143  0099                     	;# 
   144  009A                     	;# 
   145  009B                     	;# 
   146  009B                     	;# 
   147  009C                     	;# 
   148  009D                     	;# 
   149  009E                     	;# 
   150  009F                     	;# 
   151  010C                     	;# 
   152  010E                     	;# 
   153  0111                     	;# 
   154  0112                     	;# 
   155  0113                     	;# 
   156  0114                     	;# 
   157  0115                     	;# 
   158  0116                     	;# 
   159  0117                     	;# 
   160  0118                     	;# 
   161  0119                     	;# 
   162  011D                     	;# 
   163  018C                     	;# 
   164  018E                     	;# 
   165  0191                     	;# 
   166  0191                     	;# 
   167  0192                     	;# 
   168  0193                     	;# 
   169  0193                     	;# 
   170  0194                     	;# 
   171  0195                     	;# 
   172  0196                     	;# 
   173  0197                     	;# 
   174  0199                     	;# 
   175  019A                     	;# 
   176  019B                     	;# 
   177  019B                     	;# 
   178  019C                     	;# 
   179  019D                     	;# 
   180  019E                     	;# 
   181  019F                     	;# 
   182  020C                     	;# 
   183  0211                     	;# 
   184  0211                     	;# 
   185  0212                     	;# 
   186  0212                     	;# 
   187  0213                     	;# 
   188  0213                     	;# 
   189  0214                     	;# 
   190  0214                     	;# 
   191  0215                     	;# 
   192  0215                     	;# 
   193  0215                     	;# 
   194  0216                     	;# 
   195  0216                     	;# 
   196  0217                     	;# 
   197  0217                     	;# 
   198  0391                     	;# 
   199  0392                     	;# 
   200  0393                     	;# 
   201  039A                     	;# 
   202  039B                     	;# 
   203  0611                     	;# 
   204  0612                     	;# 
   205  0613                     	;# 
   206  0613                     	;# 
   207  0614                     	;# 
   208  0615                     	;# 
   209  0616                     	;# 
   210  0616                     	;# 
   211  0691                     	;# 
   212  0692                     	;# 
   213  0693                     	;# 
   214  0694                     	;# 
   215  0695                     	;# 
   216  0E8E                     	;# 
   217  0E8F                     	;# 
   218  0E90                     	;# 
   219  0E91                     	;# 
   220  0E92                     	;# 
   221  0E93                     	;# 
   222  0E94                     	;# 
   223  0E94                     	;# 
   224  0E95                     	;# 
   225  0E96                     	;# 
   226  0E97                     	;# 
   227  0E98                     	;# 
   228  0E99                     	;# 
   229  0E9A                     	;# 
   230  0E9B                     	;# 
   231  0E9C                     	;# 
   232  0E9D                     	;# 
   233  0E9E                     	;# 
   234  0E9F                     	;# 
   235  0FE4                     	;# 
   236  0FE5                     	;# 
   237  0FE6                     	;# 
   238  0FE7                     	;# 
   239  0FE8                     	;# 
   240  0FE9                     	;# 
   241  0FEA                     	;# 
   242  0FEB                     	;# 
   243  0FED                     	;# 
   244  0FEE                     	;# 
   245  0FEF                     	;# 
   246  0000                     	;# 
   247  0001                     	;# 
   248  0002                     	;# 
   249  0003                     	;# 
   250  0004                     	;# 
   251  0005                     	;# 
   252  0006                     	;# 
   253  0007                     	;# 
   254  0008                     	;# 
   255  0009                     	;# 
   256  000A                     	;# 
   257  000B                     	;# 
   258  000C                     	;# 
   259  000E                     	;# 
   260  0011                     	;# 
   261  0012                     	;# 
   262  0015                     	;# 
   263  0016                     	;# 
   264  0016                     	;# 
   265  0017                     	;# 
   266  0018                     	;# 
   267  0019                     	;# 
   268  001A                     	;# 
   269  001B                     	;# 
   270  001C                     	;# 
   271  008C                     	;# 
   272  008E                     	;# 
   273  0091                     	;# 
   274  0092                     	;# 
   275  0095                     	;# 
   276  0096                     	;# 
   277  0097                     	;# 
   278  0098                     	;# 
   279  0099                     	;# 
   280  009A                     	;# 
   281  009B                     	;# 
   282  009B                     	;# 
   283  009C                     	;# 
   284  009D                     	;# 
   285  009E                     	;# 
   286  009F                     	;# 
   287  010C                     	;# 
   288  010E                     	;# 
   289  0111                     	;# 
   290  0112                     	;# 
   291  0113                     	;# 
   292  0114                     	;# 
   293  0115                     	;# 
   294  0116                     	;# 
   295  0117                     	;# 
   296  0118                     	;# 
   297  0119                     	;# 
   298  011D                     	;# 
   299  018C                     	;# 
   300  018E                     	;# 
   301  0191                     	;# 
   302  0191                     	;# 
   303  0192                     	;# 
   304  0193                     	;# 
   305  0193                     	;# 
   306  0194                     	;# 
   307  0195                     	;# 
   308  0196                     	;# 
   309  0197                     	;# 
   310  0199                     	;# 
   311  019A                     	;# 
   312  019B                     	;# 
   313  019B                     	;# 
   314  019C                     	;# 
   315  019D                     	;# 
   316  019E                     	;# 
   317  019F                     	;# 
   318  020C                     	;# 
   319  0211                     	;# 
   320  0211                     	;# 
   321  0212                     	;# 
   322  0212                     	;# 
   323  0213                     	;# 
   324  0213                     	;# 
   325  0214                     	;# 
   326  0214                     	;# 
   327  0215                     	;# 
   328  0215                     	;# 
   329  0215                     	;# 
   330  0216                     	;# 
   331  0216                     	;# 
   332  0217                     	;# 
   333  0217                     	;# 
   334  0391                     	;# 
   335  0392                     	;# 
   336  0393                     	;# 
   337  039A                     	;# 
   338  039B                     	;# 
   339  0611                     	;# 
   340  0612                     	;# 
   341  0613                     	;# 
   342  0613                     	;# 
   343  0614                     	;# 
   344  0615                     	;# 
   345  0616                     	;# 
   346  0616                     	;# 
   347  0691                     	;# 
   348  0692                     	;# 
   349  0693                     	;# 
   350  0694                     	;# 
   351  0695                     	;# 
   352  0E8E                     	;# 
   353  0E8F                     	;# 
   354  0E90                     	;# 
   355  0E91                     	;# 
   356  0E92                     	;# 
   357  0E93                     	;# 
   358  0E94                     	;# 
   359  0E94                     	;# 
   360  0E95                     	;# 
   361  0E96                     	;# 
   362  0E97                     	;# 
   363  0E98                     	;# 
   364  0E99                     	;# 
   365  0E9A                     	;# 
   366  0E9B                     	;# 
   367  0E9C                     	;# 
   368  0E9D                     	;# 
   369  0E9E                     	;# 
   370  0E9F                     	;# 
   371  0FE4                     	;# 
   372  0FE5                     	;# 
   373  0FE6                     	;# 
   374  0FE7                     	;# 
   375  0FE8                     	;# 
   376  0FE9                     	;# 
   377  0FEA                     	;# 
   378  0FEB                     	;# 
   379  0FED                     	;# 
   380  0FEE                     	;# 
   381  0FEF                     	;# 
   382  0000                     	;# 
   383  0001                     	;# 
   384  0002                     	;# 
   385  0003                     	;# 
   386  0004                     	;# 
   387  0005                     	;# 
   388  0006                     	;# 
   389  0007                     	;# 
   390  0008                     	;# 
   391  0009                     	;# 
   392  000A                     	;# 
   393  000B                     	;# 
   394  000C                     	;# 
   395  000E                     	;# 
   396  0011                     	;# 
   397  0012                     	;# 
   398  0015                     	;# 
   399  0016                     	;# 
   400  0016                     	;# 
   401  0017                     	;# 
   402  0018                     	;# 
   403  0019                     	;# 
   404  001A                     	;# 
   405  001B                     	;# 
   406  001C                     	;# 
   407  008C                     	;# 
   408  008E                     	;# 
   409  0091                     	;# 
   410  0092                     	;# 
   411  0095                     	;# 
   412  0096                     	;# 
   413  0097                     	;# 
   414  0098                     	;# 
   415  0099                     	;# 
   416  009A                     	;# 
   417  009B                     	;# 
   418  009B                     	;# 
   419  009C                     	;# 
   420  009D                     	;# 
   421  009E                     	;# 
   422  009F                     	;# 
   423  010C                     	;# 
   424  010E                     	;# 
   425  0111                     	;# 
   426  0112                     	;# 
   427  0113                     	;# 
   428  0114                     	;# 
   429  0115                     	;# 
   430  0116                     	;# 
   431  0117                     	;# 
   432  0118                     	;# 
   433  0119                     	;# 
   434  011D                     	;# 
   435  018C                     	;# 
   436  018E                     	;# 
   437  0191                     	;# 
   438  0191                     	;# 
   439  0192                     	;# 
   440  0193                     	;# 
   441  0193                     	;# 
   442  0194                     	;# 
   443  0195                     	;# 
   444  0196                     	;# 
   445  0197                     	;# 
   446  0199                     	;# 
   447  019A                     	;# 
   448  019B                     	;# 
   449  019B                     	;# 
   450  019C                     	;# 
   451  019D                     	;# 
   452  019E                     	;# 
   453  019F                     	;# 
   454  020C                     	;# 
   455  0211                     	;# 
   456  0211                     	;# 
   457  0212                     	;# 
   458  0212                     	;# 
   459  0213                     	;# 
   460  0213                     	;# 
   461  0214                     	;# 
   462  0214                     	;# 
   463  0215                     	;# 
   464  0215                     	;# 
   465  0215                     	;# 
   466  0216                     	;# 
   467  0216                     	;# 
   468  0217                     	;# 
   469  0217                     	;# 
   470  0391                     	;# 
   471  0392                     	;# 
   472  0393                     	;# 
   473  039A                     	;# 
   474  039B                     	;# 
   475  0611                     	;# 
   476  0612                     	;# 
   477  0613                     	;# 
   478  0613                     	;# 
   479  0614                     	;# 
   480  0615                     	;# 
   481  0616                     	;# 
   482  0616                     	;# 
   483  0691                     	;# 
   484  0692                     	;# 
   485  0693                     	;# 
   486  0694                     	;# 
   487  0695                     	;# 
   488  0E8E                     	;# 
   489  0E8F                     	;# 
   490  0E90                     	;# 
   491  0E91                     	;# 
   492  0E92                     	;# 
   493  0E93                     	;# 
   494  0E94                     	;# 
   495  0E94                     	;# 
   496  0E95                     	;# 
   497  0E96                     	;# 
   498  0E97                     	;# 
   499  0E98                     	;# 
   500  0E99                     	;# 
   501  0E9A                     	;# 
   502  0E9B                     	;# 
   503  0E9C                     	;# 
   504  0E9D                     	;# 
   505  0E9E                     	;# 
   506  0E9F                     	;# 
   507  0FE4                     	;# 
   508  0FE5                     	;# 
   509  0FE6                     	;# 
   510  0FE7                     	;# 
   511  0FE8                     	;# 
   512  0FE9                     	;# 
   513  0FEA                     	;# 
   514  0FEB                     	;# 
   515  0FED                     	;# 
   516  0FEE                     	;# 
   517  0FEF                     	;# 
   518  0000                     	;# 
   519  0001                     	;# 
   520  0002                     	;# 
   521  0003                     	;# 
   522  0004                     	;# 
   523  0005                     	;# 
   524  0006                     	;# 
   525  0007                     	;# 
   526  0008                     	;# 
   527  0009                     	;# 
   528  000A                     	;# 
   529  000B                     	;# 
   530  000C                     	;# 
   531  000E                     	;# 
   532  0011                     	;# 
   533  0012                     	;# 
   534  0015                     	;# 
   535  0016                     	;# 
   536  0016                     	;# 
   537  0017                     	;# 
   538  0018                     	;# 
   539  0019                     	;# 
   540  001A                     	;# 
   541  001B                     	;# 
   542  001C                     	;# 
   543  008C                     	;# 
   544  008E                     	;# 
   545  0091                     	;# 
   546  0092                     	;# 
   547  0095                     	;# 
   548  0096                     	;# 
   549  0097                     	;# 
   550  0098                     	;# 
   551  0099                     	;# 
   552  009A                     	;# 
   553  009B                     	;# 
   554  009B                     	;# 
   555  009C                     	;# 
   556  009D                     	;# 
   557  009E                     	;# 
   558  009F                     	;# 
   559  010C                     	;# 
   560  010E                     	;# 
   561  0111                     	;# 
   562  0112                     	;# 
   563  0113                     	;# 
   564  0114                     	;# 
   565  0115                     	;# 
   566  0116                     	;# 
   567  0117                     	;# 
   568  0118                     	;# 
   569  0119                     	;# 
   570  011D                     	;# 
   571  018C                     	;# 
   572  018E                     	;# 
   573  0191                     	;# 
   574  0191                     	;# 
   575  0192                     	;# 
   576  0193                     	;# 
   577  0193                     	;# 
   578  0194                     	;# 
   579  0195                     	;# 
   580  0196                     	;# 
   581  0197                     	;# 
   582  0199                     	;# 
   583  019A                     	;# 
   584  019B                     	;# 
   585  019B                     	;# 
   586  019C                     	;# 
   587  019D                     	;# 
   588  019E                     	;# 
   589  019F                     	;# 
   590  020C                     	;# 
   591  0211                     	;# 
   592  0211                     	;# 
   593  0212                     	;# 
   594  0212                     	;# 
   595  0213                     	;# 
   596  0213                     	;# 
   597  0214                     	;# 
   598  0214                     	;# 
   599  0215                     	;# 
   600  0215                     	;# 
   601  0215                     	;# 
   602  0216                     	;# 
   603  0216                     	;# 
   604  0217                     	;# 
   605  0217                     	;# 
   606  0391                     	;# 
   607  0392                     	;# 
   608  0393                     	;# 
   609  039A                     	;# 
   610  039B                     	;# 
   611  0611                     	;# 
   612  0612                     	;# 
   613  0613                     	;# 
   614  0613                     	;# 
   615  0614                     	;# 
   616  0615                     	;# 
   617  0616                     	;# 
   618  0616                     	;# 
   619  0691                     	;# 
   620  0692                     	;# 
   621  0693                     	;# 
   622  0694                     	;# 
   623  0695                     	;# 
   624  0E8E                     	;# 
   625  0E8F                     	;# 
   626  0E90                     	;# 
   627  0E91                     	;# 
   628  0E92                     	;# 
   629  0E93                     	;# 
   630  0E94                     	;# 
   631  0E94                     	;# 
   632  0E95                     	;# 
   633  0E96                     	;# 
   634  0E97                     	;# 
   635  0E98                     	;# 
   636  0E99                     	;# 
   637  0E9A                     	;# 
   638  0E9B                     	;# 
   639  0E9C                     	;# 
   640  0E9D                     	;# 
   641  0E9E                     	;# 
   642  0E9F                     	;# 
   643  0FE4                     	;# 
   644  0FE5                     	;# 
   645  0FE6                     	;# 
   646  0FE7                     	;# 
   647  0FE8                     	;# 
   648  0FE9                     	;# 
   649  0FEA                     	;# 
   650  0FEB                     	;# 
   651  0FED                     	;# 
   652  0FEE                     	;# 
   653  0FEF                     	;# 
   654  0000                     	;# 
   655  0001                     	;# 
   656  0002                     	;# 
   657  0003                     	;# 
   658  0004                     	;# 
   659  0005                     	;# 
   660  0006                     	;# 
   661  0007                     	;# 
   662  0008                     	;# 
   663  0009                     	;# 
   664  000A                     	;# 
   665  000B                     	;# 
   666  000C                     	;# 
   667  000E                     	;# 
   668  0011                     	;# 
   669  0012                     	;# 
   670  0015                     	;# 
   671  0016                     	;# 
   672  0016                     	;# 
   673  0017                     	;# 
   674  0018                     	;# 
   675  0019                     	;# 
   676  001A                     	;# 
   677  001B                     	;# 
   678  001C                     	;# 
   679  008C                     	;# 
   680  008E                     	;# 
   681  0091                     	;# 
   682  0092                     	;# 
   683  0095                     	;# 
   684  0096                     	;# 
   685  0097                     	;# 
   686  0098                     	;# 
   687  0099                     	;# 
   688  009A                     	;# 
   689  009B                     	;# 
   690  009B                     	;# 
   691  009C                     	;# 
   692  009D                     	;# 
   693  009E                     	;# 
   694  009F                     	;# 
   695  010C                     	;# 
   696  010E                     	;# 
   697  0111                     	;# 
   698  0112                     	;# 
   699  0113                     	;# 
   700  0114                     	;# 
   701  0115                     	;# 
   702  0116                     	;# 
   703  0117                     	;# 
   704  0118                     	;# 
   705  0119                     	;# 
   706  011D                     	;# 
   707  018C                     	;# 
   708  018E                     	;# 
   709  0191                     	;# 
   710  0191                     	;# 
   711  0192                     	;# 
   712  0193                     	;# 
   713  0193                     	;# 
   714  0194                     	;# 
   715  0195                     	;# 
   716  0196                     	;# 
   717  0197                     	;# 
   718  0199                     	;# 
   719  019A                     	;# 
   720  019B                     	;# 
   721  019B                     	;# 
   722  019C                     	;# 
   723  019D                     	;# 
   724  019E                     	;# 
   725  019F                     	;# 
   726  020C                     	;# 
   727  0211                     	;# 
   728  0211                     	;# 
   729  0212                     	;# 
   730  0212                     	;# 
   731  0213                     	;# 
   732  0213                     	;# 
   733  0214                     	;# 
   734  0214                     	;# 
   735  0215                     	;# 
   736  0215                     	;# 
   737  0215                     	;# 
   738  0216                     	;# 
   739  0216                     	;# 
   740  0217                     	;# 
   741  0217                     	;# 
   742  0391                     	;# 
   743  0392                     	;# 
   744  0393                     	;# 
   745  039A                     	;# 
   746  039B                     	;# 
   747  0611                     	;# 
   748  0612                     	;# 
   749  0613                     	;# 
   750  0613                     	;# 
   751  0614                     	;# 
   752  0615                     	;# 
   753  0616                     	;# 
   754  0616                     	;# 
   755  0691                     	;# 
   756  0692                     	;# 
   757  0693                     	;# 
   758  0694                     	;# 
   759  0695                     	;# 
   760  0E8E                     	;# 
   761  0E8F                     	;# 
   762  0E90                     	;# 
   763  0E91                     	;# 
   764  0E92                     	;# 
   765  0E93                     	;# 
   766  0E94                     	;# 
   767  0E94                     	;# 
   768  0E95                     	;# 
   769  0E96                     	;# 
   770  0E97                     	;# 
   771  0E98                     	;# 
   772  0E99                     	;# 
   773  0E9A                     	;# 
   774  0E9B                     	;# 
   775  0E9C                     	;# 
   776  0E9D                     	;# 
   777  0E9E                     	;# 
   778  0E9F                     	;# 
   779  0FE4                     	;# 
   780  0FE5                     	;# 
   781  0FE6                     	;# 
   782  0FE7                     	;# 
   783  0FE8                     	;# 
   784  0FE9                     	;# 
   785  0FEA                     	;# 
   786  0FEB                     	;# 
   787  0FED                     	;# 
   788  0FEE                     	;# 
   789  0FEF                     	;# 
   790  0000                     	;# 
   791  0001                     	;# 
   792  0002                     	;# 
   793  0003                     	;# 
   794  0004                     	;# 
   795  0005                     	;# 
   796  0006                     	;# 
   797  0007                     	;# 
   798  0008                     	;# 
   799  0009                     	;# 
   800  000A                     	;# 
   801  000B                     	;# 
   802  000C                     	;# 
   803  000E                     	;# 
   804  0011                     	;# 
   805  0012                     	;# 
   806  0015                     	;# 
   807  0016                     	;# 
   808  0016                     	;# 
   809  0017                     	;# 
   810  0018                     	;# 
   811  0019                     	;# 
   812  001A                     	;# 
   813  001B                     	;# 
   814  001C                     	;# 
   815  008C                     	;# 
   816  008E                     	;# 
   817  0091                     	;# 
   818  0092                     	;# 
   819  0095                     	;# 
   820  0096                     	;# 
   821  0097                     	;# 
   822  0098                     	;# 
   823  0099                     	;# 
   824  009A                     	;# 
   825  009B                     	;# 
   826  009B                     	;# 
   827  009C                     	;# 
   828  009D                     	;# 
   829  009E                     	;# 
   830  009F                     	;# 
   831  010C                     	;# 
   832  010E                     	;# 
   833  0111                     	;# 
   834  0112                     	;# 
   835  0113                     	;# 
   836  0114                     	;# 
   837  0115                     	;# 
   838  0116                     	;# 
   839  0117                     	;# 
   840  0118                     	;# 
   841  0119                     	;# 
   842  011D                     	;# 
   843  018C                     	;# 
   844  018E                     	;# 
   845  0191                     	;# 
   846  0191                     	;# 
   847  0192                     	;# 
   848  0193                     	;# 
   849  0193                     	;# 
   850  0194                     	;# 
   851  0195                     	;# 
   852  0196                     	;# 
   853  0197                     	;# 
   854  0199                     	;# 
   855  019A                     	;# 
   856  019B                     	;# 
   857  019B                     	;# 
   858  019C                     	;# 
   859  019D                     	;# 
   860  019E                     	;# 
   861  019F                     	;# 
   862  020C                     	;# 
   863  0211                     	;# 
   864  0211                     	;# 
   865  0212                     	;# 
   866  0212                     	;# 
   867  0213                     	;# 
   868  0213                     	;# 
   869  0214                     	;# 
   870  0214                     	;# 
   871  0215                     	;# 
   872  0215                     	;# 
   873  0215                     	;# 
   874  0216                     	;# 
   875  0216                     	;# 
   876  0217                     	;# 
   877  0217                     	;# 
   878  0391                     	;# 
   879  0392                     	;# 
   880  0393                     	;# 
   881  039A                     	;# 
   882  039B                     	;# 
   883  0611                     	;# 
   884  0612                     	;# 
   885  0613                     	;# 
   886  0613                     	;# 
   887  0614                     	;# 
   888  0615                     	;# 
   889  0616                     	;# 
   890  0616                     	;# 
   891  0691                     	;# 
   892  0692                     	;# 
   893  0693                     	;# 
   894  0694                     	;# 
   895  0695                     	;# 
   896  0E8E                     	;# 
   897  0E8F                     	;# 
   898  0E90                     	;# 
   899  0E91                     	;# 
   900  0E92                     	;# 
   901  0E93                     	;# 
   902  0E94                     	;# 
   903  0E94                     	;# 
   904  0E95                     	;# 
   905  0E96                     	;# 
   906  0E97                     	;# 
   907  0E98                     	;# 
   908  0E99                     	;# 
   909  0E9A                     	;# 
   910  0E9B                     	;# 
   911  0E9C                     	;# 
   912  0E9D                     	;# 
   913  0E9E                     	;# 
   914  0E9F                     	;# 
   915  0FE4                     	;# 
   916  0FE5                     	;# 
   917  0FE6                     	;# 
   918  0FE7                     	;# 
   919  0FE8                     	;# 
   920  0FE9                     	;# 
   921  0FEA                     	;# 
   922  0FEB                     	;# 
   923  0FED                     	;# 
   924  0FEE                     	;# 
   925  0FEF                     	;# 
   926  0000                     	;# 
   927  0001                     	;# 
   928  0002                     	;# 
   929  0003                     	;# 
   930  0004                     	;# 
   931  0005                     	;# 
   932  0006                     	;# 
   933  0007                     	;# 
   934  0008                     	;# 
   935  0009                     	;# 
   936  000A                     	;# 
   937  000B                     	;# 
   938  000C                     	;# 
   939  000E                     	;# 
   940  0011                     	;# 
   941  0012                     	;# 
   942  0015                     	;# 
   943  0016                     	;# 
   944  0016                     	;# 
   945  0017                     	;# 
   946  0018                     	;# 
   947  0019                     	;# 
   948  001A                     	;# 
   949  001B                     	;# 
   950  001C                     	;# 
   951  008C                     	;# 
   952  008E                     	;# 
   953  0091                     	;# 
   954  0092                     	;# 
   955  0095                     	;# 
   956  0096                     	;# 
   957  0097                     	;# 
   958  0098                     	;# 
   959  0099                     	;# 
   960  009A                     	;# 
   961  009B                     	;# 
   962  009B                     	;# 
   963  009C                     	;# 
   964  009D                     	;# 
   965  009E                     	;# 
   966  009F                     	;# 
   967  010C                     	;# 
   968  010E                     	;# 
   969  0111                     	;# 
   970  0112                     	;# 
   971  0113                     	;# 
   972  0114                     	;# 
   973  0115                     	;# 
   974  0116                     	;# 
   975  0117                     	;# 
   976  0118                     	;# 
   977  0119                     	;# 
   978  011D                     	;# 
   979  018C                     	;# 
   980  018E                     	;# 
   981  0191                     	;# 
   982  0191                     	;# 
   983  0192                     	;# 
   984  0193                     	;# 
   985  0193                     	;# 
   986  0194                     	;# 
   987  0195                     	;# 
   988  0196                     	;# 
   989  0197                     	;# 
   990  0199                     	;# 
   991  019A                     	;# 
   992  019B                     	;# 
   993  019B                     	;# 
   994  019C                     	;# 
   995  019D                     	;# 
   996  019E                     	;# 
   997  019F                     	;# 
   998  020C                     	;# 
   999  0211                     	;# 
  1000  0211                     	;# 
  1001  0212                     	;# 
  1002  0212                     	;# 
  1003  0213                     	;# 
  1004  0213                     	;# 
  1005  0214                     	;# 
  1006  0214                     	;# 
  1007  0215                     	;# 
  1008  0215                     	;# 
  1009  0215                     	;# 
  1010  0216                     	;# 
  1011  0216                     	;# 
  1012  0217                     	;# 
  1013  0217                     	;# 
  1014  0391                     	;# 
  1015  0392                     	;# 
  1016  0393                     	;# 
  1017  039A                     	;# 
  1018  039B                     	;# 
  1019  0611                     	;# 
  1020  0612                     	;# 
  1021  0613                     	;# 
  1022  0613                     	;# 
  1023  0614                     	;# 
  1024  0615                     	;# 
  1025  0616                     	;# 
  1026  0616                     	;# 
  1027  0691                     	;# 
  1028  0692                     	;# 
  1029  0693                     	;# 
  1030  0694                     	;# 
  1031  0695                     	;# 
  1032  0E8E                     	;# 
  1033  0E8F                     	;# 
  1034  0E90                     	;# 
  1035  0E91                     	;# 
  1036  0E92                     	;# 
  1037  0E93                     	;# 
  1038  0E94                     	;# 
  1039  0E94                     	;# 
  1040  0E95                     	;# 
  1041  0E96                     	;# 
  1042  0E97                     	;# 
  1043  0E98                     	;# 
  1044  0E99                     	;# 
  1045  0E9A                     	;# 
  1046  0E9B                     	;# 
  1047  0E9C                     	;# 
  1048  0E9D                     	;# 
  1049  0E9E                     	;# 
  1050  0E9F                     	;# 
  1051  0FE4                     	;# 
  1052  0FE5                     	;# 
  1053  0FE6                     	;# 
  1054  0FE7                     	;# 
  1055  0FE8                     	;# 
  1056  0FE9                     	;# 
  1057  0FEA                     	;# 
  1058  0FEB                     	;# 
  1059  0FED                     	;# 
  1060  0FEE                     	;# 
  1061  0FEF                     	;# 
  1062  0000                     	;# 
  1063  0001                     	;# 
  1064  0002                     	;# 
  1065  0003                     	;# 
  1066  0004                     	;# 
  1067  0005                     	;# 
  1068  0006                     	;# 
  1069  0007                     	;# 
  1070  0008                     	;# 
  1071  0009                     	;# 
  1072  000A                     	;# 
  1073  000B                     	;# 
  1074  000C                     	;# 
  1075  000E                     	;# 
  1076  0011                     	;# 
  1077  0012                     	;# 
  1078  0015                     	;# 
  1079  0016                     	;# 
  1080  0016                     	;# 
  1081  0017                     	;# 
  1082  0018                     	;# 
  1083  0019                     	;# 
  1084  001A                     	;# 
  1085  001B                     	;# 
  1086  001C                     	;# 
  1087  008C                     	;# 
  1088  008E                     	;# 
  1089  0091                     	;# 
  1090  0092                     	;# 
  1091  0095                     	;# 
  1092  0096                     	;# 
  1093  0097                     	;# 
  1094  0098                     	;# 
  1095  0099                     	;# 
  1096  009A                     	;# 
  1097  009B                     	;# 
  1098  009B                     	;# 
  1099  009C                     	;# 
  1100  009D                     	;# 
  1101  009E                     	;# 
  1102  009F                     	;# 
  1103  010C                     	;# 
  1104  010E                     	;# 
  1105  0111                     	;# 
  1106  0112                     	;# 
  1107  0113                     	;# 
  1108  0114                     	;# 
  1109  0115                     	;# 
  1110  0116                     	;# 
  1111  0117                     	;# 
  1112  0118                     	;# 
  1113  0119                     	;# 
  1114  011D                     	;# 
  1115  018C                     	;# 
  1116  018E                     	;# 
  1117  0191                     	;# 
  1118  0191                     	;# 
  1119  0192                     	;# 
  1120  0193                     	;# 
  1121  0193                     	;# 
  1122  0194                     	;# 
  1123  0195                     	;# 
  1124  0196                     	;# 
  1125  0197                     	;# 
  1126  0199                     	;# 
  1127  019A                     	;# 
  1128  019B                     	;# 
  1129  019B                     	;# 
  1130  019C                     	;# 
  1131  019D                     	;# 
  1132  019E                     	;# 
  1133  019F                     	;# 
  1134  020C                     	;# 
  1135  0211                     	;# 
  1136  0211                     	;# 
  1137  0212                     	;# 
  1138  0212                     	;# 
  1139  0213                     	;# 
  1140  0213                     	;# 
  1141  0214                     	;# 
  1142  0214                     	;# 
  1143  0215                     	;# 
  1144  0215                     	;# 
  1145  0215                     	;# 
  1146  0216                     	;# 
  1147  0216                     	;# 
  1148  0217                     	;# 
  1149  0217                     	;# 
  1150  0391                     	;# 
  1151  0392                     	;# 
  1152  0393                     	;# 
  1153  039A                     	;# 
  1154  039B                     	;# 
  1155  0611                     	;# 
  1156  0612                     	;# 
  1157  0613                     	;# 
  1158  0613                     	;# 
  1159  0614                     	;# 
  1160  0615                     	;# 
  1161  0616                     	;# 
  1162  0616                     	;# 
  1163  0691                     	;# 
  1164  0692                     	;# 
  1165  0693                     	;# 
  1166  0694                     	;# 
  1167  0695                     	;# 
  1168  0E8E                     	;# 
  1169  0E8F                     	;# 
  1170  0E90                     	;# 
  1171  0E91                     	;# 
  1172  0E92                     	;# 
  1173  0E93                     	;# 
  1174  0E94                     	;# 
  1175  0E94                     	;# 
  1176  0E95                     	;# 
  1177  0E96                     	;# 
  1178  0E97                     	;# 
  1179  0E98                     	;# 
  1180  0E99                     	;# 
  1181  0E9A                     	;# 
  1182  0E9B                     	;# 
  1183  0E9C                     	;# 
  1184  0E9D                     	;# 
  1185  0E9E                     	;# 
  1186  0E9F                     	;# 
  1187  0FE4                     	;# 
  1188  0FE5                     	;# 
  1189  0FE6                     	;# 
  1190  0FE7                     	;# 
  1191  0FE8                     	;# 
  1192  0FE9                     	;# 
  1193  0FEA                     	;# 
  1194  0FEB                     	;# 
  1195  0FED                     	;# 
  1196  0FEE                     	;# 
  1197  0FEF                     	;# 
  1198  0000                     	;# 
  1199  0001                     	;# 
  1200  0002                     	;# 
  1201  0003                     	;# 
  1202  0004                     	;# 
  1203  0005                     	;# 
  1204  0006                     	;# 
  1205  0007                     	;# 
  1206  0008                     	;# 
  1207  0009                     	;# 
  1208  000A                     	;# 
  1209  000B                     	;# 
  1210  000C                     	;# 
  1211  000E                     	;# 
  1212  0011                     	;# 
  1213  0012                     	;# 
  1214  0015                     	;# 
  1215  0016                     	;# 
  1216  0016                     	;# 
  1217  0017                     	;# 
  1218  0018                     	;# 
  1219  0019                     	;# 
  1220  001A                     	;# 
  1221  001B                     	;# 
  1222  001C                     	;# 
  1223  008C                     	;# 
  1224  008E                     	;# 
  1225  0091                     	;# 
  1226  0092                     	;# 
  1227  0095                     	;# 
  1228  0096                     	;# 
  1229  0097                     	;# 
  1230  0098                     	;# 
  1231  0099                     	;# 
  1232  009A                     	;# 
  1233  009B                     	;# 
  1234  009B                     	;# 
  1235  009C                     	;# 
  1236  009D                     	;# 
  1237  009E                     	;# 
  1238  009F                     	;# 
  1239  010C                     	;# 
  1240  010E                     	;# 
  1241  0111                     	;# 
  1242  0112                     	;# 
  1243  0113                     	;# 
  1244  0114                     	;# 
  1245  0115                     	;# 
  1246  0116                     	;# 
  1247  0117                     	;# 
  1248  0118                     	;# 
  1249  0119                     	;# 
  1250  011D                     	;# 
  1251  018C                     	;# 
  1252  018E                     	;# 
  1253  0191                     	;# 
  1254  0191                     	;# 
  1255  0192                     	;# 
  1256  0193                     	;# 
  1257  0193                     	;# 
  1258  0194                     	;# 
  1259  0195                     	;# 
  1260  0196                     	;# 
  1261  0197                     	;# 
  1262  0199                     	;# 
  1263  019A                     	;# 
  1264  019B                     	;# 
  1265  019B                     	;# 
  1266  019C                     	;# 
  1267  019D                     	;# 
  1268  019E                     	;# 
  1269  019F                     	;# 
  1270  020C                     	;# 
  1271  0211                     	;# 
  1272  0211                     	;# 
  1273  0212                     	;# 
  1274  0212                     	;# 
  1275  0213                     	;# 
  1276  0213                     	;# 
  1277  0214                     	;# 
  1278  0214                     	;# 
  1279  0215                     	;# 
  1280  0215                     	;# 
  1281  0215                     	;# 
  1282  0216                     	;# 
  1283  0216                     	;# 
  1284  0217                     	;# 
  1285  0217                     	;# 
  1286  0391                     	;# 
  1287  0392                     	;# 
  1288  0393                     	;# 
  1289  039A                     	;# 
  1290  039B                     	;# 
  1291  0611                     	;# 
  1292  0612                     	;# 
  1293  0613                     	;# 
  1294  0613                     	;# 
  1295  0614                     	;# 
  1296  0615                     	;# 
  1297  0616                     	;# 
  1298  0616                     	;# 
  1299  0691                     	;# 
  1300  0692                     	;# 
  1301  0693                     	;# 
  1302  0694                     	;# 
  1303  0695                     	;# 
  1304  0E8E                     	;# 
  1305  0E8F                     	;# 
  1306  0E90                     	;# 
  1307  0E91                     	;# 
  1308  0E92                     	;# 
  1309  0E93                     	;# 
  1310  0E94                     	;# 
  1311  0E94                     	;# 
  1312  0E95                     	;# 
  1313  0E96                     	;# 
  1314  0E97                     	;# 
  1315  0E98                     	;# 
  1316  0E99                     	;# 
  1317  0E9A                     	;# 
  1318  0E9B                     	;# 
  1319  0E9C                     	;# 
  1320  0E9D                     	;# 
  1321  0E9E                     	;# 
  1322  0E9F                     	;# 
  1323  0FE4                     	;# 
  1324  0FE5                     	;# 
  1325  0FE6                     	;# 
  1326  0FE7                     	;# 
  1327  0FE8                     	;# 
  1328  0FE9                     	;# 
  1329  0FEA                     	;# 
  1330  0FEB                     	;# 
  1331  0FED                     	;# 
  1332  0FEE                     	;# 
  1333  0FEF                     	;# 
  1334  0000                     	;# 
  1335  0001                     	;# 
  1336  0002                     	;# 
  1337  0003                     	;# 
  1338  0004                     	;# 
  1339  0005                     	;# 
  1340  0006                     	;# 
  1341  0007                     	;# 
  1342  0008                     	;# 
  1343  0009                     	;# 
  1344  000A                     	;# 
  1345  000B                     	;# 
  1346  000C                     	;# 
  1347  000E                     	;# 
  1348  0011                     	;# 
  1349  0012                     	;# 
  1350  0015                     	;# 
  1351  0016                     	;# 
  1352  0016                     	;# 
  1353  0017                     	;# 
  1354  0018                     	;# 
  1355  0019                     	;# 
  1356  001A                     	;# 
  1357  001B                     	;# 
  1358  001C                     	;# 
  1359  008C                     	;# 
  1360  008E                     	;# 
  1361  0091                     	;# 
  1362  0092                     	;# 
  1363  0095                     	;# 
  1364  0096                     	;# 
  1365  0097                     	;# 
  1366  0098                     	;# 
  1367  0099                     	;# 
  1368  009A                     	;# 
  1369  009B                     	;# 
  1370  009B                     	;# 
  1371  009C                     	;# 
  1372  009D                     	;# 
  1373  009E                     	;# 
  1374  009F                     	;# 
  1375  010C                     	;# 
  1376  010E                     	;# 
  1377  0111                     	;# 
  1378  0112                     	;# 
  1379  0113                     	;# 
  1380  0114                     	;# 
  1381  0115                     	;# 
  1382  0116                     	;# 
  1383  0117                     	;# 
  1384  0118                     	;# 
  1385  0119                     	;# 
  1386  011D                     	;# 
  1387  018C                     	;# 
  1388  018E                     	;# 
  1389  0191                     	;# 
  1390  0191                     	;# 
  1391  0192                     	;# 
  1392  0193                     	;# 
  1393  0193                     	;# 
  1394  0194                     	;# 
  1395  0195                     	;# 
  1396  0196                     	;# 
  1397  0197                     	;# 
  1398  0199                     	;# 
  1399  019A                     	;# 
  1400  019B                     	;# 
  1401  019B                     	;# 
  1402  019C                     	;# 
  1403  019D                     	;# 
  1404  019E                     	;# 
  1405  019F                     	;# 
  1406  020C                     	;# 
  1407  0211                     	;# 
  1408  0211                     	;# 
  1409  0212                     	;# 
  1410  0212                     	;# 
  1411  0213                     	;# 
  1412  0213                     	;# 
  1413  0214                     	;# 
  1414  0214                     	;# 
  1415  0215                     	;# 
  1416  0215                     	;# 
  1417  0215                     	;# 
  1418  0216                     	;# 
  1419  0216                     	;# 
  1420  0217                     	;# 
  1421  0217                     	;# 
  1422  0391                     	;# 
  1423  0392                     	;# 
  1424  0393                     	;# 
  1425  039A                     	;# 
  1426  039B                     	;# 
  1427  0611                     	;# 
  1428  0612                     	;# 
  1429  0613                     	;# 
  1430  0613                     	;# 
  1431  0614                     	;# 
  1432  0615                     	;# 
  1433  0616                     	;# 
  1434  0616                     	;# 
  1435  0691                     	;# 
  1436  0692                     	;# 
  1437  0693                     	;# 
  1438  0694                     	;# 
  1439  0695                     	;# 
  1440  0E8E                     	;# 
  1441  0E8F                     	;# 
  1442  0E90                     	;# 
  1443  0E91                     	;# 
  1444  0E92                     	;# 
  1445  0E93                     	;# 
  1446  0E94                     	;# 
  1447  0E94                     	;# 
  1448  0E95                     	;# 
  1449  0E96                     	;# 
  1450  0E97                     	;# 
  1451  0E98                     	;# 
  1452  0E99                     	;# 
  1453  0E9A                     	;# 
  1454  0E9B                     	;# 
  1455  0E9C                     	;# 
  1456  0E9D                     	;# 
  1457  0E9E                     	;# 
  1458  0E9F                     	;# 
  1459  0FE4                     	;# 
  1460  0FE5                     	;# 
  1461  0FE6                     	;# 
  1462  0FE7                     	;# 
  1463  0FE8                     	;# 
  1464  0FE9                     	;# 
  1465  0FEA                     	;# 
  1466  0FEB                     	;# 
  1467  0FED                     	;# 
  1468  0FEE                     	;# 
  1469  0FEF                     	;# 
  1470  0000                     	;# 
  1471  0001                     	;# 
  1472  0002                     	;# 
  1473  0003                     	;# 
  1474  0004                     	;# 
  1475  0005                     	;# 
  1476  0006                     	;# 
  1477  0007                     	;# 
  1478  0008                     	;# 
  1479  0009                     	;# 
  1480  000A                     	;# 
  1481  000B                     	;# 
  1482  000C                     	;# 
  1483  000E                     	;# 
  1484  0011                     	;# 
  1485  0012                     	;# 
  1486  0015                     	;# 
  1487  0016                     	;# 
  1488  0016                     	;# 
  1489  0017                     	;# 
  1490  0018                     	;# 
  1491  0019                     	;# 
  1492  001A                     	;# 
  1493  001B                     	;# 
  1494  001C                     	;# 
  1495  008C                     	;# 
  1496  008E                     	;# 
  1497  0091                     	;# 
  1498  0092                     	;# 
  1499  0095                     	;# 
  1500  0096                     	;# 
  1501  0097                     	;# 
  1502  0098                     	;# 
  1503  0099                     	;# 
  1504  009A                     	;# 
  1505  009B                     	;# 
  1506  009B                     	;# 
  1507  009C                     	;# 
  1508  009D                     	;# 
  1509  009E                     	;# 
  1510  009F                     	;# 
  1511  010C                     	;# 
  1512  010E                     	;# 
  1513  0111                     	;# 
  1514  0112                     	;# 
  1515  0113                     	;# 
  1516  0114                     	;# 
  1517  0115                     	;# 
  1518  0116                     	;# 
  1519  0117                     	;# 
  1520  0118                     	;# 
  1521  0119                     	;# 
  1522  011D                     	;# 
  1523  018C                     	;# 
  1524  018E                     	;# 
  1525  0191                     	;# 
  1526  0191                     	;# 
  1527  0192                     	;# 
  1528  0193                     	;# 
  1529  0193                     	;# 
  1530  0194                     	;# 
  1531  0195                     	;# 
  1532  0196                     	;# 
  1533  0197                     	;# 
  1534  0199                     	;# 
  1535  019A                     	;# 
  1536  019B                     	;# 
  1537  019B                     	;# 
  1538  019C                     	;# 
  1539  019D                     	;# 
  1540  019E                     	;# 
  1541  019F                     	;# 
  1542  020C                     	;# 
  1543  0211                     	;# 
  1544  0211                     	;# 
  1545  0212                     	;# 
  1546  0212                     	;# 
  1547  0213                     	;# 
  1548  0213                     	;# 
  1549  0214                     	;# 
  1550  0214                     	;# 
  1551  0215                     	;# 
  1552  0215                     	;# 
  1553  0215                     	;# 
  1554  0216                     	;# 
  1555  0216                     	;# 
  1556  0217                     	;# 
  1557  0217                     	;# 
  1558  0391                     	;# 
  1559  0392                     	;# 
  1560  0393                     	;# 
  1561  039A                     	;# 
  1562  039B                     	;# 
  1563  0611                     	;# 
  1564  0612                     	;# 
  1565  0613                     	;# 
  1566  0613                     	;# 
  1567  0614                     	;# 
  1568  0615                     	;# 
  1569  0616                     	;# 
  1570  0616                     	;# 
  1571  0691                     	;# 
  1572  0692                     	;# 
  1573  0693                     	;# 
  1574  0694                     	;# 
  1575  0695                     	;# 
  1576  0E8E                     	;# 
  1577  0E8F                     	;# 
  1578  0E90                     	;# 
  1579  0E91                     	;# 
  1580  0E92                     	;# 
  1581  0E93                     	;# 
  1582  0E94                     	;# 
  1583  0E94                     	;# 
  1584  0E95                     	;# 
  1585  0E96                     	;# 
  1586  0E97                     	;# 
  1587  0E98                     	;# 
  1588  0E99                     	;# 
  1589  0E9A                     	;# 
  1590  0E9B                     	;# 
  1591  0E9C                     	;# 
  1592  0E9D                     	;# 
  1593  0E9E                     	;# 
  1594  0E9F                     	;# 
  1595  0FE4                     	;# 
  1596  0FE5                     	;# 
  1597  0FE6                     	;# 
  1598  0FE7                     	;# 
  1599  0FE8                     	;# 
  1600  0FE9                     	;# 
  1601  0FEA                     	;# 
  1602  0FEB                     	;# 
  1603  0FED                     	;# 
  1604  0FEE                     	;# 
  1605  0FEF                     	;_leds_output
  1606                           
  1607                           	psect	idataBANK3
  1608  17BE                     __pidataBANK3:
  1609                           
  1610                           ;initializer for _v
  1611  17BE  3441               	retlw	65
  1612  17BF  3442               	retlw	66
  1613  17C0  3443               	retlw	67
  1614  17C1  3444               	retlw	68
  1615  17C2  3445               	retlw	69
  1616  17C3  3446               	retlw	70
  1617  17C4  3447               	retlw	71
  1618  17C5  3448               	retlw	72
  1619                           
  1620                           	psect	stringtext1
  1621  1828                     __pstringtext1:
  1622  1828                     _USB_SD_Ptr:
  1623  1828  342E               	retlw	low (_sd000| (0+32768))
  1624  1829  3498               	retlw	high (_sd000| (0+32768))
  1625  182A  34C0               	retlw	low (_sd001| (0+32768))
  1626  182B  3490               	retlw	high (_sd001| (0+32768))
  1627  182C  3410               	retlw	low (_sd002| (0+32768))
  1628  182D  3491               	retlw	high (_sd002| (0+32768))
  1629  182E                     __end_of_USB_SD_Ptr:
  1630                           
  1631                           	psect	stringtext2
  1632  1832                     __pstringtext2:
  1633  1832                     _USB_CD_Ptr:
  1634  1832  3400               	retlw	low (_configDescriptor1| (0+32768))
  1635  1833  3490               	retlw	high (_configDescriptor1| (0+32768))
  1636  1834                     __end_of_USB_CD_Ptr:
  1637                           
  1638                           	psect	stringtext3
  1639  1000                     __pstringtext3:
  1640  1000                     _configDescriptor1:
  1641  1000  3409               	retlw	9
  1642  1001  3402               	retlw	2
  1643  1002  3469               	retlw	105
  1644  1003  3400               	retlw	0
  1645  1004  3403               	retlw	3
  1646  1005  3401               	retlw	1
  1647  1006  3400               	retlw	0
  1648  1007  34C0               	retlw	192
  1649  1008  34FA               	retlw	250
  1650  1009  3409               	retlw	9
  1651  100A  3404               	retlw	4
  1652  100B  3400               	retlw	0
  1653  100C  3400               	retlw	0
  1654  100D  3402               	retlw	2
  1655  100E  3403               	retlw	3
  1656  100F  3400               	retlw	0
  1657  1010  3400               	retlw	0
  1658  1011  3400               	retlw	0
  1659  1012  3409               	retlw	9
  1660  1013  3421               	retlw	33
  1661  1014  3411               	retlw	17
  1662  1015  3401               	retlw	1
  1663  1016  3400               	retlw	0
  1664  1017  3401               	retlw	1
  1665  1018  3422               	retlw	34
  1666  1019  3457               	retlw	87
  1667  101A  3400               	retlw	0
  1668  101B  3407               	retlw	7
  1669  101C  3405               	retlw	5
  1670  101D  3481               	retlw	129
  1671  101E  3403               	retlw	3
  1672  101F  3440               	retlw	64
  1673  1020  3400               	retlw	0
  1674  1021  3403               	retlw	3
  1675  1022  3407               	retlw	7
  1676  1023  3405               	retlw	5
  1677  1024  3401               	retlw	1
  1678  1025  3403               	retlw	3
  1679  1026  3440               	retlw	64
  1680  1027  3400               	retlw	0
  1681  1028  3403               	retlw	3
  1682  1029  3409               	retlw	9
  1683  102A  3404               	retlw	4
  1684  102B  3401               	retlw	1
  1685  102C  3400               	retlw	0
  1686  102D  3402               	retlw	2
  1687  102E  3403               	retlw	3
  1688  102F  3400               	retlw	0
  1689  1030  3400               	retlw	0
  1690  1031  3400               	retlw	0
  1691  1032  3409               	retlw	9
  1692  1033  3421               	retlw	33
  1693  1034  3411               	retlw	17
  1694  1035  3401               	retlw	1
  1695  1036  3400               	retlw	0
  1696  1037  3401               	retlw	1
  1697  1038  3422               	retlw	34
  1698  1039  341C               	retlw	28
  1699  103A  3400               	retlw	0
  1700  103B  3407               	retlw	7
  1701  103C  3405               	retlw	5
  1702  103D  3482               	retlw	130
  1703  103E  3403               	retlw	3
  1704  103F  3440               	retlw	64
  1705  1040  3400               	retlw	0
  1706  1041  3464               	retlw	100
  1707  1042  3407               	retlw	7
  1708  1043  3405               	retlw	5
  1709  1044  3402               	retlw	2
  1710  1045  3403               	retlw	3
  1711  1046  3440               	retlw	64
  1712  1047  3400               	retlw	0
  1713  1048  3405               	retlw	5
  1714  1049  3409               	retlw	9
  1715  104A  3404               	retlw	4
  1716  104B  3402               	retlw	2
  1717  104C  3400               	retlw	0
  1718  104D  3402               	retlw	2
  1719  104E  3403               	retlw	3
  1720  104F  3400               	retlw	0
  1721  1050  3400               	retlw	0
  1722  1051  3400               	retlw	0
  1723  1052  3409               	retlw	9
  1724  1053  3421               	retlw	33
  1725  1054  3411               	retlw	17
  1726  1055  3401               	retlw	1
  1727  1056  3400               	retlw	0
  1728  1057  3401               	retlw	1
  1729  1058  3422               	retlw	34
  1730  1059  3416               	retlw	22
  1731  105A  3400               	retlw	0
  1732  105B  3407               	retlw	7
  1733  105C  3405               	retlw	5
  1734  105D  3483               	retlw	131
  1735  105E  3403               	retlw	3
  1736  105F  3440               	retlw	64
  1737  1060  3400               	retlw	0
  1738  1061  3464               	retlw	100
  1739  1062  3407               	retlw	7
  1740  1063  3405               	retlw	5
  1741  1064  3403               	retlw	3
  1742  1065  3403               	retlw	3
  1743  1066  3440               	retlw	64
  1744  1067  3400               	retlw	0
  1745  1068  3401               	retlw	1
  1746  1069                     __end_of_configDescriptor1:
  1747                           
  1748                           	psect	stringtext4
  1749  1069                     __pstringtext4:
  1750  1069                     _HAPTIC_rpt:
  1751  1069  3405               	retlw	5
  1752  106A  3401               	retlw	1
  1753  106B  3409               	retlw	9
  1754  106C  3404               	retlw	4
  1755  106D  34A1               	retlw	161
  1756  106E  3401               	retlw	1
  1757  106F  3417               	retlw	23
  1758  1070  3401               	retlw	1
  1759  1071  3400               	retlw	0
  1760  1072  3400               	retlw	0
  1761  1073  3480               	retlw	128
  1762  1074  3427               	retlw	39
  1763  1075  34FF               	retlw	255
  1764  1076  34FF               	retlw	255
  1765  1077  34FF               	retlw	255
  1766  1078  347F               	retlw	127
  1767  1079  3475               	retlw	117
  1768  107A  3420               	retlw	32
  1769  107B  3495               	retlw	149
  1770  107C  3401               	retlw	1
  1771  107D  3405               	retlw	5
  1772  107E  3401               	retlw	1
  1773  107F  3409               	retlw	9
  1774  1080  3438               	retlw	56
  1775  1081  3481               	retlw	129
  1776  1082  3402               	retlw	2
  1777  1083  3415               	retlw	21
  1778  1084  3400               	retlw	0
  1779  1085  3426               	retlw	38
  1780  1086  34FF               	retlw	255
  1781  1087  3400               	retlw	0
  1782  1088  3435               	retlw	53
  1783  1089  3400               	retlw	0
  1784  108A  3446               	retlw	70
  1785  108B  34FF               	retlw	255
  1786  108C  3400               	retlw	0
  1787  108D  3475               	retlw	117
  1788  108E  3408               	retlw	8
  1789  108F  3495               	retlw	149
  1790  1090  3402               	retlw	2
  1791  1091  3405               	retlw	5
  1792  1092  3401               	retlw	1
  1793  1093  3409               	retlw	9
  1794  1094  3430               	retlw	48
  1795  1095  3409               	retlw	9
  1796  1096  3431               	retlw	49
  1797  1097  3481               	retlw	129
  1798  1098  3402               	retlw	2
  1799  1099  3405               	retlw	5
  1800  109A  3409               	retlw	9
  1801  109B  3409               	retlw	9
  1802  109C  3401               	retlw	1
  1803  109D  3495               	retlw	149
  1804  109E  3401               	retlw	1
  1805  109F  3475               	retlw	117
  1806  10A0  3408               	retlw	8
  1807  10A1  3426               	retlw	38
  1808  10A2  34FF               	retlw	255
  1809  10A3  3400               	retlw	0
  1810  10A4  3415               	retlw	21
  1811  10A5  3400               	retlw	0
  1812  10A6  3481               	retlw	129
  1813  10A7  3402               	retlw	2
  1814  10A8  3495               	retlw	149
  1815  10A9  3409               	retlw	9
  1816  10AA  3475               	retlw	117
  1817  10AB  3408               	retlw	8
  1818  10AC  3409               	retlw	9
  1819  10AD  34F0               	retlw	240
  1820  10AE  3481               	retlw	129
  1821  10AF  3402               	retlw	2
  1822  10B0  3415               	retlw	21
  1823  10B1  3400               	retlw	0
  1824  10B2  3426               	retlw	38
  1825  10B3  34FF               	retlw	255
  1826  10B4  3400               	retlw	0
  1827  10B5  3475               	retlw	117
  1828  10B6  3401               	retlw	1
  1829  10B7  3495               	retlw	149
  1830  10B8  3440               	retlw	64
  1831  10B9  3405               	retlw	5
  1832  10BA  3401               	retlw	1
  1833  10BB  3409               	retlw	9
  1834  10BC  344B               	retlw	75
  1835  10BD  3491               	retlw	145
  1836  10BE  3402               	retlw	2
  1837  10BF  34C0               	retlw	192
  1838  10C0                     __end_of_HAPTIC_rpt:
  1839                           
  1840                           	psect	stringtext5
  1841  10C0                     __pstringtext5:
  1842  10C0                     _sd001:
  1843  10C0  3434               	retlw	52
  1844  10C1  3403               	retlw	3
  1845  10C2  344D               	retlw	77
  1846  10C3  3400               	retlw	0
  1847  10C4  3469               	retlw	105
  1848  10C5  3400               	retlw	0
  1849  10C6  3463               	retlw	99
  1850  10C7  3400               	retlw	0
  1851  10C8  3472               	retlw	114
  1852  10C9  3400               	retlw	0
  1853  10CA  346F               	retlw	111
  1854  10CB  3400               	retlw	0
  1855  10CC  3463               	retlw	99
  1856  10CD  3400               	retlw	0
  1857  10CE  3468               	retlw	104
  1858  10CF  3400               	retlw	0
  1859  10D0  3469               	retlw	105
  1860  10D1  3400               	retlw	0
  1861  10D2  3470               	retlw	112
  1862  10D3  3400               	retlw	0
  1863  10D4  3420               	retlw	32
  1864  10D5  3400               	retlw	0
  1865  10D6  3454               	retlw	84
  1866  10D7  3400               	retlw	0
  1867  10D8  3465               	retlw	101
  1868  10D9  3400               	retlw	0
  1869  10DA  3463               	retlw	99
  1870  10DB  3400               	retlw	0
  1871  10DC  3468               	retlw	104
  1872  10DD  3400               	retlw	0
  1873  10DE  346E               	retlw	110
  1874  10DF  3400               	retlw	0
  1875  10E0  346F               	retlw	111
  1876  10E1  3400               	retlw	0
  1877  10E2  346C               	retlw	108
  1878  10E3  3400               	retlw	0
  1879  10E4  346F               	retlw	111
  1880  10E5  3400               	retlw	0
  1881  10E6  3467               	retlw	103
  1882  10E7  3400               	retlw	0
  1883  10E8  3479               	retlw	121
  1884  10E9  3400               	retlw	0
  1885  10EA  3420               	retlw	32
  1886  10EB  3400               	retlw	0
  1887  10EC  3449               	retlw	73
  1888  10ED  3400               	retlw	0
  1889  10EE  346E               	retlw	110
  1890  10EF  3400               	retlw	0
  1891  10F0  3463               	retlw	99
  1892  10F1  3400               	retlw	0
  1893  10F2  342E               	retlw	46
  1894  10F3  3400               	retlw	0
  1895  10F4                     __end_of_sd001:
  1896                           
  1897                           	psect	stringtext6
  1898  10F4                     __pstringtext6:
  1899  10F4                     _LED_rpt:
  1900  10F4  3405               	retlw	5
  1901  10F5  3408               	retlw	8
  1902  10F6  3409               	retlw	9
  1903  10F7  3452               	retlw	82
  1904  10F8  34A1               	retlw	161
  1905  10F9  3402               	retlw	2
  1906  10FA  3415               	retlw	21
  1907  10FB  3400               	retlw	0
  1908  10FC  3426               	retlw	38
  1909  10FD  3400               	retlw	0
  1910  10FE  3401               	retlw	1
  1911  10FF  3475               	retlw	117
  1912  1100  3408               	retlw	8
  1913  1101  3495               	retlw	149
  1914  1102  3431               	retlw	49
  1915  1103  3405               	retlw	5
  1916  1104  3408               	retlw	8
  1917  1105  3409               	retlw	9
  1918  1106  344B               	retlw	75
  1919  1107  3409               	retlw	9
  1920  1108  3453               	retlw	83
  1921  1109  3409               	retlw	9
  1922  110A  3455               	retlw	85
  1923  110B  3409               	retlw	9
  1924  110C  3454               	retlw	84
  1925  110D  3491               	retlw	145
  1926  110E  3402               	retlw	2
  1927  110F  34C0               	retlw	192
  1928  1110                     __end_of_LED_rpt:
  1929                           
  1930                           	psect	stringtext7
  1931  1110                     __pstringtext7:
  1932  1110                     _sd002:
  1933  1110  341C               	retlw	28
  1934  1111  3403               	retlw	3
  1935  1112  344A               	retlw	74
  1936  1113  3400               	retlw	0
  1937  1114  346F               	retlw	111
  1938  1115  3400               	retlw	0
  1939  1116  3479               	retlw	121
  1940  1117  3400               	retlw	0
  1941  1118  3473               	retlw	115
  1942  1119  3400               	retlw	0
  1943  111A  3474               	retlw	116
  1944  111B  3400               	retlw	0
  1945  111C  3469               	retlw	105
  1946  111D  3400               	retlw	0
  1947  111E  3463               	retlw	99
  1948  111F  3400               	retlw	0
  1949  1120  346B               	retlw	107
  1950  1121  3400               	retlw	0
  1951  1122  3420               	retlw	32
  1952  1123  3400               	retlw	0
  1953  1124  3444               	retlw	68
  1954  1125  3400               	retlw	0
  1955  1126  3465               	retlw	101
  1956  1127  3400               	retlw	0
  1957  1128  346D               	retlw	109
  1958  1129  3400               	retlw	0
  1959  112A  346F               	retlw	111
  1960  112B  3400               	retlw	0
  1961  112C                     __end_of_sd002:
  1962                           
  1963                           	psect	stringtext8
  1964  1800                     __pstringtext8:
  1965  1800                     _DISPLAY_rpt:
  1966  1800  3405               	retlw	5
  1967  1801  3414               	retlw	20
  1968  1802  3409               	retlw	9
  1969  1803  3402               	retlw	2
  1970  1804  34A1               	retlw	161
  1971  1805  3402               	retlw	2
  1972  1806  3415               	retlw	21
  1973  1807  3400               	retlw	0
  1974  1808  3426               	retlw	38
  1975  1809  3400               	retlw	0
  1976  180A  3401               	retlw	1
  1977  180B  3475               	retlw	117
  1978  180C  3408               	retlw	8
  1979  180D  3495               	retlw	149
  1980  180E  3440               	retlw	64
  1981  180F  3405               	retlw	5
  1982  1810  3414               	retlw	20
  1983  1811  3409               	retlw	9
  1984  1812  3402               	retlw	2
  1985  1813  3491               	retlw	145
  1986  1814  3402               	retlw	2
  1987  1815  34C0               	retlw	192
  1988  1816                     __end_of_DISPLAY_rpt:
  1989                           
  1990                           	psect	stringtext9
  1991  1816                     __pstringtext9:
  1992  1816                     _device_dsc:
  1993  1816  3412               	retlw	18
  1994  1817  3401               	retlw	1
  1995  1818  3400               	retlw	0
  1996  1819  3402               	retlw	2
  1997  181A  3400               	retlw	0
  1998  181B  3400               	retlw	0
  1999  181C  3400               	retlw	0
  2000  181D  3408               	retlw	8
  2001  181E  34D8               	retlw	216
  2002  181F  3404               	retlw	4
  2003  1820  345E               	retlw	94
  2004  1821  3400               	retlw	0
  2005  1822  3401               	retlw	1
  2006  1823  3400               	retlw	0
  2007  1824  3401               	retlw	1
  2008  1825  3402               	retlw	2
  2009  1826  3400               	retlw	0
  2010  1827  3401               	retlw	1
  2011  1828                     __end_of_device_dsc:
  2012                           
  2013                           	psect	stringtext10
  2014  182E                     __pstringtext10:
  2015  182E                     _sd000:
  2016  182E  3404               	retlw	4
  2017  182F  3403               	retlw	3
  2018  1830  3409               	retlw	9
  2019  1831  3404               	retlw	4
  2020  1832                     __end_of_sd000:
  2021  21B0                     _display_output	set	8624
  2022  2130                     _leds_output	set	8496
  2023  000E                     _PORTCbits	set	14
  2024  0012                     _PIR2bits	set	18
  2025  008E                     _TRISCbits	set	142
  2026  0092                     _PIE2bits	set	146
  2027  0470                     _TRISC0	set	1136
  2028  0473                     _TRISC3	set	1139
  2029  0472                     _TRISC2	set	1138
  2030  0471                     _TRISC1	set	1137
  2031  010E                     _LATCbits	set	270
  2032  018E                     _ANSELC	set	398
  2033  0215                     _SSPCON	set	533
  2034  0212                     _SSPADD	set	530
  2035  0211                     _SSPBUF	set	529
  2036  0214                     _SSPSTAT	set	532
  2037  0215                     _SSPCON1	set	533
  2038  10AF                     _WCOL	set	4271
  2039  10A0                     _BF	set	4256
  2040  10AE                     _SSPOV	set	4270
  2041  0E98                     _UEP0bits	set	3736
  2042  0E8F                     _USTAT	set	3727
  2043  0E92                     _UIEbits	set	3730
  2044  0E8E                     _UCON	set	3726
  2045  0E90                     _UIRbits	set	3728
  2046  0E96                     _UADDR	set	3734
  2047  0E8E                     _UCONbits	set	3726
  2048  0E92                     _UIE	set	3730
  2049  0E97                     _UEIE	set	3735
  2050  0E91                     _UCFG	set	3729
  2051  0E90                     _UIR	set	3728
  2052  0E93                     _UEIR	set	3731
  2053  0E99                     _UEP1	set	3737
  2054  0E98                     _UEP0	set	3736
  2055                           
  2056                           	psect	cinit
  2057  000A                     start_initialization:	
  2058                           ; #config settings
  2059                           
  2060  000A                     __initialization:
  2061                           
  2062                           ; Initialize objects allocated to BANK3
  2063  000A  30BE               	movlw	low __pidataBANK3
  2064  000B  0084               	movwf	4
  2065  000C  3097               	movlw	(high __pidataBANK3)| (0+128)
  2066  000D  0085               	movwf	5
  2067  000E  0023               	movlb	3	; select bank3
  2068  000F  0012               	moviw fsr0++
  2069  0010  00C0               	movwf	__pdataBANK3& (0+127)
  2070  0011  0012               	moviw fsr0++
  2071  0012  00C1               	movwf	(__pdataBANK3+1)& (0+127)
  2072  0013  0012               	moviw fsr0++
  2073  0014  00C2               	movwf	(__pdataBANK3+2)& (0+127)
  2074  0015  0012               	moviw fsr0++
  2075  0016  00C3               	movwf	(__pdataBANK3+3)& (0+127)
  2076  0017  0012               	moviw fsr0++
  2077  0018  00C4               	movwf	(__pdataBANK3+4)& (0+127)
  2078  0019  0012               	moviw fsr0++
  2079  001A  00C5               	movwf	(__pdataBANK3+5)& (0+127)
  2080  001B  0012               	moviw fsr0++
  2081  001C  00C6               	movwf	(__pdataBANK3+6)& (0+127)
  2082  001D  0012               	moviw fsr0++
  2083  001E  00C7               	movwf	(__pdataBANK3+7)& (0+127)
  2084                           
  2085                           ; Clear objects allocated to BANK1
  2086  001F  30B0               	movlw	low __pbssBANK1
  2087  0020  0084               	movwf	4
  2088  0021  3000               	movlw	high __pbssBANK1
  2089  0022  0085               	movwf	5
  2090  0023  3029               	movlw	41
  2091  0024  00FE               	movwf	btemp
  2092  0025  3000               	movlw	0
  2093  0026  00FF               	movwf	btemp+1
  2094  0027  3197  27C6  3180   	fcall	clear_ram0
  2095                           
  2096                           ; Clear objects allocated to BANK2
  2097  002A  3020               	movlw	low __pbssBANK2
  2098  002B  0084               	movwf	4
  2099  002C  3001               	movlw	high __pbssBANK2
  2100  002D  0085               	movwf	5
  2101  002E  3010               	movlw	16
  2102  002F  00FE               	movwf	btemp
  2103  0030  3000               	movlw	0
  2104  0031  00FF               	movwf	btemp+1
  2105  0032  3197  27C6  3180   	fcall	clear_ram0
  2106                           
  2107                           ; Clear objects allocated to BANK3
  2108  0035  30A0               	movlw	low __pbssBANK3
  2109  0036  0084               	movwf	4
  2110  0037  3001               	movlw	high __pbssBANK3
  2111  0038  0085               	movwf	5
  2112  0039  3020               	movlw	32
  2113  003A  00FE               	movwf	btemp
  2114  003B  3000               	movlw	0
  2115  003C  00FF               	movwf	btemp+1
  2116  003D  3197  27C6  3180   	fcall	clear_ram0
  2117  0040                     end_of_initialization:	
  2118                           ;End of C runtime variable initialization code
  2119                           
  2120  0040                     __end_of__initialization:
  2121  0040  107E               	bcf	int$flags,0	;clear compiler interrupt flag (level 1)
  2122  0041  0020               	movlb	0
  2123  0042  3189  29AA         	ljmp	_main	;jump to C main() function
  2124                           
  2125                           	psect	bssBANK1
  2126  00B0                     __pbssBANK1:
  2127  00B0                     _pBDTEntryIn:
  2128  00B0                     	ds	8
  2129  00B8                     _inPipes:
  2130  00B8                     	ds	5
  2131  00BD                     APP_LEDUpdateUSBStatus@ledCount:
  2132  00BD                     	ds	2
  2133  00BF                     _last_HAP_IN:
  2134  00BF                     	ds	2
  2135  00C1                     _pBDTEntryEP0OutNext:
  2136  00C1                     	ds	2
  2137  00C3                     _pkt_requests:
  2138  00C3                     	ds	1
  2139  00C4                     _display_pkt_ready:
  2140  00C4                     	ds	1
  2141  00C5                     _USBTicksSinceSuspendEnd:
  2142  00C5                     	ds	1
  2143  00C6                     _USBDeferOUTDataStagePackets:
  2144  00C6                     	ds	1
  2145  00C7                     _USBDeferINDataStagePackets:
  2146  00C7                     	ds	1
  2147  00C8                     _USBStatusStageEnabledFlag2:
  2148  00C8                     	ds	1
  2149  00C9                     _USBStatusStageEnabledFlag1:
  2150  00C9                     	ds	1
  2151  00CA                     _USBDeferStatusStagePacket:
  2152  00CA                     	ds	1
  2153  00CB                     _USBStatusStageTimeoutCounter:
  2154  00CB                     	ds	1
  2155  00CC                     _BothEP0OutUOWNsSet:
  2156  00CC                     	ds	1
  2157  00CD                     _endpoint_number:
  2158  00CD                     	ds	1
  2159  00CE                     _USBBusIsSuspended:
  2160  00CE                     	ds	1
  2161  00CF                     _RemoteWakeup:
  2162  00CF                     	ds	1
  2163  00D0                     _pDst:
  2164  00D0                     	ds	1
  2165  00D1                     _controlTransferState:
  2166  00D1                     	ds	1
  2167  00D2                     _shortPacketStatus:
  2168  00D2                     	ds	1
  2169  00D3                     _pBDTEntryEP0OutCurrent:
  2170  00D3                     	ds	1
  2171  00D4                     _USBDeviceState:
  2172  00D4                     	ds	1
  2173  00D5                     _active_protocol:
  2174  00D5                     	ds	1
  2175  00D6                     _idle_rate:
  2176  00D6                     	ds	1
  2177  00D7                     _USTATcopy:
  2178  00D7                     	ds	1
  2179  00D8                     _USBActiveConfiguration:
  2180  00D8                     	ds	1
  2181                           
  2182                           	psect	bssBANK2
  2183  0120                     __pbssBANK2:
  2184  0120                     _outPipes:
  2185  0120                     	ds	7
  2186  0127                     _errors_ctr2_to_PIC:
  2187  0127                     	ds	1
  2188  0128                     _luminosity:
  2189  0128                     	ds	1
  2190  0129                     _garbage:
  2191  0129                     	ds	1
  2192  012A                     _cntr:
  2193  012A                     	ds	1
  2194  012B                     _hap_OUT_pkt_ready:
  2195  012B                     	ds	1
  2196  012C                     _hap_IN_pkt_sent:
  2197  012C                     	ds	1
  2198  012D                     _LED_pkt_ready:
  2199  012D                     	ds	1
  2200  012E                     _REGT:
  2201  012E                     	ds	1
  2202  012F                     _TESTB:
  2203  012F                     	ds	1
  2204                           
  2205                           	psect	bssBANK3
  2206  01A0                     __pbssBANK3:
  2207  01A0                     _pBDTEntryOut:
  2208  01A0                     	ds	8
  2209  01A8                     _USB1msTickCount:
  2210  01A8                     	ds	4
  2211  01AC                     _ep_data_out:
  2212  01AC                     	ds	4
  2213  01B0                     _ep_data_in:
  2214  01B0                     	ds	4
  2215  01B4                     _cnt_tr:
  2216  01B4                     	ds	2
  2217  01B6                     _last_DSP_OUT:
  2218  01B6                     	ds	2
  2219  01B8                     _last_LED_OUT:
  2220  01B8                     	ds	2
  2221  01BA                     _last_HAP_OUT:
  2222  01BA                     	ds	2
  2223  01BC                     _ctrl2_from_PIC:
  2224  01BC                     	ds	1
  2225  01BD                     _USBAlternateInterface:
  2226  01BD                     	ds	3
  2227                           
  2228                           	psect	dataBANK3
  2229  01C0                     __pdataBANK3:
  2230  01C0                     _v:
  2231  01C0                     	ds	8
  2232                           
  2233                           	psect	clrtext
  2234  17C6                     clear_ram0:	
  2235                           ;	Called with FSR0 containing the base address, and
  2236                           ;	btemp/btemp+1 has the size to clear
  2237                           
  2238  17C6  0064               	clrwdt	;clear the watchdog before getting into this loop
  2239  17C7                     clrloop0:
  2240  17C7  0180               	clrf	0	;clear RAM location pointed to by FSR
  2241  17C8  3101               	addfsr 0,1
  2242  17C9  3001               	movlw	1
  2243  17CA  02FE               	subwf	btemp,f
  2244  17CB  3000               	movlw	0
  2245  17CC  3BFF               	subwfb	btemp+1,f
  2246  17CD  087F               	movf	btemp+1,w
  2247  17CE  047E               	iorwf	btemp,w
  2248  17CF  1D03               	skipz
  2249  17D0  2FC7               	goto	clrloop0	;have we reached the end yet?
  2250  17D1  3400               	retlw	0	;all done for this memory range, return
  2251                           
  2252                           	psect	cstackBANK1
  2253  00D9                     __pcstackBANK1:
  2254  00D9                     ?_USER_USB_CALLBACK_EVENT_HANDLER:
  2255  00D9                     USER_USB_CALLBACK_EVENT_HANDLER@event:	
  2256                           ; 1 bytes @ 0x0
  2257                           
  2258                           
  2259                           ; 2 bytes @ 0x0
  2260  00D9                     	ds	2
  2261  00DB                     USER_USB_CALLBACK_EVENT_HANDLER@pdata:
  2262                           
  2263                           ; 2 bytes @ 0x2
  2264  00DB                     	ds	2
  2265  00DD                     USER_USB_CALLBACK_EVENT_HANDLER@size:
  2266                           
  2267                           ; 2 bytes @ 0x4
  2268  00DD                     	ds	2
  2269  00DF                     ??_USBWakeFromSuspend:
  2270  00DF                     ??_USBSuspend:	
  2271                           ; 1 bytes @ 0x6
  2272                           
  2273  00DF                     ??_USBStdFeatureReqHandler:	
  2274                           ; 1 bytes @ 0x6
  2275                           
  2276  00DF                     ??_USBStdSetCfgHandler:	
  2277                           ; 1 bytes @ 0x6
  2278                           
  2279                           
  2280                           ; 1 bytes @ 0x6
  2281  00DF                     	ds	1
  2282  00E0                     USBStdSetCfgHandler@p:
  2283                           
  2284                           ; 2 bytes @ 0x7
  2285  00E0                     	ds	1
  2286  00E1                     USBStdFeatureReqHandler@pUEP:
  2287                           
  2288                           ; 2 bytes @ 0x8
  2289  00E1                     	ds	1
  2290  00E2                     USBStdSetCfgHandler@i_1457:
  2291                           
  2292                           ; 1 bytes @ 0x9
  2293  00E2                     	ds	1
  2294  00E3                     USBStdSetCfgHandler@i:
  2295  00E3                     USBStdFeatureReqHandler@current_ep_data:	
  2296                           ; 1 bytes @ 0xA
  2297                           
  2298                           
  2299                           ; 1 bytes @ 0xA
  2300  00E3                     	ds	1
  2301  00E4                     USBStdFeatureReqHandler@p:
  2302                           
  2303                           ; 2 bytes @ 0xB
  2304  00E4                     	ds	2
  2305  00E6                     ??_USBCheckStdRequest:
  2306                           
  2307                           ; 1 bytes @ 0xD
  2308  00E6                     	ds	2
  2309  00E8                     ??_USBCtrlTrfSetupHandler:
  2310                           
  2311                           ; 1 bytes @ 0xF
  2312  00E8                     	ds	1
  2313  00E9                     ??_USBCtrlEPService:
  2314                           
  2315                           ; 1 bytes @ 0x10
  2316  00E9                     	ds	2
  2317  00EB                     ??_USBDeviceTasks:
  2318                           
  2319                           ; 1 bytes @ 0x12
  2320  00EB                     	ds	2
  2321  00ED                     USBDeviceTasks@i:
  2322                           
  2323                           ; 1 bytes @ 0x14
  2324  00ED                     	ds	1
  2325  00EE                     ??_main:
  2326                           
  2327                           ; 1 bytes @ 0x15
  2328  00EE                     	ds	2
  2329                           
  2330                           	psect	cstackCOMMON
  2331  0070                     __pcstackCOMMON:
  2332  0070                     ?_USBWakeFromSuspend:
  2333  0070                     ?_USBSuspend:	
  2334                           ; 1 bytes @ 0x0
  2335                           
  2336  0070                     ?_USBIncrement1msInternalTimers:	
  2337                           ; 1 bytes @ 0x0
  2338                           
  2339  0070                     ??_USBIncrement1msInternalTimers:	
  2340                           ; 1 bytes @ 0x0
  2341                           
  2342  0070                     ?_USBCtrlEPAllowStatusStage:	
  2343                           ; 1 bytes @ 0x0
  2344                           
  2345  0070                     ??_USBCtrlEPAllowStatusStage:	
  2346                           ; 1 bytes @ 0x0
  2347                           
  2348  0070                     ?_USBStallHandler:	
  2349                           ; 1 bytes @ 0x0
  2350                           
  2351  0070                     ??_USBStallHandler:	
  2352                           ; 1 bytes @ 0x0
  2353                           
  2354  0070                     ?_USBCtrlEPService:	
  2355                           ; 1 bytes @ 0x0
  2356                           
  2357  0070                     ?_USBConfigureEndpoint:	
  2358                           ; 1 bytes @ 0x0
  2359                           
  2360  0070                     ?_USBCtrlTrfTxService:	
  2361                           ; 1 bytes @ 0x0
  2362                           
  2363  0070                     ??_USBCtrlTrfTxService:	
  2364                           ; 1 bytes @ 0x0
  2365                           
  2366  0070                     ?_memcpy:	
  2367                           ; 1 bytes @ 0x0
  2368                           
  2369  0070                     ?_USBCtrlTrfSetupHandler:	
  2370                           ; 1 bytes @ 0x0
  2371                           
  2372  0070                     ?_USBCtrlTrfOutHandler:	
  2373                           ; 1 bytes @ 0x0
  2374                           
  2375  0070                     ?_USBCtrlTrfInHandler:	
  2376                           ; 1 bytes @ 0x0
  2377                           
  2378  0070                     ?_USBCheckStdRequest:	
  2379                           ; 1 bytes @ 0x0
  2380                           
  2381  0070                     ?_USBStdFeatureReqHandler:	
  2382                           ; 1 bytes @ 0x0
  2383                           
  2384  0070                     ?_APP_LEDUpdateUSBStatus:	
  2385                           ; 1 bytes @ 0x0
  2386                           
  2387  0070                     ?_SYSTEM_Initialize:	
  2388                           ; 1 bytes @ 0x0
  2389                           
  2390  0070                     ?_APP_DeviceJoystickInitialize:	
  2391                           ; 1 bytes @ 0x0
  2392                           
  2393  0070                     ?_SlaveinitSPI:	
  2394                           ; 1 bytes @ 0x0
  2395                           
  2396  0070                     ??_SlaveinitSPI:	
  2397                           ; 1 bytes @ 0x0
  2398                           
  2399  0070                     ?_spiTask:	
  2400                           ; 1 bytes @ 0x0
  2401                           
  2402  0070                     ??_spiTask:	
  2403                           ; 1 bytes @ 0x0
  2404                           
  2405  0070                     ?_APP_DeviceJoystickTasks:	
  2406                           ; 1 bytes @ 0x0
  2407                           
  2408  0070                     ?_LED_Off:	
  2409                           ; 1 bytes @ 0x0
  2410                           
  2411  0070                     ??_LED_Off:	
  2412                           ; 1 bytes @ 0x0
  2413                           
  2414  0070                     ?_LED_On:	
  2415                           ; 1 bytes @ 0x0
  2416                           
  2417  0070                     ??_LED_On:	
  2418                           ; 1 bytes @ 0x0
  2419                           
  2420  0070                     ?_USBDeviceInit:	
  2421                           ; 1 bytes @ 0x0
  2422                           
  2423  0070                     ??_USBDeviceInit:	
  2424                           ; 1 bytes @ 0x0
  2425                           
  2426  0070                     ?_USBDeviceTasks:	
  2427                           ; 1 bytes @ 0x0
  2428                           
  2429  0070                     ?_USBCtrlEPAllowDataStage:	
  2430                           ; 1 bytes @ 0x0
  2431                           
  2432  0070                     ?_USBCtrlEPServiceComplete:	
  2433                           ; 1 bytes @ 0x0
  2434                           
  2435  0070                     ?_USBCtrlTrfRxService:	
  2436                           ; 1 bytes @ 0x0
  2437                           
  2438  0070                     ?_USBStdSetCfgHandler:	
  2439                           ; 1 bytes @ 0x0
  2440                           
  2441  0070                     ?_USBStdGetDscHandler:	
  2442                           ; 1 bytes @ 0x0
  2443                           
  2444  0070                     ??_USBStdGetDscHandler:	
  2445                           ; 1 bytes @ 0x0
  2446                           
  2447  0070                     ?_USBStdGetStatusHandler:	
  2448                           ; 1 bytes @ 0x0
  2449                           
  2450  0070                     ??_USBStdGetStatusHandler:	
  2451                           ; 1 bytes @ 0x0
  2452                           
  2453  0070                     ?_USBCheckHIDRequest:	
  2454                           ; 1 bytes @ 0x0
  2455                           
  2456  0070                     ??_USBCheckHIDRequest:	
  2457                           ; 1 bytes @ 0x0
  2458                           
  2459  0070                     ?_main:	
  2460                           ; 1 bytes @ 0x0
  2461                           
  2462  0070                     ?_BUTTON_Enable:	
  2463                           ; 1 bytes @ 0x0
  2464                           
  2465  0070                     ??_BUTTON_Enable:	
  2466                           ; 1 bytes @ 0x0
  2467                           
  2468  0070                     ?_LED_Enable:	
  2469                           ; 1 bytes @ 0x0
  2470                           
  2471  0070                     ??_LED_Enable:	
  2472                           ; 1 bytes @ 0x0
  2473                           
  2474  0070                     ?_SYS_InterruptHigh:	
  2475                           ; 1 bytes @ 0x0
  2476                           
  2477  0070                     ??_SYS_InterruptHigh:	
  2478                           ; 1 bytes @ 0x0
  2479                           
  2480  0070                     ?_memset:	
  2481                           ; 1 bytes @ 0x0
  2482                           
  2483  0070                     ?_USBTransferOnePacket:	
  2484                           ; 2 bytes @ 0x0
  2485                           
  2486  0070                     USBTransferOnePacket@dir:	
  2487                           ; 2 bytes @ 0x0
  2488                           
  2489  0070                     USBConfigureEndpoint@direction:	
  2490                           ; 1 bytes @ 0x0
  2491                           
  2492  0070                     memcpy@s1:	
  2493                           ; 1 bytes @ 0x0
  2494                           
  2495  0070                     memset@dest:	
  2496                           ; 2 bytes @ 0x0
  2497                           
  2498                           
  2499                           ; 2 bytes @ 0x0
  2500  0070                     	ds	1
  2501  0071                     ??_USBConfigureEndpoint:
  2502  0071                     USBDeviceInit@p:	
  2503                           ; 1 bytes @ 0x1
  2504                           
  2505  0071                     USBTransferOnePacket@data:	
  2506                           ; 2 bytes @ 0x1
  2507                           
  2508                           
  2509                           ; 2 bytes @ 0x1
  2510  0071                     	ds	1
  2511  0072                     ??_USBCtrlTrfRxService:
  2512  0072                     USBCtrlTrfTxService@byteToSend:	
  2513                           ; 1 bytes @ 0x2
  2514                           
  2515  0072                     BUTTON_Enable@button:	
  2516                           ; 1 bytes @ 0x2
  2517                           
  2518  0072                     LED_On@led:	
  2519                           ; 1 bytes @ 0x2
  2520                           
  2521  0072                     LED_Off@led:	
  2522                           ; 1 bytes @ 0x2
  2523                           
  2524  0072                     LED_Enable@led:	
  2525                           ; 1 bytes @ 0x2
  2526                           
  2527  0072                     USBStdGetStatusHandler@p:	
  2528                           ; 1 bytes @ 0x2
  2529                           
  2530  0072                     memcpy@n:	
  2531                           ; 2 bytes @ 0x2
  2532                           
  2533  0072                     memset@c:	
  2534                           ; 2 bytes @ 0x2
  2535                           
  2536                           
  2537                           ; 2 bytes @ 0x2
  2538  0072                     	ds	1
  2539  0073                     ??_USBCtrlTrfInHandler:
  2540  0073                     ??_APP_LEDUpdateUSBStatus:	
  2541                           ; 1 bytes @ 0x3
  2542                           
  2543  0073                     ??_SYSTEM_Initialize:	
  2544                           ; 1 bytes @ 0x3
  2545                           
  2546  0073                     ??_USBCtrlEPAllowDataStage:	
  2547                           ; 1 bytes @ 0x3
  2548                           
  2549  0073                     USBDeviceInit@i_722:	
  2550                           ; 1 bytes @ 0x3
  2551                           
  2552  0073                     USBTransferOnePacket@len:	
  2553                           ; 1 bytes @ 0x3
  2554                           
  2555                           
  2556                           ; 1 bytes @ 0x3
  2557  0073                     	ds	1
  2558  0074                     ??_memcpy:
  2559  0074                     ??_USBTransferOnePacket:	
  2560                           ; 1 bytes @ 0x4
  2561                           
  2562  0074                     USBDeviceInit@i:	
  2563                           ; 1 bytes @ 0x4
  2564                           
  2565  0074                     USBCtrlTrfRxService@i:	
  2566                           ; 1 bytes @ 0x4
  2567                           
  2568  0074                     memset@n:	
  2569                           ; 1 bytes @ 0x4
  2570                           
  2571                           
  2572                           ; 2 bytes @ 0x4
  2573  0074                     	ds	1
  2574  0075                     ??_USBCtrlEPServiceComplete:
  2575  0075                     USBConfigureEndpoint@EPNum:	
  2576                           ; 1 bytes @ 0x5
  2577                           
  2578  0075                     USBCtrlTrfRxService@byteToRead:	
  2579                           ; 1 bytes @ 0x5
  2580                           
  2581  0075                     USBCtrlTrfInHandler@lastDTS:	
  2582                           ; 1 bytes @ 0x5
  2583                           
  2584  0075                     SYSTEM_Initialize@state:	
  2585                           ; 1 bytes @ 0x5
  2586                           
  2587  0075                     memcpy@s:	
  2588                           ; 1 bytes @ 0x5
  2589                           
  2590                           
  2591                           ; 2 bytes @ 0x5
  2592  0075                     	ds	1
  2593  0076                     ??_memset:
  2594  0076                     ??_USBCtrlTrfOutHandler:	
  2595                           ; 1 bytes @ 0x6
  2596                           
  2597  0076                     USBConfigureEndpoint@handle:	
  2598                           ; 1 bytes @ 0x6
  2599                           
  2600                           
  2601                           ; 1 bytes @ 0x6
  2602  0076                     	ds	1
  2603  0077                     ?_USBEnableEndpoint:
  2604  0077                     USBEnableEndpoint@options:	
  2605                           ; 1 bytes @ 0x7
  2606                           
  2607  0077                     memcpy@tmp:	
  2608                           ; 1 bytes @ 0x7
  2609                           
  2610                           
  2611                           ; 1 bytes @ 0x7
  2612  0077                     	ds	1
  2613  0078                     ??_USBEnableEndpoint:
  2614  0078                     USBTransferOnePacket@ep:	
  2615                           ; 1 bytes @ 0x8
  2616                           
  2617  0078                     memcpy@d1:	
  2618                           ; 1 bytes @ 0x8
  2619                           
  2620                           
  2621                           ; 1 bytes @ 0x8
  2622  0078                     	ds	1
  2623  0079                     memcpy@d:
  2624  0079                     USBTransferOnePacket@handle:	
  2625                           ; 1 bytes @ 0x9
  2626                           
  2627                           
  2628                           ; 2 bytes @ 0x9
  2629  0079                     	ds	1
  2630  007A                     USBEnableEndpoint@p:
  2631  007A                     memset@k:	
  2632                           ; 2 bytes @ 0xA
  2633                           
  2634                           
  2635                           ; 2 bytes @ 0xA
  2636  007A                     	ds	1
  2637  007B                     ??_APP_DeviceJoystickTasks:
  2638                           
  2639                           ; 1 bytes @ 0xB
  2640  007B                     	ds	1
  2641  007C                     USBEnableEndpoint@ep:
  2642  007C                     memset@s:	
  2643                           ; 1 bytes @ 0xC
  2644                           
  2645                           
  2646                           ; 2 bytes @ 0xC
  2647  007C                     	ds	1
  2648  007D                     ??_APP_DeviceJoystickInitialize:
  2649                           
  2650                           ; 1 bytes @ 0xD
  2651  007D                     	ds	1
  2652  007E                     ??_USER_USB_CALLBACK_EVENT_HANDLER:
  2653                           
  2654                           	psect	maintext
  2655  09AA                     __pmaintext:	
  2656                           ; 1 bytes @ 0xE
  2657 ;;
  2658 ;;Main: autosize = 0, tempsize = 2, incstack = 0, save=0
  2659 ;;
  2660 ;; *************** function _main *****************
  2661 ;; Defined at:
  2662 ;;		line 32 in file "main.c"
  2663 ;; Parameters:    Size  Location     Type
  2664 ;;		None
  2665 ;; Auto vars:     Size  Location     Type
  2666 ;;		None
  2667 ;; Return value:  Size  Location     Type
  2668 ;;                  1    wreg      void 
  2669 ;; Registers used:
  2670 ;;		wreg, fsr0l, fsr0h, fsr1l, fsr1h, status,2, status,0, pclath, cstack
  2671 ;; Tracked objects:
  2672 ;;		On entry : B1F/0
  2673 ;;		On exit  : 0/0
  2674 ;;		Unchanged: 0/0
  2675 ;; Data sizes:     COMMON   BANK1   BANK2   BANK3   BANK4   BANK5   BANK6   BANK7   BANK8   BANK9  BANK10  BANK11  BANK1
      +2
  2676 ;;      Params:         0       0       0       0       0       0       0       0       0       0       0       0       
      +0
  2677 ;;      Locals:         0       0       0       0       0       0       0       0       0       0       0       0       
      +0
  2678 ;;      Temps:          0       2       0       0       0       0       0       0       0       0       0       0       
      +0
  2679 ;;      Totals:         0       2       0       0       0       0       0       0       0       0       0       0       
      +0
  2680 ;;Total ram usage:        2 bytes
  2681 ;; Hardware stack levels required when called: 10
  2682 ;; This function calls:
  2683 ;;		_APP_DeviceJoystickTasks
  2684 ;;		_SlaveinitSPI
  2685 ;;		_USBDeviceInit
  2686 ;;		_USBDeviceTasks
  2687 ;;		_spiTask
  2688 ;; This function is called by:
  2689 ;;		Startup code after reset
  2690 ;; This function uses a non-reentrant model
  2691 ;;
  2692                           
  2693  09AA                     _main:	
  2694                           ;psect for function _main
  2695                           
  2696  09AA                     l4904:	
  2697                           ;incstack = 0
  2698                           ; Regs used in _main: [wreg-fsr1h+status,2+status,0+pclath+cstack]
  2699                           
  2700                           
  2701                           ;main.c: 35:     TRISC1 = 1;TRISC2 = 0;
  2702  09AA  0021               	movlb	1	; select bank1
  2703  09AB  148E               	bsf	14,1	;volatile
  2704  09AC  110E               	bcf	14,2	;volatile
  2705  09AD                     l4906:
  2706                           
  2707                           ;main.c: 37:     _delay((unsigned long)((200)*(48000000/4000.0)));
  2708  09AD  300D               	movlw	13
  2709  09AE  0021               	movlb	1	; select bank1
  2710  09AF  00EF               	movwf	(??_main^(0+128)+1)
  2711  09B0  302D               	movlw	45
  2712  09B1  00EE               	movwf	??_main^(0+128)
  2713  09B2  30D7               	movlw	215
  2714  09B3                     u3897:
  2715  09B3  0B89               	decfsz	9,f
  2716  09B4  29B3               	goto	u3897
  2717  09B5  0BEE               	decfsz	??_main^(0+128),f
  2718  09B6  29B3               	goto	u3897
  2719  09B7  0BEF               	decfsz	(??_main^(0+128)+1),f
  2720  09B8  29B3               	goto	u3897
  2721  09B9  3200               	nop2
  2722  09BA                     l4908:
  2723                           
  2724                           ;main.c: 39:     SlaveinitSPI();
  2725  09BA  3187  27F6  3189   	fcall	_SlaveinitSPI
  2726  09BD                     l4910:
  2727                           
  2728                           ;main.c: 41:     USBDeviceInit();
  2729  09BD  3186  265A  3189   	fcall	_USBDeviceInit
  2730  09C0                     l4912:
  2731                           
  2732                           ;main.c: 44:     TRISCbits.TRISC4 = 0;
  2733  09C0  0021               	movlb	1	; select bank1
  2734  09C1  120E               	bcf	14,4	;volatile
  2735  09C2                     l4914:
  2736                           
  2737                           ;main.c: 47:     {;main.c: 48:         spiTask();
  2738  09C2  3185  2594  3189   	fcall	_spiTask
  2739  09C5                     l4916:
  2740                           
  2741                           ;main.c: 50:         LATCbits.LATC4 = ~LATCbits.LATC4;
  2742  09C5  1003               	clrc
  2743  09C6  0022               	movlb	2	; select bank2
  2744  09C7  1E0E               	btfss	14,4	;volatile
  2745  09C8  1403               	setc
  2746  09C9  1803               	btfsc	3,0
  2747  09CA  29CC               	goto	u3851
  2748  09CB  29CF               	goto	u3850
  2749  09CC                     u3851:
  2750  09CC  0022               	movlb	2	; select bank2
  2751  09CD  160E               	bsf	14,4	;volatile
  2752  09CE  29D1               	goto	u3864
  2753  09CF                     u3850:
  2754  09CF  0022               	movlb	2	; select bank2
  2755  09D0  120E               	bcf	14,4	;volatile
  2756  09D1                     u3864:
  2757  09D1                     l4918:
  2758                           
  2759                           ;main.c: 64:             USBDeviceTasks();
  2760  09D1  3181  21AB  3189   	fcall	_USBDeviceTasks
  2761  09D4                     l4920:
  2762                           
  2763                           ;main.c: 65:             USBDeviceTasks();
  2764  09D4  3181  21AB  3189   	fcall	_USBDeviceTasks
  2765  09D7                     l4922:
  2766                           
  2767                           ;main.c: 71:         if( USBDeviceState < CONFIGURED_STATE )
  2768  09D7  3020               	movlw	32
  2769  09D8  0021               	movlb	1	; select bank1
  2770  09D9  0254               	subwf	_USBDeviceState^(0+128),w
  2771  09DA  1803               	skipnc
  2772  09DB  29DD               	goto	u3871
  2773  09DC  29DE               	goto	u3870
  2774  09DD                     u3871:
  2775  09DD  29DF               	goto	l528
  2776  09DE                     u3870:
  2777  09DE  29C2               	goto	l4914
  2778  09DF                     l528:	
  2779                           ;main.c: 75:         }
  2780                           
  2781                           
  2782                           ;main.c: 81:         if( UCONbits.SUSPND == 1 )
  2783  09DF  003D               	movlb	29	; select bank29
  2784  09E0  1C8E               	btfss	14,1	;volatile
  2785  09E1  29E3               	goto	u3881
  2786  09E2  29E4               	goto	u3880
  2787  09E3                     u3881:
  2788  09E3  29E5               	goto	l4928
  2789  09E4                     u3880:
  2790  09E4  29C2               	goto	l4914
  2791  09E5                     l4928:
  2792                           
  2793                           ;main.c: 88:         APP_DeviceJoystickTasks();
  2794  09E5  3183  23F1  3189   	fcall	_APP_DeviceJoystickTasks
  2795  09E8  29C2               	goto	l4914
  2796  09E9  3180  2808         	ljmp	start
  2797  09EB                     __end_of_main:
  2798                           
  2799                           	psect	text1
  2800  0594                     __ptext1:	
  2801 ;; *************** function _spiTask *****************
  2802 ;; Defined at:
  2803 ;;		line 73 in file "lib/spi.c"
  2804 ;; Parameters:    Size  Location     Type
  2805 ;;		None
  2806 ;; Auto vars:     Size  Location     Type
  2807 ;;		None
  2808 ;; Return value:  Size  Location     Type
  2809 ;;                  1    wreg      void 
  2810 ;; Registers used:
  2811 ;;		wreg, fsr1l, fsr1h, status,2, status,0
  2812 ;; Tracked objects:
  2813 ;;		On entry : 0/0
  2814 ;;		On exit  : 0/0
  2815 ;;		Unchanged: 0/0
  2816 ;; Data sizes:     COMMON   BANK1   BANK2   BANK3   BANK4   BANK5   BANK6   BANK7   BANK8   BANK9  BANK10  BANK11  BANK1
      +2
  2817 ;;      Params:         0       0       0       0       0       0       0       0       0       0       0       0       
      +0
  2818 ;;      Locals:         0       0       0       0       0       0       0       0       0       0       0       0       
      +0
  2819 ;;      Temps:          1       0       0       0       0       0       0       0       0       0       0       0       
      +0
  2820 ;;      Totals:         1       0       0       0       0       0       0       0       0       0       0       0       
      +0
  2821 ;;Total ram usage:        1 bytes
  2822 ;; Hardware stack levels used: 1
  2823 ;; Hardware stack levels required when called: 1
  2824 ;; This function calls:
  2825 ;;		Nothing
  2826 ;; This function is called by:
  2827 ;;		_main
  2828 ;; This function uses a non-reentrant model
  2829 ;;
  2830                           
  2831  0594                     _spiTask:	
  2832                           ;psect for function _spiTask
  2833                           
  2834  0594                     l4136:	
  2835                           ;incstack = 0
  2836                           ; Regs used in _spiTask: [wreg+fsr1l+fsr1h+status,2+status,0]
  2837                           
  2838                           
  2839                           ;lib/spi.c: 74:     pkt_requests = 0;
  2840  0594  0021               	movlb	1	; select bank1
  2841  0595  01C3               	clrf	_pkt_requests^(0+128)
  2842  0596                     l4138:
  2843                           
  2844                           ;lib/spi.c: 75:     if(!((last_HAP_IN != 0x0000) && ((*(volatile uint8_t*)last_HAP_IN & 
      +                          0x80) != 0x00))){
  2845  0596  083F               	movf	_last_HAP_IN^(0+128),w
  2846  0597  0440               	iorwf	(_last_HAP_IN+1)^(0+128),w
  2847  0598  1903               	btfsc	3,2
  2848  0599  2D9B               	goto	u3131
  2849  059A  2D9C               	goto	u3130
  2850  059B                     u3131:
  2851  059B  2DA4               	goto	l759
  2852  059C                     u3130:
  2853  059C                     l4140:
  2854  059C  083F               	movf	_last_HAP_IN^(0+128),w
  2855  059D  0086               	movwf	6
  2856  059E  0840               	movf	(_last_HAP_IN+1)^(0+128),w
  2857  059F  0087               	movwf	7
  2858  05A0  1B81               	btfsc	1,7
  2859  05A1  2DA3               	goto	u3141
  2860  05A2  2DA4               	goto	u3140
  2861  05A3                     u3141:
  2862  05A3  2DA6               	goto	l4142
  2863  05A4                     u3140:
  2864  05A4                     l759:
  2865                           
  2866                           ;lib/spi.c: 77:         pkt_requests = 0x01;
  2867  05A4  01C3               	clrf	_pkt_requests^(0+128)
  2868  05A5  0AC3               	incf	_pkt_requests^(0+128),f
  2869  05A6                     l4142:
  2870                           
  2871                           ;lib/spi.c: 81:     garbage = SSPBUF;
  2872  05A6  0024               	movlb	4	; select bank4
  2873  05A7  0811               	movf	17,w	;volatile
  2874  05A8  00F0               	movwf	??_spiTask
  2875  05A9  0870               	movf	??_spiTask,w
  2876  05AA  0022               	movlb	2	; select bank2
  2877  05AB  00A9               	movwf	_garbage^(0+256)
  2878  05AC                     l4144:
  2879                           
  2880                           ;lib/spi.c: 82:     SSPOV = 0;
  2881  05AC  0024               	movlb	4	; select bank4
  2882  05AD  1315               	bcf	21,6	;volatile
  2883  05AE  0024               	movlb	4	;# 
  2884  05AF  1C14               	btfss	532,0	;# 
  2885  05B0  321E               	bra	OUTOFWAITSPI	;# 
  2886  05B1  1C14               	btfss	532,0	;# 
  2887  05B2  321C               	bra	OUTOFWAITSPI	;# 
  2888  05B3  1C14               	btfss	532,0	;# 
  2889  05B4  321A               	bra	OUTOFWAITSPI	;# 
  2890  05B5  1C14               	btfss	532,0	;# 
  2891  05B6  3218               	bra	OUTOFWAITSPI	;# 
  2892  05B7  1C14               	btfss	532,0	;# 
  2893  05B8  3216               	bra	OUTOFWAITSPI	;# 
  2894  05B9  1C14               	btfss	532,0	;# 
  2895  05BA  3214               	bra	OUTOFWAITSPI	;# 
  2896  05BB  1C14               	btfss	532,0	;# 
  2897  05BC  3212               	bra	OUTOFWAITSPI	;# 
  2898  05BD  1C14               	btfss	532,0	;# 
  2899  05BE  3210               	bra	OUTOFWAITSPI	;# 
  2900  05BF  1C14               	btfss	532,0	;# 
  2901  05C0  320E               	bra	OUTOFWAITSPI	;# 
  2902  05C1  1C14               	btfss	532,0	;# 
  2903  05C2  320C               	bra	OUTOFWAITSPI	;# 
  2904  05C3  1C14               	btfss	532,0	;# 
  2905  05C4  320A               	bra	OUTOFWAITSPI	;# 
  2906  05C5  1C14               	btfss	532,0	;# 
  2907  05C6  3208               	bra	OUTOFWAITSPI	;# 
  2908  05C7  1C14               	btfss	532,0	;# 
  2909  05C8  3206               	bra	OUTOFWAITSPI	;# 
  2910  05C9  1C14               	btfss	532,0	;# 
  2911  05CA  3204               	bra	OUTOFWAITSPI	;# 
  2912  05CB  1C14               	btfss	532,0	;# 
  2913  05CC  3202               	bra	OUTOFWAITSPI	;# 
  2914  05CD  1C14               	btfss	532,0	;# 
  2915  05CE  3200               	bra	OUTOFWAITSPI	;# 
  2916  05CF                     OUTOFWAITSPI:
  2917  05CF  0000               	nop	;# 
  2918  05D0                     l4146:
  2919                           
  2920                           ;lib/spi.c: 91:     if(BF && SSPBUF == 0x55){
  2921  05D0  0024               	movlb	4	; select bank4
  2922  05D1  1C14               	btfss	20,0	;volatile
  2923  05D2  2DD4               	goto	u3151
  2924  05D3  2DD5               	goto	u3150
  2925  05D4                     u3151:
  2926  05D4  2E55               	goto	l4168
  2927  05D5                     u3150:
  2928  05D5                     l4148:
  2929  05D5  3055               	movlw	85
  2930  05D6  0611               	xorwf	17,w	;volatile
  2931  05D7  1D03               	btfss	3,2
  2932  05D8  2DDA               	goto	u3161
  2933  05D9  2DDB               	goto	u3160
  2934  05DA                     u3161:
  2935  05DA  2E55               	goto	l4168
  2936  05DB                     u3160:
  2937  05DB                     l4150:
  2938                           
  2939                           ;lib/spi.c: 94:         SSPBUF = 0x76;
  2940  05DB  3076               	movlw	118
  2941  05DC  0091               	movwf	17	;volatile
  2942                           
  2943                           ;lib/spi.c: 96:         while(WCOL){
  2944  05DD  2DE0               	goto	l4154
  2945  05DE                     l762:
  2946                           
  2947                           ;lib/spi.c: 97:             WCOL=0;
  2948  05DE  1395               	bcf	21,7	;volatile
  2949  05DF  2DDB               	goto	l4150
  2950  05E0                     l4154:
  2951                           
  2952                           ;lib/spi.c: 96:         while(WCOL){
  2953  05E0  1B95               	btfsc	21,7	;volatile
  2954  05E1  2DE3               	goto	u3171
  2955  05E2  2DE4               	goto	u3170
  2956  05E3                     u3171:
  2957  05E3  2DDE               	goto	l762
  2958  05E4                     u3170:
  2959  05E4                     l764:
  2960  05E4  1C14               	btfss	20,0	;volatile
  2961  05E5  2DE7               	goto	u3181
  2962  05E6  2DE8               	goto	u3180
  2963  05E7                     u3181:
  2964  05E7  2DE4               	goto	l764
  2965  05E8                     u3180:
  2966  05E8                     l4156:
  2967                           
  2968                           ;lib/spi.c: 101:         if(SSPBUF == 0x55){
  2969  05E8  3055               	movlw	85
  2970  05E9  0611               	xorwf	17,w	;volatile
  2971  05EA  1D03               	btfss	3,2
  2972  05EB  2DED               	goto	u3191
  2973  05EC  2DEE               	goto	u3190
  2974  05ED                     u3191:
  2975  05ED  2E59               	goto	l770
  2976  05EE                     u3190:
  2977  05EE                     l4158:
  2978                           
  2979                           ;lib/spi.c: 105:             SSPBUF = pkt_requests;
  2980  05EE  0021               	movlb	1	; select bank1
  2981  05EF  0843               	movf	_pkt_requests^(0+128),w
  2982  05F0  0024               	movlb	4	; select bank4
  2983  05F1  0091               	movwf	17	;volatile
  2984  05F2  1C14               	btfss	532,0	;# 
  2985  05F3  33FE               	bra	-2	;# 
  2986                           
  2987                           ;lib/spi.c: 109:             luminosity = SSPBUF;
  2988  05F4  0024               	movlb	4	; select bank4
  2989  05F5  0811               	movf	17,w	;volatile
  2990  05F6  00F0               	movwf	??_spiTask
  2991  05F7  0870               	movf	??_spiTask,w
  2992  05F8  0022               	movlb	2	; select bank2
  2993  05F9  00A8               	movwf	_luminosity^(0+256)
  2994  05FA                     l4160:
  2995                           
  2996                           ;lib/spi.c: 111:             SSPBUF = ctrl2_from_PIC;
  2997  05FA  0024               	movlb	4	; select bank4
  2998  05FB  0191               	clrf	17	;volatile
  2999  05FC  1C14               	btfss	532,0	;# 
  3000  05FD  33FE               	bra	-2	;# 
  3001  05FE                     l4162:
  3002                           
  3003                           ;lib/spi.c: 115:             errors_ctr2_to_PIC = SSPBUF;
  3004  05FE  0024               	movlb	4	; select bank4
  3005  05FF  0811               	movf	17,w	;volatile
  3006  0600  00F0               	movwf	??_spiTask
  3007  0601  0870               	movf	??_spiTask,w
  3008  0602  0022               	movlb	2	; select bank2
  3009  0603  00A7               	movwf	_errors_ctr2_to_PIC^(0+256)
  3010  0604                     l4164:
  3011                           
  3012                           ;lib/spi.c: 118:             if(pkt_requests & 0x01){
  3013  0604  0021               	movlb	1	; select bank1
  3014  0605  1C43               	btfss	_pkt_requests^(0+128),0
  3015  0606  2E08               	goto	u3201
  3016  0607  2E09               	goto	u3200
  3017  0608                     u3201:
  3018  0608  2E55               	goto	l4168
  3019  0609                     u3200:
  3020  0609                     l4166:
  3021                           
  3022                           ;lib/spi.c: 119:                 hap_IN_pkt_sent=0;
  3023  0609  0022               	movlb	2	; select bank2
  3024  060A  01AC               	clrf	_hap_IN_pkt_sent^(0+256)
  3025  060B  3050               	movlw	80	;# 
  3026  060C  0084               	movwf	4	;# 
  3027  060D  3020               	movlw	32	;# 
  3028  060E  0085               	movwf	5	;# 
  3029  060F  0024               	movlb	4	;# 
  3030  0610  1C14               	btfss	532,0	;# 
  3031  0611  33FE               	bra	-2	;# 
  3032  0612  0811               	movf	529,w	;# 
  3033  0613  001A               	movwi fsr0++	;# 
  3034  0614  1C14               	btfss	532,0	;# 
  3035  0615  33FE               	bra	-2	;# 
  3036  0616  0811               	movf	529,w	;# 
  3037  0617  001A               	movwi fsr0++	;# 
  3038  0618  1C14               	btfss	532,0	;# 
  3039  0619  33FE               	bra	-2	;# 
  3040  061A  0811               	movf	529,w	;# 
  3041  061B  001A               	movwi fsr0++	;# 
  3042  061C  1C14               	btfss	532,0	;# 
  3043  061D  33FE               	bra	-2	;# 
  3044  061E  0811               	movf	529,w	;# 
  3045  061F  001A               	movwi fsr0++	;# 
  3046  0620  1C14               	btfss	532,0	;# 
  3047  0621  33FE               	bra	-2	;# 
  3048  0622  0811               	movf	529,w	;# 
  3049  0623  001A               	movwi fsr0++	;# 
  3050  0624  1C14               	btfss	532,0	;# 
  3051  0625  33FE               	bra	-2	;# 
  3052  0626  0811               	movf	529,w	;# 
  3053  0627  001A               	movwi fsr0++	;# 
  3054  0628  1C14               	btfss	532,0	;# 
  3055  0629  33FE               	bra	-2	;# 
  3056  062A  0811               	movf	529,w	;# 
  3057  062B  001A               	movwi fsr0++	;# 
  3058  062C  1C14               	btfss	532,0	;# 
  3059  062D  33FE               	bra	-2	;# 
  3060  062E  0811               	movf	529,w	;# 
  3061  062F  001A               	movwi fsr0++	;# 
  3062  0630  1C14               	btfss	532,0	;# 
  3063  0631  33FE               	bra	-2	;# 
  3064  0632  0811               	movf	529,w	;# 
  3065  0633  001A               	movwi fsr0++	;# 
  3066  0634  1C14               	btfss	532,0	;# 
  3067  0635  33FE               	bra	-2	;# 
  3068  0636  0811               	movf	529,w	;# 
  3069  0637  001A               	movwi fsr0++	;# 
  3070  0638  1C14               	btfss	532,0	;# 
  3071  0639  33FE               	bra	-2	;# 
  3072  063A  0811               	movf	529,w	;# 
  3073  063B  001A               	movwi fsr0++	;# 
  3074  063C  1C14               	btfss	532,0	;# 
  3075  063D  33FE               	bra	-2	;# 
  3076  063E  0811               	movf	529,w	;# 
  3077  063F  001A               	movwi fsr0++	;# 
  3078  0640  1C14               	btfss	532,0	;# 
  3079  0641  33FE               	bra	-2	;# 
  3080  0642  0811               	movf	529,w	;# 
  3081  0643  001A               	movwi fsr0++	;# 
  3082  0644  1C14               	btfss	532,0	;# 
  3083  0645  33FE               	bra	-2	;# 
  3084  0646  0811               	movf	529,w	;# 
  3085  0647  001A               	movwi fsr0++	;# 
  3086  0648  1C14               	btfss	532,0	;# 
  3087  0649  33FE               	bra	-2	;# 
  3088  064A  0811               	movf	529,w	;# 
  3089  064B  001A               	movwi fsr0++	;# 
  3090  064C  1C14               	btfss	532,0	;# 
  3091  064D  33FE               	bra	-2	;# 
  3092  064E  0811               	movf	529,w	;# 
  3093  064F  001A               	movwi fsr0++	;# 
  3094  0650  1C14               	btfss	532,0	;# 
  3095  0651  33FE               	bra	-2	;# 
  3096  0652  0811               	movf	529,w	;# 
  3097                           
  3098                           ;lib/spi.c: 135:                 SSPBUF = 0x00;
  3099  0653  0024               	movlb	4	; select bank4
  3100  0654  0191               	clrf	17	;volatile
  3101  0655                     l4168:
  3102                           
  3103                           ;lib/spi.c: 147:     SSPBUF = 0x00;
  3104  0655  0024               	movlb	4	; select bank4
  3105  0656  0191               	clrf	17	;volatile
  3106  0657                     l4170:
  3107                           
  3108                           ;lib/spi.c: 148:     WCOL=0;
  3109  0657  1395               	bcf	21,7	;volatile
  3110  0658                     l4172:
  3111                           
  3112                           ;lib/spi.c: 149:     SSPOV=0;
  3113  0658  1315               	bcf	21,6	;volatile
  3114  0659                     l770:
  3115  0659  0008               	return
  3116  065A                     __end_of_spiTask:
  3117                           
  3118                           	psect	text2
  3119  01AB                     __ptext2:	
  3120 ;; *************** function _USBDeviceTasks *****************
  3121 ;; Defined at:
  3122 ;;		line 481 in file "lib/usb/usb_device.c"
  3123 ;; Parameters:    Size  Location     Type
  3124 ;;		None
  3125 ;; Auto vars:     Size  Location     Type
  3126 ;;  i               1   20[BANK1 ] unsigned char 
  3127 ;; Return value:  Size  Location     Type
  3128 ;;                  1    wreg      void 
  3129 ;; Registers used:
  3130 ;;		wreg, fsr0l, fsr0h, fsr1l, fsr1h, status,2, status,0, pclath, cstack
  3131 ;; Tracked objects:
  3132 ;;		On entry : 0/0
  3133 ;;		On exit  : 0/0
  3134 ;;		Unchanged: 0/0
  3135 ;; Data sizes:     COMMON   BANK1   BANK2   BANK3   BANK4   BANK5   BANK6   BANK7   BANK8   BANK9  BANK10  BANK11  BANK1
      +2
  3136 ;;      Params:         0       0       0       0       0       0       0       0       0       0       0       0       
      +0
  3137 ;;      Locals:         0       1       0       0       0       0       0       0       0       0       0       0       
      +0
  3138 ;;      Temps:          0       2       0       0       0       0       0       0       0       0       0       0       
      +0
  3139 ;;      Totals:         0       3       0       0       0       0       0       0       0       0       0       0       
      +0
  3140 ;;Total ram usage:        3 bytes
  3141 ;; Hardware stack levels used: 1
  3142 ;; Hardware stack levels required when called: 9
  3143 ;; This function calls:
  3144 ;;		_USBCtrlEPAllowStatusStage
  3145 ;;		_USBCtrlEPService
  3146 ;;		_USBDeviceInit
  3147 ;;		_USBIncrement1msInternalTimers
  3148 ;;		_USBStallHandler
  3149 ;;		_USBSuspend
  3150 ;;		_USBWakeFromSuspend
  3151 ;;		_USER_USB_CALLBACK_EVENT_HANDLER
  3152 ;; This function is called by:
  3153 ;;		_main
  3154 ;; This function uses a non-reentrant model
  3155 ;;
  3156                           
  3157  01AB                     _USBDeviceTasks:	
  3158                           ;psect for function _USBDeviceTasks
  3159                           
  3160  01AB                     l4786:	
  3161                           ;incstack = 0
  3162                           ; Regs used in _USBDeviceTasks: [wreg-fsr1h+status,2+status,0+pclath+cstack]
  3163                           
  3164  01AB                     l4794:	
  3165                           ;lib/usb/usb_device.c: 483:     uint8_t i;;lib/usb/usb_device.c: 509:     if (1 != 1)
  3166                           
  3167                           
  3168                           ;lib/usb/usb_device.c: 570:     if(USBDeviceState == DETACHED_STATE)
  3169  01AB  0021               	movlb	1	; select bank1
  3170  01AC  0854               	movf	_USBDeviceState^(0+128),w
  3171  01AD  1D03               	btfss	3,2
  3172  01AE  29B0               	goto	u3601
  3173  01AF  29B1               	goto	u3600
  3174  01B0                     u3601:
  3175  01B0  29C3               	goto	l4804
  3176  01B1                     u3600:
  3177  01B1                     l4796:
  3178                           
  3179                           ;lib/usb/usb_device.c: 571:     {;lib/usb/usb_device.c: 573:         UCON = 0;
  3180  01B1  003D               	movlb	29	; select bank29
  3181  01B2  018E               	clrf	14	;volatile
  3182                           
  3183                           ;lib/usb/usb_device.c: 576:         UIE = 0;
  3184  01B3  0192               	clrf	18	;volatile
  3185  01B4                     l4798:
  3186                           
  3187                           ;lib/usb/usb_device.c: 580:         { UCFG = 0x10 | 0x00 | 0x04 | 0x02; UEIE = 0x9F; UIE
      +                           = 0x39 | 0x40 | 0x02; };
  3188  01B4  3016               	movlw	22
  3189  01B5  0091               	movwf	17	;volatile
  3190  01B6                     l4800:
  3191  01B6  309F               	movlw	159
  3192  01B7  0097               	movwf	23	;volatile
  3193  01B8                     l4802:
  3194  01B8  307B               	movlw	123
  3195  01B9  0092               	movwf	18	;volatile
  3196                           
  3197                           ;lib/usb/usb_device.c: 583:         while(!UCONbits.USBEN){UCONbits.USBEN = 1;}
  3198  01BA  29BC               	goto	l167
  3199  01BB                     l168:
  3200  01BB  158E               	bsf	14,3	;volatile
  3201  01BC                     l167:
  3202  01BC  1D8E               	btfss	14,3	;volatile
  3203  01BD  29BF               	goto	u3611
  3204  01BE  29C0               	goto	u3610
  3205  01BF                     u3611:
  3206  01BF  29BB               	goto	l168
  3207  01C0                     u3610:
  3208  01C0                     l169:
  3209                           
  3210                           ;lib/usb/usb_device.c: 586:         USBDeviceState = ATTACHED_STATE;
  3211  01C0  0021               	movlb	1	; select bank1
  3212  01C1  01D4               	clrf	_USBDeviceState^(0+128)
  3213  01C2  0AD4               	incf	_USBDeviceState^(0+128),f
  3214  01C3                     l4804:
  3215                           
  3216                           ;lib/usb/usb_device.c: 594:     if(USBDeviceState == ATTACHED_STATE)
  3217  01C3  0354               	decf	_USBDeviceState^(0+128),w
  3218  01C4  1D03               	btfss	3,2
  3219  01C5  29C7               	goto	u3621
  3220  01C6  29C8               	goto	u3620
  3221  01C7                     u3621:
  3222  01C7  29D6               	goto	l4816
  3223  01C8                     u3620:
  3224  01C8                     l4806:
  3225                           
  3226                           ;lib/usb/usb_device.c: 595:     {;lib/usb/usb_device.c: 605:         if(!UCONbits.SE0)
  3227  01C8  003D               	movlb	29	; select bank29
  3228  01C9  1A8E               	btfsc	14,5	;volatile
  3229  01CA  29CC               	goto	u3631
  3230  01CB  29CD               	goto	u3630
  3231  01CC                     u3631:
  3232  01CC  29D6               	goto	l4816
  3233  01CD                     u3630:
  3234  01CD                     l4808:
  3235                           
  3236                           ;lib/usb/usb_device.c: 606:         {;lib/usb/usb_device.c: 612:                 {UIR = 
      +                          0;};
  3237  01CD  0190               	clrf	16	;volatile
  3238                           
  3239                           ;lib/usb/usb_device.c: 616:                 UIE=0;
  3240  01CE  0192               	clrf	18	;volatile
  3241  01CF                     l4810:
  3242                           
  3243                           ;lib/usb/usb_device.c: 618:             UIEbits.URSTIE = 1;
  3244  01CF  1412               	bsf	18,0	;volatile
  3245  01D0                     l4812:
  3246                           
  3247                           ;lib/usb/usb_device.c: 619:             UIEbits.IDLEIE = 1;
  3248  01D0  1612               	bsf	18,4	;volatile
  3249  01D1                     l4814:
  3250                           
  3251                           ;lib/usb/usb_device.c: 620:             USBDeviceState = POWERED_STATE;
  3252  01D1  3002               	movlw	2
  3253  01D2  0021               	movlb	1	; select bank1
  3254  01D3  00EB               	movwf	??_USBDeviceTasks^(0+128)
  3255  01D4  086B               	movf	??_USBDeviceTasks^(0+128),w
  3256  01D5  00D4               	movwf	_USBDeviceState^(0+128)
  3257  01D6                     l4816:
  3258                           
  3259                           ;lib/usb/usb_device.c: 638:     if(UIRbits.ACTVIF && UIEbits.ACTVIE)
  3260  01D6  003D               	movlb	29	; select bank29
  3261  01D7  1D10               	btfss	16,2	;volatile
  3262  01D8  29DA               	goto	u3641
  3263  01D9  29DB               	goto	u3640
  3264  01DA                     u3641:
  3265  01DA  29E8               	goto	l4824
  3266  01DB                     u3640:
  3267  01DB                     l4818:
  3268  01DB  1D12               	btfss	18,2	;volatile
  3269  01DC  29DE               	goto	u3651
  3270  01DD  29DF               	goto	u3650
  3271  01DE                     u3651:
  3272  01DE  29E8               	goto	l4824
  3273  01DF                     u3650:
  3274  01DF                     l4820:
  3275                           
  3276                           ;lib/usb/usb_device.c: 639:     {;lib/usb/usb_device.c: 640:         (UIR &= 0xFB);
  3277  01DF  30FB               	movlw	251
  3278  01E0  0021               	movlb	1	; select bank1
  3279  01E1  00EB               	movwf	??_USBDeviceTasks^(0+128)
  3280  01E2  086B               	movf	??_USBDeviceTasks^(0+128),w
  3281  01E3  003D               	movlb	29	; select bank29
  3282  01E4  0590               	andwf	16,f	;volatile
  3283  01E5                     l4822:
  3284                           
  3285                           ;lib/usb/usb_device.c: 644:             USBWakeFromSuspend();
  3286  01E5  3188  2043  3181   	fcall	_USBWakeFromSuspend
  3287  01E8                     l4824:
  3288                           
  3289                           ;lib/usb/usb_device.c: 651:     if(UCONbits.SUSPND==1)
  3290  01E8  003D               	movlb	29	; select bank29
  3291  01E9  1C8E               	btfss	14,1	;volatile
  3292  01EA  29EC               	goto	u3661
  3293  01EB  29ED               	goto	u3660
  3294  01EC                     u3661:
  3295  01EC  29F0               	goto	l173
  3296  01ED                     u3660:
  3297  01ED                     l4826:
  3298                           
  3299                           ;lib/usb/usb_device.c: 652:     {;lib/usb/usb_device.c: 653:         PIR2bits.USBIF = 0;
      +                          ;
  3300  01ED  0020               	movlb	0	; select bank0
  3301  01EE  1112               	bcf	18,2	;volatile
  3302                           
  3303                           ;lib/usb/usb_device.c: 654:         return;
  3304  01EF  2AD9               	goto	l165
  3305  01F0                     l173:	
  3306                           ;lib/usb/usb_device.c: 655:     }
  3307                           
  3308                           
  3309                           ;lib/usb/usb_device.c: 667:     if(UIRbits.URSTIF && UIEbits.URSTIE)
  3310  01F0  1C10               	btfss	16,0	;volatile
  3311  01F1  29F3               	goto	u3671
  3312  01F2  29F4               	goto	u3670
  3313  01F3                     u3671:
  3314  01F3  2A05               	goto	l4836
  3315  01F4                     u3670:
  3316  01F4                     l4828:
  3317  01F4  1C12               	btfss	18,0	;volatile
  3318  01F5  29F7               	goto	u3681
  3319  01F6  29F8               	goto	u3680
  3320  01F7                     u3681:
  3321  01F7  2A05               	goto	l4836
  3322  01F8                     u3680:
  3323  01F8                     l4830:
  3324                           
  3325                           ;lib/usb/usb_device.c: 668:     {;lib/usb/usb_device.c: 669:         USBDeviceInit();
  3326  01F8  3186  265A  3181   	fcall	_USBDeviceInit
  3327  01FB                     l4832:
  3328                           
  3329                           ;lib/usb/usb_device.c: 675:         USBDeviceState = DEFAULT_STATE;
  3330  01FB  3004               	movlw	4
  3331  01FC  0021               	movlb	1	; select bank1
  3332  01FD  00EB               	movwf	??_USBDeviceTasks^(0+128)
  3333  01FE  086B               	movf	??_USBDeviceTasks^(0+128),w
  3334  01FF  00D4               	movwf	_USBDeviceState^(0+128)
  3335  0200                     l4834:
  3336                           
  3337                           ;lib/usb/usb_device.c: 685:         (UIR &= 0xFE);
  3338  0200  30FE               	movlw	254
  3339  0201  00EB               	movwf	??_USBDeviceTasks^(0+128)
  3340  0202  086B               	movf	??_USBDeviceTasks^(0+128),w
  3341  0203  003D               	movlb	29	; select bank29
  3342  0204  0590               	andwf	16,f	;volatile
  3343  0205                     l4836:
  3344                           
  3345                           ;lib/usb/usb_device.c: 691:     if(UIRbits.IDLEIF && UIEbits.IDLEIE)
  3346  0205  1E10               	btfss	16,4	;volatile
  3347  0206  2A08               	goto	u3691
  3348  0207  2A09               	goto	u3690
  3349  0208                     u3691:
  3350  0208  2A10               	goto	l4842
  3351  0209                     u3690:
  3352  0209                     l4838:
  3353  0209  1E12               	btfss	18,4	;volatile
  3354  020A  2A0C               	goto	u3701
  3355  020B  2A0D               	goto	u3700
  3356  020C                     u3701:
  3357  020C  2A10               	goto	l4842
  3358  020D                     u3700:
  3359  020D                     l4840:
  3360                           
  3361                           ;lib/usb/usb_device.c: 692:     {;lib/usb/usb_device.c: 698:             USBSuspend();
  3362  020D  3197  27E4  3181   	fcall	_USBSuspend
  3363  0210                     l4842:
  3364                           
  3365                           ;lib/usb/usb_device.c: 712:     if(UIRbits.SOFIF)
  3366  0210  003D               	movlb	29	; select bank29
  3367  0211  1F10               	btfss	16,6	;volatile
  3368  0212  2A14               	goto	u3711
  3369  0213  2A15               	goto	u3710
  3370  0214                     u3711:
  3371  0214  2A42               	goto	l4858
  3372  0215                     u3710:
  3373  0215                     l4844:
  3374                           
  3375                           ;lib/usb/usb_device.c: 713:     {;lib/usb/usb_device.c: 715:         if(UIEbits.SOFIE)
  3376  0215  1F12               	btfss	18,6	;volatile
  3377  0216  2A18               	goto	u3721
  3378  0217  2A19               	goto	u3720
  3379  0218                     u3721:
  3380  0218  2A29               	goto	l4848
  3381  0219                     u3720:
  3382  0219                     l4846:
  3383                           
  3384                           ;lib/usb/usb_device.c: 716:         {;lib/usb/usb_device.c: 717:             USER_USB_CA
      +                          LLBACK_EVENT_HANDLER((USB_EVENT)EVENT_SOF,0,1);
  3385  0219  3073               	movlw	115
  3386  021A  0021               	movlb	1	; select bank1
  3387  021B  00D9               	movwf	USER_USB_CALLBACK_EVENT_HANDLER@event^(0+128)
  3388  021C  3000               	movlw	0
  3389  021D  00DA               	movwf	(USER_USB_CALLBACK_EVENT_HANDLER@event^(0+128)+1)
  3390  021E  3000               	movlw	0
  3391  021F  00DB               	movwf	USER_USB_CALLBACK_EVENT_HANDLER@pdata^(0+128)
  3392  0220  3000               	movlw	0
  3393  0221  00DC               	movwf	(USER_USB_CALLBACK_EVENT_HANDLER@pdata+1)^(0+128)
  3394  0222  3001               	movlw	1
  3395  0223  00DD               	movwf	USER_USB_CALLBACK_EVENT_HANDLER@size^(0+128)
  3396  0224  3000               	movlw	0
  3397  0225  00DE               	movwf	(USER_USB_CALLBACK_EVENT_HANDLER@size^(0+128)+1)
  3398  0226  318A  222E  3181   	fcall	_USER_USB_CALLBACK_EVENT_HANDLER
  3399  0229                     l4848:
  3400                           
  3401                           ;lib/usb/usb_device.c: 719:         (UIR &= 0xBF);
  3402  0229  30BF               	movlw	191
  3403  022A  0021               	movlb	1	; select bank1
  3404  022B  00EB               	movwf	??_USBDeviceTasks^(0+128)
  3405  022C  086B               	movf	??_USBDeviceTasks^(0+128),w
  3406  022D  003D               	movlb	29	; select bank29
  3407  022E  0590               	andwf	16,f	;volatile
  3408  022F                     l4850:
  3409                           
  3410                           ;lib/usb/usb_device.c: 722:             USBIncrement1msInternalTimers();
  3411  022F  3188  2005  3181   	fcall	_USBIncrement1msInternalTimers
  3412  0232                     l4852:
  3413                           
  3414                           ;lib/usb/usb_device.c: 739:             if(USBStatusStageTimeoutCounter != 0u)
  3415  0232  0021               	movlb	1	; select bank1
  3416  0233  084B               	movf	_USBStatusStageTimeoutCounter^(0+128),w
  3417  0234  1903               	btfsc	3,2
  3418  0235  2A37               	goto	u3731
  3419  0236  2A38               	goto	u3730
  3420  0237                     u3731:
  3421  0237  2A3A               	goto	l178
  3422  0238                     u3730:
  3423  0238                     l4854:
  3424                           
  3425                           ;lib/usb/usb_device.c: 740:             {;lib/usb/usb_device.c: 741:                 USB
      +                          StatusStageTimeoutCounter--;
  3426  0238  3001               	movlw	1
  3427  0239  02CB               	subwf	_USBStatusStageTimeoutCounter^(0+128),f
  3428  023A                     l178:	
  3429                           ;lib/usb/usb_device.c: 742:             }
  3430                           
  3431                           
  3432                           ;lib/usb/usb_device.c: 748:             if(USBStatusStageTimeoutCounter == 0)
  3433  023A  084B               	movf	_USBStatusStageTimeoutCounter^(0+128),w
  3434  023B  1D03               	btfss	3,2
  3435  023C  2A3E               	goto	u3741
  3436  023D  2A3F               	goto	u3740
  3437  023E                     u3741:
  3438  023E  2A42               	goto	l4858
  3439  023F                     u3740:
  3440  023F                     l4856:
  3441                           
  3442                           ;lib/usb/usb_device.c: 749:             {;lib/usb/usb_device.c: 750:                 USB
      +                          CtrlEPAllowStatusStage();
  3443  023F  318B  23F7  3181   	fcall	_USBCtrlEPAllowStatusStage
  3444  0242                     l4858:
  3445                           
  3446                           ;lib/usb/usb_device.c: 755:     if(UIRbits.STALLIF && UIEbits.STALLIE)
  3447  0242  003D               	movlb	29	; select bank29
  3448  0243  1E90               	btfss	16,5	;volatile
  3449  0244  2A46               	goto	u3751
  3450  0245  2A47               	goto	u3750
  3451  0246                     u3751:
  3452  0246  2A4E               	goto	l4864
  3453  0247                     u3750:
  3454  0247                     l4860:
  3455  0247  1E92               	btfss	18,5	;volatile
  3456  0248  2A4A               	goto	u3761
  3457  0249  2A4B               	goto	u3760
  3458  024A                     u3761:
  3459  024A  2A4E               	goto	l4864
  3460  024B                     u3760:
  3461  024B                     l4862:
  3462                           
  3463                           ;lib/usb/usb_device.c: 756:     {;lib/usb/usb_device.c: 757:         USBStallHandler();
  3464  024B  3189  2119  3181   	fcall	_USBStallHandler
  3465  024E                     l4864:
  3466                           
  3467                           ;lib/usb/usb_device.c: 760:     if(UIRbits.UERRIF && UIEbits.UERRIE)
  3468  024E  003D               	movlb	29	; select bank29
  3469  024F  1C90               	btfss	16,1	;volatile
  3470  0250  2A52               	goto	u3771
  3471  0251  2A53               	goto	u3770
  3472  0252                     u3771:
  3473  0252  2A69               	goto	l4872
  3474  0253                     u3770:
  3475  0253                     l4866:
  3476  0253  1C92               	btfss	18,1	;volatile
  3477  0254  2A56               	goto	u3781
  3478  0255  2A57               	goto	u3780
  3479  0256                     u3781:
  3480  0256  2A69               	goto	l4872
  3481  0257                     u3780:
  3482  0257                     l4868:
  3483                           
  3484                           ;lib/usb/usb_device.c: 761:     {;lib/usb/usb_device.c: 762:         USER_USB_CALLBACK_E
      +                          VENT_HANDLER((USB_EVENT)EVENT_BUS_ERROR,0,1);
  3485  0257  30FF               	movlw	255
  3486  0258  0021               	movlb	1	; select bank1
  3487  0259  00D9               	movwf	USER_USB_CALLBACK_EVENT_HANDLER@event^(0+128)
  3488  025A  307F               	movlw	127
  3489  025B  00DA               	movwf	(USER_USB_CALLBACK_EVENT_HANDLER@event^(0+128)+1)
  3490  025C  3000               	movlw	0
  3491  025D  00DB               	movwf	USER_USB_CALLBACK_EVENT_HANDLER@pdata^(0+128)
  3492  025E  3000               	movlw	0
  3493  025F  00DC               	movwf	(USER_USB_CALLBACK_EVENT_HANDLER@pdata+1)^(0+128)
  3494  0260  3001               	movlw	1
  3495  0261  00DD               	movwf	USER_USB_CALLBACK_EVENT_HANDLER@size^(0+128)
  3496  0262  3000               	movlw	0
  3497  0263  00DE               	movwf	(USER_USB_CALLBACK_EVENT_HANDLER@size^(0+128)+1)
  3498  0264  318A  222E  3181   	fcall	_USER_USB_CALLBACK_EVENT_HANDLER
  3499  0267                     l4870:
  3500                           
  3501                           ;lib/usb/usb_device.c: 763:         {UEIR = 0;};
  3502  0267  003D               	movlb	29	; select bank29
  3503  0268  0193               	clrf	19	;volatile
  3504  0269                     l4872:
  3505                           
  3506                           ;lib/usb/usb_device.c: 778:     if(USBDeviceState < DEFAULT_STATE)
  3507  0269  3004               	movlw	4
  3508  026A  0021               	movlb	1	; select bank1
  3509  026B  0254               	subwf	_USBDeviceState^(0+128),w
  3510  026C  1803               	skipnc
  3511  026D  2A6F               	goto	u3791
  3512  026E  2A70               	goto	u3790
  3513  026F                     u3791:
  3514  026F  2A73               	goto	l182
  3515  0270                     u3790:
  3516  0270                     l4874:
  3517                           
  3518                           ;lib/usb/usb_device.c: 779:     {;lib/usb/usb_device.c: 780:         PIR2bits.USBIF = 0;
      +                          ;
  3519  0270  0020               	movlb	0	; select bank0
  3520  0271  1112               	bcf	18,2	;volatile
  3521                           
  3522                           ;lib/usb/usb_device.c: 781:         return;
  3523  0272  2AD9               	goto	l165
  3524  0273                     l182:	
  3525                           ;lib/usb/usb_device.c: 782:     }
  3526                           
  3527                           
  3528                           ;lib/usb/usb_device.c: 787:     if(UIEbits.TRNIE)
  3529  0273  003D               	movlb	29	; select bank29
  3530  0274  1D92               	btfss	18,3	;volatile
  3531  0275  2A77               	goto	u3801
  3532  0276  2A78               	goto	u3800
  3533  0277                     u3801:
  3534  0277  2AD7               	goto	l183
  3535  0278                     u3800:
  3536  0278                     l4876:
  3537                           
  3538                           ;lib/usb/usb_device.c: 788:     {;lib/usb/usb_device.c: 789:         for(i = 0; i < 4u; 
      +                          i++)
  3539  0278  0021               	movlb	1	; select bank1
  3540  0279  01ED               	clrf	USBDeviceTasks@i^(0+128)
  3541  027A                     l184:
  3542                           
  3543                           ;lib/usb/usb_device.c: 790:         {;lib/usb/usb_device.c: 791:             if(UIRbits.
      +                          TRNIF)
  3544  027A  003D               	movlb	29	; select bank29
  3545  027B  1D90               	btfss	16,3	;volatile
  3546  027C  2A7E               	goto	u3811
  3547  027D  2A7F               	goto	u3810
  3548  027E                     u3811:
  3549  027E  2AD7               	goto	l183
  3550  027F                     u3810:
  3551  027F                     l4882:
  3552                           
  3553                           ;lib/usb/usb_device.c: 792:             {;lib/usb/usb_device.c: 794:                 UST
      +                          ATcopy.Val = USTAT;
  3554  027F  080F               	movf	15,w	;volatile
  3555  0280  0021               	movlb	1	; select bank1
  3556  0281  00EB               	movwf	??_USBDeviceTasks^(0+128)
  3557  0282  086B               	movf	??_USBDeviceTasks^(0+128),w
  3558  0283  00D7               	movwf	_USTATcopy^(0+128)
  3559  0284                     l4884:
  3560                           
  3561                           ;lib/usb/usb_device.c: 795:                 endpoint_number = USTATcopy.endpoint_number;
  3562  0284  0C57               	rrf	_USTATcopy^(0+128),w
  3563  0285  00EB               	movwf	??_USBDeviceTasks^(0+128)
  3564  0286  0CEB               	rrf	??_USBDeviceTasks^(0+128),f
  3565  0287  0C6B               	rrf	??_USBDeviceTasks^(0+128),w
  3566  0288  390F               	andlw	15
  3567  0289  00EC               	movwf	(??_USBDeviceTasks+1)^(0+128)
  3568  028A  086C               	movf	(??_USBDeviceTasks+1)^(0+128),w
  3569  028B  00CD               	movwf	_endpoint_number^(0+128)
  3570  028C                     l4886:
  3571                           
  3572                           ;lib/usb/usb_device.c: 797:                 (UIR &= 0xF7);
  3573  028C  30F7               	movlw	247
  3574  028D  00EB               	movwf	??_USBDeviceTasks^(0+128)
  3575  028E  086B               	movf	??_USBDeviceTasks^(0+128),w
  3576  028F  003D               	movlb	29	; select bank29
  3577  0290  0590               	andwf	16,f	;volatile
  3578  0291                     l4888:
  3579                           
  3580                           ;lib/usb/usb_device.c: 802:                 if(USTATcopy.direction == 0)
  3581  0291  0021               	movlb	1	; select bank1
  3582  0292  1957               	btfsc	_USTATcopy^(0+128),2
  3583  0293  2A95               	goto	u3821
  3584  0294  2A96               	goto	u3820
  3585  0295                     u3821:
  3586  0295  2AA6               	goto	l4892
  3587  0296                     u3820:
  3588  0296                     l4890:
  3589                           
  3590                           ;lib/usb/usb_device.c: 803:                 {;lib/usb/usb_device.c: 804:                
      +                               ep_data_out[endpoint_number].bits.ping_pong_state ^= 1;
  3591  0296  084D               	movf	_endpoint_number^(0+128),w
  3592  0297  3EAC               	addlw	(low (_ep_data_out| (0+256)))& (0+255)
  3593  0298  0086               	movwf	6
  3594  0299  3001               	movlw	1	; select bank3/4
  3595  029A  0087               	movwf	7
  3596  029B  0801               	movf	1,w
  3597  029C  3901               	andlw	1
  3598  029D  00EB               	movwf	??_USBDeviceTasks^(0+128)
  3599  029E  3001               	movlw	1
  3600  029F  06EB               	xorwf	??_USBDeviceTasks^(0+128),f
  3601  02A0  0801               	movf	1,w
  3602  02A1  066B               	xorwf	??_USBDeviceTasks^(0+128),w
  3603  02A2  39FE               	andlw	-2
  3604  02A3  066B               	xorwf	??_USBDeviceTasks^(0+128),w
  3605  02A4  0081               	movwf	1
  3606                           
  3607                           ;lib/usb/usb_device.c: 805:                 }
  3608  02A5  2AB5               	goto	l4894
  3609  02A6                     l4892:
  3610                           
  3611                           ;lib/usb/usb_device.c: 807:                 {;lib/usb/usb_device.c: 808:                
      +                               ep_data_in[endpoint_number].bits.ping_pong_state ^= 1;
  3612  02A6  084D               	movf	_endpoint_number^(0+128),w
  3613  02A7  3EB0               	addlw	(low (_ep_data_in| (0+256)))& (0+255)
  3614  02A8  0086               	movwf	6
  3615  02A9  3001               	movlw	1	; select bank3/4
  3616  02AA  0087               	movwf	7
  3617  02AB  0801               	movf	1,w
  3618  02AC  3901               	andlw	1
  3619  02AD  00EB               	movwf	??_USBDeviceTasks^(0+128)
  3620  02AE  3001               	movlw	1
  3621  02AF  06EB               	xorwf	??_USBDeviceTasks^(0+128),f
  3622  02B0  0801               	movf	1,w
  3623  02B1  066B               	xorwf	??_USBDeviceTasks^(0+128),w
  3624  02B2  39FE               	andlw	-2
  3625  02B3  066B               	xorwf	??_USBDeviceTasks^(0+128),w
  3626  02B4  0081               	movwf	1
  3627  02B5                     l4894:
  3628                           
  3629                           ;lib/usb/usb_device.c: 814:                 if(endpoint_number == 0)
  3630  02B5  084D               	movf	_endpoint_number^(0+128),w
  3631  02B6  1D03               	btfss	3,2
  3632  02B7  2AB9               	goto	u3831
  3633  02B8  2ABA               	goto	u3830
  3634  02B9                     u3831:
  3635  02B9  2ABE               	goto	l4898
  3636  02BA                     u3830:
  3637  02BA                     l4896:
  3638                           
  3639                           ;lib/usb/usb_device.c: 815:                 {;lib/usb/usb_device.c: 816:                
      +                               USBCtrlEPService();
  3640  02BA  318A  2274  3181   	fcall	_USBCtrlEPService
  3641                           
  3642                           ;lib/usb/usb_device.c: 817:                 }
  3643  02BD  2ACC               	goto	l4900
  3644  02BE                     l4898:
  3645                           
  3646                           ;lib/usb/usb_device.c: 819:                 {;lib/usb/usb_device.c: 820:                
      +                               USER_USB_CALLBACK_EVENT_HANDLER((USB_EVENT)EVENT_TRANSFER,(uint8_t*)&USTATcopy.Val,
      +                          0);
  3647  02BE  3072               	movlw	114
  3648  02BF  00D9               	movwf	USER_USB_CALLBACK_EVENT_HANDLER@event^(0+128)
  3649  02C0  3000               	movlw	0
  3650  02C1  00DA               	movwf	(USER_USB_CALLBACK_EVENT_HANDLER@event^(0+128)+1)
  3651  02C2  30D7               	movlw	low _USTATcopy
  3652  02C3  00DB               	movwf	USER_USB_CALLBACK_EVENT_HANDLER@pdata^(0+128)
  3653  02C4  3000               	movlw	high _USTATcopy
  3654  02C5  00DC               	movwf	(USER_USB_CALLBACK_EVENT_HANDLER@pdata+1)^(0+128)
  3655  02C6  3000               	movlw	0
  3656  02C7  00DD               	movwf	USER_USB_CALLBACK_EVENT_HANDLER@size^(0+128)
  3657  02C8  00DE               	movwf	(USER_USB_CALLBACK_EVENT_HANDLER@size+1)^(0+128)
  3658  02C9  318A  222E  3181   	fcall	_USER_USB_CALLBACK_EVENT_HANDLER
  3659  02CC                     l4900:
  3660                           
  3661                           ;lib/usb/usb_device.c: 827:         }
  3662  02CC  3001               	movlw	1
  3663  02CD  0021               	movlb	1	; select bank1
  3664  02CE  00EB               	movwf	??_USBDeviceTasks^(0+128)
  3665  02CF  086B               	movf	??_USBDeviceTasks^(0+128),w
  3666  02D0  07ED               	addwf	USBDeviceTasks@i^(0+128),f
  3667  02D1                     l4902:
  3668  02D1  3004               	movlw	4
  3669  02D2  026D               	subwf	USBDeviceTasks@i^(0+128),w
  3670  02D3  1C03               	skipc
  3671  02D4  2AD6               	goto	u3841
  3672  02D5  2AD7               	goto	u3840
  3673  02D6                     u3841:
  3674  02D6  2A7A               	goto	l184
  3675  02D7                     u3840:
  3676  02D7                     l183:	
  3677                           ;lib/usb/usb_device.c: 828:     }
  3678                           
  3679                           
  3680                           ;lib/usb/usb_device.c: 830:     PIR2bits.USBIF = 0;;
  3681  02D7  0020               	movlb	0	; select bank0
  3682  02D8  1112               	bcf	18,2	;volatile
  3683  02D9                     l165:
  3684  02D9  0008               	return
  3685  02DA                     __end_of_USBDeviceTasks:
  3686                           
  3687                           	psect	text3
  3688  0843                     __ptext3:	
  3689 ;; *************** function _USBWakeFromSuspend *****************
  3690 ;; Defined at:
  3691 ;;		line 2310 in file "lib/usb/usb_device.c"
  3692 ;; Parameters:    Size  Location     Type
  3693 ;;		None
  3694 ;; Auto vars:     Size  Location     Type
  3695 ;;		None
  3696 ;; Return value:  Size  Location     Type
  3697 ;;                  1    wreg      void 
  3698 ;; Registers used:
  3699 ;;		wreg, fsr0l, fsr0h, fsr1l, fsr1h, status,2, status,0, pclath, cstack
  3700 ;; Tracked objects:
  3701 ;;		On entry : 0/0
  3702 ;;		On exit  : 0/0
  3703 ;;		Unchanged: 0/0
  3704 ;; Data sizes:     COMMON   BANK1   BANK2   BANK3   BANK4   BANK5   BANK6   BANK7   BANK8   BANK9  BANK10  BANK11  BANK1
      +2
  3705 ;;      Params:         0       0       0       0       0       0       0       0       0       0       0       0       
      +0
  3706 ;;      Locals:         0       0       0       0       0       0       0       0       0       0       0       0       
      +0
  3707 ;;      Temps:          0       1       0       0       0       0       0       0       0       0       0       0       
      +0
  3708 ;;      Totals:         0       1       0       0       0       0       0       0       0       0       0       0       
      +0
  3709 ;;Total ram usage:        1 bytes
  3710 ;; Hardware stack levels used: 1
  3711 ;; Hardware stack levels required when called: 5
  3712 ;; This function calls:
  3713 ;;		_USER_USB_CALLBACK_EVENT_HANDLER
  3714 ;; This function is called by:
  3715 ;;		_USBDeviceTasks
  3716 ;; This function uses a non-reentrant model
  3717 ;;
  3718                           
  3719  0843                     _USBWakeFromSuspend:	
  3720                           ;psect for function _USBWakeFromSuspend
  3721                           
  3722  0843                     l3918:	
  3723                           ;incstack = 0
  3724                           ; Regs used in _USBWakeFromSuspend: [wreg-fsr1h+status,2+status,0+pclath+cstack]
  3725                           
  3726                           
  3727                           ;lib/usb/usb_device.c: 2312:     USBBusIsSuspended = 0;
  3728  0843  0021               	movlb	1	; select bank1
  3729  0844  01CE               	clrf	_USBBusIsSuspended^(0+128)
  3730  0845                     l3920:
  3731                           
  3732                           ;lib/usb/usb_device.c: 2318:     USER_USB_CALLBACK_EVENT_HANDLER((USB_EVENT)EVENT_RESUME
      +                          ,0,0);
  3733  0845  3074               	movlw	116
  3734  0846  00D9               	movwf	USER_USB_CALLBACK_EVENT_HANDLER@event^(0+128)
  3735  0847  3000               	movlw	0
  3736  0848  00DA               	movwf	(USER_USB_CALLBACK_EVENT_HANDLER@event^(0+128)+1)
  3737  0849  3000               	movlw	0
  3738  084A  00DB               	movwf	USER_USB_CALLBACK_EVENT_HANDLER@pdata^(0+128)
  3739  084B  3000               	movlw	0
  3740  084C  00DC               	movwf	(USER_USB_CALLBACK_EVENT_HANDLER@pdata+1)^(0+128)
  3741  084D  3000               	movlw	0
  3742  084E  00DD               	movwf	USER_USB_CALLBACK_EVENT_HANDLER@size^(0+128)
  3743  084F  00DE               	movwf	(USER_USB_CALLBACK_EVENT_HANDLER@size+1)^(0+128)
  3744  0850  318A  222E  3188   	fcall	_USER_USB_CALLBACK_EVENT_HANDLER
  3745  0853                     l3922:
  3746                           
  3747                           ;lib/usb/usb_device.c: 2325:         UCONbits.SUSPND = 0;
  3748  0853  003D               	movlb	29	; select bank29
  3749  0854  108E               	bcf	14,1	;volatile
  3750  0855                     l3924:
  3751                           
  3752                           ;lib/usb/usb_device.c: 2330:     UIEbits.ACTVIE = 0;
  3753  0855  1112               	bcf	18,2	;volatile
  3754                           
  3755                           ;lib/usb/usb_device.c: 2348:     while(UIRbits.ACTVIF)
  3756  0856  285D               	goto	l3928
  3757  0857                     l3926:
  3758                           
  3759                           ;lib/usb/usb_device.c: 2350:     {;lib/usb/usb_device.c: 2351:         (UIR &= 0xFB);
  3760  0857  30FB               	movlw	251
  3761  0858  0021               	movlb	1	; select bank1
  3762  0859  00DF               	movwf	??_USBWakeFromSuspend^(0+128)
  3763  085A  085F               	movf	??_USBWakeFromSuspend^(0+128),w
  3764  085B  003D               	movlb	29	; select bank29
  3765  085C  0590               	andwf	16,f	;volatile
  3766  085D                     l3928:
  3767                           
  3768                           ;lib/usb/usb_device.c: 2348:     while(UIRbits.ACTVIF)
  3769  085D  1910               	btfsc	16,2	;volatile
  3770  085E  2860               	goto	u2751
  3771  085F  2861               	goto	u2750
  3772  0860                     u2751:
  3773  0860  2857               	goto	l3926
  3774  0861                     u2750:
  3775  0861                     l3930:
  3776                           
  3777                           ;lib/usb/usb_device.c: 2354:     USBTicksSinceSuspendEnd = 0;
  3778  0861  0021               	movlb	1	; select bank1
  3779  0862  01C5               	clrf	_USBTicksSinceSuspendEnd^(0+128)
  3780  0863                     l325:
  3781  0863  0008               	return
  3782  0864                     __end_of_USBWakeFromSuspend:
  3783                           
  3784                           	psect	text4
  3785  17E4                     __ptext4:	
  3786 ;; *************** function _USBSuspend *****************
  3787 ;; Defined at:
  3788 ;;		line 2252 in file "lib/usb/usb_device.c"
  3789 ;; Parameters:    Size  Location     Type
  3790 ;;		None
  3791 ;; Auto vars:     Size  Location     Type
  3792 ;;		None
  3793 ;; Return value:  Size  Location     Type
  3794 ;;                  1    wreg      void 
  3795 ;; Registers used:
  3796 ;;		wreg, fsr0l, fsr0h, fsr1l, fsr1h, status,2, status,0, pclath, cstack
  3797 ;; Tracked objects:
  3798 ;;		On entry : 0/0
  3799 ;;		On exit  : 0/0
  3800 ;;		Unchanged: 0/0
  3801 ;; Data sizes:     COMMON   BANK1   BANK2   BANK3   BANK4   BANK5   BANK6   BANK7   BANK8   BANK9  BANK10  BANK11  BANK1
      +2
  3802 ;;      Params:         0       0       0       0       0       0       0       0       0       0       0       0       
      +0
  3803 ;;      Locals:         0       0       0       0       0       0       0       0       0       0       0       0       
      +0
  3804 ;;      Temps:          0       1       0       0       0       0       0       0       0       0       0       0       
      +0
  3805 ;;      Totals:         0       1       0       0       0       0       0       0       0       0       0       0       
      +0
  3806 ;;Total ram usage:        1 bytes
  3807 ;; Hardware stack levels used: 1
  3808 ;; Hardware stack levels required when called: 5
  3809 ;; This function calls:
  3810 ;;		_USER_USB_CALLBACK_EVENT_HANDLER
  3811 ;; This function is called by:
  3812 ;;		_USBDeviceTasks
  3813 ;; This function uses a non-reentrant model
  3814 ;;
  3815                           
  3816  17E4                     _USBSuspend:	
  3817                           ;psect for function _USBSuspend
  3818                           
  3819  17E4                     l3932:	
  3820                           ;incstack = 0
  3821                           ; Regs used in _USBSuspend: [wreg-fsr1h+status,2+status,0+pclath+cstack]
  3822                           
  3823                           
  3824                           ;lib/usb/usb_device.c: 2277:     UIEbits.ACTVIE = 1;
  3825  17E4  003D               	movlb	29	; select bank29
  3826  17E5  1512               	bsf	18,2	;volatile
  3827  17E6                     l3934:
  3828                           
  3829                           ;lib/usb/usb_device.c: 2278:     (UIR &= 0xEF);
  3830  17E6  30EF               	movlw	239
  3831  17E7  0021               	movlb	1	; select bank1
  3832  17E8  00DF               	movwf	??_USBSuspend^(0+128)
  3833  17E9  085F               	movf	??_USBSuspend^(0+128),w
  3834  17EA  003D               	movlb	29	; select bank29
  3835  17EB  0590               	andwf	16,f	;volatile
  3836  17EC                     l3936:
  3837                           
  3838                           ;lib/usb/usb_device.c: 2281:         UCONbits.SUSPND = 1;
  3839  17EC  148E               	bsf	14,1	;volatile
  3840  17ED                     l3938:
  3841                           
  3842                           ;lib/usb/usb_device.c: 2284:     USBBusIsSuspended = 1;
  3843  17ED  0021               	movlb	1	; select bank1
  3844  17EE  01CE               	clrf	_USBBusIsSuspended^(0+128)
  3845  17EF  0ACE               	incf	_USBBusIsSuspended^(0+128),f
  3846  17F0                     l3940:
  3847                           
  3848                           ;lib/usb/usb_device.c: 2285:     USBTicksSinceSuspendEnd = 0;
  3849  17F0  01C5               	clrf	_USBTicksSinceSuspendEnd^(0+128)
  3850  17F1                     l3942:
  3851                           
  3852                           ;lib/usb/usb_device.c: 2292:     USER_USB_CALLBACK_EVENT_HANDLER((USB_EVENT)EVENT_SUSPEN
      +                          D,0,0);
  3853  17F1  3075               	movlw	117
  3854  17F2  00D9               	movwf	USER_USB_CALLBACK_EVENT_HANDLER@event^(0+128)
  3855  17F3  3000               	movlw	0
  3856  17F4  00DA               	movwf	(USER_USB_CALLBACK_EVENT_HANDLER@event^(0+128)+1)
  3857  17F5  3000               	movlw	0
  3858  17F6  00DB               	movwf	USER_USB_CALLBACK_EVENT_HANDLER@pdata^(0+128)
  3859  17F7  3000               	movlw	0
  3860  17F8  00DC               	movwf	(USER_USB_CALLBACK_EVENT_HANDLER@pdata+1)^(0+128)
  3861  17F9  3000               	movlw	0
  3862  17FA  00DD               	movwf	USER_USB_CALLBACK_EVENT_HANDLER@size^(0+128)
  3863  17FB  00DE               	movwf	(USER_USB_CALLBACK_EVENT_HANDLER@size+1)^(0+128)
  3864  17FC  318A  222E  3197   	fcall	_USER_USB_CALLBACK_EVENT_HANDLER
  3865  17FF                     l319:
  3866  17FF  0008               	return
  3867  1800                     __end_of_USBSuspend:
  3868                           
  3869                           	psect	text5
  3870  0919                     __ptext5:	
  3871 ;; *************** function _USBStallHandler *****************
  3872 ;; Defined at:
  3873 ;;		line 2209 in file "lib/usb/usb_device.c"
  3874 ;; Parameters:    Size  Location     Type
  3875 ;;		None
  3876 ;; Auto vars:     Size  Location     Type
  3877 ;;		None
  3878 ;; Return value:  Size  Location     Type
  3879 ;;                  1    wreg      void 
  3880 ;; Registers used:
  3881 ;;		wreg, fsr1l, fsr1h, status,2, status,0
  3882 ;; Tracked objects:
  3883 ;;		On entry : 0/0
  3884 ;;		On exit  : 0/0
  3885 ;;		Unchanged: 0/0
  3886 ;; Data sizes:     COMMON   BANK1   BANK2   BANK3   BANK4   BANK5   BANK6   BANK7   BANK8   BANK9  BANK10  BANK11  BANK1
      +2
  3887 ;;      Params:         0       0       0       0       0       0       0       0       0       0       0       0       
      +0
  3888 ;;      Locals:         0       0       0       0       0       0       0       0       0       0       0       0       
      +0
  3889 ;;      Temps:          1       0       0       0       0       0       0       0       0       0       0       0       
      +0
  3890 ;;      Totals:         1       0       0       0       0       0       0       0       0       0       0       0       
      +0
  3891 ;;Total ram usage:        1 bytes
  3892 ;; Hardware stack levels used: 1
  3893 ;; Hardware stack levels required when called: 1
  3894 ;; This function calls:
  3895 ;;		Nothing
  3896 ;; This function is called by:
  3897 ;;		_USBDeviceTasks
  3898 ;; This function uses a non-reentrant model
  3899 ;;
  3900                           
  3901  0919                     _USBStallHandler:	
  3902                           ;psect for function _USBStallHandler
  3903                           
  3904  0919                     l3952:	
  3905                           ;incstack = 0
  3906                           ; Regs used in _USBStallHandler: [wreg+fsr1l+fsr1h+status,2+status,0]
  3907                           
  3908                           
  3909                           ;lib/usb/usb_device.c: 2221:     if(UEP0bits.EPSTALL == 1)
  3910  0919  003D               	movlb	29	; select bank29
  3911  091A  1C18               	btfss	24,0	;volatile
  3912  091B  291D               	goto	u2781
  3913  091C  291E               	goto	u2780
  3914  091D                     u2781:
  3915  091D  293F               	goto	l3962
  3916  091E                     u2780:
  3917  091E                     l3954:
  3918                           
  3919                           ;lib/usb/usb_device.c: 2222:     {;lib/usb/usb_device.c: 2224:         if((pBDTEntryEP0O
      +                          utCurrent->STAT.Val == 0x80) && (pBDTEntryIn[0]->STAT.Val == (0x80|0x04)))
  3920  091E  0021               	movlb	1	; select bank1
  3921  091F  0853               	movf	_pBDTEntryEP0OutCurrent^(0+128),w
  3922  0920  0086               	movwf	6
  3923  0921  0187               	clrf	7
  3924  0922  3080               	movlw	128
  3925  0923  0601               	xorwf	1,w
  3926  0924  1D03               	btfss	3,2
  3927  0925  2927               	goto	u2791
  3928  0926  2928               	goto	u2790
  3929  0927                     u2791:
  3930  0927  293D               	goto	l3960
  3931  0928                     u2790:
  3932  0928                     l3956:
  3933  0928  0830               	movf	_pBDTEntryIn^(0+128),w
  3934  0929  0086               	movwf	6
  3935  092A  0831               	movf	(_pBDTEntryIn+1)^(0+128),w
  3936  092B  0087               	movwf	7
  3937  092C  3084               	movlw	132
  3938  092D  0601               	xorwf	1,w
  3939  092E  1D03               	btfss	3,2
  3940  092F  2931               	goto	u2801
  3941  0930  2932               	goto	u2800
  3942  0931                     u2801:
  3943  0931  293D               	goto	l3960
  3944  0932                     u2800:
  3945  0932                     l3958:
  3946                           
  3947                           ;lib/usb/usb_device.c: 2225:         {;lib/usb/usb_device.c: 2227:             pBDTEntry
      +                          EP0OutCurrent->STAT.Val = 0x00|(0x08 & 0x08)|0x04;
  3948  0932  300C               	movlw	12
  3949  0933  00F0               	movwf	??_USBStallHandler
  3950  0934  0853               	movf	_pBDTEntryEP0OutCurrent^(0+128),w
  3951  0935  0086               	movwf	6
  3952  0936  0187               	clrf	7
  3953  0937  0870               	movf	??_USBStallHandler,w
  3954  0938  0081               	movwf	1
  3955                           
  3956                           ;lib/usb/usb_device.c: 2228:             pBDTEntryEP0OutCurrent->STAT.Val |= 0x80;
  3957  0939  0853               	movf	_pBDTEntryEP0OutCurrent^(0+128),w
  3958  093A  0086               	movwf	6
  3959  093B  0187               	clrf	7
  3960  093C  1781               	bsf	1,7
  3961  093D                     l3960:
  3962                           
  3963                           ;lib/usb/usb_device.c: 2230:         UEP0bits.EPSTALL = 0;
  3964  093D  003D               	movlb	29	; select bank29
  3965  093E  1018               	bcf	24,0	;volatile
  3966  093F                     l3962:
  3967                           
  3968                           ;lib/usb/usb_device.c: 2233:     (UIR &= 0xDF);
  3969  093F  30DF               	movlw	223
  3970  0940  00F0               	movwf	??_USBStallHandler
  3971  0941  0870               	movf	??_USBStallHandler,w
  3972  0942  0590               	andwf	16,f	;volatile
  3973  0943                     l316:
  3974  0943  0008               	return
  3975  0944                     __end_of_USBStallHandler:
  3976                           
  3977                           	psect	text6
  3978  0805                     __ptext6:	
  3979 ;; *************** function _USBIncrement1msInternalTimers *****************
  3980 ;; Defined at:
  3981 ;;		line 2998 in file "lib/usb/usb_device.c"
  3982 ;; Parameters:    Size  Location     Type
  3983 ;;		None
  3984 ;; Auto vars:     Size  Location     Type
  3985 ;;		None
  3986 ;; Return value:  Size  Location     Type
  3987 ;;                  1    wreg      void 
  3988 ;; Registers used:
  3989 ;;		wreg, status,2, status,0
  3990 ;; Tracked objects:
  3991 ;;		On entry : 0/0
  3992 ;;		On exit  : 0/0
  3993 ;;		Unchanged: 0/0
  3994 ;; Data sizes:     COMMON   BANK1   BANK2   BANK3   BANK4   BANK5   BANK6   BANK7   BANK8   BANK9  BANK10  BANK11  BANK1
      +2
  3995 ;;      Params:         0       0       0       0       0       0       0       0       0       0       0       0       
      +0
  3996 ;;      Locals:         0       0       0       0       0       0       0       0       0       0       0       0       
      +0
  3997 ;;      Temps:          1       0       0       0       0       0       0       0       0       0       0       0       
      +0
  3998 ;;      Totals:         1       0       0       0       0       0       0       0       0       0       0       0       
      +0
  3999 ;;Total ram usage:        1 bytes
  4000 ;; Hardware stack levels used: 1
  4001 ;; Hardware stack levels required when called: 1
  4002 ;; This function calls:
  4003 ;;		Nothing
  4004 ;; This function is called by:
  4005 ;;		_USBDeviceTasks
  4006 ;; This function uses a non-reentrant model
  4007 ;;
  4008                           
  4009  0805                     _USBIncrement1msInternalTimers:	
  4010                           ;psect for function _USBIncrement1msInternalTimers
  4011                           
  4012  0805                     l3944:	
  4013                           ;incstack = 0
  4014                           ; Regs used in _USBIncrement1msInternalTimers: [wreg+status,2+status,0]
  4015                           
  4016                           
  4017                           ;lib/usb/usb_device.c: 3006:     USB1msTickCount++;
  4018  0805  3001               	movlw	1
  4019  0806  0023               	movlb	3	; select bank3
  4020  0807  07A8               	addwf	_USB1msTickCount^(0+384),f
  4021  0808  3000               	movlw	0
  4022  0809  3DA9               	addwfc	(_USB1msTickCount+1)^(0+384),f
  4023  080A  3000               	movlw	0
  4024  080B  3DAA               	addwfc	(_USB1msTickCount+2)^(0+384),f
  4025  080C  3000               	movlw	0
  4026  080D  3DAB               	addwfc	(_USB1msTickCount+3)^(0+384),f
  4027  080E                     l3946:
  4028                           
  4029                           ;lib/usb/usb_device.c: 3007:     if(USBBusIsSuspended == 0)
  4030  080E  0021               	movlb	1	; select bank1
  4031  080F  084E               	movf	_USBBusIsSuspended^(0+128),w
  4032  0810  1D03               	btfss	3,2
  4033  0811  2813               	goto	u2761
  4034  0812  2814               	goto	u2760
  4035  0813                     u2761:
  4036  0813  2821               	goto	l406
  4037  0814                     u2760:
  4038  0814                     l3948:
  4039                           
  4040                           ;lib/usb/usb_device.c: 3008:     {;lib/usb/usb_device.c: 3009:         USBTicksSinceSusp
      +                          endEnd++;
  4041  0814  3001               	movlw	1
  4042  0815  00F0               	movwf	??_USBIncrement1msInternalTimers
  4043  0816  0870               	movf	??_USBIncrement1msInternalTimers,w
  4044  0817  07C5               	addwf	_USBTicksSinceSuspendEnd^(0+128),f
  4045                           
  4046                           ;lib/usb/usb_device.c: 3011:         if(USBTicksSinceSuspendEnd == 0)
  4047  0818  0845               	movf	_USBTicksSinceSuspendEnd^(0+128),w
  4048  0819  1D03               	btfss	3,2
  4049  081A  281C               	goto	u2771
  4050  081B  281D               	goto	u2770
  4051  081C                     u2771:
  4052  081C  2821               	goto	l406
  4053  081D                     u2770:
  4054  081D                     l3950:
  4055                           
  4056                           ;lib/usb/usb_device.c: 3012:         {;lib/usb/usb_device.c: 3013:             USBTicksS
      +                          inceSuspendEnd = 255;
  4057  081D  30FF               	movlw	255
  4058  081E  00F0               	movwf	??_USBIncrement1msInternalTimers
  4059  081F  0870               	movf	??_USBIncrement1msInternalTimers,w
  4060  0820  00C5               	movwf	_USBTicksSinceSuspendEnd^(0+128)
  4061  0821                     l406:
  4062  0821  0008               	return
  4063  0822                     __end_of_USBIncrement1msInternalTimers:
  4064                           
  4065                           	psect	text7
  4066  065A                     __ptext7:	
  4067 ;; *************** function _USBDeviceInit *****************
  4068 ;; Defined at:
  4069 ;;		line 281 in file "lib/usb/usb_device.c"
  4070 ;; Parameters:    Size  Location     Type
  4071 ;;		None
  4072 ;; Auto vars:     Size  Location     Type
  4073 ;;  p               2    1[COMMON] PTR unsigned char 
  4074 ;;		 -> UEP1(1), 
  4075 ;;  i               1    3[COMMON] unsigned char 
  4076 ;;  i               1    4[COMMON] unsigned char 
  4077 ;; Return value:  Size  Location     Type
  4078 ;;                  1    wreg      void 
  4079 ;; Registers used:
  4080 ;;		wreg, fsr1l, fsr1h, status,2, status,0
  4081 ;; Tracked objects:
  4082 ;;		On entry : 0/0
  4083 ;;		On exit  : 0/0
  4084 ;;		Unchanged: 0/0
  4085 ;; Data sizes:     COMMON   BANK1   BANK2   BANK3   BANK4   BANK5   BANK6   BANK7   BANK8   BANK9  BANK10  BANK11  BANK1
      +2
  4086 ;;      Params:         0       0       0       0       0       0       0       0       0       0       0       0       
      +0
  4087 ;;      Locals:         4       0       0       0       0       0       0       0       0       0       0       0       
      +0
  4088 ;;      Temps:          1       0       0       0       0       0       0       0       0       0       0       0       
      +0
  4089 ;;      Totals:         5       0       0       0       0       0       0       0       0       0       0       0       
      +0
  4090 ;;Total ram usage:        5 bytes
  4091 ;; Hardware stack levels used: 1
  4092 ;; Hardware stack levels required when called: 1
  4093 ;; This function calls:
  4094 ;;		Nothing
  4095 ;; This function is called by:
  4096 ;;		_USBDeviceTasks
  4097 ;;		_main
  4098 ;; This function uses a non-reentrant model
  4099 ;;
  4100                           
  4101  065A                     _USBDeviceInit:	
  4102                           ;psect for function _USBDeviceInit
  4103                           
  4104  065A                     l3832:	
  4105                           ;incstack = 0
  4106                           ; Regs used in _USBDeviceInit: [wreg+fsr1l+fsr1h+status,2+status,0]
  4107                           
  4108                           
  4109                           ;lib/usb/usb_device.c: 283:     uint8_t i;;lib/usb/usb_device.c: 285:     {PIE2bits.USBI
      +                          E = 0;};
  4110  065A  0021               	movlb	1	; select bank1
  4111  065B  1112               	bcf	18,2	;volatile
  4112  065C                     l3834:
  4113                           
  4114                           ;lib/usb/usb_device.c: 292:     {UEIR = 0;};
  4115  065C  003D               	movlb	29	; select bank29
  4116  065D  0193               	clrf	19	;volatile
  4117                           
  4118                           ;lib/usb/usb_device.c: 295:     {UIR = 0;};
  4119  065E  0190               	clrf	16	;volatile
  4120                           
  4121                           ;lib/usb/usb_device.c: 298:     UEP0 = 0;
  4122  065F  0198               	clrf	24	;volatile
  4123  0660                     l3836:
  4124                           
  4125                           ;lib/usb/usb_device.c: 300:     { uint8_t i; uint8_t* p = (uint8_t*)&UEP1; for(i=0;i<3;i
      +                          ++) *p++ = 0; };
  4126  0660  300E               	movlw	14
  4127  0661  00F2               	movwf	USBDeviceInit@p+1
  4128  0662  3099               	movlw	153
  4129  0663  00F1               	movwf	USBDeviceInit@p
  4130  0664  01F3               	clrf	USBDeviceInit@i_722
  4131  0665                     l3842:
  4132  0665  0871               	movf	USBDeviceInit@p,w
  4133  0666  0086               	movwf	6
  4134  0667  0872               	movf	USBDeviceInit@p+1,w
  4135  0668  0087               	movwf	7
  4136  0669  0181               	clrf	1
  4137  066A                     l3844:
  4138  066A  3001               	movlw	1
  4139  066B  07F1               	addwf	USBDeviceInit@p,f
  4140  066C  3000               	movlw	0
  4141  066D  3DF2               	addwfc	USBDeviceInit@p+1,f
  4142  066E                     l3846:
  4143  066E  3001               	movlw	1
  4144  066F  00F0               	movwf	??_USBDeviceInit
  4145  0670  0870               	movf	??_USBDeviceInit,w
  4146  0671  07F3               	addwf	USBDeviceInit@i_722,f
  4147  0672                     l3848:
  4148  0672  3003               	movlw	3
  4149  0673  0273               	subwf	USBDeviceInit@i_722,w
  4150  0674  1C03               	skipc
  4151  0675  2E77               	goto	u2701
  4152  0676  2E78               	goto	u2700
  4153  0677                     u2701:
  4154  0677  2E65               	goto	l3842
  4155  0678                     u2700:
  4156  0678                     l3850:
  4157                           
  4158                           ;lib/usb/usb_device.c: 302:     { UCFG = 0x10 | 0x00 | 0x04 | 0x02; UEIE = 0x9F; UIE = 0
      +                          x39 | 0x40 | 0x02; };
  4159  0678  3016               	movlw	22
  4160  0679  003D               	movlb	29	; select bank29
  4161  067A  0091               	movwf	17	;volatile
  4162  067B  309F               	movlw	159
  4163  067C  0097               	movwf	23	;volatile
  4164  067D  307B               	movlw	123
  4165  067E  0092               	movwf	18	;volatile
  4166  067F                     l3852:
  4167                           
  4168                           ;lib/usb/usb_device.c: 311:     for(i = 0; i < (sizeof(BDT)/sizeof(BDT_ENTRY)); i++)
  4169  067F  01F4               	clrf	USBDeviceInit@i
  4170  0680                     l3858:
  4171                           
  4172                           ;lib/usb/usb_device.c: 312:     {;lib/usb/usb_device.c: 313:         BDT[i].Val = 0x00;
  4173  0680  0874               	movf	USBDeviceInit@i,w
  4174  0681  00F0               	movwf	??_USBDeviceInit
  4175  0682  3001               	movlw	1
  4176  0683                     u2715:
  4177  0683  35F0               	lslf	??_USBDeviceInit,f
  4178  0684  3EFF               	addlw	-1
  4179  0685  1D03               	skipz
  4180  0686  2E83               	goto	u2715
  4181  0687  3570               	lslf	??_USBDeviceInit,w
  4182  0688  3E20               	addlw	32
  4183  0689  0086               	movwf	6
  4184  068A  0187               	clrf	7
  4185  068B  3000               	movlw	0
  4186  068C  3FC0               	movwi [0]fsr1
  4187  068D  3000               	movlw	0
  4188  068E  3FC1               	movwi [1]fsr1
  4189  068F  3FC2               	movwi [2]fsr1
  4190  0690  3FC3               	movwi [3]fsr1
  4191  0691                     l3860:
  4192                           
  4193                           ;lib/usb/usb_device.c: 314:     }
  4194  0691  3001               	movlw	1
  4195  0692  00F0               	movwf	??_USBDeviceInit
  4196  0693  0870               	movf	??_USBDeviceInit,w
  4197  0694  07F4               	addwf	USBDeviceInit@i,f
  4198  0695                     l3862:
  4199  0695  3010               	movlw	16
  4200  0696  0274               	subwf	USBDeviceInit@i,w
  4201  0697  1C03               	skipc
  4202  0698  2E9A               	goto	u2721
  4203  0699  2E9B               	goto	u2720
  4204  069A                     u2721:
  4205  069A  2E80               	goto	l3858
  4206  069B                     u2720:
  4207  069B                     l156:
  4208                           
  4209                           ;lib/usb/usb_device.c: 317:     UCONbits.PPBRST = 1;
  4210  069B  003D               	movlb	29	; select bank29
  4211  069C  170E               	bsf	14,6	;volatile
  4212  069D                     l3864:
  4213                           
  4214                           ;lib/usb/usb_device.c: 320:     UADDR = 0x00;
  4215  069D  0196               	clrf	22	;volatile
  4216  069E                     l3866:
  4217                           
  4218                           ;lib/usb/usb_device.c: 323:     UCONbits.PKTDIS = 0;
  4219  069E  120E               	bcf	14,4	;volatile
  4220  069F                     l3868:
  4221                           
  4222                           ;lib/usb/usb_device.c: 326:     UCONbits.PPBRST = 0;
  4223  069F  130E               	bcf	14,6	;volatile
  4224  06A0                     l3870:
  4225                           
  4226                           ;lib/usb/usb_device.c: 330:     {;lib/usb/usb_device.c: 331:         (UIR &= 0xF7);
  4227  06A0  30F7               	movlw	247
  4228  06A1  00F0               	movwf	??_USBDeviceInit
  4229  06A2  0870               	movf	??_USBDeviceInit,w
  4230  06A3  0590               	andwf	16,f	;volatile
  4231  06A4                     l3872:
  4232                           
  4233                           ;lib/usb/usb_device.c: 333:         inPipes[0].info.Val = 0;
  4234  06A4  0021               	movlb	1	; select bank1
  4235  06A5  01BA               	clrf	(_inPipes^(0+128)+2)
  4236  06A6                     l3874:
  4237                           
  4238                           ;lib/usb/usb_device.c: 334:         outPipes[0].info.Val = 0;
  4239  06A6  0022               	movlb	2	; select bank2
  4240  06A7  01A2               	clrf	(_outPipes^(0+256)+2)
  4241  06A8                     l3876:
  4242                           
  4243                           ;lib/usb/usb_device.c: 335:         outPipes[0].wCount.Val = 0;
  4244  06A8  01A3               	clrf	(_outPipes^(0+256)+3)
  4245  06A9  01A4               	clrf	((_outPipes+1)^(0+256)+3)
  4246  06AA                     l3878:
  4247                           
  4248                           ;lib/usb/usb_device.c: 336:     }while(UIRbits.TRNIF == 1);
  4249  06AA  003D               	movlb	29	; select bank29
  4250  06AB  1990               	btfsc	16,3	;volatile
  4251  06AC  2EAE               	goto	u2731
  4252  06AD  2EAF               	goto	u2730
  4253  06AE                     u2731:
  4254  06AE  2EA0               	goto	l3870
  4255  06AF                     u2730:
  4256  06AF                     l3880:
  4257                           
  4258                           ;lib/usb/usb_device.c: 340:     USBStatusStageEnabledFlag1 = 1;
  4259  06AF  3001               	movlw	1
  4260  06B0  00F0               	movwf	??_USBDeviceInit
  4261  06B1  0870               	movf	??_USBDeviceInit,w
  4262  06B2  0021               	movlb	1	; select bank1
  4263  06B3  00C9               	movwf	_USBStatusStageEnabledFlag1^(0+128)	;volatile
  4264                           
  4265                           ;lib/usb/usb_device.c: 341:     USBStatusStageEnabledFlag2 = 1;
  4266  06B4  3001               	movlw	1
  4267  06B5  00F0               	movwf	??_USBDeviceInit
  4268  06B6  0870               	movf	??_USBDeviceInit,w
  4269  06B7  00C8               	movwf	_USBStatusStageEnabledFlag2^(0+128)	;volatile
  4270  06B8                     l3882:
  4271                           
  4272                           ;lib/usb/usb_device.c: 343:     USBDeferINDataStagePackets = 0;
  4273  06B8  01C7               	clrf	_USBDeferINDataStagePackets^(0+128)	;volatile
  4274  06B9                     l3884:
  4275                           
  4276                           ;lib/usb/usb_device.c: 344:     USBDeferOUTDataStagePackets = 0;
  4277  06B9  01C6               	clrf	_USBDeferOUTDataStagePackets^(0+128)	;volatile
  4278  06BA                     l3886:
  4279                           
  4280                           ;lib/usb/usb_device.c: 345:     USBBusIsSuspended = 0;
  4281  06BA  01CE               	clrf	_USBBusIsSuspended^(0+128)
  4282  06BB                     l3888:
  4283                           
  4284                           ;lib/usb/usb_device.c: 349:     for(i = 0; i < (uint8_t)(3 +1u); i++)
  4285  06BB  01F4               	clrf	USBDeviceInit@i
  4286  06BC                     l3892:
  4287                           
  4288                           ;lib/usb/usb_device.c: 350:     {;lib/usb/usb_device.c: 351:         pBDTEntryIn[i] = 0u
      +                          ;
  4289  06BC  3574               	lslf	USBDeviceInit@i,w
  4290  06BD  3EB0               	addlw	(low (_pBDTEntryIn| 0))& (0+255)
  4291  06BE  0086               	movwf	6
  4292  06BF  0187               	clrf	7
  4293  06C0  3000               	movlw	0
  4294  06C1  3FC0               	movwi [0]fsr1
  4295  06C2  3FC1               	movwi [1]fsr1
  4296                           
  4297                           ;lib/usb/usb_device.c: 352:         pBDTEntryOut[i] = 0u;
  4298  06C3  3574               	lslf	USBDeviceInit@i,w
  4299  06C4  3EA0               	addlw	(low (_pBDTEntryOut| (0+256)))& (0+255)
  4300  06C5  0086               	movwf	6
  4301  06C6  3001               	movlw	1	; select bank3/4
  4302  06C7  0087               	movwf	7
  4303  06C8  3000               	movlw	0
  4304  06C9  3FC0               	movwi [0]fsr1
  4305  06CA  3FC1               	movwi [1]fsr1
  4306                           
  4307                           ;lib/usb/usb_device.c: 353:         ep_data_in[i].Val = 0u;
  4308  06CB  0874               	movf	USBDeviceInit@i,w
  4309  06CC  3EB0               	addlw	(low (_ep_data_in| (0+256)))& (0+255)
  4310  06CD  0086               	movwf	6
  4311  06CE  3001               	movlw	1	; select bank3/4
  4312  06CF  0087               	movwf	7
  4313  06D0  0181               	clrf	1
  4314                           
  4315                           ;lib/usb/usb_device.c: 354:         ep_data_out[i].Val = 0u;
  4316  06D1  0874               	movf	USBDeviceInit@i,w
  4317  06D2  3EAC               	addlw	(low (_ep_data_out| (0+256)))& (0+255)
  4318  06D3  0086               	movwf	6
  4319  06D4  3001               	movlw	1	; select bank3/4
  4320  06D5  0087               	movwf	7
  4321  06D6  0181               	clrf	1
  4322  06D7                     l3894:
  4323                           
  4324                           ;lib/usb/usb_device.c: 355:     }
  4325  06D7  3001               	movlw	1
  4326  06D8  00F0               	movwf	??_USBDeviceInit
  4327  06D9  0870               	movf	??_USBDeviceInit,w
  4328  06DA  07F4               	addwf	USBDeviceInit@i,f
  4329  06DB                     l3896:
  4330  06DB  3004               	movlw	4
  4331  06DC  0274               	subwf	USBDeviceInit@i,w
  4332  06DD  1C03               	skipc
  4333  06DE  2EE0               	goto	u2741
  4334  06DF  2EE1               	goto	u2740
  4335  06E0                     u2741:
  4336  06E0  2EBC               	goto	l3892
  4337  06E1                     u2740:
  4338  06E1                     l3898:
  4339                           
  4340                           ;lib/usb/usb_device.c: 358:     pBDTEntryIn[0] = (volatile BDT_ENTRY*)&BDT[2];
  4341  06E1  3028               	movlw	40
  4342  06E2  0021               	movlb	1	; select bank1
  4343  06E3  00B0               	movwf	_pBDTEntryIn^(0+128)
  4344  06E4  3000               	movlw	0
  4345  06E5  00B1               	movwf	(_pBDTEntryIn+1)^(0+128)
  4346  06E6                     l3900:
  4347                           
  4348                           ;lib/usb/usb_device.c: 360:     UEP0 = 0x06|0x10;
  4349  06E6  3016               	movlw	22
  4350  06E7  003D               	movlb	29	; select bank29
  4351  06E8  0098               	movwf	24	;volatile
  4352  06E9                     l3902:
  4353                           
  4354                           ;lib/usb/usb_device.c: 362:     BDT[0].ADR = (((uint16_t)(&SetupPkt)) & 0x7FFF);
  4355  06E9  3000               	movlw	0
  4356  06EA  0020               	movlb	0	; select bank0
  4357  06EB  00A3               	movwf	35	;volatile
  4358  06EC  3060               	movlw	96
  4359  06ED  00A2               	movwf	34	;volatile
  4360  06EE                     l3904:
  4361                           
  4362                           ;lib/usb/usb_device.c: 363:     BDT[0].CNT = 8;
  4363  06EE  3008               	movlw	8
  4364  06EF  00A1               	movwf	33	;volatile
  4365  06F0                     l3906:
  4366                           
  4367                           ;lib/usb/usb_device.c: 364:     BDT[0].STAT.Val = 0x00|0x04;
  4368  06F0  3004               	movlw	4
  4369  06F1  00F0               	movwf	??_USBDeviceInit
  4370  06F2  0870               	movf	??_USBDeviceInit,w
  4371  06F3  00A0               	movwf	32	;volatile
  4372  06F4                     l3908:
  4373                           
  4374                           ;lib/usb/usb_device.c: 365:     BDT[0].STAT.Val |= 0x80;
  4375  06F4  17A0               	bsf	32,7	;volatile
  4376  06F5                     l3910:
  4377                           
  4378                           ;lib/usb/usb_device.c: 368:     USBActiveConfiguration = 0;
  4379  06F5  0021               	movlb	1	; select bank1
  4380  06F6  01D8               	clrf	_USBActiveConfiguration^(0+128)
  4381  06F7                     l3912:
  4382                           
  4383                           ;lib/usb/usb_device.c: 370:     USB1msTickCount = 0;
  4384  06F7  3000               	movlw	0
  4385  06F8  0023               	movlb	3	; select bank3
  4386  06F9  00AB               	movwf	(_USB1msTickCount+3)^(0+384)
  4387  06FA  3000               	movlw	0
  4388  06FB  00AA               	movwf	(_USB1msTickCount+2)^(0+384)
  4389  06FC  3000               	movlw	0
  4390  06FD  00A9               	movwf	(_USB1msTickCount+1)^(0+384)
  4391  06FE  3000               	movlw	0
  4392  06FF  00A8               	movwf	_USB1msTickCount^(0+384)
  4393  0700                     l3914:
  4394                           
  4395                           ;lib/usb/usb_device.c: 371:     USBTicksSinceSuspendEnd = 0;
  4396  0700  0021               	movlb	1	; select bank1
  4397  0701  01C5               	clrf	_USBTicksSinceSuspendEnd^(0+128)
  4398  0702                     l3916:
  4399                           
  4400                           ;lib/usb/usb_device.c: 374:     USBDeviceState = DETACHED_STATE;
  4401  0702  01D4               	clrf	_USBDeviceState^(0+128)
  4402  0703                     l161:
  4403  0703  0008               	return
  4404  0704                     __end_of_USBDeviceInit:
  4405                           
  4406                           	psect	text8
  4407  0A74                     __ptext8:	
  4408 ;; *************** function _USBCtrlEPService *****************
  4409 ;; Defined at:
  4410 ;;		line 2379 in file "lib/usb/usb_device.c"
  4411 ;; Parameters:    Size  Location     Type
  4412 ;;		None
  4413 ;; Auto vars:     Size  Location     Type
  4414 ;;		None
  4415 ;; Return value:  Size  Location     Type
  4416 ;;                  1    wreg      void 
  4417 ;; Registers used:
  4418 ;;		wreg, fsr0l, fsr0h, fsr1l, fsr1h, status,2, status,0, pclath, cstack
  4419 ;; Tracked objects:
  4420 ;;		On entry : 0/0
  4421 ;;		On exit  : 0/0
  4422 ;;		Unchanged: 0/0
  4423 ;; Data sizes:     COMMON   BANK1   BANK2   BANK3   BANK4   BANK5   BANK6   BANK7   BANK8   BANK9  BANK10  BANK11  BANK1
      +2
  4424 ;;      Params:         0       0       0       0       0       0       0       0       0       0       0       0       
      +0
  4425 ;;      Locals:         0       0       0       0       0       0       0       0       0       0       0       0       
      +0
  4426 ;;      Temps:          0       2       0       0       0       0       0       0       0       0       0       0       
      +0
  4427 ;;      Totals:         0       2       0       0       0       0       0       0       0       0       0       0       
      +0
  4428 ;;Total ram usage:        2 bytes
  4429 ;; Hardware stack levels used: 1
  4430 ;; Hardware stack levels required when called: 8
  4431 ;; This function calls:
  4432 ;;		_USBCtrlTrfInHandler
  4433 ;;		_USBCtrlTrfOutHandler
  4434 ;;		_USBCtrlTrfSetupHandler
  4435 ;;		_memcpy
  4436 ;; This function is called by:
  4437 ;;		_USBDeviceTasks
  4438 ;; This function uses a non-reentrant model
  4439 ;;
  4440                           
  4441  0A74                     _USBCtrlEPService:	
  4442                           ;psect for function _USBCtrlEPService
  4443                           
  4444  0A74                     l4764:	
  4445                           ;incstack = 0
  4446                           ; Regs used in _USBCtrlEPService: [wreg-fsr1h+status,2+status,0+pclath+cstack]
  4447                           
  4448                           
  4449                           ;lib/usb/usb_device.c: 2385:         USBStatusStageTimeoutCounter = (uint8_t)45;
  4450  0A74  302D               	movlw	45
  4451  0A75  0021               	movlb	1	; select bank1
  4452  0A76  00E9               	movwf	??_USBCtrlEPService^(0+128)
  4453  0A77  0869               	movf	??_USBCtrlEPService^(0+128),w
  4454  0A78  00CB               	movwf	_USBStatusStageTimeoutCounter^(0+128)
  4455  0A79                     l4766:
  4456                           
  4457                           ;lib/usb/usb_device.c: 2389:     if((USTATcopy.Val & ~0x02) == 0x00)
  4458  0A79  0857               	movf	_USTATcopy^(0+128),w
  4459  0A7A  39FD               	andlw	253
  4460  0A7B  1D03               	btfss	3,2
  4461  0A7C  2A7E               	goto	u3561
  4462  0A7D  2A7F               	goto	u3560
  4463  0A7E                     u3561:
  4464  0A7E  2ABB               	goto	l4782
  4465  0A7F                     u3560:
  4466  0A7F                     l4768:
  4467                           
  4468                           ;lib/usb/usb_device.c: 2390:     {;lib/usb/usb_device.c: 2393:             pBDTEntryEP0O
      +                          utCurrent = (volatile BDT_ENTRY*)&BDT[(USTATcopy.Val & 0x7E)>>1];
  4469  0A7F  3657               	lsrf	_USTATcopy^(0+128),w
  4470  0A80  393F               	andlw	63
  4471  0A81  00E9               	movwf	??_USBCtrlEPService^(0+128)
  4472  0A82  3001               	movlw	1
  4473  0A83                     u3575:
  4474  0A83  35E9               	lslf	??_USBCtrlEPService^(0+128),f
  4475  0A84  3EFF               	addlw	-1
  4476  0A85  1D03               	skipz
  4477  0A86  2A83               	goto	u3575
  4478  0A87  3569               	lslf	??_USBCtrlEPService^(0+128),w
  4479  0A88  3E20               	addlw	32
  4480  0A89  00EA               	movwf	(??_USBCtrlEPService+1)^(0+128)
  4481  0A8A  086A               	movf	(??_USBCtrlEPService+1)^(0+128),w
  4482  0A8B  00D3               	movwf	_pBDTEntryEP0OutCurrent^(0+128)
  4483  0A8C                     l4770:
  4484                           
  4485                           ;lib/usb/usb_device.c: 2401:         pBDTEntryEP0OutNext = pBDTEntryEP0OutCurrent;
  4486  0A8C  0853               	movf	_pBDTEntryEP0OutCurrent^(0+128),w
  4487  0A8D  00C1               	movwf	_pBDTEntryEP0OutNext^(0+128)
  4488  0A8E  39FF               	andlw	255
  4489  0A8F  1D03               	skipz
  4490  0A90  3000               	movlw	0
  4491  0A91  00C2               	movwf	(_pBDTEntryEP0OutNext+1)^(0+128)
  4492  0A92                     l4772:
  4493                           
  4494                           ;lib/usb/usb_device.c: 2403:         pBDTEntryEP0OutNext = (volatile BDT_ENTRY*)(((uint1
      +                          6_t)pBDTEntryEP0OutNext) ^ 0x0004);
  4495  0A92  3004               	movlw	4
  4496  0A93  0641               	xorwf	_pBDTEntryEP0OutNext^(0+128),w
  4497  0A94  00C1               	movwf	_pBDTEntryEP0OutNext^(0+128)
  4498  0A95  3000               	movlw	0
  4499  0A96  0642               	xorwf	(_pBDTEntryEP0OutNext+1)^(0+128),w
  4500  0A97  00C2               	movwf	(_pBDTEntryEP0OutNext+1)^(0+128)
  4501  0A98                     l4774:
  4502                           
  4503                           ;lib/usb/usb_device.c: 2406:         if(pBDTEntryEP0OutCurrent->STAT.PID == 0xD)
  4504  0A98  0853               	movf	_pBDTEntryEP0OutCurrent^(0+128),w
  4505  0A99  0086               	movwf	6
  4506  0A9A  0187               	clrf	7
  4507  0A9B  0C01               	rrf	1,w
  4508  0A9C  0C89               	rrf	9,f
  4509  0A9D  390F               	andlw	15
  4510  0A9E  3A0D               	xorlw	13
  4511  0A9F  1D03               	skipz
  4512  0AA0  2AA2               	goto	u3581
  4513  0AA1  2AA3               	goto	u3580
  4514  0AA2                     u3581:
  4515  0AA2  2AB7               	goto	l4780
  4516  0AA3                     u3580:
  4517  0AA3                     l4776:
  4518                           
  4519                           ;lib/usb/usb_device.c: 2407:         {;lib/usb/usb_device.c: 2412:             memcpy((u
      +                          int8_t*)&SetupPkt, (uint8_t*)((void *)(pBDTEntryEP0OutCurrent->ADR)), 8);
  4520  0AA3  0853               	movf	_pBDTEntryEP0OutCurrent^(0+128),w
  4521  0AA4  3E02               	addlw	2
  4522  0AA5  0086               	movwf	6
  4523  0AA6  0187               	clrf	7
  4524  0AA7  3F40               	moviw [0]fsr1
  4525  0AA8  00F0               	movwf	memcpy@s1
  4526  0AA9  3F41               	moviw [1]fsr1
  4527  0AAA  00F1               	movwf	memcpy@s1+1
  4528  0AAB  3008               	movlw	8
  4529  0AAC  00F2               	movwf	memcpy@n
  4530  0AAD  3000               	movlw	0
  4531  0AAE  00F3               	movwf	memcpy@n+1
  4532  0AAF  3060               	movlw	96
  4533  0AB0  3189  2144  318A   	fcall	_memcpy
  4534  0AB3                     l4778:
  4535                           
  4536                           ;lib/usb/usb_device.c: 2415:             USBCtrlTrfSetupHandler();
  4537  0AB3  3187  27AE  318A   	fcall	_USBCtrlTrfSetupHandler
  4538                           
  4539                           ;lib/usb/usb_device.c: 2416:         }
  4540  0AB6  2AC7               	goto	l333
  4541  0AB7                     l4780:
  4542                           
  4543                           ;lib/usb/usb_device.c: 2418:         {;lib/usb/usb_device.c: 2420:             USBCtrlTr
      +                          fOutHandler();
  4544  0AB7  3189  2172  318A   	fcall	_USBCtrlTrfOutHandler
  4545  0ABA  2AC7               	goto	l333
  4546  0ABB                     l4782:
  4547  0ABB  30FD               	movlw	253
  4548  0ABC  0557               	andwf	_USTATcopy^(0+128),w
  4549  0ABD  00E9               	movwf	??_USBCtrlEPService^(0+128)
  4550  0ABE  3004               	movlw	4
  4551  0ABF  0669               	xorwf	??_USBCtrlEPService^(0+128),w
  4552  0AC0  1D03               	btfss	3,2
  4553  0AC1  2AC3               	goto	u3591
  4554  0AC2  2AC4               	goto	u3590
  4555  0AC3                     u3591:
  4556  0AC3  2AC7               	goto	l333
  4557  0AC4                     u3590:
  4558  0AC4                     l4784:
  4559                           
  4560                           ;lib/usb/usb_device.c: 2424:     {;lib/usb/usb_device.c: 2427:         USBCtrlTrfInHandl
      +                          er();
  4561  0AC4  318C  24DE  318A   	fcall	_USBCtrlTrfInHandler
  4562  0AC7                     l333:
  4563  0AC7  0008               	return
  4564  0AC8                     __end_of_USBCtrlEPService:
  4565                           
  4566                           	psect	text9
  4567  0944                     __ptext9:	
  4568 ;; *************** function _memcpy *****************
  4569 ;; Defined at:
  4570 ;;		line 4 in file "E:\Atmel Studio\Comp-istall\pic\sources\c99\common\memcpy.c"
  4571 ;; Parameters:    Size  Location     Type
  4572 ;;  d1              1    wreg     PTR void 
  4573 ;;		 -> SetupPkt(8), 
  4574 ;;  s1              2    0[COMMON] PTR const void 
  4575 ;;		 -> CtrlTrfData(8), RAM(4096), SetupPkt(8), 
  4576 ;;  n               2    2[COMMON] unsigned int 
  4577 ;; Auto vars:     Size  Location     Type
  4578 ;;  d1              1    8[COMMON] PTR void 
  4579 ;;		 -> SetupPkt(8), 
  4580 ;;  s               2    5[COMMON] PTR const unsigned char 
  4581 ;;		 -> CtrlTrfData(8), RAM(4096), SetupPkt(8), 
  4582 ;;  d               1    9[COMMON] PTR unsigned char 
  4583 ;;		 -> SetupPkt(8), 
  4584 ;;  tmp             1    7[COMMON] unsigned char 
  4585 ;; Return value:  Size  Location     Type
  4586 ;;                  1    wreg      PTR void 
  4587 ;; Registers used:
  4588 ;;		wreg, fsr1l, fsr1h, status,2, status,0
  4589 ;; Tracked objects:
  4590 ;;		On entry : 0/0
  4591 ;;		On exit  : 0/0
  4592 ;;		Unchanged: 0/0
  4593 ;; Data sizes:     COMMON   BANK1   BANK2   BANK3   BANK4   BANK5   BANK6   BANK7   BANK8   BANK9  BANK10  BANK11  BANK1
      +2
  4594 ;;      Params:         4       0       0       0       0       0       0       0       0       0       0       0       
      +0
  4595 ;;      Locals:         5       0       0       0       0       0       0       0       0       0       0       0       
      +0
  4596 ;;      Temps:          1       0       0       0       0       0       0       0       0       0       0       0       
      +0
  4597 ;;      Totals:        10       0       0       0       0       0       0       0       0       0       0       0       
      +0
  4598 ;;Total ram usage:       10 bytes
  4599 ;; Hardware stack levels used: 1
  4600 ;; Hardware stack levels required when called: 1
  4601 ;; This function calls:
  4602 ;;		Nothing
  4603 ;; This function is called by:
  4604 ;;		_USBCtrlEPService
  4605 ;; This function uses a non-reentrant model
  4606 ;;
  4607                           
  4608  0944                     _memcpy:	
  4609                           ;psect for function _memcpy
  4610                           
  4611                           
  4612                           ;incstack = 0
  4613                           ; Regs used in _memcpy: [wreg+fsr1l+fsr1h+status,2+status,0]
  4614                           ;memcpy@d1 stored from wreg
  4615  0944  00F8               	movwf	memcpy@d1
  4616  0945                     l3742:
  4617  0945  0871               	movf	memcpy@s1+1,w
  4618  0946  00F6               	movwf	memcpy@s+1
  4619  0947  0870               	movf	memcpy@s1,w
  4620  0948  00F5               	movwf	memcpy@s
  4621  0949  0878               	movf	memcpy@d1,w
  4622  094A  00F4               	movwf	??_memcpy
  4623  094B  0874               	movf	??_memcpy,w
  4624  094C  00F9               	movwf	memcpy@d
  4625  094D  2965               	goto	l3752
  4626  094E                     l3744:
  4627  094E  0875               	movf	memcpy@s,w
  4628  094F  0086               	movwf	6
  4629  0950  0876               	movf	memcpy@s+1,w
  4630  0951  0087               	movwf	7
  4631  0952  0801               	movf	1,w
  4632  0953  00F4               	movwf	??_memcpy
  4633  0954  0874               	movf	??_memcpy,w
  4634  0955  00F7               	movwf	memcpy@tmp
  4635  0956                     l3746:
  4636  0956  3001               	movlw	1
  4637  0957  07F5               	addwf	memcpy@s,f
  4638  0958  3000               	movlw	0
  4639  0959  3DF6               	addwfc	memcpy@s+1,f
  4640  095A                     l3748:
  4641  095A  0877               	movf	memcpy@tmp,w
  4642  095B  00F4               	movwf	??_memcpy
  4643  095C  0879               	movf	memcpy@d,w
  4644  095D  0086               	movwf	6
  4645  095E  0187               	clrf	7
  4646  095F  0874               	movf	??_memcpy,w
  4647  0960  0081               	movwf	1
  4648  0961                     l3750:
  4649  0961  3001               	movlw	1
  4650  0962  00F4               	movwf	??_memcpy
  4651  0963  0874               	movf	??_memcpy,w
  4652  0964  07F9               	addwf	memcpy@d,f
  4653  0965                     l3752:
  4654  0965  3001               	movlw	1
  4655  0966  02F2               	subwf	memcpy@n,f
  4656  0967  3000               	movlw	0
  4657  0968  3BF3               	subwfb	memcpy@n+1,f
  4658  0969  0A72               	incf	memcpy@n,w
  4659  096A  1D03               	skipz
  4660  096B  2970               	goto	u2611
  4661  096C  0A73               	incf	memcpy@n+1,w
  4662  096D  1D03               	btfss	3,2
  4663  096E  2970               	goto	u2611
  4664  096F  2971               	goto	u2610
  4665  0970                     u2611:
  4666  0970  294E               	goto	l3744
  4667  0971                     u2610:
  4668  0971                     l1320:
  4669  0971  0008               	return
  4670  0972                     __end_of_memcpy:
  4671                           
  4672                           	psect	text10
  4673  07AE                     __ptext10:	
  4674 ;; *************** function _USBCtrlTrfSetupHandler *****************
  4675 ;; Defined at:
  4676 ;;		line 2472 in file "lib/usb/usb_device.c"
  4677 ;; Parameters:    Size  Location     Type
  4678 ;;		None
  4679 ;; Auto vars:     Size  Location     Type
  4680 ;;		None
  4681 ;; Return value:  Size  Location     Type
  4682 ;;                  1    wreg      void 
  4683 ;; Registers used:
  4684 ;;		wreg, fsr0l, fsr0h, fsr1l, fsr1h, status,2, status,0, pclath, cstack
  4685 ;; Tracked objects:
  4686 ;;		On entry : 0/0
  4687 ;;		On exit  : 0/0
  4688 ;;		Unchanged: 0/0
  4689 ;; Data sizes:     COMMON   BANK1   BANK2   BANK3   BANK4   BANK5   BANK6   BANK7   BANK8   BANK9  BANK10  BANK11  BANK1
      +2
  4690 ;;      Params:         0       0       0       0       0       0       0       0       0       0       0       0       
      +0
  4691 ;;      Locals:         0       0       0       0       0       0       0       0       0       0       0       0       
      +0
  4692 ;;      Temps:          0       1       0       0       0       0       0       0       0       0       0       0       
      +0
  4693 ;;      Totals:         0       1       0       0       0       0       0       0       0       0       0       0       
      +0
  4694 ;;Total ram usage:        1 bytes
  4695 ;; Hardware stack levels used: 1
  4696 ;; Hardware stack levels required when called: 7
  4697 ;; This function calls:
  4698 ;;		_USBCheckStdRequest
  4699 ;;		_USBCtrlEPServiceComplete
  4700 ;;		_USER_USB_CALLBACK_EVENT_HANDLER
  4701 ;; This function is called by:
  4702 ;;		_USBCtrlEPService
  4703 ;; This function uses a non-reentrant model
  4704 ;;
  4705                           
  4706  07AE                     _USBCtrlTrfSetupHandler:	
  4707                           ;psect for function _USBCtrlTrfSetupHandler
  4708                           
  4709  07AE                     l4738:	
  4710                           ;incstack = 0
  4711                           ; Regs used in _USBCtrlTrfSetupHandler: [wreg-fsr1h+status,2+status,0+pclath+cstack]
  4712                           
  4713                           
  4714                           ;lib/usb/usb_device.c: 2477:     shortPacketStatus = 0;
  4715  07AE  0021               	movlb	1	; select bank1
  4716  07AF  01D2               	clrf	_shortPacketStatus^(0+128)
  4717                           
  4718                           ;lib/usb/usb_device.c: 2478:     USBDeferStatusStagePacket = 0;
  4719  07B0  01CA               	clrf	_USBDeferStatusStagePacket^(0+128)	;volatile
  4720                           
  4721                           ;lib/usb/usb_device.c: 2479:     USBDeferINDataStagePackets = 0;
  4722  07B1  01C7               	clrf	_USBDeferINDataStagePackets^(0+128)	;volatile
  4723                           
  4724                           ;lib/usb/usb_device.c: 2480:     USBDeferOUTDataStagePackets = 0;
  4725  07B2  01C6               	clrf	_USBDeferOUTDataStagePackets^(0+128)	;volatile
  4726                           
  4727                           ;lib/usb/usb_device.c: 2481:     BothEP0OutUOWNsSet = 0;
  4728  07B3  01CC               	clrf	_BothEP0OutUOWNsSet^(0+128)
  4729                           
  4730                           ;lib/usb/usb_device.c: 2482:     controlTransferState = 0;
  4731  07B4  01D1               	clrf	_controlTransferState^(0+128)
  4732  07B5                     l4740:
  4733                           
  4734                           ;lib/usb/usb_device.c: 2491:     pBDTEntryIn[0]->STAT.Val &= ~(0x80);
  4735  07B5  307F               	movlw	127
  4736  07B6  00E8               	movwf	??_USBCtrlTrfSetupHandler^(0+128)
  4737  07B7  0830               	movf	_pBDTEntryIn^(0+128),w
  4738  07B8  0086               	movwf	6
  4739  07B9  0831               	movf	(_pBDTEntryIn+1)^(0+128),w
  4740  07BA  0087               	movwf	7
  4741  07BB  0868               	movf	??_USBCtrlTrfSetupHandler^(0+128),w
  4742  07BC  0581               	andwf	1,f
  4743  07BD                     l4742:
  4744                           
  4745                           ;lib/usb/usb_device.c: 2493:     pBDTEntryIn[0] = (volatile BDT_ENTRY*)(((uint16_t)pBDTE
      +                          ntryIn[0]) ^ 0x0004);
  4746  07BD  3004               	movlw	4
  4747  07BE  0630               	xorwf	_pBDTEntryIn^(0+128),w
  4748  07BF  00B0               	movwf	_pBDTEntryIn^(0+128)
  4749  07C0  3000               	movlw	0
  4750  07C1  0631               	xorwf	(_pBDTEntryIn+1)^(0+128),w
  4751  07C2  00B1               	movwf	(_pBDTEntryIn+1)^(0+128)
  4752  07C3                     l4744:
  4753                           
  4754                           ;lib/usb/usb_device.c: 2494:     pBDTEntryIn[0]->STAT.Val &= ~(0x80);
  4755  07C3  307F               	movlw	127
  4756  07C4  00E8               	movwf	??_USBCtrlTrfSetupHandler^(0+128)
  4757  07C5  0830               	movf	_pBDTEntryIn^(0+128),w
  4758  07C6  0086               	movwf	6
  4759  07C7  0831               	movf	(_pBDTEntryIn+1)^(0+128),w
  4760  07C8  0087               	movwf	7
  4761  07C9  0868               	movf	??_USBCtrlTrfSetupHandler^(0+128),w
  4762  07CA  0581               	andwf	1,f
  4763  07CB                     l4746:
  4764                           
  4765                           ;lib/usb/usb_device.c: 2495:     pBDTEntryIn[0] = (volatile BDT_ENTRY*)(((uint16_t)pBDTE
      +                          ntryIn[0]) ^ 0x0004);
  4766  07CB  3004               	movlw	4
  4767  07CC  0630               	xorwf	_pBDTEntryIn^(0+128),w
  4768  07CD  00B0               	movwf	_pBDTEntryIn^(0+128)
  4769  07CE  3000               	movlw	0
  4770  07CF  0631               	xorwf	(_pBDTEntryIn+1)^(0+128),w
  4771  07D0  00B1               	movwf	(_pBDTEntryIn+1)^(0+128)
  4772  07D1                     l4748:
  4773                           
  4774                           ;lib/usb/usb_device.c: 2496:     pBDTEntryEP0OutNext->STAT.Val &= ~(0x80);
  4775  07D1  307F               	movlw	127
  4776  07D2  00E8               	movwf	??_USBCtrlTrfSetupHandler^(0+128)
  4777  07D3  0841               	movf	_pBDTEntryEP0OutNext^(0+128),w
  4778  07D4  0086               	movwf	6
  4779  07D5  0842               	movf	(_pBDTEntryEP0OutNext+1)^(0+128),w
  4780  07D6  0087               	movwf	7
  4781  07D7  0868               	movf	??_USBCtrlTrfSetupHandler^(0+128),w
  4782  07D8  0581               	andwf	1,f
  4783  07D9                     l4750:
  4784                           
  4785                           ;lib/usb/usb_device.c: 2498:     inPipes[0].info.Val = 0;
  4786  07D9  01BA               	clrf	(_inPipes^(0+128)+2)
  4787  07DA                     l4752:
  4788                           
  4789                           ;lib/usb/usb_device.c: 2499:     inPipes[0].wCount.Val = 0;
  4790  07DA  01BB               	clrf	(_inPipes^(0+128)+3)
  4791  07DB  01BC               	clrf	((_inPipes+1)^(0+128)+3)
  4792  07DC                     l4754:
  4793                           
  4794                           ;lib/usb/usb_device.c: 2500:     outPipes[0].info.Val = 0;
  4795  07DC  0022               	movlb	2	; select bank2
  4796  07DD  01A2               	clrf	(_outPipes^(0+256)+2)
  4797  07DE                     l4756:
  4798                           
  4799                           ;lib/usb/usb_device.c: 2501:     outPipes[0].wCount.Val = 0;
  4800  07DE  01A3               	clrf	(_outPipes^(0+256)+3)
  4801  07DF  01A4               	clrf	((_outPipes+1)^(0+256)+3)
  4802  07E0                     l4758:
  4803                           
  4804                           ;lib/usb/usb_device.c: 2507:     USBCheckStdRequest();
  4805  07E0  318D  2556  3187   	fcall	_USBCheckStdRequest
  4806  07E3                     l4760:
  4807                           
  4808                           ;lib/usb/usb_device.c: 2508:     USER_USB_CALLBACK_EVENT_HANDLER((USB_EVENT)EVENT_EP0_RE
      +                          QUEST,0,0);
  4809  07E3  3003               	movlw	3
  4810  07E4  0021               	movlb	1	; select bank1
  4811  07E5  00D9               	movwf	USER_USB_CALLBACK_EVENT_HANDLER@event^(0+128)
  4812  07E6  3000               	movlw	0
  4813  07E7  00DA               	movwf	(USER_USB_CALLBACK_EVENT_HANDLER@event^(0+128)+1)
  4814  07E8  3000               	movlw	0
  4815  07E9  00DB               	movwf	USER_USB_CALLBACK_EVENT_HANDLER@pdata^(0+128)
  4816  07EA  3000               	movlw	0
  4817  07EB  00DC               	movwf	(USER_USB_CALLBACK_EVENT_HANDLER@pdata+1)^(0+128)
  4818  07EC  3000               	movlw	0
  4819  07ED  00DD               	movwf	USER_USB_CALLBACK_EVENT_HANDLER@size^(0+128)
  4820  07EE  00DE               	movwf	(USER_USB_CALLBACK_EVENT_HANDLER@size+1)^(0+128)
  4821  07EF  318A  222E  3187   	fcall	_USER_USB_CALLBACK_EVENT_HANDLER
  4822  07F2                     l4762:
  4823                           
  4824                           ;lib/usb/usb_device.c: 2521:     USBCtrlEPServiceComplete();
  4825  07F2  318F  2764  3187   	fcall	_USBCtrlEPServiceComplete
  4826  07F5                     l336:
  4827  07F5  0008               	return
  4828  07F6                     __end_of_USBCtrlTrfSetupHandler:
  4829                           
  4830                           	psect	text11
  4831  0F64                     __ptext11:	
  4832 ;; *************** function _USBCtrlEPServiceComplete *****************
  4833 ;; Defined at:
  4834 ;;		line 1620 in file "lib/usb/usb_device.c"
  4835 ;; Parameters:    Size  Location     Type
  4836 ;;		None
  4837 ;; Auto vars:     Size  Location     Type
  4838 ;;		None
  4839 ;; Return value:  Size  Location     Type
  4840 ;;                  1    wreg      void 
  4841 ;; Registers used:
  4842 ;;		wreg, fsr0l, fsr0h, fsr1l, fsr1h, status,2, status,0, pclath, cstack
  4843 ;; Tracked objects:
  4844 ;;		On entry : 0/0
  4845 ;;		On exit  : 0/0
  4846 ;;		Unchanged: 0/0
  4847 ;; Data sizes:     COMMON   BANK1   BANK2   BANK3   BANK4   BANK5   BANK6   BANK7   BANK8   BANK9  BANK10  BANK11  BANK1
      +2
  4848 ;;      Params:         0       0       0       0       0       0       0       0       0       0       0       0       
      +0
  4849 ;;      Locals:         0       0       0       0       0       0       0       0       0       0       0       0       
      +0
  4850 ;;      Temps:          2       0       0       0       0       0       0       0       0       0       0       0       
      +0
  4851 ;;      Totals:         2       0       0       0       0       0       0       0       0       0       0       0       
      +0
  4852 ;;Total ram usage:        2 bytes
  4853 ;; Hardware stack levels used: 1
  4854 ;; Hardware stack levels required when called: 3
  4855 ;; This function calls:
  4856 ;;		_USBCtrlEPAllowDataStage
  4857 ;;		_USBCtrlEPAllowStatusStage
  4858 ;; This function is called by:
  4859 ;;		_USBCtrlTrfSetupHandler
  4860 ;; This function uses a non-reentrant model
  4861 ;;
  4862                           
  4863  0F64                     _USBCtrlEPServiceComplete:	
  4864                           ;psect for function _USBCtrlEPServiceComplete
  4865                           
  4866  0F64                     l3600:	
  4867                           ;incstack = 0
  4868                           ; Regs used in _USBCtrlEPServiceComplete: [wreg-fsr1h+status,2+status,0+pclath+cstack]
  4869                           
  4870                           
  4871                           ;lib/usb/usb_device.c: 1626:     UCONbits.PKTDIS = 0;
  4872  0F64  003D               	movlb	29	; select bank29
  4873  0F65  120E               	bcf	14,4	;volatile
  4874                           
  4875                           ;lib/usb/usb_device.c: 1632:     if(inPipes[0].info.bits.busy == 0)
  4876  0F66  0021               	movlb	1	; select bank1
  4877  0F67  1BBA               	btfsc	(_inPipes^(0+128)+2),7
  4878  0F68  2F6A               	goto	u2481
  4879  0F69  2F6B               	goto	u2480
  4880  0F6A                     u2481:
  4881  0F6A  2FB2               	goto	l235
  4882  0F6B                     u2480:
  4883  0F6B                     l3602:
  4884                           
  4885                           ;lib/usb/usb_device.c: 1633:     {;lib/usb/usb_device.c: 1634:         if(outPipes[0].in
      +                          fo.bits.busy == 1)
  4886  0F6B  0022               	movlb	2	; select bank2
  4887  0F6C  1FA2               	btfss	(_outPipes^(0+256)+2),7
  4888  0F6D  2F6F               	goto	u2491
  4889  0F6E  2F70               	goto	u2490
  4890  0F6F                     u2491:
  4891  0F6F  2F81               	goto	l3614
  4892  0F70                     u2490:
  4893  0F70                     l3604:
  4894                           
  4895                           ;lib/usb/usb_device.c: 1635:         {;lib/usb/usb_device.c: 1636:             controlTr
      +                          ansferState = 2;
  4896  0F70  3002               	movlw	2
  4897  0F71  00F5               	movwf	??_USBCtrlEPServiceComplete
  4898  0F72  0875               	movf	??_USBCtrlEPServiceComplete,w
  4899  0F73  0021               	movlb	1	; select bank1
  4900  0F74  00D1               	movwf	_controlTransferState^(0+128)
  4901  0F75                     l3606:
  4902                           
  4903                           ;lib/usb/usb_device.c: 1647:             if(USBDeferOUTDataStagePackets == 0)
  4904  0F75  0846               	movf	_USBDeferOUTDataStagePackets^(0+128),w	;volatile
  4905  0F76  1D03               	btfss	3,2
  4906  0F77  2F79               	goto	u2501
  4907  0F78  2F7A               	goto	u2500
  4908  0F79                     u2501:
  4909  0F79  2F7D               	goto	l3610
  4910  0F7A                     u2500:
  4911  0F7A                     l3608:
  4912                           
  4913                           ;lib/usb/usb_device.c: 1648:             {;lib/usb/usb_device.c: 1649:                 U
      +                          SBCtrlEPAllowDataStage();
  4914  0F7A  318A  22C8  318F   	fcall	_USBCtrlEPAllowDataStage
  4915  0F7D                     l3610:
  4916                           
  4917                           ;lib/usb/usb_device.c: 1654:             USBStatusStageEnabledFlag2 = 0;
  4918  0F7D  0021               	movlb	1	; select bank1
  4919  0F7E  01C8               	clrf	_USBStatusStageEnabledFlag2^(0+128)	;volatile
  4920  0F7F                     l3612:
  4921                           
  4922                           ;lib/usb/usb_device.c: 1655:             USBStatusStageEnabledFlag1 = 0;
  4923  0F7F  01C9               	clrf	_USBStatusStageEnabledFlag1^(0+128)	;volatile
  4924                           
  4925                           ;lib/usb/usb_device.c: 1656:         }
  4926  0F80  2FFF               	goto	l245
  4927  0F81                     l3614:
  4928                           
  4929                           ;lib/usb/usb_device.c: 1658:         {;lib/usb/usb_device.c: 1663:             pBDTEntry
      +                          EP0OutNext->CNT = 8;
  4930  0F81  0021               	movlb	1	; select bank1
  4931  0F82  0841               	movf	_pBDTEntryEP0OutNext^(0+128),w
  4932  0F83  3E01               	addlw	1
  4933  0F84  00F5               	movwf	??_USBCtrlEPServiceComplete
  4934  0F85  3000               	movlw	0
  4935  0F86  3D42               	addwfc	(_pBDTEntryEP0OutNext+1)^(0+128),w
  4936  0F87  00F6               	movwf	??_USBCtrlEPServiceComplete+1
  4937  0F88  0875               	movf	??_USBCtrlEPServiceComplete,w
  4938  0F89  0086               	movwf	6
  4939  0F8A  0876               	movf	??_USBCtrlEPServiceComplete+1,w
  4940  0F8B  0087               	movwf	7
  4941  0F8C  3008               	movlw	8
  4942  0F8D  0081               	movwf	1
  4943  0F8E                     l3616:
  4944                           
  4945                           ;lib/usb/usb_device.c: 1664:             pBDTEntryEP0OutNext->ADR = (((uint16_t)(&SetupP
      +                          kt)) & 0x7FFF);
  4946  0F8E  3060               	movlw	96
  4947  0F8F  00F5               	movwf	??_USBCtrlEPServiceComplete
  4948  0F90  3000               	movlw	0
  4949  0F91  00F6               	movwf	??_USBCtrlEPServiceComplete+1
  4950  0F92  0841               	movf	_pBDTEntryEP0OutNext^(0+128),w
  4951  0F93  0086               	movwf	6
  4952  0F94  0842               	movf	(_pBDTEntryEP0OutNext+1)^(0+128),w
  4953  0F95  0087               	movwf	7
  4954  0F96  3142               	addfsr 1,2
  4955  0F97  0875               	movf	??_USBCtrlEPServiceComplete,w
  4956  0F98  3FC0               	movwi [0]fsr1
  4957  0F99  0876               	movf	??_USBCtrlEPServiceComplete+1,w
  4958  0F9A  3FC1               	movwi [1]fsr1
  4959  0F9B                     l3618:
  4960                           
  4961                           ;lib/usb/usb_device.c: 1665:             pBDTEntryEP0OutNext->STAT.Val = 0x00|(0x08 & 0x
      +                          08)|0x04;
  4962  0F9B  0841               	movf	_pBDTEntryEP0OutNext^(0+128),w
  4963  0F9C  0086               	movwf	6
  4964  0F9D  0842               	movf	(_pBDTEntryEP0OutNext+1)^(0+128),w
  4965  0F9E  0087               	movwf	7
  4966  0F9F  300C               	movlw	12
  4967  0FA0  0081               	movwf	1
  4968  0FA1                     l3620:
  4969                           
  4970                           ;lib/usb/usb_device.c: 1666:             pBDTEntryEP0OutNext->STAT.Val |= 0x80;
  4971  0FA1  0841               	movf	_pBDTEntryEP0OutNext^(0+128),w
  4972  0FA2  0086               	movwf	6
  4973  0FA3  0842               	movf	(_pBDTEntryEP0OutNext+1)^(0+128),w
  4974  0FA4  0087               	movwf	7
  4975  0FA5  1781               	bsf	1,7
  4976  0FA6                     l3622:
  4977                           
  4978                           ;lib/usb/usb_device.c: 1667:             pBDTEntryIn[0]->STAT.Val = 0x04;
  4979  0FA6  0830               	movf	_pBDTEntryIn^(0+128),w
  4980  0FA7  0086               	movwf	6
  4981  0FA8  0831               	movf	(_pBDTEntryIn+1)^(0+128),w
  4982  0FA9  0087               	movwf	7
  4983  0FAA  3004               	movlw	4
  4984  0FAB  0081               	movwf	1
  4985  0FAC                     l3624:
  4986                           
  4987                           ;lib/usb/usb_device.c: 1668:             pBDTEntryIn[0]->STAT.Val |= 0x80;
  4988  0FAC  0830               	movf	_pBDTEntryIn^(0+128),w
  4989  0FAD  0086               	movwf	6
  4990  0FAE  0831               	movf	(_pBDTEntryIn+1)^(0+128),w
  4991  0FAF  0087               	movwf	7
  4992  0FB0  1781               	bsf	1,7
  4993  0FB1  2FFF               	goto	l245
  4994  0FB2                     l235:	
  4995                           ;lib/usb/usb_device.c: 1671:     else
  4996                           
  4997                           
  4998                           ;lib/usb/usb_device.c: 1672:     {;lib/usb/usb_device.c: 1673:   if(SetupPkt.DataDir == 
      +                          (0x80>>7))
  4999  0FB2  0020               	movlb	0	; select bank0
  5000  0FB3  1FE0               	btfss	96,7	;volatile
  5001  0FB4  2FB6               	goto	u2511
  5002  0FB5  2FB7               	goto	u2510
  5003  0FB6                     u2511:
  5004  0FB6  2FCE               	goto	l3640
  5005  0FB7                     u2510:
  5006  0FB7                     l3626:
  5007                           
  5008                           ;lib/usb/usb_device.c: 1674:   {;lib/usb/usb_device.c: 1675:    controlTransferState = 1
      +                          ;
  5009  0FB7  0021               	movlb	1	; select bank1
  5010  0FB8  01D1               	clrf	_controlTransferState^(0+128)
  5011  0FB9  0AD1               	incf	_controlTransferState^(0+128),f
  5012  0FBA                     l3628:
  5013                           
  5014                           ;lib/usb/usb_device.c: 1689:    if(USBDeferINDataStagePackets == 0)
  5015  0FBA  0847               	movf	_USBDeferINDataStagePackets^(0+128),w	;volatile
  5016  0FBB  1D03               	btfss	3,2
  5017  0FBC  2FBE               	goto	u2521
  5018  0FBD  2FBF               	goto	u2520
  5019  0FBE                     u2521:
  5020  0FBE  2FC2               	goto	l3632
  5021  0FBF                     u2520:
  5022  0FBF                     l3630:
  5023                           
  5024                           ;lib/usb/usb_device.c: 1690:             {;lib/usb/usb_device.c: 1691:                 U
      +                          SBCtrlEPAllowDataStage();
  5025  0FBF  318A  22C8  318F   	fcall	_USBCtrlEPAllowDataStage
  5026  0FC2                     l3632:
  5027                           
  5028                           ;lib/usb/usb_device.c: 1714:             USBStatusStageEnabledFlag2 = 0;
  5029  0FC2  0021               	movlb	1	; select bank1
  5030  0FC3  01C8               	clrf	_USBStatusStageEnabledFlag2^(0+128)	;volatile
  5031  0FC4                     l3634:
  5032                           
  5033                           ;lib/usb/usb_device.c: 1715:             USBStatusStageEnabledFlag1 = 0;
  5034  0FC4  01C9               	clrf	_USBStatusStageEnabledFlag1^(0+128)	;volatile
  5035  0FC5                     l3636:
  5036                           
  5037                           ;lib/usb/usb_device.c: 1716:             if(USBDeferStatusStagePacket == 0)
  5038  0FC5  084A               	movf	_USBDeferStatusStagePacket^(0+128),w	;volatile
  5039  0FC6  1D03               	btfss	3,2
  5040  0FC7  2FC9               	goto	u2531
  5041  0FC8  2FCA               	goto	u2530
  5042  0FC9                     u2531:
  5043  0FC9  2FFF               	goto	l245
  5044  0FCA                     u2530:
  5045  0FCA                     l3638:
  5046                           
  5047                           ;lib/usb/usb_device.c: 1717:             {;lib/usb/usb_device.c: 1718:                 U
      +                          SBCtrlEPAllowStatusStage();
  5048  0FCA  318B  23F7  318F   	fcall	_USBCtrlEPAllowStatusStage
  5049  0FCD  2FFF               	goto	l245
  5050  0FCE                     l3640:
  5051                           
  5052                           ;lib/usb/usb_device.c: 1722:   {;lib/usb/usb_device.c: 1733:    controlTransferState = 2
      +                          ;
  5053  0FCE  3002               	movlw	2
  5054  0FCF  00F5               	movwf	??_USBCtrlEPServiceComplete
  5055  0FD0  0875               	movf	??_USBCtrlEPServiceComplete,w
  5056  0FD1  0021               	movlb	1	; select bank1
  5057  0FD2  00D1               	movwf	_controlTransferState^(0+128)
  5058  0FD3                     l3642:
  5059                           
  5060                           ;lib/usb/usb_device.c: 1736:    pBDTEntryEP0OutNext->CNT = 8;
  5061  0FD3  0841               	movf	_pBDTEntryEP0OutNext^(0+128),w
  5062  0FD4  3E01               	addlw	1
  5063  0FD5  00F5               	movwf	??_USBCtrlEPServiceComplete
  5064  0FD6  3000               	movlw	0
  5065  0FD7  3D42               	addwfc	(_pBDTEntryEP0OutNext+1)^(0+128),w
  5066  0FD8  00F6               	movwf	??_USBCtrlEPServiceComplete+1
  5067  0FD9  0875               	movf	??_USBCtrlEPServiceComplete,w
  5068  0FDA  0086               	movwf	6
  5069  0FDB  0876               	movf	??_USBCtrlEPServiceComplete+1,w
  5070  0FDC  0087               	movwf	7
  5071  0FDD  3008               	movlw	8
  5072  0FDE  0081               	movwf	1
  5073  0FDF                     l3644:
  5074                           
  5075                           ;lib/usb/usb_device.c: 1737:    pBDTEntryEP0OutNext->ADR = (((uint16_t)(&SetupPkt)) & 0x
      +                          7FFF);
  5076  0FDF  3060               	movlw	96
  5077  0FE0  00F5               	movwf	??_USBCtrlEPServiceComplete
  5078  0FE1  3000               	movlw	0
  5079  0FE2  00F6               	movwf	??_USBCtrlEPServiceComplete+1
  5080  0FE3  0841               	movf	_pBDTEntryEP0OutNext^(0+128),w
  5081  0FE4  0086               	movwf	6
  5082  0FE5  0842               	movf	(_pBDTEntryEP0OutNext+1)^(0+128),w
  5083  0FE6  0087               	movwf	7
  5084  0FE7  3142               	addfsr 1,2
  5085  0FE8  0875               	movf	??_USBCtrlEPServiceComplete,w
  5086  0FE9  3FC0               	movwi [0]fsr1
  5087  0FEA  0876               	movf	??_USBCtrlEPServiceComplete+1,w
  5088  0FEB  3FC1               	movwi [1]fsr1
  5089  0FEC                     l3646:
  5090                           
  5091                           ;lib/usb/usb_device.c: 1738:    pBDTEntryEP0OutNext->STAT.Val = 0x04;
  5092  0FEC  0841               	movf	_pBDTEntryEP0OutNext^(0+128),w
  5093  0FED  0086               	movwf	6
  5094  0FEE  0842               	movf	(_pBDTEntryEP0OutNext+1)^(0+128),w
  5095  0FEF  0087               	movwf	7
  5096  0FF0  3004               	movlw	4
  5097  0FF1  0081               	movwf	1
  5098  0FF2                     l3648:
  5099                           
  5100                           ;lib/usb/usb_device.c: 1739:             pBDTEntryEP0OutNext->STAT.Val |= 0x80;
  5101  0FF2  0841               	movf	_pBDTEntryEP0OutNext^(0+128),w
  5102  0FF3  0086               	movwf	6
  5103  0FF4  0842               	movf	(_pBDTEntryEP0OutNext+1)^(0+128),w
  5104  0FF5  0087               	movwf	7
  5105  0FF6  1781               	bsf	1,7
  5106  0FF7                     l3650:
  5107                           
  5108                           ;lib/usb/usb_device.c: 1742:             USBStatusStageEnabledFlag2 = 0;
  5109  0FF7  01C8               	clrf	_USBStatusStageEnabledFlag2^(0+128)	;volatile
  5110  0FF8                     l3652:
  5111                           
  5112                           ;lib/usb/usb_device.c: 1743:             USBStatusStageEnabledFlag1 = 0;
  5113  0FF8  01C9               	clrf	_USBStatusStageEnabledFlag1^(0+128)	;volatile
  5114                           
  5115                           ;lib/usb/usb_device.c: 1744:    if(USBDeferStatusStagePacket == 0)
  5116  0FF9  084A               	movf	_USBDeferStatusStagePacket^(0+128),w	;volatile
  5117  0FFA  1D03               	btfss	3,2
  5118  0FFB  2FFD               	goto	u2541
  5119  0FFC  2FFE               	goto	u2540
  5120  0FFD                     u2541:
  5121  0FFD  2FFF               	goto	l245
  5122  0FFE                     u2540:
  5123  0FFE  2FCA               	goto	l3638
  5124  0FFF                     l245:
  5125  0FFF  0008               	return
  5126  1000                     __end_of_USBCtrlEPServiceComplete:
  5127                           
  5128                           	psect	text12
  5129  0AC8                     __ptext12:	
  5130 ;; *************** function _USBCtrlEPAllowDataStage *****************
  5131 ;; Defined at:
  5132 ;;		line 1492 in file "lib/usb/usb_device.c"
  5133 ;; Parameters:    Size  Location     Type
  5134 ;;		None
  5135 ;; Auto vars:     Size  Location     Type
  5136 ;;		None
  5137 ;; Return value:  Size  Location     Type
  5138 ;;                  1    wreg      void 
  5139 ;; Registers used:
  5140 ;;		wreg, fsr0l, fsr0h, fsr1l, fsr1h, status,2, status,0, pclath, cstack
  5141 ;; Tracked objects:
  5142 ;;		On entry : 0/0
  5143 ;;		On exit  : 0/0
  5144 ;;		Unchanged: 0/0
  5145 ;; Data sizes:     COMMON   BANK1   BANK2   BANK3   BANK4   BANK5   BANK6   BANK7   BANK8   BANK9  BANK10  BANK11  BANK1
      +2
  5146 ;;      Params:         0       0       0       0       0       0       0       0       0       0       0       0       
      +0
  5147 ;;      Locals:         0       0       0       0       0       0       0       0       0       0       0       0       
      +0
  5148 ;;      Temps:          2       0       0       0       0       0       0       0       0       0       0       0       
      +0
  5149 ;;      Totals:         2       0       0       0       0       0       0       0       0       0       0       0       
      +0
  5150 ;;Total ram usage:        2 bytes
  5151 ;; Hardware stack levels used: 1
  5152 ;; Hardware stack levels required when called: 2
  5153 ;; This function calls:
  5154 ;;		_USBCtrlTrfTxService
  5155 ;; This function is called by:
  5156 ;;		_USBCtrlEPServiceComplete
  5157 ;; This function uses a non-reentrant model
  5158 ;;
  5159                           
  5160  0AC8                     _USBCtrlEPAllowDataStage:	
  5161                           ;psect for function _USBCtrlEPAllowDataStage
  5162                           
  5163  0AC8                     l3370:	
  5164                           ;incstack = 0
  5165                           ; Regs used in _USBCtrlEPAllowDataStage: [wreg-fsr1h+status,2+status,0+pclath+cstack]
  5166                           
  5167                           
  5168                           ;lib/usb/usb_device.c: 1494:     USBDeferINDataStagePackets = 0;
  5169  0AC8  0021               	movlb	1	; select bank1
  5170  0AC9  01C7               	clrf	_USBDeferINDataStagePackets^(0+128)	;volatile
  5171                           
  5172                           ;lib/usb/usb_device.c: 1495:     USBDeferOUTDataStagePackets = 0;
  5173  0ACA  01C6               	clrf	_USBDeferOUTDataStagePackets^(0+128)	;volatile
  5174  0ACB                     l3372:
  5175                           
  5176                           ;lib/usb/usb_device.c: 1497:     if(controlTransferState == 2)
  5177  0ACB  3002               	movlw	2
  5178  0ACC  0651               	xorwf	_controlTransferState^(0+128),w
  5179  0ACD  1D03               	btfss	3,2
  5180  0ACE  2AD0               	goto	u2161
  5181  0ACF  2AD1               	goto	u2160
  5182  0AD0                     u2161:
  5183  0AD0  2AF6               	goto	l3382
  5184  0AD1                     u2160:
  5185  0AD1                     l3374:
  5186                           
  5187                           ;lib/usb/usb_device.c: 1498:     {;lib/usb/usb_device.c: 1500:         pBDTEntryEP0OutNe
      +                          xt->CNT = 8;
  5188  0AD1  0841               	movf	_pBDTEntryEP0OutNext^(0+128),w
  5189  0AD2  3E01               	addlw	1
  5190  0AD3  00F3               	movwf	??_USBCtrlEPAllowDataStage
  5191  0AD4  3000               	movlw	0
  5192  0AD5  3D42               	addwfc	(_pBDTEntryEP0OutNext+1)^(0+128),w
  5193  0AD6  00F4               	movwf	??_USBCtrlEPAllowDataStage+1
  5194  0AD7  0873               	movf	??_USBCtrlEPAllowDataStage,w
  5195  0AD8  0086               	movwf	6
  5196  0AD9  0874               	movf	??_USBCtrlEPAllowDataStage+1,w
  5197  0ADA  0087               	movwf	7
  5198  0ADB  3008               	movlw	8
  5199  0ADC  0081               	movwf	1
  5200  0ADD                     l3376:
  5201                           
  5202                           ;lib/usb/usb_device.c: 1501:         pBDTEntryEP0OutNext->ADR = (((uint16_t)(&CtrlTrfDat
      +                          a)) & 0x7FFF);
  5203  0ADD  3068               	movlw	104
  5204  0ADE  00F3               	movwf	??_USBCtrlEPAllowDataStage
  5205  0ADF  3000               	movlw	0
  5206  0AE0  00F4               	movwf	??_USBCtrlEPAllowDataStage+1
  5207  0AE1  0841               	movf	_pBDTEntryEP0OutNext^(0+128),w
  5208  0AE2  0086               	movwf	6
  5209  0AE3  0842               	movf	(_pBDTEntryEP0OutNext+1)^(0+128),w
  5210  0AE4  0087               	movwf	7
  5211  0AE5  3142               	addfsr 1,2
  5212  0AE6  0873               	movf	??_USBCtrlEPAllowDataStage,w
  5213  0AE7  3FC0               	movwi [0]fsr1
  5214  0AE8  0874               	movf	??_USBCtrlEPAllowDataStage+1,w
  5215  0AE9  3FC1               	movwi [1]fsr1
  5216  0AEA                     l3378:
  5217                           
  5218                           ;lib/usb/usb_device.c: 1502:         pBDTEntryEP0OutNext->STAT.Val = 0x40|(0x08 & 0x08);
  5219  0AEA  0841               	movf	_pBDTEntryEP0OutNext^(0+128),w
  5220  0AEB  0086               	movwf	6
  5221  0AEC  0842               	movf	(_pBDTEntryEP0OutNext+1)^(0+128),w
  5222  0AED  0087               	movwf	7
  5223  0AEE  3048               	movlw	72
  5224  0AEF  0081               	movwf	1
  5225  0AF0                     l3380:
  5226                           
  5227                           ;lib/usb/usb_device.c: 1503:         pBDTEntryEP0OutNext->STAT.Val |= 0x80;
  5228  0AF0  0841               	movf	_pBDTEntryEP0OutNext^(0+128),w
  5229  0AF1  0086               	movwf	6
  5230  0AF2  0842               	movf	(_pBDTEntryEP0OutNext+1)^(0+128),w
  5231  0AF3  0087               	movwf	7
  5232  0AF4  1781               	bsf	1,7
  5233                           
  5234                           ;lib/usb/usb_device.c: 1504:     }
  5235  0AF5  2B26               	goto	l227
  5236  0AF6                     l3382:
  5237                           
  5238                           ;lib/usb/usb_device.c: 1506:     {;lib/usb/usb_device.c: 1509:   if(SetupPkt.wLength < i
      +                          nPipes[0].wCount.Val)
  5239  0AF6  083C               	movf	((_inPipes+1)^(0+128)+3),w
  5240  0AF7  0020               	movlb	0	; select bank0
  5241  0AF8  0267               	subwf	103,w	;volatile
  5242  0AF9  1D03               	skipz
  5243  0AFA  2AFF               	goto	u2175
  5244  0AFB  0021               	movlb	1	; select bank1
  5245  0AFC  083B               	movf	(_inPipes^(0+128)+3),w
  5246  0AFD  0020               	movlb	0	; select bank0
  5247  0AFE  0266               	subwf	102,w	;volatile
  5248  0AFF                     u2175:
  5249  0AFF  1803               	skipnc
  5250  0B00  2B02               	goto	u2171
  5251  0B01  2B03               	goto	u2170
  5252  0B02                     u2171:
  5253  0B02  2B0A               	goto	l3386
  5254  0B03                     u2170:
  5255  0B03                     l3384:
  5256                           
  5257                           ;lib/usb/usb_device.c: 1510:   {;lib/usb/usb_device.c: 1511:    inPipes[0].wCount.Val = 
      +                          SetupPkt.wLength;
  5258  0B03  0867               	movf	103,w	;volatile
  5259  0B04  0021               	movlb	1	; select bank1
  5260  0B05  00BC               	movwf	((_inPipes+1)^(0+128)+3)
  5261  0B06  0020               	movlb	0	; select bank0
  5262  0B07  0866               	movf	102,w	;volatile
  5263  0B08  0021               	movlb	1	; select bank1
  5264  0B09  00BB               	movwf	(_inPipes^(0+128)+3)
  5265  0B0A                     l3386:
  5266                           
  5267                           ;lib/usb/usb_device.c: 1513:   USBCtrlTrfTxService();
  5268  0B0A  318C  2469  318A   	fcall	_USBCtrlTrfTxService
  5269  0B0D                     l3388:
  5270                           
  5271                           ;lib/usb/usb_device.c: 1518:   pBDTEntryIn[0]->ADR = (((uint16_t)(&CtrlTrfData)) & 0x7FF
      +                          F);
  5272  0B0D  3068               	movlw	104
  5273  0B0E  00F3               	movwf	??_USBCtrlEPAllowDataStage
  5274  0B0F  3000               	movlw	0
  5275  0B10  00F4               	movwf	??_USBCtrlEPAllowDataStage+1
  5276  0B11  0021               	movlb	1	; select bank1
  5277  0B12  0830               	movf	_pBDTEntryIn^(0+128),w
  5278  0B13  0086               	movwf	6
  5279  0B14  0831               	movf	(_pBDTEntryIn+1)^(0+128),w
  5280  0B15  0087               	movwf	7
  5281  0B16  3142               	addfsr 1,2
  5282  0B17  0873               	movf	??_USBCtrlEPAllowDataStage,w
  5283  0B18  3FC0               	movwi [0]fsr1
  5284  0B19  0874               	movf	??_USBCtrlEPAllowDataStage+1,w
  5285  0B1A  3FC1               	movwi [1]fsr1
  5286  0B1B                     l3390:
  5287                           
  5288                           ;lib/usb/usb_device.c: 1519:   pBDTEntryIn[0]->STAT.Val = 0x40|(0x08 & 0x08);
  5289  0B1B  0830               	movf	_pBDTEntryIn^(0+128),w
  5290  0B1C  0086               	movwf	6
  5291  0B1D  0831               	movf	(_pBDTEntryIn+1)^(0+128),w
  5292  0B1E  0087               	movwf	7
  5293  0B1F  3048               	movlw	72
  5294  0B20  0081               	movwf	1
  5295  0B21                     l3392:
  5296                           
  5297                           ;lib/usb/usb_device.c: 1520:         pBDTEntryIn[0]->STAT.Val |= 0x80;
  5298  0B21  0830               	movf	_pBDTEntryIn^(0+128),w
  5299  0B22  0086               	movwf	6
  5300  0B23  0831               	movf	(_pBDTEntryIn+1)^(0+128),w
  5301  0B24  0087               	movwf	7
  5302  0B25  1781               	bsf	1,7
  5303  0B26                     l227:
  5304  0B26  0008               	return
  5305  0B27                     __end_of_USBCtrlEPAllowDataStage:
  5306                           
  5307                           	psect	text13
  5308  0D56                     __ptext13:	
  5309 ;; *************** function _USBCheckStdRequest *****************
  5310 ;; Defined at:
  5311 ;;		line 2693 in file "lib/usb/usb_device.c"
  5312 ;; Parameters:    Size  Location     Type
  5313 ;;		None
  5314 ;; Auto vars:     Size  Location     Type
  5315 ;;		None
  5316 ;; Return value:  Size  Location     Type
  5317 ;;                  1    wreg      void 
  5318 ;; Registers used:
  5319 ;;		wreg, fsr0l, fsr0h, fsr1l, fsr1h, status,2, status,0, pclath, cstack
  5320 ;; Tracked objects:
  5321 ;;		On entry : 0/0
  5322 ;;		On exit  : 0/0
  5323 ;;		Unchanged: 0/0
  5324 ;; Data sizes:     COMMON   BANK1   BANK2   BANK3   BANK4   BANK5   BANK6   BANK7   BANK8   BANK9  BANK10  BANK11  BANK1
      +2
  5325 ;;      Params:         0       0       0       0       0       0       0       0       0       0       0       0       
      +0
  5326 ;;      Locals:         0       0       0       0       0       0       0       0       0       0       0       0       
      +0
  5327 ;;      Temps:          0       2       0       0       0       0       0       0       0       0       0       0       
      +0
  5328 ;;      Totals:         0       2       0       0       0       0       0       0       0       0       0       0       
      +0
  5329 ;;Total ram usage:        2 bytes
  5330 ;; Hardware stack levels used: 1
  5331 ;; Hardware stack levels required when called: 6
  5332 ;; This function calls:
  5333 ;;		_USBStdFeatureReqHandler
  5334 ;;		_USBStdGetDscHandler
  5335 ;;		_USBStdGetStatusHandler
  5336 ;;		_USBStdSetCfgHandler
  5337 ;;		_USER_USB_CALLBACK_EVENT_HANDLER
  5338 ;; This function is called by:
  5339 ;;		_USBCtrlTrfSetupHandler
  5340 ;; This function uses a non-reentrant model
  5341 ;;
  5342                           
  5343  0D56                     _USBCheckStdRequest:	
  5344                           ;psect for function _USBCheckStdRequest
  5345                           
  5346  0D56                     l4694:	
  5347                           ;incstack = 0
  5348                           ; Regs used in _USBCheckStdRequest: [wreg-fsr1h+status,2+status,0+pclath+cstack]
  5349                           
  5350                           
  5351                           ;lib/usb/usb_device.c: 2695:     if(SetupPkt.RequestType != (0x00>>5)) return;
  5352  0D56  0020               	movlb	0	; select bank0
  5353  0D57  0E60               	swapf	96,w	;volatile
  5354  0D58  0C89               	rrf	9,f
  5355  0D59  3903               	andlw	3
  5356  0D5A  3A00               	xorlw	0
  5357  0D5B  1903               	skipnz
  5358  0D5C  2D5E               	goto	u3551
  5359  0D5D  2D5F               	goto	u3550
  5360  0D5E                     u3551:
  5361  0D5E  2DA5               	goto	l4730
  5362  0D5F                     u3550:
  5363  0D5F  2DD1               	goto	l361
  5364  0D60                     l363:	
  5365                           ;lib/usb/usb_device.c: 2698:     {;lib/usb/usb_device.c: 2699:         case 5:
  5366                           
  5367                           
  5368                           ;lib/usb/usb_device.c: 2700:             inPipes[0].info.bits.busy = 1;
  5369  0D60  17BA               	bsf	(_inPipes^(0+128)+2),7
  5370  0D61                     l4698:
  5371                           
  5372                           ;lib/usb/usb_device.c: 2701:             USBDeviceState = ADR_PENDING_STATE;
  5373  0D61  3008               	movlw	8
  5374  0D62  00E6               	movwf	??_USBCheckStdRequest^(0+128)
  5375  0D63  0866               	movf	??_USBCheckStdRequest^(0+128),w
  5376  0D64  00D4               	movwf	_USBDeviceState^(0+128)
  5377                           
  5378                           ;lib/usb/usb_device.c: 2703:             break;
  5379  0D65  2DD1               	goto	l361
  5380  0D66                     l4700:
  5381                           
  5382                           ;lib/usb/usb_device.c: 2705:             USBStdGetDscHandler();
  5383  0D66  318D  25D2  318D   	fcall	_USBStdGetDscHandler
  5384                           
  5385                           ;lib/usb/usb_device.c: 2706:             break;
  5386  0D69  2DD1               	goto	l361
  5387  0D6A                     l4702:
  5388                           
  5389                           ;lib/usb/usb_device.c: 2708:             USBStdSetCfgHandler();
  5390  0D6A  318E  2657  318D   	fcall	_USBStdSetCfgHandler
  5391                           
  5392                           ;lib/usb/usb_device.c: 2709:             break;
  5393  0D6D  2DD1               	goto	l361
  5394  0D6E                     l4704:
  5395                           
  5396                           ;lib/usb/usb_device.c: 2711:             inPipes[0].pSrc.bRam = (uint8_t*)&USBActiveConf
      +                          iguration;
  5397  0D6E  30D8               	movlw	low _USBActiveConfiguration
  5398  0D6F  00B8               	movwf	_inPipes^(0+128)
  5399  0D70  3000               	movlw	high _USBActiveConfiguration
  5400  0D71  00B9               	movwf	(_inPipes+1)^(0+128)
  5401  0D72                     l4706:
  5402                           
  5403                           ;lib/usb/usb_device.c: 2712:             inPipes[0].info.bits.ctrl_trf_mem = 0x01;
  5404  0D72  143A               	bsf	(_inPipes^(0+128)+2),0
  5405  0D73                     l4708:
  5406                           
  5407                           ;lib/usb/usb_device.c: 2713:             inPipes[0].wCount.v[0] = 1;
  5408  0D73  01BB               	clrf	(_inPipes^(0+128)+3)
  5409  0D74  0ABB               	incf	(_inPipes^(0+128)+3),f
  5410  0D75                     l4710:
  5411                           
  5412                           ;lib/usb/usb_device.c: 2714:             inPipes[0].info.bits.busy = 1;
  5413  0D75  17BA               	bsf	(_inPipes^(0+128)+2),7
  5414                           
  5415                           ;lib/usb/usb_device.c: 2715:             break;
  5416  0D76  2DD1               	goto	l361
  5417  0D77                     l4712:
  5418                           
  5419                           ;lib/usb/usb_device.c: 2717:             USBStdGetStatusHandler();
  5420  0D77  318B  238A  318D   	fcall	_USBStdGetStatusHandler
  5421                           
  5422                           ;lib/usb/usb_device.c: 2718:             break;
  5423  0D7A  2DD1               	goto	l361
  5424  0D7B                     l4714:
  5425                           
  5426                           ;lib/usb/usb_device.c: 2721:             USBStdFeatureReqHandler();
  5427  0D7B  3180  2044  318D   	fcall	_USBStdFeatureReqHandler
  5428                           
  5429                           ;lib/usb/usb_device.c: 2722:             break;
  5430  0D7E  2DD1               	goto	l361
  5431  0D7F                     l4716:
  5432                           
  5433                           ;lib/usb/usb_device.c: 2724:             inPipes[0].pSrc.bRam = (uint8_t*)&USBAlternateI
      +                          nterface[SetupPkt.bIntfID];
  5434  0D7F  0020               	movlb	0	; select bank0
  5435  0D80  0864               	movf	100,w	;volatile
  5436  0D81  3EBD               	addlw	(low (_USBAlternateInterface| (0+256)))& (0+255)
  5437  0D82  0021               	movlb	1	; select bank1
  5438  0D83  00B8               	movwf	_inPipes^(0+128)
  5439  0D84  3001               	movlw	1
  5440  0D85  00B9               	movwf	(_inPipes+1)^(0+128)
  5441  0D86  2D72               	goto	l4706
  5442  0D87                     l372:	
  5443                           ;lib/usb/usb_device.c: 2729:         case 11:
  5444                           
  5445                           
  5446                           ;lib/usb/usb_device.c: 2730:             inPipes[0].info.bits.busy = 1;
  5447  0D87  17BA               	bsf	(_inPipes^(0+128)+2),7
  5448  0D88                     l4724:
  5449                           
  5450                           ;lib/usb/usb_device.c: 2731:             USBAlternateInterface[SetupPkt.bIntfID] = Setup
      +                          Pkt.bAltID;
  5451  0D88  0020               	movlb	0	; select bank0
  5452  0D89  0862               	movf	98,w	;volatile
  5453  0D8A  0021               	movlb	1	; select bank1
  5454  0D8B  00E6               	movwf	??_USBCheckStdRequest^(0+128)
  5455  0D8C  0020               	movlb	0	; select bank0
  5456  0D8D  0864               	movf	100,w	;volatile
  5457  0D8E  3EBD               	addlw	(low (_USBAlternateInterface| (0+256)))& (0+255)
  5458  0D8F  0086               	movwf	6
  5459  0D90  3001               	movlw	1	; select bank3/4
  5460  0D91  0087               	movwf	7
  5461  0D92  0021               	movlb	1	; select bank1
  5462  0D93  0866               	movf	??_USBCheckStdRequest^(0+128),w
  5463  0D94  0081               	movwf	1
  5464                           
  5465                           ;lib/usb/usb_device.c: 2732:             break;
  5466  0D95  2DD1               	goto	l361
  5467  0D96                     l4726:
  5468                           
  5469                           ;lib/usb/usb_device.c: 2734:             USER_USB_CALLBACK_EVENT_HANDLER((USB_EVENT)EVEN
      +                          T_SET_DESCRIPTOR,0,0);
  5470  0D96  3002               	movlw	2
  5471  0D97  00D9               	movwf	USER_USB_CALLBACK_EVENT_HANDLER@event^(0+128)
  5472  0D98  3000               	movlw	0
  5473  0D99  00DA               	movwf	(USER_USB_CALLBACK_EVENT_HANDLER@event^(0+128)+1)
  5474  0D9A  3000               	movlw	0
  5475  0D9B  00DB               	movwf	USER_USB_CALLBACK_EVENT_HANDLER@pdata^(0+128)
  5476  0D9C  3000               	movlw	0
  5477  0D9D  00DC               	movwf	(USER_USB_CALLBACK_EVENT_HANDLER@pdata+1)^(0+128)
  5478  0D9E  3000               	movlw	0
  5479  0D9F  00DD               	movwf	USER_USB_CALLBACK_EVENT_HANDLER@size^(0+128)
  5480  0DA0  00DE               	movwf	(USER_USB_CALLBACK_EVENT_HANDLER@size+1)^(0+128)
  5481  0DA1  318A  222E  318D   	fcall	_USER_USB_CALLBACK_EVENT_HANDLER
  5482                           
  5483                           ;lib/usb/usb_device.c: 2735:             break;
  5484  0DA4  2DD1               	goto	l361
  5485  0DA5                     l4730:
  5486  0DA5  0861               	movf	97,w	;volatile
  5487  0DA6  0021               	movlb	1	; select bank1
  5488  0DA7  00E6               	movwf	??_USBCheckStdRequest^(0+128)
  5489  0DA8  01E7               	clrf	(??_USBCheckStdRequest^(0+128)+1)
  5490                           
  5491                           ; Switch on 2 bytes has been partitioned into a top level switch of size 1, and 1 sub-sw
      +                          itches
  5492                           ; Switch size 1, requested type "simple"
  5493                           ; Number of cases is 1, Range of values is 0 to 0
  5494                           ; switch strategies available:
  5495                           ; Name         Instructions Cycles
  5496                           ; simple_byte            4     3 (average)
  5497                           ; direct_byte            8     6 (fixed)
  5498                           ; jumptable            260     6 (fixed)
  5499                           ;	Chosen strategy is simple_byte
  5500  0DA9  0867               	movf	(??_USBCheckStdRequest+1)^(0+128),w
  5501  0DAA  3A00               	xorlw	0	; case 0
  5502  0DAB  1903               	skipnz
  5503  0DAC  2DAE               	goto	l5230
  5504  0DAD  2DD1               	goto	l361
  5505  0DAE                     l5230:
  5506                           
  5507                           ; Switch size 1, requested type "simple"
  5508                           ; Number of cases is 11, Range of values is 0 to 12
  5509                           ; switch strategies available:
  5510                           ; Name         Instructions Cycles
  5511                           ; direct_byte           32     6 (fixed)
  5512                           ; simple_byte           34    18 (average)
  5513                           ; jumptable            260     6 (fixed)
  5514                           ;	Chosen strategy is simple_byte
  5515  0DAE  0866               	movf	??_USBCheckStdRequest^(0+128),w
  5516  0DAF  3A00               	xorlw	0	; case 0
  5517  0DB0  1903               	skipnz
  5518  0DB1  2D77               	goto	l4712
  5519  0DB2  3A01               	xorlw	1	; case 1
  5520  0DB3  1903               	skipnz
  5521  0DB4  2D7B               	goto	l4714
  5522  0DB5  3A02               	xorlw	2	; case 3
  5523  0DB6  1903               	skipnz
  5524  0DB7  2D7B               	goto	l4714
  5525  0DB8  3A06               	xorlw	6	; case 5
  5526  0DB9  1903               	skipnz
  5527  0DBA  2D60               	goto	l363
  5528  0DBB  3A03               	xorlw	3	; case 6
  5529  0DBC  1903               	skipnz
  5530  0DBD  2D66               	goto	l4700
  5531  0DBE  3A01               	xorlw	1	; case 7
  5532  0DBF  1903               	skipnz
  5533  0DC0  2D96               	goto	l4726
  5534  0DC1  3A0F               	xorlw	15	; case 8
  5535  0DC2  1903               	skipnz
  5536  0DC3  2D6E               	goto	l4704
  5537  0DC4  3A01               	xorlw	1	; case 9
  5538  0DC5  1903               	skipnz
  5539  0DC6  2D6A               	goto	l4702
  5540  0DC7  3A03               	xorlw	3	; case 10
  5541  0DC8  1903               	skipnz
  5542  0DC9  2D7F               	goto	l4716
  5543  0DCA  3A01               	xorlw	1	; case 11
  5544  0DCB  1903               	skipnz
  5545  0DCC  2D87               	goto	l372
  5546  0DCD  3A07               	xorlw	7	; case 12
  5547  0DCE  1903               	skipnz
  5548  0DCF  2DD1               	goto	l361
  5549  0DD0  2DD1               	goto	l361
  5550  0DD1                     l361:
  5551  0DD1  0008               	return
  5552  0DD2                     __end_of_USBCheckStdRequest:
  5553                           
  5554                           	psect	text14
  5555  0E57                     __ptext14:	
  5556 ;; *************** function _USBStdSetCfgHandler *****************
  5557 ;; Defined at:
  5558 ;;		line 1972 in file "lib/usb/usb_device.c"
  5559 ;; Parameters:    Size  Location     Type
  5560 ;;		None
  5561 ;; Auto vars:     Size  Location     Type
  5562 ;;  p               2    7[BANK1 ] PTR unsigned char 
  5563 ;;		 -> UEP1(1), 
  5564 ;;  i               1    9[BANK1 ] unsigned char 
  5565 ;;  i               1   10[BANK1 ] unsigned char 
  5566 ;; Return value:  Size  Location     Type
  5567 ;;                  1    wreg      void 
  5568 ;; Registers used:
  5569 ;;		wreg, fsr0l, fsr0h, fsr1l, fsr1h, status,2, status,0, pclath, cstack
  5570 ;; Tracked objects:
  5571 ;;		On entry : 0/0
  5572 ;;		On exit  : 0/0
  5573 ;;		Unchanged: 0/0
  5574 ;; Data sizes:     COMMON   BANK1   BANK2   BANK3   BANK4   BANK5   BANK6   BANK7   BANK8   BANK9  BANK10  BANK11  BANK1
      +2
  5575 ;;      Params:         0       0       0       0       0       0       0       0       0       0       0       0       
      +0
  5576 ;;      Locals:         0       4       0       0       0       0       0       0       0       0       0       0       
      +0
  5577 ;;      Temps:          0       1       0       0       0       0       0       0       0       0       0       0       
      +0
  5578 ;;      Totals:         0       5       0       0       0       0       0       0       0       0       0       0       
      +0
  5579 ;;Total ram usage:        5 bytes
  5580 ;; Hardware stack levels used: 1
  5581 ;; Hardware stack levels required when called: 5
  5582 ;; This function calls:
  5583 ;;		_USER_USB_CALLBACK_EVENT_HANDLER
  5584 ;;		_memset
  5585 ;; This function is called by:
  5586 ;;		_USBCheckStdRequest
  5587 ;; This function uses a non-reentrant model
  5588 ;;
  5589                           
  5590  0E57                     _USBStdSetCfgHandler:	
  5591                           ;psect for function _USBStdSetCfgHandler
  5592                           
  5593  0E57                     l4642:	
  5594                           ;incstack = 0
  5595                           ; Regs used in _USBStdSetCfgHandler: [wreg-fsr1h+status,2+status,0+pclath+cstack]
  5596                           
  5597                           
  5598                           ;lib/usb/usb_device.c: 1974:     uint8_t i;;lib/usb/usb_device.c: 1977:     inPipes[0].i
      +                          nfo.bits.busy = 1;
  5599  0E57  0021               	movlb	1	; select bank1
  5600  0E58  17BA               	bsf	(_inPipes^(0+128)+2),7
  5601                           
  5602                           ;lib/usb/usb_device.c: 1980:     { uint8_t i; uint8_t* p = (uint8_t*)&UEP1; for(i=0;i<3;
      +                          i++) *p++ = 0; };
  5603  0E59  300E               	movlw	14
  5604  0E5A  00E1               	movwf	(USBStdSetCfgHandler@p+1)^(0+128)
  5605  0E5B  3099               	movlw	153
  5606  0E5C  00E0               	movwf	USBStdSetCfgHandler@p^(0+128)
  5607  0E5D                     l4644:
  5608  0E5D  01E2               	clrf	USBStdSetCfgHandler@i_1457^(0+128)
  5609  0E5E                     l4650:
  5610  0E5E  0860               	movf	USBStdSetCfgHandler@p^(0+128),w
  5611  0E5F  0086               	movwf	6
  5612  0E60  0861               	movf	(USBStdSetCfgHandler@p+1)^(0+128),w
  5613  0E61  0087               	movwf	7
  5614  0E62  0181               	clrf	1
  5615  0E63                     l4652:
  5616  0E63  3001               	movlw	1
  5617  0E64  07E0               	addwf	USBStdSetCfgHandler@p^(0+128),f
  5618  0E65  3000               	movlw	0
  5619  0E66  3DE1               	addwfc	(USBStdSetCfgHandler@p+1)^(0+128),f
  5620  0E67                     l4654:
  5621  0E67  3001               	movlw	1
  5622  0E68  00DF               	movwf	??_USBStdSetCfgHandler^(0+128)
  5623  0E69  085F               	movf	??_USBStdSetCfgHandler^(0+128),w
  5624  0E6A  07E2               	addwf	USBStdSetCfgHandler@i_1457^(0+128),f
  5625  0E6B                     l4656:
  5626  0E6B  3003               	movlw	3
  5627  0E6C  0262               	subwf	USBStdSetCfgHandler@i_1457^(0+128),w
  5628  0E6D  1C03               	skipc
  5629  0E6E  2E70               	goto	u3521
  5630  0E6F  2E71               	goto	u3520
  5631  0E70                     u3521:
  5632  0E70  2E5E               	goto	l4650
  5633  0E71                     u3520:
  5634  0E71                     l4658:
  5635                           
  5636                           ;lib/usb/usb_device.c: 1983:     memset((void*)&BDT[0], 0x00, sizeof(BDT));
  5637  0E71  3020               	movlw	32
  5638  0E72  00F0               	movwf	memset@dest
  5639  0E73  3000               	movlw	0
  5640  0E74  00F1               	movwf	memset@dest+1
  5641  0E75  3000               	movlw	0
  5642  0E76  00F2               	movwf	memset@c
  5643  0E77  00F3               	movwf	memset@c+1
  5644  0E78  3040               	movlw	64
  5645  0E79  00F4               	movwf	memset@n
  5646  0E7A  3000               	movlw	0
  5647  0E7B  00F5               	movwf	memset@n+1
  5648  0E7C  3184  24CA  318E   	fcall	_memset
  5649  0E7F                     l4660:
  5650                           
  5651                           ;lib/usb/usb_device.c: 1986:     UCONbits.PPBRST = 1;
  5652  0E7F  003D               	movlb	29	; select bank29
  5653  0E80  170E               	bsf	14,6	;volatile
  5654  0E81                     l4662:
  5655                           
  5656                           ;lib/usb/usb_device.c: 1991:  for(i = 0; i < (uint8_t)(3 +1u); i++)
  5657  0E81  0021               	movlb	1	; select bank1
  5658  0E82  01E3               	clrf	USBStdSetCfgHandler@i^(0+128)
  5659  0E83                     l4668:
  5660                           
  5661                           ;lib/usb/usb_device.c: 1992:  {;lib/usb/usb_device.c: 1993:   ep_data_in[i].Val = 0u;
  5662  0E83  0863               	movf	USBStdSetCfgHandler@i^(0+128),w
  5663  0E84  3EB0               	addlw	(low (_ep_data_in| (0+256)))& (0+255)
  5664  0E85  0086               	movwf	6
  5665  0E86  3001               	movlw	1	; select bank3/4
  5666  0E87  0087               	movwf	7
  5667  0E88  0181               	clrf	1
  5668                           
  5669                           ;lib/usb/usb_device.c: 1994:         ep_data_out[i].Val = 0u;
  5670  0E89  0863               	movf	USBStdSetCfgHandler@i^(0+128),w
  5671  0E8A  3EAC               	addlw	(low (_ep_data_out| (0+256)))& (0+255)
  5672  0E8B  0086               	movwf	6
  5673  0E8C  3001               	movlw	1	; select bank3/4
  5674  0E8D  0087               	movwf	7
  5675  0E8E  0181               	clrf	1
  5676  0E8F                     l4670:
  5677                           
  5678                           ;lib/usb/usb_device.c: 1995:  }
  5679  0E8F  3001               	movlw	1
  5680  0E90  00DF               	movwf	??_USBStdSetCfgHandler^(0+128)
  5681  0E91  085F               	movf	??_USBStdSetCfgHandler^(0+128),w
  5682  0E92  07E3               	addwf	USBStdSetCfgHandler@i^(0+128),f
  5683  0E93                     l4672:
  5684  0E93  3004               	movlw	4
  5685  0E94  0263               	subwf	USBStdSetCfgHandler@i^(0+128),w
  5686  0E95  1C03               	skipc
  5687  0E96  2E98               	goto	u3531
  5688  0E97  2E99               	goto	u3530
  5689  0E98                     u3531:
  5690  0E98  2E83               	goto	l4668
  5691  0E99                     u3530:
  5692  0E99                     l4674:
  5693                           
  5694                           ;lib/usb/usb_device.c: 1998:     memset((void*)&USBAlternateInterface,0x00,3);
  5695  0E99  30BD               	movlw	low _USBAlternateInterface
  5696  0E9A  00F0               	movwf	memset@dest
  5697  0E9B  3001               	movlw	high _USBAlternateInterface
  5698  0E9C  00F1               	movwf	memset@dest+1
  5699  0E9D  3000               	movlw	0
  5700  0E9E  00F2               	movwf	memset@c
  5701  0E9F  00F3               	movwf	memset@c+1
  5702  0EA0  3003               	movlw	3
  5703  0EA1  00F4               	movwf	memset@n
  5704  0EA2  3000               	movlw	0
  5705  0EA3  00F5               	movwf	memset@n+1
  5706  0EA4  3184  24CA  318E   	fcall	_memset
  5707  0EA7                     l4676:
  5708                           
  5709                           ;lib/usb/usb_device.c: 2001:     UCONbits.PPBRST = 0;
  5710  0EA7  003D               	movlb	29	; select bank29
  5711  0EA8  130E               	bcf	14,6	;volatile
  5712  0EA9                     l4678:
  5713                           
  5714                           ;lib/usb/usb_device.c: 2003:     pBDTEntryIn[0] = (volatile BDT_ENTRY*)&BDT[2];
  5715  0EA9  3028               	movlw	40
  5716  0EAA  0021               	movlb	1	; select bank1
  5717  0EAB  00B0               	movwf	_pBDTEntryIn^(0+128)
  5718  0EAC  3000               	movlw	0
  5719  0EAD  00B1               	movwf	(_pBDTEntryIn+1)^(0+128)
  5720  0EAE                     l4680:
  5721                           
  5722                           ;lib/usb/usb_device.c: 2006:     pBDTEntryEP0OutCurrent = (volatile BDT_ENTRY*)&BDT[0];
  5723  0EAE  3020               	movlw	32
  5724  0EAF  00DF               	movwf	??_USBStdSetCfgHandler^(0+128)
  5725  0EB0  085F               	movf	??_USBStdSetCfgHandler^(0+128),w
  5726  0EB1  00D3               	movwf	_pBDTEntryEP0OutCurrent^(0+128)
  5727  0EB2                     l4682:
  5728                           
  5729                           ;lib/usb/usb_device.c: 2007:     pBDTEntryEP0OutNext = pBDTEntryEP0OutCurrent;
  5730  0EB2  0853               	movf	_pBDTEntryEP0OutCurrent^(0+128),w
  5731  0EB3  00C1               	movwf	_pBDTEntryEP0OutNext^(0+128)
  5732  0EB4  39FF               	andlw	255
  5733  0EB5  1D03               	skipz
  5734  0EB6  3000               	movlw	0
  5735  0EB7  00C2               	movwf	(_pBDTEntryEP0OutNext+1)^(0+128)
  5736  0EB8                     l4684:
  5737                           
  5738                           ;lib/usb/usb_device.c: 2010:     USBActiveConfiguration = SetupPkt.bConfigurationValue;
  5739  0EB8  0020               	movlb	0	; select bank0
  5740  0EB9  0862               	movf	98,w	;volatile
  5741  0EBA  0021               	movlb	1	; select bank1
  5742  0EBB  00DF               	movwf	??_USBStdSetCfgHandler^(0+128)
  5743  0EBC  085F               	movf	??_USBStdSetCfgHandler^(0+128),w
  5744  0EBD  00D8               	movwf	_USBActiveConfiguration^(0+128)
  5745  0EBE                     l4686:
  5746                           
  5747                           ;lib/usb/usb_device.c: 2013:     if(USBActiveConfiguration == 0)
  5748  0EBE  0858               	movf	_USBActiveConfiguration^(0+128),w
  5749  0EBF  1D03               	btfss	3,2
  5750  0EC0  2EC2               	goto	u3541
  5751  0EC1  2EC3               	goto	u3540
  5752  0EC2                     u3541:
  5753  0EC2  2EC8               	goto	l4690
  5754  0EC3                     u3540:
  5755  0EC3                     l4688:
  5756                           
  5757                           ;lib/usb/usb_device.c: 2014:     {;lib/usb/usb_device.c: 2016:         USBDeviceState = 
      +                          ADDRESS_STATE;
  5758  0EC3  3010               	movlw	16
  5759  0EC4  00DF               	movwf	??_USBStdSetCfgHandler^(0+128)
  5760  0EC5  085F               	movf	??_USBStdSetCfgHandler^(0+128),w
  5761  0EC6  00D4               	movwf	_USBDeviceState^(0+128)
  5762                           
  5763                           ;lib/usb/usb_device.c: 2017:     }
  5764  0EC7  2EDC               	goto	l282
  5765  0EC8                     l4690:
  5766                           
  5767                           ;lib/usb/usb_device.c: 2019:     {;lib/usb/usb_device.c: 2021:         USER_USB_CALLBACK
      +                          _EVENT_HANDLER((USB_EVENT)EVENT_CONFIGURED,(void*)&USBActiveConfiguration,1);
  5768  0EC8  3001               	movlw	1
  5769  0EC9  00D9               	movwf	USER_USB_CALLBACK_EVENT_HANDLER@event^(0+128)
  5770  0ECA  3000               	movlw	0
  5771  0ECB  00DA               	movwf	(USER_USB_CALLBACK_EVENT_HANDLER@event^(0+128)+1)
  5772  0ECC  30D8               	movlw	low _USBActiveConfiguration
  5773  0ECD  00DB               	movwf	USER_USB_CALLBACK_EVENT_HANDLER@pdata^(0+128)
  5774  0ECE  3000               	movlw	high _USBActiveConfiguration
  5775  0ECF  00DC               	movwf	(USER_USB_CALLBACK_EVENT_HANDLER@pdata+1)^(0+128)
  5776  0ED0  3001               	movlw	1
  5777  0ED1  00DD               	movwf	USER_USB_CALLBACK_EVENT_HANDLER@size^(0+128)
  5778  0ED2  3000               	movlw	0
  5779  0ED3  00DE               	movwf	(USER_USB_CALLBACK_EVENT_HANDLER@size^(0+128)+1)
  5780  0ED4  318A  222E  318E   	fcall	_USER_USB_CALLBACK_EVENT_HANDLER
  5781  0ED7                     l4692:
  5782                           
  5783                           ;lib/usb/usb_device.c: 2026:         USBDeviceState = CONFIGURED_STATE;
  5784  0ED7  3020               	movlw	32
  5785  0ED8  0021               	movlb	1	; select bank1
  5786  0ED9  00DF               	movwf	??_USBStdSetCfgHandler^(0+128)
  5787  0EDA  085F               	movf	??_USBStdSetCfgHandler^(0+128),w
  5788  0EDB  00D4               	movwf	_USBDeviceState^(0+128)
  5789  0EDC                     l282:
  5790  0EDC  0008               	return
  5791  0EDD                     __end_of_USBStdSetCfgHandler:
  5792                           
  5793                           	psect	text15
  5794  04CA                     __ptext15:	
  5795 ;; *************** function _memset *****************
  5796 ;; Defined at:
  5797 ;;		line 4 in file "E:\Atmel Studio\Comp-istall\pic\sources\c99\common\memset.c"
  5798 ;; Parameters:    Size  Location     Type
  5799 ;;  dest            2    0[COMMON] PTR void 
  5800 ;;		 -> USBAlternateInterface(3), BDT(64), 
  5801 ;;  c               2    2[COMMON] int 
  5802 ;;  n               2    4[COMMON] unsigned int 
  5803 ;; Auto vars:     Size  Location     Type
  5804 ;;  s               2   12[COMMON] PTR unsigned char 
  5805 ;;		 -> USBAlternateInterface(3), BDT(64), 
  5806 ;;  k               2   10[COMMON] unsigned int 
  5807 ;; Return value:  Size  Location     Type
  5808 ;;                  2    0[COMMON] PTR void 
  5809 ;; Registers used:
  5810 ;;		wreg, fsr1l, fsr1h, status,2, status,0
  5811 ;; Tracked objects:
  5812 ;;		On entry : 0/0
  5813 ;;		On exit  : 0/0
  5814 ;;		Unchanged: 0/0
  5815 ;; Data sizes:     COMMON   BANK1   BANK2   BANK3   BANK4   BANK5   BANK6   BANK7   BANK8   BANK9  BANK10  BANK11  BANK1
      +2
  5816 ;;      Params:         6       0       0       0       0       0       0       0       0       0       0       0       
      +0
  5817 ;;      Locals:         4       0       0       0       0       0       0       0       0       0       0       0       
      +0
  5818 ;;      Temps:          4       0       0       0       0       0       0       0       0       0       0       0       
      +0
  5819 ;;      Totals:        14       0       0       0       0       0       0       0       0       0       0       0       
      +0
  5820 ;;Total ram usage:       14 bytes
  5821 ;; Hardware stack levels used: 1
  5822 ;; Hardware stack levels required when called: 1
  5823 ;; This function calls:
  5824 ;;		Nothing
  5825 ;; This function is called by:
  5826 ;;		_USBStdSetCfgHandler
  5827 ;; This function uses a non-reentrant model
  5828 ;;
  5829                           
  5830  04CA                     _memset:	
  5831                           ;psect for function _memset
  5832                           
  5833  04CA                     l4600:	
  5834                           ;incstack = 0
  5835                           ; Regs used in _memset: [wreg+fsr1l+fsr1h+status,2+status,0]
  5836                           
  5837  04CA  0871               	movf	memset@dest+1,w
  5838  04CB  00FD               	movwf	memset@s+1
  5839  04CC  0870               	movf	memset@dest,w
  5840  04CD  00FC               	movwf	memset@s
  5841  04CE                     l4602:
  5842  04CE  0874               	movf	memset@n,w
  5843  04CF  0475               	iorwf	memset@n+1,w
  5844  04D0  1D03               	btfss	3,2
  5845  04D1  2CD3               	goto	u3471
  5846  04D2  2CD4               	goto	u3470
  5847  04D3                     u3471:
  5848  04D3  2CD5               	goto	l4606
  5849  04D4                     u3470:
  5850  04D4  2D93               	goto	l1324
  5851  04D5                     l4606:
  5852  04D5  087C               	movf	memset@s,w
  5853  04D6  0086               	movwf	6
  5854  04D7  087D               	movf	memset@s+1,w
  5855  04D8  0087               	movwf	7
  5856  04D9  0872               	movf	memset@c,w
  5857  04DA  0081               	movwf	1
  5858  04DB                     l4608:
  5859  04DB  0874               	movf	memset@n,w
  5860  04DC  077C               	addwf	memset@s,w
  5861  04DD  00F6               	movwf	??_memset
  5862  04DE  0875               	movf	memset@n+1,w
  5863  04DF  3D7D               	addwfc	memset@s+1,w
  5864  04E0  00F7               	movwf	??_memset+1
  5865  04E1  0876               	movf	??_memset,w
  5866  04E2  3EFF               	addlw	255
  5867  04E3  00F8               	movwf	??_memset+2
  5868  04E4  30FF               	movlw	255
  5869  04E5  3D77               	addwfc	??_memset+1,w
  5870  04E6  00F9               	movwf	??_memset+3
  5871  04E7  0878               	movf	??_memset+2,w
  5872  04E8  0086               	movwf	6
  5873  04E9  0879               	movf	??_memset+3,w
  5874  04EA  0087               	movwf	7
  5875  04EB  0872               	movf	memset@c,w
  5876  04EC  0081               	movwf	1
  5877  04ED                     l4610:
  5878  04ED  3000               	movlw	0
  5879  04EE  0275               	subwf	memset@n+1,w
  5880  04EF  3003               	movlw	3
  5881  04F0  1903               	skipnz
  5882  04F1  0274               	subwf	memset@n,w
  5883  04F2  1803               	skipnc
  5884  04F3  2CF5               	goto	u3481
  5885  04F4  2CF6               	goto	u3480
  5886  04F5                     u3481:
  5887  04F5  2CF7               	goto	l4614
  5888  04F6                     u3480:
  5889  04F6  2D93               	goto	l1324
  5890  04F7                     l4614:
  5891  04F7  087C               	movf	memset@s,w
  5892  04F8  3E01               	addlw	1
  5893  04F9  00F6               	movwf	??_memset
  5894  04FA  3000               	movlw	0
  5895  04FB  3D7D               	addwfc	memset@s+1,w
  5896  04FC  00F7               	movwf	??_memset+1
  5897  04FD  0876               	movf	??_memset,w
  5898  04FE  0086               	movwf	6
  5899  04FF  0877               	movf	??_memset+1,w
  5900  0500  0087               	movwf	7
  5901  0501  0872               	movf	memset@c,w
  5902  0502  0081               	movwf	1
  5903  0503  087C               	movf	memset@s,w
  5904  0504  3E02               	addlw	2
  5905  0505  00F6               	movwf	??_memset
  5906  0506  3000               	movlw	0
  5907  0507  3D7D               	addwfc	memset@s+1,w
  5908  0508  00F7               	movwf	??_memset+1
  5909  0509  0876               	movf	??_memset,w
  5910  050A  0086               	movwf	6
  5911  050B  0877               	movf	??_memset+1,w
  5912  050C  0087               	movwf	7
  5913  050D  0872               	movf	memset@c,w
  5914  050E  0081               	movwf	1
  5915  050F  0874               	movf	memset@n,w
  5916  0510  077C               	addwf	memset@s,w
  5917  0511  00F6               	movwf	??_memset
  5918  0512  0875               	movf	memset@n+1,w
  5919  0513  3D7D               	addwfc	memset@s+1,w
  5920  0514  00F7               	movwf	??_memset+1
  5921  0515  0876               	movf	??_memset,w
  5922  0516  3EFE               	addlw	254
  5923  0517  00F8               	movwf	??_memset+2
  5924  0518  30FF               	movlw	255
  5925  0519  3D77               	addwfc	??_memset+1,w
  5926  051A  00F9               	movwf	??_memset+3
  5927  051B  0878               	movf	??_memset+2,w
  5928  051C  0086               	movwf	6
  5929  051D  0879               	movf	??_memset+3,w
  5930  051E  0087               	movwf	7
  5931  051F  0872               	movf	memset@c,w
  5932  0520  0081               	movwf	1
  5933  0521  0874               	movf	memset@n,w
  5934  0522  077C               	addwf	memset@s,w
  5935  0523  00F6               	movwf	??_memset
  5936  0524  0875               	movf	memset@n+1,w
  5937  0525  3D7D               	addwfc	memset@s+1,w
  5938  0526  00F7               	movwf	??_memset+1
  5939  0527  0876               	movf	??_memset,w
  5940  0528  3EFD               	addlw	253
  5941  0529  00F8               	movwf	??_memset+2
  5942  052A  30FF               	movlw	255
  5943  052B  3D77               	addwfc	??_memset+1,w
  5944  052C  00F9               	movwf	??_memset+3
  5945  052D  0878               	movf	??_memset+2,w
  5946  052E  0086               	movwf	6
  5947  052F  0879               	movf	??_memset+3,w
  5948  0530  0087               	movwf	7
  5949  0531  0872               	movf	memset@c,w
  5950  0532  0081               	movwf	1
  5951  0533                     l4616:
  5952  0533  3000               	movlw	0
  5953  0534  0275               	subwf	memset@n+1,w
  5954  0535  3007               	movlw	7
  5955  0536  1903               	skipnz
  5956  0537  0274               	subwf	memset@n,w
  5957  0538  1803               	skipnc
  5958  0539  2D3B               	goto	u3491
  5959  053A  2D3C               	goto	u3490
  5960  053B                     u3491:
  5961  053B  2D3D               	goto	l4620
  5962  053C                     u3490:
  5963  053C  2D93               	goto	l1324
  5964  053D                     l4620:
  5965  053D  087C               	movf	memset@s,w
  5966  053E  3E03               	addlw	3
  5967  053F  00F6               	movwf	??_memset
  5968  0540  3000               	movlw	0
  5969  0541  3D7D               	addwfc	memset@s+1,w
  5970  0542  00F7               	movwf	??_memset+1
  5971  0543  0876               	movf	??_memset,w
  5972  0544  0086               	movwf	6
  5973  0545  0877               	movf	??_memset+1,w
  5974  0546  0087               	movwf	7
  5975  0547  0872               	movf	memset@c,w
  5976  0548  0081               	movwf	1
  5977  0549  0874               	movf	memset@n,w
  5978  054A  077C               	addwf	memset@s,w
  5979  054B  00F6               	movwf	??_memset
  5980  054C  0875               	movf	memset@n+1,w
  5981  054D  3D7D               	addwfc	memset@s+1,w
  5982  054E  00F7               	movwf	??_memset+1
  5983  054F  0876               	movf	??_memset,w
  5984  0550  3EFC               	addlw	252
  5985  0551  00F8               	movwf	??_memset+2
  5986  0552  30FF               	movlw	255
  5987  0553  3D77               	addwfc	??_memset+1,w
  5988  0554  00F9               	movwf	??_memset+3
  5989  0555  0878               	movf	??_memset+2,w
  5990  0556  0086               	movwf	6
  5991  0557  0879               	movf	??_memset+3,w
  5992  0558  0087               	movwf	7
  5993  0559  0872               	movf	memset@c,w
  5994  055A  0081               	movwf	1
  5995  055B                     l4622:
  5996  055B  3000               	movlw	0
  5997  055C  0275               	subwf	memset@n+1,w
  5998  055D  3009               	movlw	9
  5999  055E  1903               	skipnz
  6000  055F  0274               	subwf	memset@n,w
  6001  0560  1803               	skipnc
  6002  0561  2D63               	goto	u3501
  6003  0562  2D64               	goto	u3500
  6004  0563                     u3501:
  6005  0563  2D65               	goto	l4626
  6006  0564                     u3500:
  6007  0564  2D93               	goto	l1324
  6008  0565                     l4626:
  6009  0565  097C               	comf	memset@s,w
  6010  0566  00F6               	movwf	??_memset
  6011  0567  097D               	comf	memset@s+1,w
  6012  0568  00F7               	movwf	??_memset+1
  6013  0569  0AF6               	incf	??_memset,f
  6014  056A  1903               	skipnz
  6015  056B  0AF7               	incf	??_memset+1,f
  6016  056C  3003               	movlw	3
  6017  056D  0576               	andwf	??_memset,w
  6018  056E  00FA               	movwf	memset@k
  6019  056F  3000               	movlw	0
  6020  0570  0577               	andwf	??_memset+1,w
  6021  0571  00FB               	movwf	memset@k+1
  6022  0572                     l4628:
  6023  0572  087A               	movf	memset@k,w
  6024  0573  07FC               	addwf	memset@s,f
  6025  0574  087B               	movf	memset@k+1,w
  6026  0575  3DFD               	addwfc	memset@s+1,f
  6027  0576                     l4630:
  6028  0576  087A               	movf	memset@k,w
  6029  0577  02F4               	subwf	memset@n,f
  6030  0578  087B               	movf	memset@k+1,w
  6031  0579  3BF5               	subwfb	memset@n+1,f
  6032  057A                     l4632:
  6033  057A  30FC               	movlw	252
  6034  057B  05F4               	andwf	memset@n,f
  6035  057C  30FF               	movlw	255
  6036  057D  05F5               	andwf	memset@n+1,f
  6037  057E  2D8D               	goto	l4640
  6038  057F                     l4634:
  6039  057F  087C               	movf	memset@s,w
  6040  0580  0086               	movwf	6
  6041  0581  087D               	movf	memset@s+1,w
  6042  0582  0087               	movwf	7
  6043  0583  0872               	movf	memset@c,w
  6044  0584  0081               	movwf	1
  6045  0585                     l4636:
  6046  0585  3001               	movlw	1
  6047  0586  02F4               	subwf	memset@n,f
  6048  0587  3000               	movlw	0
  6049  0588  3BF5               	subwfb	memset@n+1,f
  6050  0589                     l4638:
  6051  0589  3001               	movlw	1
  6052  058A  07FC               	addwf	memset@s,f
  6053  058B  3000               	movlw	0
  6054  058C  3DFD               	addwfc	memset@s+1,f
  6055  058D                     l4640:
  6056  058D  0874               	movf	memset@n,w
  6057  058E  0475               	iorwf	memset@n+1,w
  6058  058F  1D03               	btfss	3,2
  6059  0590  2D92               	goto	u3511
  6060  0591  2D93               	goto	u3510
  6061  0592                     u3511:
  6062  0592  2D7F               	goto	l4634
  6063  0593                     u3510:
  6064  0593                     l1324:
  6065  0593  0008               	return
  6066  0594                     __end_of_memset:
  6067                           
  6068                           	psect	text16
  6069  0B8A                     __ptext16:	
  6070 ;; *************** function _USBStdGetStatusHandler *****************
  6071 ;; Defined at:
  6072 ;;		line 2133 in file "lib/usb/usb_device.c"
  6073 ;; Parameters:    Size  Location     Type
  6074 ;;		None
  6075 ;; Auto vars:     Size  Location     Type
  6076 ;;  p               2    2[COMMON] PTR struct __BDT
  6077 ;;		 -> RAM(4096), NULL(0), BDT(64), 
  6078 ;; Return value:  Size  Location     Type
  6079 ;;                  1    wreg      void 
  6080 ;; Registers used:
  6081 ;;		wreg, fsr0l, fsr0h, fsr1l, fsr1h, status,2, status,0
  6082 ;; Tracked objects:
  6083 ;;		On entry : 0/0
  6084 ;;		On exit  : 0/0
  6085 ;;		Unchanged: 0/0
  6086 ;; Data sizes:     COMMON   BANK1   BANK2   BANK3   BANK4   BANK5   BANK6   BANK7   BANK8   BANK9  BANK10  BANK11  BANK1
      +2
  6087 ;;      Params:         0       0       0       0       0       0       0       0       0       0       0       0       
      +0
  6088 ;;      Locals:         2       0       0       0       0       0       0       0       0       0       0       0       
      +0
  6089 ;;      Temps:          2       0       0       0       0       0       0       0       0       0       0       0       
      +0
  6090 ;;      Totals:         4       0       0       0       0       0       0       0       0       0       0       0       
      +0
  6091 ;;Total ram usage:        4 bytes
  6092 ;; Hardware stack levels used: 1
  6093 ;; Hardware stack levels required when called: 1
  6094 ;; This function calls:
  6095 ;;		Nothing
  6096 ;; This function is called by:
  6097 ;;		_USBCheckStdRequest
  6098 ;; This function uses a non-reentrant model
  6099 ;;
  6100                           
  6101  0B8A                     _USBStdGetStatusHandler:	
  6102                           ;psect for function _USBStdGetStatusHandler
  6103                           
  6104  0B8A                     l3480:	
  6105                           ;incstack = 0
  6106                           ; Regs used in _USBStdGetStatusHandler: [wreg-fsr1h+status,2+status,0]
  6107                           
  6108                           
  6109                           ;lib/usb/usb_device.c: 2135:     CtrlTrfData[0] = 0;
  6110  0B8A  0020               	movlb	0	; select bank0
  6111  0B8B  01E8               	clrf	104	;volatile
  6112                           
  6113                           ;lib/usb/usb_device.c: 2136:     CtrlTrfData[1] = 0;
  6114  0B8C  01E9               	clrf	105	;volatile
  6115                           
  6116                           ;lib/usb/usb_device.c: 2138:     switch(SetupPkt.Recipient)
  6117  0B8D  2BD4               	goto	l3504
  6118  0B8E                     l300:	
  6119                           ;lib/usb/usb_device.c: 2139:     {;lib/usb/usb_device.c: 2140:         case (0x00):
  6120                           
  6121                           
  6122                           ;lib/usb/usb_device.c: 2141:             inPipes[0].info.bits.busy = 1;
  6123  0B8E  0021               	movlb	1	; select bank1
  6124  0B8F  17BA               	bsf	(_inPipes^(0+128)+2),7
  6125  0B90                     l3484:	
  6126                           ;lib/usb/usb_device.c: 2146:             if(0 == 1)
  6127                           
  6128                           
  6129                           ;lib/usb/usb_device.c: 2151:             if(RemoteWakeup == 1)
  6130  0B90  034F               	decf	_RemoteWakeup^(0+128),w
  6131  0B91  1D03               	btfss	3,2
  6132  0B92  2B94               	goto	u2241
  6133  0B93  2B95               	goto	u2240
  6134  0B94                     u2241:
  6135  0B94  2BE8               	goto	l303
  6136  0B95                     u2240:
  6137  0B95                     l3486:
  6138                           
  6139                           ;lib/usb/usb_device.c: 2152:             {;lib/usb/usb_device.c: 2153:                 C
      +                          trlTrfData[0]|=0x02;
  6140  0B95  0020               	movlb	0	; select bank0
  6141  0B96  14E8               	bsf	104,1	;volatile
  6142  0B97  2BE8               	goto	l303
  6143  0B98                     l304:	
  6144                           ;lib/usb/usb_device.c: 2156:         case (0x01):
  6145                           
  6146                           
  6147                           ;lib/usb/usb_device.c: 2157:             inPipes[0].info.bits.busy = 1;
  6148  0B98  0021               	movlb	1	; select bank1
  6149  0B99  17BA               	bsf	(_inPipes^(0+128)+2),7
  6150                           
  6151                           ;lib/usb/usb_device.c: 2158:             break;
  6152  0B9A  2BE8               	goto	l303
  6153  0B9B                     l305:	
  6154                           ;lib/usb/usb_device.c: 2159:         case (0x02):
  6155                           
  6156                           
  6157                           ;lib/usb/usb_device.c: 2160:             inPipes[0].info.bits.busy = 1;
  6158  0B9B  0021               	movlb	1	; select bank1
  6159  0B9C  17BA               	bsf	(_inPipes^(0+128)+2),7
  6160  0B9D                     l3488:
  6161                           
  6162                           ;lib/usb/usb_device.c: 2164:             if(SetupPkt.EPNum != 0)
  6163  0B9D  0020               	movlb	0	; select bank0
  6164  0B9E  0864               	movf	100,w	;volatile
  6165  0B9F  390F               	andlw	15
  6166  0BA0  3A00               	xorlw	0
  6167  0BA1  1903               	skipnz
  6168  0BA2  2BA4               	goto	u2251
  6169  0BA3  2BA5               	goto	u2250
  6170  0BA4                     u2251:
  6171  0BA4  2BE8               	goto	l303
  6172  0BA5                     u2250:
  6173  0BA5                     l3490:
  6174                           
  6175                           ;lib/usb/usb_device.c: 2165:             {;lib/usb/usb_device.c: 2166:                 B
      +                          DT_ENTRY *p;;lib/usb/usb_device.c: 2168:                 if(SetupPkt.EPDir == 0)
  6176  0BA5  1BE4               	btfsc	100,7	;volatile
  6177  0BA6  2BA8               	goto	u2261
  6178  0BA7  2BA9               	goto	u2260
  6179  0BA8                     u2261:
  6180  0BA8  2BB5               	goto	l3494
  6181  0BA9                     u2260:
  6182  0BA9                     l3492:
  6183                           
  6184                           ;lib/usb/usb_device.c: 2169:                 {;lib/usb/usb_device.c: 2170:              
      +                                 p = (BDT_ENTRY*)pBDTEntryOut[SetupPkt.EPNum];
  6185  0BA9  0864               	movf	100,w	;volatile
  6186  0BAA  390F               	andlw	15
  6187  0BAB  0709               	addwf	9,w
  6188  0BAC  3EA0               	addlw	(low (_pBDTEntryOut| (0+256)))& (0+255)
  6189  0BAD  0086               	movwf	6
  6190  0BAE  3001               	movlw	1	; select bank3/4
  6191  0BAF  0087               	movwf	7
  6192  0BB0  3F40               	moviw [0]fsr1
  6193  0BB1  00F2               	movwf	USBStdGetStatusHandler@p
  6194  0BB2  3F41               	moviw [1]fsr1
  6195  0BB3  00F3               	movwf	USBStdGetStatusHandler@p+1
  6196                           
  6197                           ;lib/usb/usb_device.c: 2171:                 }
  6198  0BB4  2BBF               	goto	l3496
  6199  0BB5                     l3494:
  6200                           
  6201                           ;lib/usb/usb_device.c: 2173:                 {;lib/usb/usb_device.c: 2174:              
      +                                 p = (BDT_ENTRY*)pBDTEntryIn[SetupPkt.EPNum];
  6202  0BB5  0864               	movf	100,w	;volatile
  6203  0BB6  390F               	andlw	15
  6204  0BB7  0709               	addwf	9,w
  6205  0BB8  3EB0               	addlw	(low (_pBDTEntryIn| 0))& (0+255)
  6206  0BB9  0086               	movwf	6
  6207  0BBA  0187               	clrf	7
  6208  0BBB  3F40               	moviw [0]fsr1
  6209  0BBC  00F2               	movwf	USBStdGetStatusHandler@p
  6210  0BBD  3F41               	moviw [1]fsr1
  6211  0BBE  00F3               	movwf	USBStdGetStatusHandler@p+1
  6212  0BBF                     l3496:
  6213                           
  6214                           ;lib/usb/usb_device.c: 2177:                 if((p->STAT.UOWN == 1) && (p->STAT.BSTALL =
      +                          = 1))
  6215  0BBF  0872               	movf	USBStdGetStatusHandler@p,w
  6216  0BC0  0086               	movwf	6
  6217  0BC1  0873               	movf	USBStdGetStatusHandler@p+1,w
  6218  0BC2  0087               	movwf	7
  6219  0BC3  1F81               	btfss	1,7
  6220  0BC4  2BC6               	goto	u2271
  6221  0BC5  2BC7               	goto	u2270
  6222  0BC6                     u2271:
  6223  0BC6  2BE8               	goto	l303
  6224  0BC7                     u2270:
  6225  0BC7                     l3498:
  6226  0BC7  0872               	movf	USBStdGetStatusHandler@p,w
  6227  0BC8  0086               	movwf	6
  6228  0BC9  0873               	movf	USBStdGetStatusHandler@p+1,w
  6229  0BCA  0087               	movwf	7
  6230  0BCB  1D01               	btfss	1,2
  6231  0BCC  2BCE               	goto	u2281
  6232  0BCD  2BCF               	goto	u2280
  6233  0BCE                     u2281:
  6234  0BCE  2BE8               	goto	l303
  6235  0BCF                     u2280:
  6236  0BCF                     l3500:
  6237                           
  6238                           ;lib/usb/usb_device.c: 2178:                 {;lib/usb/usb_device.c: 2179:              
      +                                 CtrlTrfData[0]=0x01;
  6239  0BCF  3001               	movlw	1
  6240  0BD0  00F0               	movwf	??_USBStdGetStatusHandler
  6241  0BD1  0870               	movf	??_USBStdGetStatusHandler,w
  6242  0BD2  00E8               	movwf	104	;volatile
  6243  0BD3  2BE8               	goto	l303
  6244  0BD4                     l3504:
  6245  0BD4  0860               	movf	96,w	;volatile
  6246  0BD5  391F               	andlw	31
  6247  0BD6  00F0               	movwf	??_USBStdGetStatusHandler
  6248  0BD7  01F1               	clrf	??_USBStdGetStatusHandler+1
  6249                           
  6250                           ; Switch on 2 bytes has been partitioned into a top level switch of size 1, and 1 sub-sw
      +                          itches
  6251                           ; Switch size 1, requested type "simple"
  6252                           ; Number of cases is 1, Range of values is 0 to 0
  6253                           ; switch strategies available:
  6254                           ; Name         Instructions Cycles
  6255                           ; simple_byte            4     3 (average)
  6256                           ; direct_byte            8     6 (fixed)
  6257                           ; jumptable            260     6 (fixed)
  6258                           ;	Chosen strategy is simple_byte
  6259  0BD8  0871               	movf	??_USBStdGetStatusHandler+1,w
  6260  0BD9  3A00               	xorlw	0	; case 0
  6261  0BDA  1903               	skipnz
  6262  0BDB  2BDD               	goto	l5232
  6263  0BDC  2BE8               	goto	l303
  6264  0BDD                     l5232:
  6265                           
  6266                           ; Switch size 1, requested type "simple"
  6267                           ; Number of cases is 3, Range of values is 0 to 2
  6268                           ; switch strategies available:
  6269                           ; Name         Instructions Cycles
  6270                           ; simple_byte           10     6 (average)
  6271                           ; direct_byte           12     6 (fixed)
  6272                           ; jumptable            260     6 (fixed)
  6273                           ;	Chosen strategy is simple_byte
  6274  0BDD  0870               	movf	??_USBStdGetStatusHandler,w
  6275  0BDE  3A00               	xorlw	0	; case 0
  6276  0BDF  1903               	skipnz
  6277  0BE0  2B8E               	goto	l300
  6278  0BE1  3A01               	xorlw	1	; case 1
  6279  0BE2  1903               	skipnz
  6280  0BE3  2B98               	goto	l304
  6281  0BE4  3A03               	xorlw	3	; case 2
  6282  0BE5  1903               	skipnz
  6283  0BE6  2B9B               	goto	l305
  6284  0BE7  2BE8               	goto	l303
  6285  0BE8                     l303:
  6286                           
  6287                           ;lib/usb/usb_device.c: 2185:     if(inPipes[0].info.bits.busy == 1)
  6288  0BE8  0021               	movlb	1	; select bank1
  6289  0BE9  1FBA               	btfss	(_inPipes^(0+128)+2),7
  6290  0BEA  2BEC               	goto	u2291
  6291  0BEB  2BED               	goto	u2290
  6292  0BEC                     u2291:
  6293  0BEC  2BF6               	goto	l311
  6294  0BED                     u2290:
  6295  0BED                     l3506:
  6296                           
  6297                           ;lib/usb/usb_device.c: 2186:     {;lib/usb/usb_device.c: 2187:         inPipes[0].pSrc.b
      +                          Ram = (uint8_t*)&CtrlTrfData;
  6298  0BED  3068               	movlw	104
  6299  0BEE  00B8               	movwf	_inPipes^(0+128)
  6300  0BEF  3000               	movlw	0
  6301  0BF0  00B9               	movwf	(_inPipes+1)^(0+128)
  6302  0BF1                     l3508:
  6303                           
  6304                           ;lib/usb/usb_device.c: 2188:         inPipes[0].info.bits.ctrl_trf_mem = 0x01;
  6305  0BF1  143A               	bsf	(_inPipes^(0+128)+2),0
  6306  0BF2                     l3510:
  6307                           
  6308                           ;lib/usb/usb_device.c: 2189:         inPipes[0].wCount.v[0] = 2;
  6309  0BF2  3002               	movlw	2
  6310  0BF3  00F0               	movwf	??_USBStdGetStatusHandler
  6311  0BF4  0870               	movf	??_USBStdGetStatusHandler,w
  6312  0BF5  00BB               	movwf	(_inPipes^(0+128)+3)
  6313  0BF6                     l311:
  6314  0BF6  0008               	return
  6315  0BF7                     __end_of_USBStdGetStatusHandler:
  6316                           
  6317                           	psect	text17
  6318  0DD2                     __ptext17:	
  6319 ;; *************** function _USBStdGetDscHandler *****************
  6320 ;; Defined at:
  6321 ;;		line 2047 in file "lib/usb/usb_device.c"
  6322 ;; Parameters:    Size  Location     Type
  6323 ;;		None
  6324 ;; Auto vars:     Size  Location     Type
  6325 ;;		None
  6326 ;; Return value:  Size  Location     Type
  6327 ;;                  1    wreg      void 
  6328 ;; Registers used:
  6329 ;;		wreg, fsr0l, fsr0h, status,2, status,0, pclath
  6330 ;; Tracked objects:
  6331 ;;		On entry : 0/0
  6332 ;;		On exit  : 0/0
  6333 ;;		Unchanged: 0/0
  6334 ;; Data sizes:     COMMON   BANK1   BANK2   BANK3   BANK4   BANK5   BANK6   BANK7   BANK8   BANK9  BANK10  BANK11  BANK1
      +2
  6335 ;;      Params:         0       0       0       0       0       0       0       0       0       0       0       0       
      +0
  6336 ;;      Locals:         0       0       0       0       0       0       0       0       0       0       0       0       
      +0
  6337 ;;      Temps:          3       0       0       0       0       0       0       0       0       0       0       0       
      +0
  6338 ;;      Totals:         3       0       0       0       0       0       0       0       0       0       0       0       
      +0
  6339 ;;Total ram usage:        3 bytes
  6340 ;; Hardware stack levels used: 1
  6341 ;; Hardware stack levels required when called: 1
  6342 ;; This function calls:
  6343 ;;		Nothing
  6344 ;; This function is called by:
  6345 ;;		_USBCheckStdRequest
  6346 ;; This function uses a non-reentrant model
  6347 ;;
  6348                           
  6349  0DD2                     _USBStdGetDscHandler:	
  6350                           ;psect for function _USBStdGetDscHandler
  6351                           
  6352  0DD2                     l3446:	
  6353                           ;incstack = 0
  6354                           ; Regs used in _USBStdGetDscHandler: [wreg-fsr0h+status,2+status,0+pclath]
  6355                           
  6356                           
  6357                           ;lib/usb/usb_device.c: 2049:     if(SetupPkt.bmRequestType == 0x80)
  6358  0DD2  3080               	movlw	128
  6359  0DD3  0020               	movlb	0	; select bank0
  6360  0DD4  0660               	xorwf	96,w	;volatile
  6361  0DD5  1D03               	btfss	3,2
  6362  0DD6  2DD8               	goto	u2211
  6363  0DD7  2DD9               	goto	u2210
  6364  0DD8                     u2211:
  6365  0DD8  2E56               	goto	l296
  6366  0DD9                     u2210:
  6367  0DD9                     l3448:
  6368                           
  6369                           ;lib/usb/usb_device.c: 2050:     {;lib/usb/usb_device.c: 2051:         inPipes[0].info.V
      +                          al = 0x00 | 0x80 | 0x40;
  6370  0DD9  30C0               	movlw	192
  6371  0DDA  00F0               	movwf	??_USBStdGetDscHandler
  6372  0DDB  0870               	movf	??_USBStdGetDscHandler,w
  6373  0DDC  0021               	movlb	1	; select bank1
  6374  0DDD  00BA               	movwf	(_inPipes^(0+128)+2)
  6375                           
  6376                           ;lib/usb/usb_device.c: 2053:         switch(SetupPkt.bDescriptorType)
  6377  0DDE  2E42               	goto	l3474
  6378  0DDF                     l3450:
  6379                           
  6380                           ;lib/usb/usb_device.c: 2059:                     inPipes[0].pSrc.bRom = (const uint8_t*)
      +                          &device_dsc;
  6381  0DDF  3016               	movlw	low (_device_dsc| (0+32768))
  6382  0DE0  0021               	movlb	1	; select bank1
  6383  0DE1  00B8               	movwf	_inPipes^(0+128)
  6384  0DE2  3098               	movlw	high (_device_dsc| (0+32768))
  6385  0DE3  00B9               	movwf	(_inPipes^(0+128)+1)
  6386                           
  6387                           ;lib/usb/usb_device.c: 2061:                 inPipes[0].wCount.Val = sizeof(device_dsc);
  6388  0DE4  3012               	movlw	18
  6389  0DE5  00BB               	movwf	(_inPipes^(0+128)+3)
  6390  0DE6  3000               	movlw	0
  6391  0DE7  00BC               	movwf	(_inPipes^(0+128)+4)
  6392                           
  6393                           ;lib/usb/usb_device.c: 2062:                 break;
  6394  0DE8  2E56               	goto	l296
  6395  0DE9                     l3452:
  6396                           
  6397                           ;lib/usb/usb_device.c: 2067:                 if(SetupPkt.bDscIndex < 1)
  6398  0DE9  0862               	movf	98,w	;volatile
  6399  0DEA  1D03               	btfss	3,2
  6400  0DEB  2DED               	goto	u2221
  6401  0DEC  2DEE               	goto	u2220
  6402  0DED                     u2221:
  6403  0DED  2E1D               	goto	l3460
  6404  0DEE                     u2220:
  6405  0DEE                     l3454:
  6406                           
  6407                           ;lib/usb/usb_device.c: 2068:                 {;lib/usb/usb_device.c: 2072:              
      +                                     inPipes[0].pSrc.bRom = *(USB_CD_Ptr+SetupPkt.bDscIndex);
  6408  0DEE  0862               	movf	98,w	;volatile
  6409  0DEF  00F0               	movwf	??_USBStdGetDscHandler
  6410  0DF0  01F1               	clrf	??_USBStdGetDscHandler+1
  6411  0DF1  35F0               	lslf	??_USBStdGetDscHandler,f
  6412  0DF2  0DF1               	rlf	??_USBStdGetDscHandler+1,f
  6413  0DF3  3032               	movlw	low (_USB_CD_Ptr| (0+32768))
  6414  0DF4  0770               	addwf	??_USBStdGetDscHandler,w
  6415  0DF5  0084               	movwf	4
  6416  0DF6  3098               	movlw	high (_USB_CD_Ptr| (0+32768))
  6417  0DF7  3D71               	addwfc	??_USBStdGetDscHandler+1,w
  6418  0DF8  0085               	movwf	5
  6419  0DF9  3F00               	moviw [0]fsr0
  6420  0DFA  0021               	movlb	1	; select bank1
  6421  0DFB  00B8               	movwf	_inPipes^(0+128)
  6422  0DFC  3F01               	moviw [1]fsr0
  6423  0DFD  00B9               	movwf	(_inPipes+1)^(0+128)
  6424  0DFE                     l3456:
  6425                           
  6426                           ;lib/usb/usb_device.c: 2078:                     inPipes[0].wCount.byte.LB = *(inPipes[0
      +                          ].pSrc.bRom+2);
  6427  0DFE  0839               	movf	(_inPipes+1)^(0+128),w
  6428  0DFF  00F1               	movwf	??_USBStdGetDscHandler+1
  6429  0E00  0838               	movf	_inPipes^(0+128),w
  6430  0E01  00F0               	movwf	??_USBStdGetDscHandler
  6431  0E02  3002               	movlw	2
  6432  0E03  0770               	addwf	??_USBStdGetDscHandler,w
  6433  0E04  0084               	movwf	4
  6434  0E05  0871               	movf	??_USBStdGetDscHandler+1,w
  6435  0E06  1803               	skipnc
  6436  0E07  0A71               	incf	??_USBStdGetDscHandler+1,w
  6437  0E08  0085               	movwf	5
  6438  0E09  0800               	movf	0,w	;code access
  6439  0E0A  00F2               	movwf	??_USBStdGetDscHandler+2
  6440  0E0B  0872               	movf	??_USBStdGetDscHandler+2,w
  6441  0E0C  00BB               	movwf	(_inPipes^(0+128)+3)
  6442  0E0D                     l3458:
  6443                           
  6444                           ;lib/usb/usb_device.c: 2079:                     inPipes[0].wCount.byte.HB = *(inPipes[0
      +                          ].pSrc.bRom+3);
  6445  0E0D  0839               	movf	(_inPipes+1)^(0+128),w
  6446  0E0E  00F1               	movwf	??_USBStdGetDscHandler+1
  6447  0E0F  0838               	movf	_inPipes^(0+128),w
  6448  0E10  00F0               	movwf	??_USBStdGetDscHandler
  6449  0E11  3003               	movlw	3
  6450  0E12  0770               	addwf	??_USBStdGetDscHandler,w
  6451  0E13  0084               	movwf	4
  6452  0E14  0871               	movf	??_USBStdGetDscHandler+1,w
  6453  0E15  1803               	skipnc
  6454  0E16  0A71               	incf	??_USBStdGetDscHandler+1,w
  6455  0E17  0085               	movwf	5
  6456  0E18  0800               	movf	0,w	;code access
  6457  0E19  00F2               	movwf	??_USBStdGetDscHandler+2
  6458  0E1A  0872               	movf	??_USBStdGetDscHandler+2,w
  6459  0E1B  00BC               	movwf	(_inPipes^(0+128)+4)
  6460                           
  6461                           ;lib/usb/usb_device.c: 2080:                 }
  6462  0E1C  2E56               	goto	l296
  6463  0E1D                     l3460:
  6464                           
  6465                           ;lib/usb/usb_device.c: 2082:     {;lib/usb/usb_device.c: 2083:      inPipes[0].info.Val 
      +                          = 0;
  6466  0E1D  0021               	movlb	1	; select bank1
  6467  0E1E  01BA               	clrf	(_inPipes^(0+128)+2)
  6468  0E1F  2E56               	goto	l296
  6469  0E20                     l3462:
  6470                           
  6471                           ;lib/usb/usb_device.c: 2090:                 if(SetupPkt.bDscIndex<3)
  6472  0E20  3003               	movlw	3
  6473  0E21  0262               	subwf	98,w	;volatile
  6474  0E22  1803               	skipnc
  6475  0E23  2E25               	goto	u2231
  6476  0E24  2E26               	goto	u2230
  6477  0E25                     u2231:
  6478  0E25  2E1D               	goto	l3460
  6479  0E26                     u2230:
  6480  0E26                     l3464:
  6481                           
  6482                           ;lib/usb/usb_device.c: 2091:                 {;lib/usb/usb_device.c: 2093:              
      +                                 inPipes[0].pSrc.bRom = *(USB_SD_Ptr+SetupPkt.bDscIndex);
  6483  0E26  0862               	movf	98,w	;volatile
  6484  0E27  00F0               	movwf	??_USBStdGetDscHandler
  6485  0E28  01F1               	clrf	??_USBStdGetDscHandler+1
  6486  0E29  35F0               	lslf	??_USBStdGetDscHandler,f
  6487  0E2A  0DF1               	rlf	??_USBStdGetDscHandler+1,f
  6488  0E2B  3028               	movlw	low (_USB_SD_Ptr| (0+32768))
  6489  0E2C  0770               	addwf	??_USBStdGetDscHandler,w
  6490  0E2D  0084               	movwf	4
  6491  0E2E  3098               	movlw	high (_USB_SD_Ptr| (0+32768))
  6492  0E2F  3D71               	addwfc	??_USBStdGetDscHandler+1,w
  6493  0E30  0085               	movwf	5
  6494  0E31  3F00               	moviw [0]fsr0
  6495  0E32  0021               	movlb	1	; select bank1
  6496  0E33  00B8               	movwf	_inPipes^(0+128)
  6497  0E34  3F01               	moviw [1]fsr0
  6498  0E35  00B9               	movwf	(_inPipes+1)^(0+128)
  6499  0E36                     l3466:
  6500                           
  6501                           ;lib/usb/usb_device.c: 2095:                     inPipes[0].wCount.Val = *inPipes[0].pSr
      +                          c.bRom;
  6502  0E36  0838               	movf	_inPipes^(0+128),w
  6503  0E37  0084               	movwf	4
  6504  0E38  0839               	movf	(_inPipes+1)^(0+128),w
  6505  0E39  0085               	movwf	5
  6506  0E3A  0800               	movf	0,w	;code access
  6507  0E3B  00F0               	movwf	??_USBStdGetDscHandler
  6508  0E3C  01F1               	clrf	??_USBStdGetDscHandler+1
  6509  0E3D  0870               	movf	??_USBStdGetDscHandler,w
  6510  0E3E  00BB               	movwf	(_inPipes^(0+128)+3)
  6511  0E3F  0871               	movf	??_USBStdGetDscHandler+1,w
  6512  0E40  00BC               	movwf	((_inPipes+1)^(0+128)+3)
  6513                           
  6514                           ;lib/usb/usb_device.c: 2096:                 }
  6515  0E41  2E56               	goto	l296
  6516  0E42                     l3474:
  6517  0E42  0020               	movlb	0	; select bank0
  6518  0E43  0863               	movf	99,w	;volatile
  6519  0E44  00F0               	movwf	??_USBStdGetDscHandler
  6520  0E45  01F1               	clrf	??_USBStdGetDscHandler+1
  6521                           
  6522                           ; Switch on 2 bytes has been partitioned into a top level switch of size 1, and 1 sub-sw
      +                          itches
  6523                           ; Switch size 1, requested type "simple"
  6524                           ; Number of cases is 1, Range of values is 0 to 0
  6525                           ; switch strategies available:
  6526                           ; Name         Instructions Cycles
  6527                           ; simple_byte            4     3 (average)
  6528                           ; direct_byte            8     6 (fixed)
  6529                           ; jumptable            260     6 (fixed)
  6530                           ;	Chosen strategy is simple_byte
  6531  0E46  0871               	movf	??_USBStdGetDscHandler+1,w
  6532  0E47  3A00               	xorlw	0	; case 0
  6533  0E48  1903               	skipnz
  6534  0E49  2E4B               	goto	l5234
  6535  0E4A  2E1D               	goto	l3460
  6536  0E4B                     l5234:
  6537                           
  6538                           ; Switch size 1, requested type "simple"
  6539                           ; Number of cases is 3, Range of values is 1 to 3
  6540                           ; switch strategies available:
  6541                           ; Name         Instructions Cycles
  6542                           ; simple_byte           10     6 (average)
  6543                           ; direct_byte           15     9 (fixed)
  6544                           ; jumptable            263     9 (fixed)
  6545                           ;	Chosen strategy is simple_byte
  6546  0E4B  0870               	movf	??_USBStdGetDscHandler,w
  6547  0E4C  3A01               	xorlw	1	; case 1
  6548  0E4D  1903               	skipnz
  6549  0E4E  2DDF               	goto	l3450
  6550  0E4F  3A03               	xorlw	3	; case 2
  6551  0E50  1903               	skipnz
  6552  0E51  2DE9               	goto	l3452
  6553  0E52  3A01               	xorlw	1	; case 3
  6554  0E53  1903               	skipnz
  6555  0E54  2E20               	goto	l3462
  6556  0E55  2E1D               	goto	l3460
  6557  0E56                     l296:
  6558  0E56  0008               	return
  6559  0E57                     __end_of_USBStdGetDscHandler:
  6560                           
  6561                           	psect	text18
  6562  0044                     __ptext18:	
  6563 ;; *************** function _USBStdFeatureReqHandler *****************
  6564 ;; Defined at:
  6565 ;;		line 2761 in file "lib/usb/usb_device.c"
  6566 ;; Parameters:    Size  Location     Type
  6567 ;;		None
  6568 ;; Auto vars:     Size  Location     Type
  6569 ;;  p               2   11[BANK1 ] PTR struct __BDT
  6570 ;;		 -> RAM(4096), NULL(0), BDT(64), 
  6571 ;;  pUEP            2    8[BANK1 ] PTR unsigned char 
  6572 ;;		 -> UEP0(1), 
  6573 ;;  current_ep_d    1   10[BANK1 ] struct .
  6574 ;; Return value:  Size  Location     Type
  6575 ;;                  1    wreg      void 
  6576 ;; Registers used:
  6577 ;;		wreg, fsr0l, fsr0h, fsr1l, fsr1h, status,2, status,0, pclath, cstack
  6578 ;; Tracked objects:
  6579 ;;		On entry : 0/0
  6580 ;;		On exit  : 0/0
  6581 ;;		Unchanged: 0/0
  6582 ;; Data sizes:     COMMON   BANK1   BANK2   BANK3   BANK4   BANK5   BANK6   BANK7   BANK8   BANK9  BANK10  BANK11  BANK1
      +2
  6583 ;;      Params:         0       0       0       0       0       0       0       0       0       0       0       0       
      +0
  6584 ;;      Locals:         0       5       0       0       0       0       0       0       0       0       0       0       
      +0
  6585 ;;      Temps:          0       2       0       0       0       0       0       0       0       0       0       0       
      +0
  6586 ;;      Totals:         0       7       0       0       0       0       0       0       0       0       0       0       
      +0
  6587 ;;Total ram usage:        7 bytes
  6588 ;; Hardware stack levels used: 1
  6589 ;; Hardware stack levels required when called: 5
  6590 ;; This function calls:
  6591 ;;		_USER_USB_CALLBACK_EVENT_HANDLER
  6592 ;; This function is called by:
  6593 ;;		_USBCheckStdRequest
  6594 ;; This function uses a non-reentrant model
  6595 ;;
  6596                           
  6597  0044                     _USBStdFeatureReqHandler:	
  6598                           ;psect for function _USBStdFeatureReqHandler
  6599                           
  6600  0044                     l3516:	
  6601                           ;incstack = 0
  6602                           ; Regs used in _USBStdFeatureReqHandler: [wreg-fsr1h+status,2+status,0+pclath+cstack]
  6603                           
  6604                           
  6605                           ;lib/usb/usb_device.c: 2763:     BDT_ENTRY *p;;lib/usb/usb_device.c: 2764:     EP_STATUS
      +                           current_ep_data;;lib/usb/usb_device.c: 2768:         unsigned char* pUEP;;lib/usb/usb_d
      +                          evice.c: 2772:     if((SetupPkt.bFeature == 1)&&
  6606  0044  0020               	movlb	0	; select bank0
  6607  0045  0362               	decf	98,w	;volatile
  6608  0046  1D03               	btfss	3,2
  6609  0047  2849               	goto	u2301
  6610  0048  284A               	goto	u2300
  6611  0049                     u2301:
  6612  0049  2860               	goto	l3528
  6613  004A                     u2300:
  6614  004A                     l3518:
  6615  004A  0860               	movf	96,w	;volatile
  6616  004B  391F               	andlw	31
  6617  004C  3A00               	xorlw	0
  6618  004D  1D03               	skipz
  6619  004E  2850               	goto	u2311
  6620  004F  2851               	goto	u2310
  6621  0050                     u2311:
  6622  0050  2860               	goto	l3528
  6623  0051                     u2310:
  6624  0051                     l3520:
  6625                           
  6626                           ;lib/usb/usb_device.c: 2774:     {;lib/usb/usb_device.c: 2775:         inPipes[0].info.b
      +                          its.busy = 1;
  6627  0051  0021               	movlb	1	; select bank1
  6628  0052  17BA               	bsf	(_inPipes^(0+128)+2),7
  6629  0053                     l3522:
  6630                           
  6631                           ;lib/usb/usb_device.c: 2776:         if(SetupPkt.bRequest == 3)
  6632  0053  3003               	movlw	3
  6633  0054  0020               	movlb	0	; select bank0
  6634  0055  0661               	xorwf	97,w	;volatile
  6635  0056  1D03               	btfss	3,2
  6636  0057  2859               	goto	u2321
  6637  0058  285A               	goto	u2320
  6638  0059                     u2321:
  6639  0059  285E               	goto	l3526
  6640  005A                     u2320:
  6641  005A                     l3524:
  6642                           
  6643                           ;lib/usb/usb_device.c: 2777:             RemoteWakeup = 1;
  6644  005A  0021               	movlb	1	; select bank1
  6645  005B  01CF               	clrf	_RemoteWakeup^(0+128)
  6646  005C  0ACF               	incf	_RemoteWakeup^(0+128),f
  6647  005D  2860               	goto	l3528
  6648  005E                     l3526:
  6649                           
  6650                           ;lib/usb/usb_device.c: 2779:             RemoteWakeup = 0;
  6651  005E  0021               	movlb	1	; select bank1
  6652  005F  01CF               	clrf	_RemoteWakeup^(0+128)
  6653  0060                     l3528:
  6654                           
  6655                           ;lib/usb/usb_device.c: 2783:     if((SetupPkt.bFeature == 0)&&
  6656  0060  0020               	movlb	0	; select bank0
  6657  0061  0862               	movf	98,w	;volatile
  6658  0062  1D03               	btfss	3,2
  6659  0063  2865               	goto	u2331
  6660  0064  2866               	goto	u2330
  6661  0065                     u2331:
  6662  0065  29AA               	goto	l401
  6663  0066                     u2330:
  6664  0066                     l3530:
  6665  0066  0860               	movf	96,w	;volatile
  6666  0067  391F               	andlw	31
  6667  0068  3A02               	xorlw	2
  6668  0069  1D03               	skipz
  6669  006A  286C               	goto	u2341
  6670  006B  286D               	goto	u2340
  6671  006C                     u2341:
  6672  006C  29AA               	goto	l401
  6673  006D                     u2340:
  6674  006D                     l3532:
  6675  006D  0864               	movf	100,w	;volatile
  6676  006E  390F               	andlw	15
  6677  006F  3A00               	xorlw	0
  6678  0070  1903               	skipnz
  6679  0071  2873               	goto	u2351
  6680  0072  2874               	goto	u2350
  6681  0073                     u2351:
  6682  0073  29AA               	goto	l401
  6683  0074                     u2350:
  6684  0074                     l3534:
  6685  0074  0864               	movf	100,w	;volatile
  6686  0075  390F               	andlw	15
  6687  0076  0021               	movlb	1	; select bank1
  6688  0077  00DF               	movwf	??_USBStdFeatureReqHandler^(0+128)
  6689  0078  3004               	movlw	4
  6690  0079  025F               	subwf	??_USBStdFeatureReqHandler^(0+128),w
  6691  007A  1803               	skipnc
  6692  007B  287D               	goto	u2361
  6693  007C  287E               	goto	u2360
  6694  007D                     u2361:
  6695  007D  29AA               	goto	l401
  6696  007E                     u2360:
  6697  007E                     l3536:
  6698  007E  3020               	movlw	32
  6699  007F  0654               	xorwf	_USBDeviceState^(0+128),w
  6700  0080  1D03               	btfss	3,2
  6701  0081  2883               	goto	u2371
  6702  0082  2884               	goto	u2370
  6703  0083                     u2371:
  6704  0083  29AA               	goto	l401
  6705  0084                     u2370:
  6706  0084                     l3538:
  6707                           
  6708                           ;lib/usb/usb_device.c: 2787:     {;lib/usb/usb_device.c: 2790:   inPipes[0].info.bits.bu
      +                          sy = 1;
  6709  0084  17BA               	bsf	(_inPipes^(0+128)+2),7
  6710                           
  6711                           ;lib/usb/usb_device.c: 2793:         if(SetupPkt.EPDir == 0)
  6712  0085  0020               	movlb	0	; select bank0
  6713  0086  1BE4               	btfsc	100,7	;volatile
  6714  0087  2889               	goto	u2381
  6715  0088  288A               	goto	u2380
  6716  0089                     u2381:
  6717  0089  28A3               	goto	l3542
  6718  008A                     u2380:
  6719  008A                     l3540:
  6720                           
  6721                           ;lib/usb/usb_device.c: 2794:         {;lib/usb/usb_device.c: 2795:             p = (BDT_
      +                          ENTRY*)pBDTEntryOut[SetupPkt.EPNum];
  6722  008A  0864               	movf	100,w	;volatile
  6723  008B  390F               	andlw	15
  6724  008C  0709               	addwf	9,w
  6725  008D  3EA0               	addlw	(low (_pBDTEntryOut| (0+256)))& (0+255)
  6726  008E  0086               	movwf	6
  6727  008F  3001               	movlw	1	; select bank3/4
  6728  0090  0087               	movwf	7
  6729  0091  3F40               	moviw [0]fsr1
  6730  0092  0021               	movlb	1	; select bank1
  6731  0093  00E4               	movwf	USBStdFeatureReqHandler@p^(0+128)
  6732  0094  3F41               	moviw [1]fsr1
  6733  0095  00E5               	movwf	(USBStdFeatureReqHandler@p+1)^(0+128)
  6734                           
  6735                           ;lib/usb/usb_device.c: 2796:             current_ep_data.Val = ep_data_out[SetupPkt.EPNu
      +                          m].Val;
  6736  0096  0020               	movlb	0	; select bank0
  6737  0097  0864               	movf	100,w	;volatile
  6738  0098  390F               	andlw	15
  6739  0099  3EAC               	addlw	(low (_ep_data_out| (0+256)))& (0+255)
  6740  009A  0086               	movwf	6
  6741  009B  3001               	movlw	1	; select bank3/4
  6742  009C  0087               	movwf	7
  6743  009D  0801               	movf	1,w
  6744  009E  0021               	movlb	1	; select bank1
  6745  009F  00DF               	movwf	??_USBStdFeatureReqHandler^(0+128)
  6746  00A0  085F               	movf	??_USBStdFeatureReqHandler^(0+128),w
  6747  00A1  00E3               	movwf	USBStdFeatureReqHandler@current_ep_data^(0+128)
  6748                           
  6749                           ;lib/usb/usb_device.c: 2797:         }
  6750  00A2  28BA               	goto	l3544
  6751  00A3                     l3542:
  6752                           
  6753                           ;lib/usb/usb_device.c: 2799:         {;lib/usb/usb_device.c: 2800:             p = (BDT_
      +                          ENTRY*)pBDTEntryIn[SetupPkt.EPNum];
  6754  00A3  0864               	movf	100,w	;volatile
  6755  00A4  390F               	andlw	15
  6756  00A5  0709               	addwf	9,w
  6757  00A6  3EB0               	addlw	(low (_pBDTEntryIn| 0))& (0+255)
  6758  00A7  0086               	movwf	6
  6759  00A8  0187               	clrf	7
  6760  00A9  3F40               	moviw [0]fsr1
  6761  00AA  0021               	movlb	1	; select bank1
  6762  00AB  00E4               	movwf	USBStdFeatureReqHandler@p^(0+128)
  6763  00AC  3F41               	moviw [1]fsr1
  6764  00AD  00E5               	movwf	(USBStdFeatureReqHandler@p+1)^(0+128)
  6765                           
  6766                           ;lib/usb/usb_device.c: 2801:             current_ep_data.Val = ep_data_in[SetupPkt.EPNum
      +                          ].Val;
  6767  00AE  0020               	movlb	0	; select bank0
  6768  00AF  0864               	movf	100,w	;volatile
  6769  00B0  390F               	andlw	15
  6770  00B1  3EB0               	addlw	(low (_ep_data_in| (0+256)))& (0+255)
  6771  00B2  0086               	movwf	6
  6772  00B3  3001               	movlw	1	; select bank3/4
  6773  00B4  0087               	movwf	7
  6774  00B5  0801               	movf	1,w
  6775  00B6  0021               	movlb	1	; select bank1
  6776  00B7  00DF               	movwf	??_USBStdFeatureReqHandler^(0+128)
  6777  00B8  085F               	movf	??_USBStdFeatureReqHandler^(0+128),w
  6778  00B9  00E3               	movwf	USBStdFeatureReqHandler@current_ep_data^(0+128)
  6779  00BA                     l3544:
  6780                           
  6781                           ;lib/usb/usb_device.c: 2808:             if(current_ep_data.bits.ping_pong_state == 0)
  6782  00BA  1863               	btfsc	USBStdFeatureReqHandler@current_ep_data^(0+128),0
  6783  00BB  28BD               	goto	u2391
  6784  00BC  28BE               	goto	u2390
  6785  00BD                     u2391:
  6786  00BD  28C9               	goto	l3548
  6787  00BE                     u2390:
  6788  00BE                     l3546:
  6789                           
  6790                           ;lib/usb/usb_device.c: 2809:             {;lib/usb/usb_device.c: 2810:                 p
      +                           = (BDT_ENTRY*)(((uint16_t)(p)) & (~0x0004u));
  6791  00BE  30FB               	movlw	251
  6792  00BF  00DF               	movwf	??_USBStdFeatureReqHandler^(0+128)
  6793  00C0  30FF               	movlw	255
  6794  00C1  00E0               	movwf	(??_USBStdFeatureReqHandler^(0+128)+1)
  6795  00C2  0864               	movf	USBStdFeatureReqHandler@p^(0+128),w
  6796  00C3  055F               	andwf	??_USBStdFeatureReqHandler^(0+128),w
  6797  00C4  00E4               	movwf	USBStdFeatureReqHandler@p^(0+128)
  6798  00C5  0865               	movf	(USBStdFeatureReqHandler@p+1)^(0+128),w
  6799  00C6  0560               	andwf	(??_USBStdFeatureReqHandler+1)^(0+128),w
  6800  00C7  00E5               	movwf	(USBStdFeatureReqHandler@p+1)^(0+128)
  6801                           
  6802                           ;lib/usb/usb_device.c: 2811:             }
  6803  00C8  28CF               	goto	l3550
  6804  00C9                     l3548:
  6805                           
  6806                           ;lib/usb/usb_device.c: 2813:             {;lib/usb/usb_device.c: 2814:                 p
      +                           = (BDT_ENTRY*)(((uint16_t)p) | 0x0004u);
  6807  00C9  3004               	movlw	4
  6808  00CA  0464               	iorwf	USBStdFeatureReqHandler@p^(0+128),w
  6809  00CB  00E4               	movwf	USBStdFeatureReqHandler@p^(0+128)
  6810  00CC  3000               	movlw	0
  6811  00CD  0465               	iorwf	(USBStdFeatureReqHandler@p+1)^(0+128),w
  6812  00CE  00E5               	movwf	(USBStdFeatureReqHandler@p+1)^(0+128)
  6813  00CF                     l3550:
  6814                           
  6815                           ;lib/usb/usb_device.c: 2820:         if(SetupPkt.EPDir == 0)
  6816  00CF  0020               	movlb	0	; select bank0
  6817  00D0  1BE4               	btfsc	100,7	;volatile
  6818  00D1  28D3               	goto	u2401
  6819  00D2  28D4               	goto	u2400
  6820  00D3                     u2401:
  6821  00D3  28E1               	goto	l3554
  6822  00D4                     u2400:
  6823  00D4                     l3552:
  6824                           
  6825                           ;lib/usb/usb_device.c: 2821:         {;lib/usb/usb_device.c: 2822:             pBDTEntry
      +                          Out[SetupPkt.EPNum] = (volatile BDT_ENTRY *)p;
  6826  00D4  0864               	movf	100,w	;volatile
  6827  00D5  390F               	andlw	15
  6828  00D6  0709               	addwf	9,w
  6829  00D7  3EA0               	addlw	(low (_pBDTEntryOut| (0+256)))& (0+255)
  6830  00D8  0086               	movwf	6
  6831  00D9  3001               	movlw	1	; select bank3/4
  6832  00DA  0087               	movwf	7
  6833  00DB  0021               	movlb	1	; select bank1
  6834  00DC  0864               	movf	USBStdFeatureReqHandler@p^(0+128),w
  6835  00DD  3FC0               	movwi [0]fsr1
  6836  00DE  0865               	movf	(USBStdFeatureReqHandler@p+1)^(0+128),w
  6837  00DF  3FC1               	movwi [1]fsr1
  6838                           
  6839                           ;lib/usb/usb_device.c: 2823:         }
  6840  00E0  28EC               	goto	l3556
  6841  00E1                     l3554:
  6842                           
  6843                           ;lib/usb/usb_device.c: 2825:         {;lib/usb/usb_device.c: 2826:             pBDTEntry
      +                          In[SetupPkt.EPNum] = (volatile BDT_ENTRY *)p;
  6844  00E1  0864               	movf	100,w	;volatile
  6845  00E2  390F               	andlw	15
  6846  00E3  0709               	addwf	9,w
  6847  00E4  3EB0               	addlw	(low (_pBDTEntryIn| 0))& (0+255)
  6848  00E5  0086               	movwf	6
  6849  00E6  0187               	clrf	7
  6850  00E7  0021               	movlb	1	; select bank1
  6851  00E8  0864               	movf	USBStdFeatureReqHandler@p^(0+128),w
  6852  00E9  3FC0               	movwi [0]fsr1
  6853  00EA  0865               	movf	(USBStdFeatureReqHandler@p+1)^(0+128),w
  6854  00EB  3FC1               	movwi [1]fsr1
  6855  00EC                     l3556:
  6856                           
  6857                           ;lib/usb/usb_device.c: 2830:         if(SetupPkt.bRequest == 3)
  6858  00EC  3003               	movlw	3
  6859  00ED  0020               	movlb	0	; select bank0
  6860  00EE  0661               	xorwf	97,w	;volatile
  6861  00EF  1D03               	btfss	3,2
  6862  00F0  28F2               	goto	u2411
  6863  00F1  28F3               	goto	u2410
  6864  00F2                     u2411:
  6865  00F2  291C               	goto	l3570
  6866  00F3                     u2410:
  6867  00F3                     l3558:
  6868                           
  6869                           ;lib/usb/usb_device.c: 2831:         {;lib/usb/usb_device.c: 2832:             if(p->STA
      +                          T.UOWN == 1)
  6870  00F3  0021               	movlb	1	; select bank1
  6871  00F4  0864               	movf	USBStdFeatureReqHandler@p^(0+128),w
  6872  00F5  0086               	movwf	6
  6873  00F6  0865               	movf	(USBStdFeatureReqHandler@p+1)^(0+128),w
  6874  00F7  0087               	movwf	7
  6875  00F8  1F81               	btfss	1,7
  6876  00F9  28FB               	goto	u2421
  6877  00FA  28FC               	goto	u2420
  6878  00FB                     u2421:
  6879  00FB  2910               	goto	l3566
  6880  00FC                     u2420:
  6881  00FC                     l3560:
  6882                           
  6883                           ;lib/usb/usb_device.c: 2833:             {;lib/usb/usb_device.c: 2836:                 i
      +                          f(SetupPkt.EPDir == 0)
  6884  00FC  0020               	movlb	0	; select bank0
  6885  00FD  1BE4               	btfsc	100,7	;volatile
  6886  00FE  2900               	goto	u2431
  6887  00FF  2901               	goto	u2430
  6888  0100                     u2431:
  6889  0100  2909               	goto	l3564
  6890  0101                     u2430:
  6891  0101                     l3562:
  6892                           
  6893                           ;lib/usb/usb_device.c: 2837:                 {;lib/usb/usb_device.c: 2838:              
      +                                 ep_data_out[SetupPkt.EPNum].bits.transfer_terminated = 1;
  6894  0101  0864               	movf	100,w	;volatile
  6895  0102  390F               	andlw	15
  6896  0103  3EAC               	addlw	(low (_ep_data_out| (0+256)))& (0+255)
  6897  0104  0086               	movwf	6
  6898  0105  3001               	movlw	1	; select bank3/4
  6899  0106  0087               	movwf	7
  6900  0107  1481               	bsf	1,1
  6901                           
  6902                           ;lib/usb/usb_device.c: 2839:                 }
  6903  0108  2910               	goto	l3566
  6904  0109                     l3564:
  6905                           
  6906                           ;lib/usb/usb_device.c: 2841:                 {;lib/usb/usb_device.c: 2842:              
      +                                 ep_data_in[SetupPkt.EPNum].bits.transfer_terminated = 1;
  6907  0109  0864               	movf	100,w	;volatile
  6908  010A  390F               	andlw	15
  6909  010B  3EB0               	addlw	(low (_ep_data_in| (0+256)))& (0+255)
  6910  010C  0086               	movwf	6
  6911  010D  3001               	movlw	1	; select bank3/4
  6912  010E  0087               	movwf	7
  6913  010F  1481               	bsf	1,1
  6914  0110                     l3566:
  6915                           
  6916                           ;lib/usb/usb_device.c: 2847:             p->STAT.Val |= 0x04;
  6917  0110  0021               	movlb	1	; select bank1
  6918  0111  0864               	movf	USBStdFeatureReqHandler@p^(0+128),w
  6919  0112  0086               	movwf	6
  6920  0113  0865               	movf	(USBStdFeatureReqHandler@p+1)^(0+128),w
  6921  0114  0087               	movwf	7
  6922  0115  1501               	bsf	1,2
  6923  0116                     l3568:
  6924                           
  6925                           ;lib/usb/usb_device.c: 2848:             p->STAT.Val |= 0x80;
  6926  0116  0864               	movf	USBStdFeatureReqHandler@p^(0+128),w
  6927  0117  0086               	movwf	6
  6928  0118  0865               	movf	(USBStdFeatureReqHandler@p+1)^(0+128),w
  6929  0119  0087               	movwf	7
  6930  011A  1781               	bsf	1,7
  6931                           
  6932                           ;lib/usb/usb_device.c: 2849:         }
  6933  011B  29AA               	goto	l401
  6934  011C                     l3570:
  6935                           
  6936                           ;lib/usb/usb_device.c: 2851:         {;lib/usb/usb_device.c: 2855:                 p = (
      +                          BDT_ENTRY*)(((uint16_t)p) ^ 0x0004u);
  6937  011C  3004               	movlw	4
  6938  011D  0021               	movlb	1	; select bank1
  6939  011E  0664               	xorwf	USBStdFeatureReqHandler@p^(0+128),w
  6940  011F  00E4               	movwf	USBStdFeatureReqHandler@p^(0+128)
  6941  0120  3000               	movlw	0
  6942  0121  0665               	xorwf	(USBStdFeatureReqHandler@p+1)^(0+128),w
  6943  0122  00E5               	movwf	(USBStdFeatureReqHandler@p+1)^(0+128)
  6944  0123                     l3572:
  6945                           
  6946                           ;lib/usb/usb_device.c: 2857:                 if(p->STAT.UOWN == 1)
  6947  0123  0864               	movf	USBStdFeatureReqHandler@p^(0+128),w
  6948  0124  0086               	movwf	6
  6949  0125  0865               	movf	(USBStdFeatureReqHandler@p+1)^(0+128),w
  6950  0126  0087               	movwf	7
  6951  0127  1F81               	btfss	1,7
  6952  0128  292A               	goto	u2441
  6953  0129  292B               	goto	u2440
  6954  012A                     u2441:
  6955  012A  2948               	goto	l3580
  6956  012B                     u2440:
  6957  012B                     l3574:
  6958                           
  6959                           ;lib/usb/usb_device.c: 2858:                 {;lib/usb/usb_device.c: 2861:              
      +                                 p->STAT.Val &= (~0x80);
  6960  012B  307F               	movlw	127
  6961  012C  00DF               	movwf	??_USBStdFeatureReqHandler^(0+128)
  6962  012D  0864               	movf	USBStdFeatureReqHandler@p^(0+128),w
  6963  012E  0086               	movwf	6
  6964  012F  0865               	movf	(USBStdFeatureReqHandler@p+1)^(0+128),w
  6965  0130  0087               	movwf	7
  6966  0131  085F               	movf	??_USBStdFeatureReqHandler^(0+128),w
  6967  0132  0581               	andwf	1,f
  6968  0133                     l3576:
  6969                           
  6970                           ;lib/usb/usb_device.c: 2862:                     p->STAT.Val |= 0x40;
  6971  0133  0864               	movf	USBStdFeatureReqHandler@p^(0+128),w
  6972  0134  0086               	movwf	6
  6973  0135  0865               	movf	(USBStdFeatureReqHandler@p+1)^(0+128),w
  6974  0136  0087               	movwf	7
  6975  0137  1701               	bsf	1,6
  6976  0138                     l3578:
  6977                           
  6978                           ;lib/usb/usb_device.c: 2863:                     USER_USB_CALLBACK_EVENT_HANDLER((USB_EV
      +                          ENT)EVENT_TRANSFER_TERMINATED,p,sizeof(p));
  6979  0138  3005               	movlw	5
  6980  0139  00D9               	movwf	USER_USB_CALLBACK_EVENT_HANDLER@event^(0+128)
  6981  013A  3000               	movlw	0
  6982  013B  00DA               	movwf	(USER_USB_CALLBACK_EVENT_HANDLER@event^(0+128)+1)
  6983  013C  0865               	movf	(USBStdFeatureReqHandler@p+1)^(0+128),w
  6984  013D  00DC               	movwf	(USER_USB_CALLBACK_EVENT_HANDLER@pdata+1)^(0+128)
  6985  013E  0864               	movf	USBStdFeatureReqHandler@p^(0+128),w
  6986  013F  00DB               	movwf	USER_USB_CALLBACK_EVENT_HANDLER@pdata^(0+128)
  6987  0140  3002               	movlw	2
  6988  0141  00DD               	movwf	USER_USB_CALLBACK_EVENT_HANDLER@size^(0+128)
  6989  0142  3000               	movlw	0
  6990  0143  00DE               	movwf	(USER_USB_CALLBACK_EVENT_HANDLER@size^(0+128)+1)
  6991  0144  318A  222E  3180   	fcall	_USER_USB_CALLBACK_EVENT_HANDLER
  6992                           
  6993                           ;lib/usb/usb_device.c: 2864:                 }
  6994  0147  294D               	goto	l3582
  6995  0148                     l3580:
  6996                           
  6997                           ;lib/usb/usb_device.c: 2866:                 {;lib/usb/usb_device.c: 2868:      p->STAT.
      +                          Val |= 0x40;
  6998  0148  0864               	movf	USBStdFeatureReqHandler@p^(0+128),w
  6999  0149  0086               	movwf	6
  7000  014A  0865               	movf	(USBStdFeatureReqHandler@p+1)^(0+128),w
  7001  014B  0087               	movwf	7
  7002  014C  1701               	bsf	1,6
  7003  014D                     l3582:
  7004                           
  7005                           ;lib/usb/usb_device.c: 2873:                 p = (BDT_ENTRY*)(((uint16_t)p) ^ 0x0004u);
  7006  014D  3004               	movlw	4
  7007  014E  0021               	movlb	1	; select bank1
  7008  014F  0664               	xorwf	USBStdFeatureReqHandler@p^(0+128),w
  7009  0150  00E4               	movwf	USBStdFeatureReqHandler@p^(0+128)
  7010  0151  3000               	movlw	0
  7011  0152  0665               	xorwf	(USBStdFeatureReqHandler@p+1)^(0+128),w
  7012  0153  00E5               	movwf	(USBStdFeatureReqHandler@p+1)^(0+128)
  7013  0154                     l3584:
  7014                           
  7015                           ;lib/usb/usb_device.c: 2879:                 if((current_ep_data.bits.transfer_terminate
      +                          d != 0) || (p->STAT.UOWN == 1))
  7016  0154  18E3               	btfsc	USBStdFeatureReqHandler@current_ep_data^(0+128),1
  7017  0155  2957               	goto	u2451
  7018  0156  2958               	goto	u2450
  7019  0157                     u2451:
  7020  0157  2960               	goto	l397
  7021  0158                     u2450:
  7022  0158                     l3586:
  7023  0158  0864               	movf	USBStdFeatureReqHandler@p^(0+128),w
  7024  0159  0086               	movwf	6
  7025  015A  0865               	movf	(USBStdFeatureReqHandler@p+1)^(0+128),w
  7026  015B  0087               	movwf	7
  7027  015C  1F81               	btfss	1,7
  7028  015D  295F               	goto	u2461
  7029  015E  2960               	goto	u2460
  7030  015F                     u2461:
  7031  015F  298D               	goto	l3594
  7032  0160                     u2460:
  7033  0160                     l397:
  7034                           
  7035                           ;lib/usb/usb_device.c: 2880:                 {;lib/usb/usb_device.c: 2881:              
      +                                 if(SetupPkt.EPDir == 0)
  7036  0160  0020               	movlb	0	; select bank0
  7037  0161  1BE4               	btfsc	100,7	;volatile
  7038  0162  2964               	goto	u2471
  7039  0163  2965               	goto	u2470
  7040  0164                     u2471:
  7041  0164  296D               	goto	l3590
  7042  0165                     u2470:
  7043  0165                     l3588:
  7044                           
  7045                           ;lib/usb/usb_device.c: 2882:                     {;lib/usb/usb_device.c: 2883:          
      +                                         ep_data_out[SetupPkt.EPNum].bits.transfer_terminated = 0;
  7046  0165  0864               	movf	100,w	;volatile
  7047  0166  390F               	andlw	15
  7048  0167  3EAC               	addlw	(low (_ep_data_out| (0+256)))& (0+255)
  7049  0168  0086               	movwf	6
  7050  0169  3001               	movlw	1	; select bank3/4
  7051  016A  0087               	movwf	7
  7052  016B  1081               	bcf	1,1
  7053                           
  7054                           ;lib/usb/usb_device.c: 2884:                     }
  7055  016C  2974               	goto	l399
  7056  016D                     l3590:
  7057                           
  7058                           ;lib/usb/usb_device.c: 2886:                     {;lib/usb/usb_device.c: 2887:          
      +                                         ep_data_in[SetupPkt.EPNum].bits.transfer_terminated = 0;
  7059  016D  0864               	movf	100,w	;volatile
  7060  016E  390F               	andlw	15
  7061  016F  3EB0               	addlw	(low (_ep_data_in| (0+256)))& (0+255)
  7062  0170  0086               	movwf	6
  7063  0171  3001               	movlw	1	; select bank3/4
  7064  0172  0087               	movwf	7
  7065  0173  1081               	bcf	1,1
  7066  0174                     l399:	
  7067                           ;lib/usb/usb_device.c: 2888:                     }
  7068                           
  7069                           
  7070                           ;lib/usb/usb_device.c: 2890:                     p->STAT.Val &= ~(0x80 | 0x40 | 0x04);
  7071  0174  303B               	movlw	59
  7072  0175  0021               	movlb	1	; select bank1
  7073  0176  00DF               	movwf	??_USBStdFeatureReqHandler^(0+128)
  7074  0177  0864               	movf	USBStdFeatureReqHandler@p^(0+128),w
  7075  0178  0086               	movwf	6
  7076  0179  0865               	movf	(USBStdFeatureReqHandler@p+1)^(0+128),w
  7077  017A  0087               	movwf	7
  7078  017B  085F               	movf	??_USBStdFeatureReqHandler^(0+128),w
  7079  017C  0581               	andwf	1,f
  7080  017D                     l3592:
  7081                           
  7082                           ;lib/usb/usb_device.c: 2893:                     USER_USB_CALLBACK_EVENT_HANDLER((USB_EV
      +                          ENT)EVENT_TRANSFER_TERMINATED,p,sizeof(p));
  7083  017D  3005               	movlw	5
  7084  017E  00D9               	movwf	USER_USB_CALLBACK_EVENT_HANDLER@event^(0+128)
  7085  017F  3000               	movlw	0
  7086  0180  00DA               	movwf	(USER_USB_CALLBACK_EVENT_HANDLER@event^(0+128)+1)
  7087  0181  0865               	movf	(USBStdFeatureReqHandler@p+1)^(0+128),w
  7088  0182  00DC               	movwf	(USER_USB_CALLBACK_EVENT_HANDLER@pdata+1)^(0+128)
  7089  0183  0864               	movf	USBStdFeatureReqHandler@p^(0+128),w
  7090  0184  00DB               	movwf	USER_USB_CALLBACK_EVENT_HANDLER@pdata^(0+128)
  7091  0185  3002               	movlw	2
  7092  0186  00DD               	movwf	USER_USB_CALLBACK_EVENT_HANDLER@size^(0+128)
  7093  0187  3000               	movlw	0
  7094  0188  00DE               	movwf	(USER_USB_CALLBACK_EVENT_HANDLER@size^(0+128)+1)
  7095  0189  318A  222E  3180   	fcall	_USER_USB_CALLBACK_EVENT_HANDLER
  7096                           
  7097                           ;lib/usb/usb_device.c: 2894:                 }
  7098  018C  2995               	goto	l3596
  7099  018D                     l3594:
  7100                           
  7101                           ;lib/usb/usb_device.c: 2896:                 {;lib/usb/usb_device.c: 2898:              
      +                                 p->STAT.Val &= ~(0x80 | 0x40 | 0x04);
  7102  018D  303B               	movlw	59
  7103  018E  00DF               	movwf	??_USBStdFeatureReqHandler^(0+128)
  7104  018F  0864               	movf	USBStdFeatureReqHandler@p^(0+128),w
  7105  0190  0086               	movwf	6
  7106  0191  0865               	movf	(USBStdFeatureReqHandler@p+1)^(0+128),w
  7107  0192  0087               	movwf	7
  7108  0193  085F               	movf	??_USBStdFeatureReqHandler^(0+128),w
  7109  0194  0581               	andwf	1,f
  7110  0195                     l3596:
  7111                           
  7112                           ;lib/usb/usb_device.c: 2946:                 pUEP = (unsigned char*)(&UEP0+SetupPkt.EPNu
      +                          m);
  7113  0195  0020               	movlb	0	; select bank0
  7114  0196  0864               	movf	100,w	;volatile
  7115  0197  390F               	andlw	15
  7116  0198  3E98               	addlw	152
  7117  0199  0021               	movlb	1	; select bank1
  7118  019A  00DF               	movwf	??_USBStdFeatureReqHandler^(0+128)
  7119  019B  01E0               	clrf	(??_USBStdFeatureReqHandler^(0+128)+1)
  7120  019C  300E               	movlw	14
  7121  019D  3DE0               	addwfc	(??_USBStdFeatureReqHandler^(0+128)+1),f
  7122  019E  085F               	movf	??_USBStdFeatureReqHandler^(0+128),w
  7123  019F  00E1               	movwf	USBStdFeatureReqHandler@pUEP^(0+128)
  7124  01A0  0860               	movf	(??_USBStdFeatureReqHandler+1)^(0+128),w
  7125  01A1  00E2               	movwf	(USBStdFeatureReqHandler@pUEP+1)^(0+128)
  7126  01A2                     l3598:
  7127                           
  7128                           ;lib/usb/usb_device.c: 2950:             *pUEP &= ~0x0001;
  7129  01A2  30FE               	movlw	254
  7130  01A3  00DF               	movwf	??_USBStdFeatureReqHandler^(0+128)
  7131  01A4  0861               	movf	USBStdFeatureReqHandler@pUEP^(0+128),w
  7132  01A5  0086               	movwf	6
  7133  01A6  0862               	movf	(USBStdFeatureReqHandler@pUEP+1)^(0+128),w
  7134  01A7  0087               	movwf	7
  7135  01A8  085F               	movf	??_USBStdFeatureReqHandler^(0+128),w
  7136  01A9  0581               	andwf	1,f
  7137  01AA                     l401:
  7138  01AA  0008               	return
  7139  01AB                     __end_of_USBStdFeatureReqHandler:
  7140                           
  7141                           	psect	text19
  7142  0A2E                     __ptext19:	
  7143 ;; *************** function _USER_USB_CALLBACK_EVENT_HANDLER *****************
  7144 ;; Defined at:
  7145 ;;		line 50 in file "lib/usb/usb_events.c"
  7146 ;; Parameters:    Size  Location     Type
  7147 ;;  event           2    0[BANK1 ] enum E2426
  7148 ;;  pdata           2    2[BANK1 ] PTR void 
  7149 ;;		 -> RAM(4096), USTATcopy(1), USBActiveConfiguration(1), NULL(0), 
  7150 ;;		 -> BDT(64), 
  7151 ;;  size            2    4[BANK1 ] unsigned short 
  7152 ;; Auto vars:     Size  Location     Type
  7153 ;;		None
  7154 ;; Return value:  Size  Location     Type
  7155 ;;                  1    wreg      _Bool 
  7156 ;; Registers used:
  7157 ;;		wreg, fsr0l, fsr0h, fsr1l, fsr1h, status,2, status,0, pclath, cstack
  7158 ;; Tracked objects:
  7159 ;;		On entry : 0/0
  7160 ;;		On exit  : 0/0
  7161 ;;		Unchanged: 0/0
  7162 ;; Data sizes:     COMMON   BANK1   BANK2   BANK3   BANK4   BANK5   BANK6   BANK7   BANK8   BANK9  BANK10  BANK11  BANK1
      +2
  7163 ;;      Params:         0       6       0       0       0       0       0       0       0       0       0       0       
      +0
  7164 ;;      Locals:         0       0       0       0       0       0       0       0       0       0       0       0       
      +0
  7165 ;;      Temps:          0       0       0       0       0       0       0       0       0       0       0       0       
      +0
  7166 ;;      Totals:         0       6       0       0       0       0       0       0       0       0       0       0       
      +0
  7167 ;;Total ram usage:        6 bytes
  7168 ;; Hardware stack levels used: 1
  7169 ;; Hardware stack levels required when called: 4
  7170 ;; This function calls:
  7171 ;;		_APP_DeviceJoystickInitialize
  7172 ;;		_APP_LEDUpdateUSBStatus
  7173 ;;		_SYSTEM_Initialize
  7174 ;;		_USBCheckHIDRequest
  7175 ;; This function is called by:
  7176 ;;		_USBDeviceTasks
  7177 ;;		_USBStdSetCfgHandler
  7178 ;;		_USBSuspend
  7179 ;;		_USBWakeFromSuspend
  7180 ;;		_USBCtrlTrfSetupHandler
  7181 ;;		_USBCheckStdRequest
  7182 ;;		_USBStdFeatureReqHandler
  7183 ;; This function uses a non-reentrant model
  7184 ;;
  7185                           
  7186  0A2E                     _USER_USB_CALLBACK_EVENT_HANDLER:	
  7187                           ;psect for function _USER_USB_CALLBACK_EVENT_HANDLER
  7188                           
  7189  0A2E                     l3224:	
  7190                           ;incstack = 0
  7191                           ; Regs used in _USER_USB_CALLBACK_EVENT_HANDLER: [wreg-fsr1h+status,2+status,0+pclath+cs
      +                          tack]
  7192                           
  7193                           
  7194                           ;lib/usb/usb_events.c: 50: _Bool USER_USB_CALLBACK_EVENT_HANDLER(USB_EVENT event, void *
      +                          pdata, uint16_t size);lib/usb/usb_events.c: 51: {;lib/usb/usb_events.c: 52:     switch( 
      +                          (int) event )
  7195  0A2E  2A4B               	goto	l3238
  7196  0A2F                     l3226:
  7197                           
  7198                           ;lib/usb/usb_events.c: 60:             APP_LEDUpdateUSBStatus();
  7199  0A2F  318B  2327  318A   	fcall	_APP_LEDUpdateUSBStatus
  7200                           
  7201                           ;lib/usb/usb_events.c: 61:             break;
  7202  0A32  2A73               	goto	l486
  7203  0A33                     l3228:
  7204                           
  7205                           ;lib/usb/usb_events.c: 65:             APP_LEDUpdateUSBStatus();
  7206  0A33  318B  2327  318A   	fcall	_APP_LEDUpdateUSBStatus
  7207                           
  7208                           ;lib/usb/usb_events.c: 73:             SYSTEM_Initialize(SYSTEM_STATE_USB_SUSPEND);
  7209  0A36  3001               	movlw	1
  7210  0A37  3188  2022  318A   	fcall	_SYSTEM_Initialize
  7211                           
  7212                           ;lib/usb/usb_events.c: 74:             break;
  7213  0A3A  2A73               	goto	l486
  7214  0A3B                     l3230:
  7215                           
  7216                           ;lib/usb/usb_events.c: 78:             APP_LEDUpdateUSBStatus();
  7217  0A3B  318B  2327  318A   	fcall	_APP_LEDUpdateUSBStatus
  7218                           
  7219                           ;lib/usb/usb_events.c: 84:             SYSTEM_Initialize(SYSTEM_STATE_USB_RESUME);
  7220  0A3E  3002               	movlw	2
  7221  0A3F  3188  2022  318A   	fcall	_SYSTEM_Initialize
  7222                           
  7223                           ;lib/usb/usb_events.c: 85:             break;
  7224  0A42  2A73               	goto	l486
  7225  0A43                     l3232:
  7226                           
  7227                           ;lib/usb/usb_events.c: 90:             APP_DeviceJoystickInitialize();
  7228  0A43  3188  20EF  318A   	fcall	_APP_DeviceJoystickInitialize
  7229                           
  7230                           ;lib/usb/usb_events.c: 91:             break;
  7231  0A46  2A73               	goto	l486
  7232  0A47                     l3234:
  7233                           
  7234                           ;lib/usb/usb_events.c: 99:             USBCheckHIDRequest();
  7235  0A47  3182  22DA  318A   	fcall	_USBCheckHIDRequest
  7236                           
  7237                           ;lib/usb/usb_events.c: 100:             break;
  7238  0A4A  2A73               	goto	l486
  7239  0A4B                     l3238:
  7240                           
  7241                           ; Switch on 2 bytes has been partitioned into a top level switch of size 1, and 2 sub-sw
      +                          itches
  7242                           ; Switch size 1, requested type "simple"
  7243                           ; Number of cases is 2, Range of values is 0 to 127
  7244                           ; switch strategies available:
  7245                           ; Name         Instructions Cycles
  7246                           ; simple_byte            7     4 (average)
  7247                           ; direct_byte          262     6 (fixed)
  7248                           ; jumptable            260     6 (fixed)
  7249                           ;	Chosen strategy is simple_byte
  7250  0A4B  0021               	movlb	1	; select bank1
  7251  0A4C  085A               	movf	(USER_USB_CALLBACK_EVENT_HANDLER@event+1)^(0+128),w
  7252  0A4D  3A00               	xorlw	0	; case 0
  7253  0A4E  1903               	skipnz
  7254  0A4F  2A54               	goto	l5236
  7255  0A50  3A7F               	xorlw	127	; case 127
  7256  0A51  1903               	skipnz
  7257  0A52  2A6E               	goto	l5238
  7258  0A53  2A73               	goto	l486
  7259  0A54                     l5236:
  7260                           
  7261                           ; Switch size 1, requested type "simple"
  7262                           ; Number of cases is 8, Range of values is 1 to 117
  7263                           ; switch strategies available:
  7264                           ; Name         Instructions Cycles
  7265                           ; simple_byte           25    13 (average)
  7266                           ; direct_byte          243     9 (fixed)
  7267                           ; jumptable            263     9 (fixed)
  7268                           ;	Chosen strategy is simple_byte
  7269  0A54  0859               	movf	USER_USB_CALLBACK_EVENT_HANDLER@event^(0+128),w
  7270  0A55  3A01               	xorlw	1	; case 1
  7271  0A56  1903               	skipnz
  7272  0A57  2A43               	goto	l3232
  7273  0A58  3A03               	xorlw	3	; case 2
  7274  0A59  1903               	skipnz
  7275  0A5A  2A73               	goto	l486
  7276  0A5B  3A01               	xorlw	1	; case 3
  7277  0A5C  1903               	skipnz
  7278  0A5D  2A47               	goto	l3234
  7279  0A5E  3A06               	xorlw	6	; case 5
  7280  0A5F  1903               	skipnz
  7281  0A60  2A73               	goto	l486
  7282  0A61  3A77               	xorlw	119	; case 114
  7283  0A62  1903               	skipnz
  7284  0A63  2A73               	goto	l486
  7285  0A64  3A01               	xorlw	1	; case 115
  7286  0A65  1903               	skipnz
  7287  0A66  2A2F               	goto	l3226
  7288  0A67  3A07               	xorlw	7	; case 116
  7289  0A68  1903               	skipnz
  7290  0A69  2A3B               	goto	l3230
  7291  0A6A  3A01               	xorlw	1	; case 117
  7292  0A6B  1903               	skipnz
  7293  0A6C  2A33               	goto	l3228
  7294  0A6D  2A73               	goto	l486
  7295  0A6E                     l5238:
  7296                           
  7297                           ; Switch size 1, requested type "simple"
  7298                           ; Number of cases is 1, Range of values is 255 to 255
  7299                           ; switch strategies available:
  7300                           ; Name         Instructions Cycles
  7301                           ; simple_byte            4     3 (average)
  7302                           ; direct_byte            7     5 (fixed)
  7303                           ; jumptable            263     9 (fixed)
  7304                           ;	Chosen strategy is simple_byte
  7305  0A6E  0859               	movf	USER_USB_CALLBACK_EVENT_HANDLER@event^(0+128),w
  7306  0A6F  3AFF               	xorlw	255	; case 255
  7307  0A70  1903               	skipnz
  7308  0A71  2A73               	goto	l486
  7309  0A72  2A73               	goto	l486
  7310  0A73                     l486:
  7311  0A73  0008               	return
  7312  0A74                     __end_of_USER_USB_CALLBACK_EVENT_HANDLER:
  7313                           
  7314                           	psect	text20
  7315  02DA                     __ptext20:	
  7316 ;; *************** function _USBCheckHIDRequest *****************
  7317 ;; Defined at:
  7318 ;;		line 163 in file "lib/usb/usb_device_hid.c"
  7319 ;; Parameters:    Size  Location     Type
  7320 ;;		None
  7321 ;; Auto vars:     Size  Location     Type
  7322 ;;		None
  7323 ;; Return value:  Size  Location     Type
  7324 ;;                  1    wreg      void 
  7325 ;; Registers used:
  7326 ;;		wreg, fsr0l, fsr0h, status,2, status,0
  7327 ;; Tracked objects:
  7328 ;;		On entry : 0/0
  7329 ;;		On exit  : 0/0
  7330 ;;		Unchanged: 0/0
  7331 ;; Data sizes:     COMMON   BANK1   BANK2   BANK3   BANK4   BANK5   BANK6   BANK7   BANK8   BANK9  BANK10  BANK11  BANK1
      +2
  7332 ;;      Params:         0       0       0       0       0       0       0       0       0       0       0       0       
      +0
  7333 ;;      Locals:         0       0       0       0       0       0       0       0       0       0       0       0       
      +0
  7334 ;;      Temps:          2       0       0       0       0       0       0       0       0       0       0       0       
      +0
  7335 ;;      Totals:         2       0       0       0       0       0       0       0       0       0       0       0       
      +0
  7336 ;;Total ram usage:        2 bytes
  7337 ;; Hardware stack levels used: 1
  7338 ;; Hardware stack levels required when called: 1
  7339 ;; This function calls:
  7340 ;;		Nothing
  7341 ;; This function is called by:
  7342 ;;		_USER_USB_CALLBACK_EVENT_HANDLER
  7343 ;; This function uses a non-reentrant model
  7344 ;;
  7345                           
  7346  02DA                     _USBCheckHIDRequest:	
  7347                           ;psect for function _USBCheckHIDRequest
  7348                           
  7349  02DA                     l3080:	
  7350                           ;incstack = 0
  7351                           ; Regs used in _USBCheckHIDRequest: [wreg-fsr0h+status,2+status,0]
  7352                           
  7353                           
  7354                           ;lib/usb/usb_device_hid.c: 165:     if(SetupPkt.Recipient != (0x01)) return;
  7355  02DA  0020               	movlb	0	; select bank0
  7356  02DB  0860               	movf	96,w	;volatile
  7357  02DC  391F               	andlw	31
  7358  02DD  3A01               	xorlw	1
  7359  02DE  1903               	skipnz
  7360  02DF  2AE1               	goto	u1801
  7361  02E0  2AE2               	goto	u1800
  7362  02E1                     u1801:
  7363  02E1  2AE3               	goto	l3084
  7364  02E2                     u1800:
  7365  02E2  2BF0               	goto	l431
  7366  02E3                     l3084:
  7367                           
  7368                           ;lib/usb/usb_device_hid.c: 166:     if(SetupPkt.bIntfID != 0x00 && SetupPkt.bIntfID != 0
      +                          x01 && SetupPkt.bIntfID != 0x02 ) return;
  7369  02E3  0864               	movf	100,w	;volatile
  7370  02E4  1903               	btfsc	3,2
  7371  02E5  2AE7               	goto	u1811
  7372  02E6  2AE8               	goto	u1810
  7373  02E7                     u1811:
  7374  02E7  2AF4               	goto	l3092
  7375  02E8                     u1810:
  7376  02E8                     l3086:
  7377  02E8  0364               	decf	100,w	;volatile
  7378  02E9  1903               	btfsc	3,2
  7379  02EA  2AEC               	goto	u1821
  7380  02EB  2AED               	goto	u1820
  7381  02EC                     u1821:
  7382  02EC  2AF4               	goto	l3092
  7383  02ED                     u1820:
  7384  02ED                     l3088:
  7385  02ED  3002               	movlw	2
  7386  02EE  0664               	xorwf	100,w	;volatile
  7387  02EF  1903               	btfsc	3,2
  7388  02F0  2AF2               	goto	u1831
  7389  02F1  2AF3               	goto	u1830
  7390  02F2                     u1831:
  7391  02F2  2AF4               	goto	l3092
  7392  02F3                     u1830:
  7393  02F3  2BF0               	goto	l431
  7394  02F4                     l3092:
  7395                           
  7396                           ;lib/usb/usb_device_hid.c: 173:     if(SetupPkt.bRequest == 6)
  7397  02F4  3006               	movlw	6
  7398  02F5  0661               	xorwf	97,w	;volatile
  7399  02F6  1D03               	btfss	3,2
  7400  02F7  2AF9               	goto	u1841
  7401  02F8  2AFA               	goto	u1840
  7402  02F9                     u1841:
  7403  02F9  2B96               	goto	l3128
  7404  02FA                     u1840:
  7405  02FA  2B83               	goto	l3126
  7406  02FB                     l3096:
  7407                           
  7408                           ;lib/usb/usb_device_hid.c: 178:                 if(USBActiveConfiguration == 1)
  7409  02FB  0021               	movlb	1	; select bank1
  7410  02FC  0358               	decf	_USBActiveConfiguration^(0+128),w
  7411  02FD  1D03               	btfss	3,2
  7412  02FE  2B00               	goto	u1851
  7413  02FF  2B01               	goto	u1850
  7414  0300                     u1851:
  7415  0300  2B96               	goto	l3128
  7416  0301                     u1850:
  7417  0301                     l3098:
  7418                           
  7419                           ;lib/usb/usb_device_hid.c: 179:                 {;lib/usb/usb_device_hid.c: 180:        
      +                                       if(SetupPkt.wIndex == 0x00)
  7420  0301  0020               	movlb	0	; select bank0
  7421  0302  0864               	movf	100,w	;volatile
  7422  0303  0465               	iorwf	101,w	;volatile
  7423  0304  1D03               	btfss	3,2
  7424  0305  2B07               	goto	u1861
  7425  0306  2B08               	goto	u1860
  7426  0307                     u1861:
  7427  0307  2B15               	goto	l3102
  7428  0308                     u1860:
  7429  0308                     l3100:
  7430                           
  7431                           ;lib/usb/usb_device_hid.c: 181:                         { inPipes[0].pSrc.bRom = (const 
      +                          uint8_t*)&configDescriptor1 + 18; inPipes[0].wCount.Val = sizeof(USB_HID_DSC)+3; inPipes
      +                          [0].info.Val = 0x40 | 0x80 | 0x00; };
  7432  0308  3012               	movlw	low ((_configDescriptor1| (0+32768)+18))
  7433  0309  0021               	movlb	1	; select bank1
  7434  030A  00B8               	movwf	_inPipes^(0+128)
  7435  030B  3090               	movlw	high ((_configDescriptor1| (0+32768)+18))
  7436  030C  00B9               	movwf	(_inPipes^(0+128)+1)
  7437  030D  3009               	movlw	9
  7438  030E  00BB               	movwf	(_inPipes^(0+128)+3)
  7439  030F  3000               	movlw	0
  7440  0310  00BC               	movwf	(_inPipes^(0+128)+4)
  7441  0311  30C0               	movlw	192
  7442  0312  00F0               	movwf	??_USBCheckHIDRequest
  7443  0313  0870               	movf	??_USBCheckHIDRequest,w
  7444  0314  00BA               	movwf	(_inPipes^(0+128)+2)
  7445  0315                     l3102:
  7446                           
  7447                           ;lib/usb/usb_device_hid.c: 185:                     if(SetupPkt.wIndex == 0x01)
  7448  0315  0020               	movlb	0	; select bank0
  7449  0316  0364               	decf	100,w	;volatile
  7450  0317  0465               	iorwf	101,w	;volatile
  7451  0318  1D03               	btfss	3,2
  7452  0319  2B1B               	goto	u1871
  7453  031A  2B1C               	goto	u1870
  7454  031B                     u1871:
  7455  031B  2B29               	goto	l3106
  7456  031C                     u1870:
  7457  031C                     l3104:
  7458                           
  7459                           ;lib/usb/usb_device_hid.c: 186:                         { inPipes[0].pSrc.bRom = (const 
      +                          uint8_t*)&configDescriptor1 + 50; inPipes[0].wCount.Val = sizeof(USB_HID_DSC)+3; inPipes
      +                          [0].info.Val = 0x40 | 0x80 | 0x00; };
  7460  031C  3032               	movlw	low ((_configDescriptor1| (0+32768)+50))
  7461  031D  0021               	movlb	1	; select bank1
  7462  031E  00B8               	movwf	_inPipes^(0+128)
  7463  031F  3090               	movlw	high ((_configDescriptor1| (0+32768)+50))
  7464  0320  00B9               	movwf	(_inPipes^(0+128)+1)
  7465  0321  3009               	movlw	9
  7466  0322  00BB               	movwf	(_inPipes^(0+128)+3)
  7467  0323  3000               	movlw	0
  7468  0324  00BC               	movwf	(_inPipes^(0+128)+4)
  7469  0325  30C0               	movlw	192
  7470  0326  00F0               	movwf	??_USBCheckHIDRequest
  7471  0327  0870               	movf	??_USBCheckHIDRequest,w
  7472  0328  00BA               	movwf	(_inPipes^(0+128)+2)
  7473  0329                     l3106:
  7474                           
  7475                           ;lib/usb/usb_device_hid.c: 190:                     if(SetupPkt.wIndex == 0x02)
  7476  0329  3002               	movlw	2
  7477  032A  0020               	movlb	0	; select bank0
  7478  032B  0664               	xorwf	100,w	;volatile
  7479  032C  0465               	iorwf	101,w	;volatile
  7480  032D  1D03               	btfss	3,2
  7481  032E  2B30               	goto	u1881
  7482  032F  2B31               	goto	u1880
  7483  0330                     u1881:
  7484  0330  2B96               	goto	l440
  7485  0331                     u1880:
  7486  0331                     l3108:
  7487                           
  7488                           ;lib/usb/usb_device_hid.c: 191:                         { inPipes[0].pSrc.bRom = (const 
      +                          uint8_t*)&configDescriptor1 + 82; inPipes[0].wCount.Val = sizeof(USB_HID_DSC)+3; inPipes
      +                          [0].info.Val = 0x40 | 0x80 | 0x00; };
  7489  0331  3052               	movlw	low ((_configDescriptor1| (0+32768)+82))
  7490  0332  0021               	movlb	1	; select bank1
  7491  0333  00B8               	movwf	_inPipes^(0+128)
  7492  0334  3090               	movlw	high ((_configDescriptor1| (0+32768)+82))
  7493  0335  00B9               	movwf	(_inPipes^(0+128)+1)
  7494  0336  3009               	movlw	9
  7495  0337  00BB               	movwf	(_inPipes^(0+128)+3)
  7496  0338  3000               	movlw	0
  7497  0339  00BC               	movwf	(_inPipes^(0+128)+4)
  7498  033A  30C0               	movlw	192
  7499  033B  00F0               	movwf	??_USBCheckHIDRequest
  7500  033C  0870               	movf	??_USBCheckHIDRequest,w
  7501  033D  00BA               	movwf	(_inPipes^(0+128)+2)
  7502  033E  2B96               	goto	l3128
  7503  033F                     l3110:
  7504                           
  7505                           ;lib/usb/usb_device_hid.c: 198:                 if(USBActiveConfiguration == 1)
  7506  033F  0021               	movlb	1	; select bank1
  7507  0340  0358               	decf	_USBActiveConfiguration^(0+128),w
  7508  0341  1D03               	btfss	3,2
  7509  0342  2B44               	goto	u1891
  7510  0343  2B45               	goto	u1890
  7511  0344                     u1891:
  7512  0344  2B96               	goto	l3128
  7513  0345                     u1890:
  7514  0345                     l3112:
  7515                           
  7516                           ;lib/usb/usb_device_hid.c: 199:                 {;lib/usb/usb_device_hid.c: 200:        
      +                                       if(SetupPkt.wIndex == 0x00)
  7517  0345  0020               	movlb	0	; select bank0
  7518  0346  0864               	movf	100,w	;volatile
  7519  0347  0465               	iorwf	101,w	;volatile
  7520  0348  1D03               	btfss	3,2
  7521  0349  2B4B               	goto	u1901
  7522  034A  2B4C               	goto	u1900
  7523  034B                     u1901:
  7524  034B  2B59               	goto	l3116
  7525  034C                     u1900:
  7526  034C                     l3114:
  7527                           
  7528                           ;lib/usb/usb_device_hid.c: 201:                         { inPipes[0].pSrc.bRom = (const 
      +                          uint8_t*)&HAPTIC_rpt; inPipes[0].wCount.Val = 87; inPipes[0].info.Val = 0x40 | 0x80 | 0x
      +                          00; };
  7529  034C  3069               	movlw	low (_HAPTIC_rpt| (0+32768))
  7530  034D  0021               	movlb	1	; select bank1
  7531  034E  00B8               	movwf	_inPipes^(0+128)
  7532  034F  3090               	movlw	high (_HAPTIC_rpt| (0+32768))
  7533  0350  00B9               	movwf	(_inPipes^(0+128)+1)
  7534  0351  3057               	movlw	87
  7535  0352  00BB               	movwf	(_inPipes^(0+128)+3)
  7536  0353  3000               	movlw	0
  7537  0354  00BC               	movwf	(_inPipes^(0+128)+4)
  7538  0355  30C0               	movlw	192
  7539  0356  00F0               	movwf	??_USBCheckHIDRequest
  7540  0357  0870               	movf	??_USBCheckHIDRequest,w
  7541  0358  00BA               	movwf	(_inPipes^(0+128)+2)
  7542  0359                     l3116:
  7543                           
  7544                           ;lib/usb/usb_device_hid.c: 206:                     if(SetupPkt.wIndex == 0x01)
  7545  0359  0020               	movlb	0	; select bank0
  7546  035A  0364               	decf	100,w	;volatile
  7547  035B  0465               	iorwf	101,w	;volatile
  7548  035C  1D03               	btfss	3,2
  7549  035D  2B5F               	goto	u1911
  7550  035E  2B60               	goto	u1910
  7551  035F                     u1911:
  7552  035F  2B6D               	goto	l3120
  7553  0360                     u1910:
  7554  0360                     l3118:
  7555                           
  7556                           ;lib/usb/usb_device_hid.c: 207:                         { inPipes[0].pSrc.bRom = (const 
      +                          uint8_t*)&LED_rpt; inPipes[0].wCount.Val = 28; inPipes[0].info.Val = 0x40 | 0x80 | 0x00;
      +                           };
  7557  0360  30F4               	movlw	low (_LED_rpt| (0+32768))
  7558  0361  0021               	movlb	1	; select bank1
  7559  0362  00B8               	movwf	_inPipes^(0+128)
  7560  0363  3090               	movlw	high (_LED_rpt| (0+32768))
  7561  0364  00B9               	movwf	(_inPipes^(0+128)+1)
  7562  0365  301C               	movlw	28
  7563  0366  00BB               	movwf	(_inPipes^(0+128)+3)
  7564  0367  3000               	movlw	0
  7565  0368  00BC               	movwf	(_inPipes^(0+128)+4)
  7566  0369  30C0               	movlw	192
  7567  036A  00F0               	movwf	??_USBCheckHIDRequest
  7568  036B  0870               	movf	??_USBCheckHIDRequest,w
  7569  036C  00BA               	movwf	(_inPipes^(0+128)+2)
  7570  036D                     l3120:
  7571                           
  7572                           ;lib/usb/usb_device_hid.c: 212:                     if(SetupPkt.wIndex == 0x02)
  7573  036D  3002               	movlw	2
  7574  036E  0020               	movlb	0	; select bank0
  7575  036F  0664               	xorwf	100,w	;volatile
  7576  0370  0465               	iorwf	101,w	;volatile
  7577  0371  1D03               	btfss	3,2
  7578  0372  2B74               	goto	u1921
  7579  0373  2B75               	goto	u1920
  7580  0374                     u1921:
  7581  0374  2B96               	goto	l440
  7582  0375                     u1920:
  7583  0375                     l3122:
  7584                           
  7585                           ;lib/usb/usb_device_hid.c: 213:                         { inPipes[0].pSrc.bRom = (const 
      +                          uint8_t*)&DISPLAY_rpt; inPipes[0].wCount.Val = 28; inPipes[0].info.Val = 0x40 | 0x80 | 0
      +                          x00; };
  7586  0375  3000               	movlw	low (_DISPLAY_rpt| (0+32768))
  7587  0376  0021               	movlb	1	; select bank1
  7588  0377  00B8               	movwf	_inPipes^(0+128)
  7589  0378  3098               	movlw	high (_DISPLAY_rpt| (0+32768))
  7590  0379  00B9               	movwf	(_inPipes^(0+128)+1)
  7591  037A  301C               	movlw	28
  7592  037B  00BB               	movwf	(_inPipes^(0+128)+3)
  7593  037C  3000               	movlw	0
  7594  037D  00BC               	movwf	(_inPipes^(0+128)+4)
  7595  037E  30C0               	movlw	192
  7596  037F  00F0               	movwf	??_USBCheckHIDRequest
  7597  0380  0870               	movf	??_USBCheckHIDRequest,w
  7598  0381  00BA               	movwf	(_inPipes^(0+128)+2)
  7599  0382  2B96               	goto	l3128
  7600  0383                     l3126:
  7601  0383  0863               	movf	99,w	;volatile
  7602  0384  00F0               	movwf	??_USBCheckHIDRequest
  7603  0385  01F1               	clrf	??_USBCheckHIDRequest+1
  7604                           
  7605                           ; Switch on 2 bytes has been partitioned into a top level switch of size 1, and 1 sub-sw
      +                          itches
  7606                           ; Switch size 1, requested type "simple"
  7607                           ; Number of cases is 1, Range of values is 0 to 0
  7608                           ; switch strategies available:
  7609                           ; Name         Instructions Cycles
  7610                           ; simple_byte            4     3 (average)
  7611                           ; direct_byte            8     6 (fixed)
  7612                           ; jumptable            260     6 (fixed)
  7613                           ;	Chosen strategy is simple_byte
  7614  0386  0871               	movf	??_USBCheckHIDRequest+1,w
  7615  0387  3A00               	xorlw	0	; case 0
  7616  0388  1903               	skipnz
  7617  0389  2B8B               	goto	l5240
  7618  038A  2B96               	goto	l3128
  7619  038B                     l5240:
  7620                           
  7621                           ; Switch size 1, requested type "simple"
  7622                           ; Number of cases is 3, Range of values is 33 to 35
  7623                           ; switch strategies available:
  7624                           ; Name         Instructions Cycles
  7625                           ; simple_byte           10     6 (average)
  7626                           ; direct_byte           15     9 (fixed)
  7627                           ; jumptable            263     9 (fixed)
  7628                           ;	Chosen strategy is simple_byte
  7629  038B  0870               	movf	??_USBCheckHIDRequest,w
  7630  038C  3A21               	xorlw	33	; case 33
  7631  038D  1903               	skipnz
  7632  038E  2AFB               	goto	l3096
  7633  038F  3A03               	xorlw	3	; case 34
  7634  0390  1903               	skipnz
  7635  0391  2B3F               	goto	l3110
  7636  0392  3A01               	xorlw	1	; case 35
  7637  0393  1903               	skipnz
  7638  0394  2B96               	goto	l3128
  7639  0395  2B96               	goto	l3128
  7640  0396                     l440:
  7641  0396                     l3128:
  7642                           
  7643                           ;lib/usb/usb_device_hid.c: 235:     if(SetupPkt.RequestType != (0x20>>5))
  7644  0396  0020               	movlb	0	; select bank0
  7645  0397  0E60               	swapf	96,w	;volatile
  7646  0398  0C89               	rrf	9,f
  7647  0399  3903               	andlw	3
  7648  039A  3A01               	xorlw	1
  7649  039B  1903               	skipnz
  7650  039C  2B9E               	goto	u1931
  7651  039D  2B9F               	goto	u1930
  7652  039E                     u1931:
  7653  039E  2BD4               	goto	l3150
  7654  039F                     u1930:
  7655  039F  2BF0               	goto	l431
  7656  03A0                     l3132:
  7657                           
  7658                           ;lib/usb/usb_device_hid.c: 253:             { inPipes[0].pSrc.bRam = (uint8_t*)&idle_rat
      +                          e; inPipes[0].wCount.Val = 1; inPipes[0].info.Val = 0x40 | 0x80 | 0x01; };
  7659  03A0  30D6               	movlw	low _idle_rate
  7660  03A1  0021               	movlb	1	; select bank1
  7661  03A2  00B8               	movwf	_inPipes^(0+128)
  7662  03A3  3000               	movlw	high _idle_rate
  7663  03A4  00B9               	movwf	(_inPipes+1)^(0+128)
  7664  03A5                     l3134:
  7665  03A5  3001               	movlw	1
  7666  03A6  00BB               	movwf	(_inPipes^(0+128)+3)
  7667  03A7  3000               	movlw	0
  7668  03A8  00BC               	movwf	(_inPipes^(0+128)+4)
  7669  03A9                     l3136:
  7670  03A9  30C1               	movlw	193
  7671  03AA  00F0               	movwf	??_USBCheckHIDRequest
  7672  03AB  0870               	movf	??_USBCheckHIDRequest,w
  7673  03AC  00BA               	movwf	(_inPipes^(0+128)+2)
  7674                           
  7675                           ;lib/usb/usb_device_hid.c: 257:             break;
  7676  03AD  2BF0               	goto	l431
  7677  03AE                     l3138:
  7678                           
  7679                           ;lib/usb/usb_device_hid.c: 259:             inPipes[0].info.Val = 0x00 | 0x80;
  7680  03AE  3080               	movlw	128
  7681  03AF  00F0               	movwf	??_USBCheckHIDRequest
  7682  03B0  0870               	movf	??_USBCheckHIDRequest,w
  7683  03B1  0021               	movlb	1	; select bank1
  7684  03B2  00BA               	movwf	(_inPipes^(0+128)+2)
  7685                           
  7686                           ;lib/usb/usb_device_hid.c: 260:             idle_rate = SetupPkt.W_Value.byte.HB;
  7687  03B3  0020               	movlb	0	; select bank0
  7688  03B4  0863               	movf	99,w	;volatile
  7689  03B5  00F0               	movwf	??_USBCheckHIDRequest
  7690  03B6  0870               	movf	??_USBCheckHIDRequest,w
  7691  03B7  0021               	movlb	1	; select bank1
  7692  03B8  00D6               	movwf	_idle_rate^(0+128)
  7693                           
  7694                           ;lib/usb/usb_device_hid.c: 262:             break;
  7695  03B9  2BF0               	goto	l431
  7696  03BA                     l3140:
  7697                           
  7698                           ;lib/usb/usb_device_hid.c: 264:             { inPipes[0].pSrc.bRam = (uint8_t*)&active_p
      +                          rotocol; inPipes[0].wCount.Val = 1; inPipes[0].info.Val = 0x00 | 0x80 | 0x01; };
  7699  03BA  30D5               	movlw	low _active_protocol
  7700  03BB  0021               	movlb	1	; select bank1
  7701  03BC  00B8               	movwf	_inPipes^(0+128)
  7702  03BD  3000               	movlw	high _active_protocol
  7703  03BE  00B9               	movwf	(_inPipes+1)^(0+128)
  7704  03BF                     l3142:
  7705  03BF  3001               	movlw	1
  7706  03C0  00BB               	movwf	(_inPipes^(0+128)+3)
  7707  03C1  3000               	movlw	0
  7708  03C2  00BC               	movwf	(_inPipes^(0+128)+4)
  7709  03C3                     l3144:
  7710  03C3  3081               	movlw	129
  7711  03C4  00F0               	movwf	??_USBCheckHIDRequest
  7712  03C5  0870               	movf	??_USBCheckHIDRequest,w
  7713  03C6  00BA               	movwf	(_inPipes^(0+128)+2)
  7714                           
  7715                           ;lib/usb/usb_device_hid.c: 268:             break;
  7716  03C7  2BF0               	goto	l431
  7717  03C8                     l3146:
  7718                           
  7719                           ;lib/usb/usb_device_hid.c: 270:             inPipes[0].info.Val = 0x00 | 0x80;
  7720  03C8  3080               	movlw	128
  7721  03C9  00F0               	movwf	??_USBCheckHIDRequest
  7722  03CA  0870               	movf	??_USBCheckHIDRequest,w
  7723  03CB  0021               	movlb	1	; select bank1
  7724  03CC  00BA               	movwf	(_inPipes^(0+128)+2)
  7725                           
  7726                           ;lib/usb/usb_device_hid.c: 271:             active_protocol = SetupPkt.W_Value.byte.LB;
  7727  03CD  0020               	movlb	0	; select bank0
  7728  03CE  0862               	movf	98,w	;volatile
  7729  03CF  00F0               	movwf	??_USBCheckHIDRequest
  7730  03D0  0870               	movf	??_USBCheckHIDRequest,w
  7731  03D1  0021               	movlb	1	; select bank1
  7732  03D2  00D5               	movwf	_active_protocol^(0+128)
  7733                           
  7734                           ;lib/usb/usb_device_hid.c: 272:             break;
  7735  03D3  2BF0               	goto	l431
  7736  03D4                     l3150:
  7737  03D4  0861               	movf	97,w	;volatile
  7738  03D5  00F0               	movwf	??_USBCheckHIDRequest
  7739  03D6  01F1               	clrf	??_USBCheckHIDRequest+1
  7740                           
  7741                           ; Switch on 2 bytes has been partitioned into a top level switch of size 1, and 1 sub-sw
      +                          itches
  7742                           ; Switch size 1, requested type "simple"
  7743                           ; Number of cases is 1, Range of values is 0 to 0
  7744                           ; switch strategies available:
  7745                           ; Name         Instructions Cycles
  7746                           ; simple_byte            4     3 (average)
  7747                           ; direct_byte            8     6 (fixed)
  7748                           ; jumptable            260     6 (fixed)
  7749                           ;	Chosen strategy is simple_byte
  7750  03D7  0871               	movf	??_USBCheckHIDRequest+1,w
  7751  03D8  3A00               	xorlw	0	; case 0
  7752  03D9  1903               	skipnz
  7753  03DA  2BDC               	goto	l5242
  7754  03DB  2BF0               	goto	l431
  7755  03DC                     l5242:
  7756                           
  7757                           ; Switch size 1, requested type "simple"
  7758                           ; Number of cases is 6, Range of values is 1 to 11
  7759                           ; switch strategies available:
  7760                           ; Name         Instructions Cycles
  7761                           ; simple_byte           19    10 (average)
  7762                           ; direct_byte           31     9 (fixed)
  7763                           ; jumptable            263     9 (fixed)
  7764                           ;	Chosen strategy is simple_byte
  7765  03DC  0870               	movf	??_USBCheckHIDRequest,w
  7766  03DD  3A01               	xorlw	1	; case 1
  7767  03DE  1903               	skipnz
  7768  03DF  2BF0               	goto	l431
  7769  03E0  3A03               	xorlw	3	; case 2
  7770  03E1  1903               	skipnz
  7771  03E2  2BA0               	goto	l3132
  7772  03E3  3A01               	xorlw	1	; case 3
  7773  03E4  1903               	skipnz
  7774  03E5  2BBA               	goto	l3140
  7775  03E6  3A0A               	xorlw	10	; case 9
  7776  03E7  1903               	skipnz
  7777  03E8  2BF0               	goto	l431
  7778  03E9  3A03               	xorlw	3	; case 10
  7779  03EA  1903               	skipnz
  7780  03EB  2BAE               	goto	l3138
  7781  03EC  3A01               	xorlw	1	; case 11
  7782  03ED  1903               	skipnz
  7783  03EE  2BC8               	goto	l3146
  7784  03EF  2BF0               	goto	l431
  7785  03F0                     l431:
  7786  03F0  0008               	return
  7787  03F1                     __end_of_USBCheckHIDRequest:
  7788                           
  7789                           	psect	text21
  7790  0822                     __ptext21:	
  7791 ;; *************** function _SYSTEM_Initialize *****************
  7792 ;; Defined at:
  7793 ;;		line 85 in file "lib/system.c"
  7794 ;; Parameters:    Size  Location     Type
  7795 ;;  state           1    wreg     enum E2217
  7796 ;; Auto vars:     Size  Location     Type
  7797 ;;  state           1    5[COMMON] enum E2217
  7798 ;; Return value:  Size  Location     Type
  7799 ;;                  1    wreg      void 
  7800 ;; Registers used:
  7801 ;;		wreg, fsr0l, fsr0h, status,2, status,0, pclath, cstack
  7802 ;; Tracked objects:
  7803 ;;		On entry : 0/0
  7804 ;;		On exit  : 0/0
  7805 ;;		Unchanged: 0/0
  7806 ;; Data sizes:     COMMON   BANK1   BANK2   BANK3   BANK4   BANK5   BANK6   BANK7   BANK8   BANK9  BANK10  BANK11  BANK1
      +2
  7807 ;;      Params:         0       0       0       0       0       0       0       0       0       0       0       0       
      +0
  7808 ;;      Locals:         1       0       0       0       0       0       0       0       0       0       0       0       
      +0
  7809 ;;      Temps:          2       0       0       0       0       0       0       0       0       0       0       0       
      +0
  7810 ;;      Totals:         3       0       0       0       0       0       0       0       0       0       0       0       
      +0
  7811 ;;Total ram usage:        3 bytes
  7812 ;; Hardware stack levels used: 1
  7813 ;; Hardware stack levels required when called: 2
  7814 ;; This function calls:
  7815 ;;		_BUTTON_Enable
  7816 ;;		_LED_Enable
  7817 ;; This function is called by:
  7818 ;;		_USER_USB_CALLBACK_EVENT_HANDLER
  7819 ;; This function uses a non-reentrant model
  7820 ;;
  7821                           
  7822  0822                     _SYSTEM_Initialize:	
  7823                           ;psect for function _SYSTEM_Initialize
  7824                           
  7825                           
  7826                           ;incstack = 0
  7827                           ; Regs used in _SYSTEM_Initialize: [wreg-fsr0h+status,2+status,0+pclath+cstack]
  7828                           ;SYSTEM_Initialize@state stored from wreg
  7829  0822  00F5               	movwf	SYSTEM_Initialize@state
  7830  0823                     l3200:
  7831                           
  7832                           ;lib/system.c: 85: void SYSTEM_Initialize( SYSTEM_STATE state );lib/system.c: 86: {;lib/
      +                          system.c: 87:     ANSELC = 0;
  7833  0823  0023               	movlb	3	; select bank3
  7834  0824  018E               	clrf	14	;volatile
  7835                           
  7836                           ;lib/system.c: 88:     switch(state)
  7837  0825  282F               	goto	l3206
  7838  0826                     l3202:
  7839                           
  7840                           ;lib/system.c: 97:             LED_Enable(LED_D1);
  7841  0826  3001               	movlw	1
  7842  0827  3188  20A8  3188   	fcall	_LED_Enable
  7843                           
  7844                           ;lib/system.c: 100:             BUTTON_Enable(BUTTON_S1);
  7845  082A  3001               	movlw	1
  7846  082B  3197  27D2  3188   	fcall	_BUTTON_Enable
  7847                           
  7848                           ;lib/system.c: 101:             break;
  7849  082E  2842               	goto	l703
  7850  082F                     l3206:
  7851  082F  0875               	movf	SYSTEM_Initialize@state,w
  7852  0830  00F3               	movwf	??_SYSTEM_Initialize
  7853  0831  01F4               	clrf	??_SYSTEM_Initialize+1
  7854                           
  7855                           ; Switch on 2 bytes has been partitioned into a top level switch of size 1, and 1 sub-sw
      +                          itches
  7856                           ; Switch size 1, requested type "simple"
  7857                           ; Number of cases is 1, Range of values is 0 to 0
  7858                           ; switch strategies available:
  7859                           ; Name         Instructions Cycles
  7860                           ; simple_byte            4     3 (average)
  7861                           ; direct_byte            8     6 (fixed)
  7862                           ; jumptable            260     6 (fixed)
  7863                           ;	Chosen strategy is simple_byte
  7864  0832  0874               	movf	??_SYSTEM_Initialize+1,w
  7865  0833  3A00               	xorlw	0	; case 0
  7866  0834  1903               	skipnz
  7867  0835  2837               	goto	l5244
  7868  0836  2842               	goto	l703
  7869  0837                     l5244:
  7870                           
  7871                           ; Switch size 1, requested type "simple"
  7872                           ; Number of cases is 3, Range of values is 0 to 2
  7873                           ; switch strategies available:
  7874                           ; Name         Instructions Cycles
  7875                           ; simple_byte           10     6 (average)
  7876                           ; direct_byte           12     6 (fixed)
  7877                           ; jumptable            260     6 (fixed)
  7878                           ;	Chosen strategy is simple_byte
  7879  0837  0873               	movf	??_SYSTEM_Initialize,w
  7880  0838  3A00               	xorlw	0	; case 0
  7881  0839  1903               	skipnz
  7882  083A  2826               	goto	l3202
  7883  083B  3A01               	xorlw	1	; case 1
  7884  083C  1903               	skipnz
  7885  083D  2842               	goto	l703
  7886  083E  3A03               	xorlw	3	; case 2
  7887  083F  1903               	skipnz
  7888  0840  2842               	goto	l703
  7889  0841  2842               	goto	l703
  7890  0842                     l703:
  7891  0842  0008               	return
  7892  0843                     __end_of_SYSTEM_Initialize:
  7893                           
  7894                           	psect	text22
  7895  08A8                     __ptext22:	
  7896 ;; *************** function _LED_Enable *****************
  7897 ;; Defined at:
  7898 ;;		line 220 in file "lib/leds.c"
  7899 ;; Parameters:    Size  Location     Type
  7900 ;;  led             1    wreg     enum E2
  7901 ;; Auto vars:     Size  Location     Type
  7902 ;;  led             1    2[COMMON] enum E2
  7903 ;; Return value:  Size  Location     Type
  7904 ;;                  1    wreg      void 
  7905 ;; Registers used:
  7906 ;;		wreg, fsr0l, fsr0h, status,2, status,0
  7907 ;; Tracked objects:
  7908 ;;		On entry : 0/0
  7909 ;;		On exit  : 0/0
  7910 ;;		Unchanged: 0/0
  7911 ;; Data sizes:     COMMON   BANK1   BANK2   BANK3   BANK4   BANK5   BANK6   BANK7   BANK8   BANK9  BANK10  BANK11  BANK1
      +2
  7912 ;;      Params:         0       0       0       0       0       0       0       0       0       0       0       0       
      +0
  7913 ;;      Locals:         1       0       0       0       0       0       0       0       0       0       0       0       
      +0
  7914 ;;      Temps:          2       0       0       0       0       0       0       0       0       0       0       0       
      +0
  7915 ;;      Totals:         3       0       0       0       0       0       0       0       0       0       0       0       
      +0
  7916 ;;Total ram usage:        3 bytes
  7917 ;; Hardware stack levels used: 1
  7918 ;; Hardware stack levels required when called: 1
  7919 ;; This function calls:
  7920 ;;		Nothing
  7921 ;; This function is called by:
  7922 ;;		_SYSTEM_Initialize
  7923 ;; This function uses a non-reentrant model
  7924 ;;
  7925                           
  7926  08A8                     _LED_Enable:	
  7927                           ;psect for function _LED_Enable
  7928                           
  7929                           
  7930                           ;incstack = 0
  7931                           ; Regs used in _LED_Enable: [wreg-fsr0h+status,2+status,0]
  7932                           ;LED_Enable@led stored from wreg
  7933  08A8  00F2               	movwf	LED_Enable@led
  7934  08A9                     l3070:
  7935                           
  7936                           ;lib/leds.c: 220: void LED_Enable(LED led);lib/leds.c: 221: {;lib/leds.c: 222:     switc
      +                          h(led)
  7937  08A9  28B3               	goto	l3074
  7938  08AA                     l684:	
  7939                           ;lib/leds.c: 223:     {;lib/leds.c: 224:         case LED_D1:
  7940                           
  7941                           
  7942                           ;lib/leds.c: 225:             TRISCbits.TRISC4 = 0;
  7943  08AA  0021               	movlb	1	; select bank1
  7944  08AB  120E               	bcf	14,4	;volatile
  7945                           
  7946                           ;lib/leds.c: 226:             break;
  7947  08AC  28C9               	goto	l689
  7948  08AD                     l686:	
  7949                           ;lib/leds.c: 228:         case LED_D2:
  7950                           
  7951                           
  7952                           ;lib/leds.c: 229:             TRISCbits.TRISC1 = 0;
  7953  08AD  0021               	movlb	1	; select bank1
  7954  08AE  108E               	bcf	14,1	;volatile
  7955                           
  7956                           ;lib/leds.c: 230:             break;
  7957  08AF  28C9               	goto	l689
  7958  08B0                     l687:	
  7959                           ;lib/leds.c: 232:         case LED_D3:
  7960                           
  7961                           
  7962                           ;lib/leds.c: 233:             TRISCbits.TRISC2 = 0;
  7963  08B0  0021               	movlb	1	; select bank1
  7964  08B1  110E               	bcf	14,2	;volatile
  7965                           
  7966                           ;lib/leds.c: 234:             break;
  7967  08B2  28C9               	goto	l689
  7968  08B3                     l3074:
  7969  08B3  0872               	movf	LED_Enable@led,w
  7970  08B4  00F0               	movwf	??_LED_Enable
  7971  08B5  01F1               	clrf	??_LED_Enable+1
  7972                           
  7973                           ; Switch on 2 bytes has been partitioned into a top level switch of size 1, and 1 sub-sw
      +                          itches
  7974                           ; Switch size 1, requested type "simple"
  7975                           ; Number of cases is 1, Range of values is 0 to 0
  7976                           ; switch strategies available:
  7977                           ; Name         Instructions Cycles
  7978                           ; simple_byte            4     3 (average)
  7979                           ; direct_byte            8     6 (fixed)
  7980                           ; jumptable            260     6 (fixed)
  7981                           ;	Chosen strategy is simple_byte
  7982  08B6  0871               	movf	??_LED_Enable+1,w
  7983  08B7  3A00               	xorlw	0	; case 0
  7984  08B8  1903               	skipnz
  7985  08B9  28BB               	goto	l5246
  7986  08BA  28C9               	goto	l689
  7987  08BB                     l5246:
  7988                           
  7989                           ; Switch size 1, requested type "simple"
  7990                           ; Number of cases is 4, Range of values is 0 to 3
  7991                           ; switch strategies available:
  7992                           ; Name         Instructions Cycles
  7993                           ; simple_byte           13     7 (average)
  7994                           ; direct_byte           14     6 (fixed)
  7995                           ; jumptable            260     6 (fixed)
  7996                           ;	Chosen strategy is simple_byte
  7997  08BB  0870               	movf	??_LED_Enable,w
  7998  08BC  3A00               	xorlw	0	; case 0
  7999  08BD  1903               	skipnz
  8000  08BE  28C9               	goto	l689
  8001  08BF  3A01               	xorlw	1	; case 1
  8002  08C0  1903               	skipnz
  8003  08C1  28AA               	goto	l684
  8004  08C2  3A03               	xorlw	3	; case 2
  8005  08C3  1903               	skipnz
  8006  08C4  28AD               	goto	l686
  8007  08C5  3A01               	xorlw	1	; case 3
  8008  08C6  1903               	skipnz
  8009  08C7  28B0               	goto	l687
  8010  08C8  28C9               	goto	l689
  8011  08C9                     l689:
  8012  08C9  0008               	return
  8013  08CA                     __end_of_LED_Enable:
  8014                           
  8015                           	psect	text23
  8016  17D2                     __ptext23:	
  8017 ;; *************** function _BUTTON_Enable *****************
  8018 ;; Defined at:
  8019 ;;		line 86 in file "lib/buttons.c"
  8020 ;; Parameters:    Size  Location     Type
  8021 ;;  button          1    wreg     enum E2193
  8022 ;; Auto vars:     Size  Location     Type
  8023 ;;  button          1    2[COMMON] enum E2193
  8024 ;; Return value:  Size  Location     Type
  8025 ;;                  1    wreg      void 
  8026 ;; Registers used:
  8027 ;;		wreg, fsr0l, fsr0h, status,2, status,0
  8028 ;; Tracked objects:
  8029 ;;		On entry : 0/0
  8030 ;;		On exit  : 0/0
  8031 ;;		Unchanged: 0/0
  8032 ;; Data sizes:     COMMON   BANK1   BANK2   BANK3   BANK4   BANK5   BANK6   BANK7   BANK8   BANK9  BANK10  BANK11  BANK1
      +2
  8033 ;;      Params:         0       0       0       0       0       0       0       0       0       0       0       0       
      +0
  8034 ;;      Locals:         1       0       0       0       0       0       0       0       0       0       0       0       
      +0
  8035 ;;      Temps:          2       0       0       0       0       0       0       0       0       0       0       0       
      +0
  8036 ;;      Totals:         3       0       0       0       0       0       0       0       0       0       0       0       
      +0
  8037 ;;Total ram usage:        3 bytes
  8038 ;; Hardware stack levels used: 1
  8039 ;; Hardware stack levels required when called: 1
  8040 ;; This function calls:
  8041 ;;		Nothing
  8042 ;; This function is called by:
  8043 ;;		_SYSTEM_Initialize
  8044 ;; This function uses a non-reentrant model
  8045 ;;
  8046                           
  8047  17D2                     _BUTTON_Enable:	
  8048                           ;psect for function _BUTTON_Enable
  8049                           
  8050                           
  8051                           ;incstack = 0
  8052                           ; Regs used in _BUTTON_Enable: [wreg-fsr0h+status,2+status,0]
  8053                           ;BUTTON_Enable@button stored from wreg
  8054  17D2  00F2               	movwf	BUTTON_Enable@button
  8055  17D3                     l3060:
  8056  17D3                     l3064:	
  8057                           ;lib/buttons.c: 86: void BUTTON_Enable(BUTTON button);lib/buttons.c: 87: {;lib/buttons.c
      +                          : 88:     switch(button)
  8058                           
  8059  17D3  0872               	movf	BUTTON_Enable@button,w
  8060  17D4  00F0               	movwf	??_BUTTON_Enable
  8061  17D5  01F1               	clrf	??_BUTTON_Enable+1
  8062                           
  8063                           ; Switch on 2 bytes has been partitioned into a top level switch of size 1, and 1 sub-sw
      +                          itches
  8064                           ; Switch size 1, requested type "simple"
  8065                           ; Number of cases is 1, Range of values is 0 to 0
  8066                           ; switch strategies available:
  8067                           ; Name         Instructions Cycles
  8068                           ; simple_byte            4     3 (average)
  8069                           ; direct_byte            8     6 (fixed)
  8070                           ; jumptable            260     6 (fixed)
  8071                           ;	Chosen strategy is simple_byte
  8072  17D6  0871               	movf	??_BUTTON_Enable+1,w
  8073  17D7  3A00               	xorlw	0	; case 0
  8074  17D8  1903               	skipnz
  8075  17D9  2FDB               	goto	l5248
  8076  17DA  2FE3               	goto	l640
  8077  17DB                     l5248:
  8078                           
  8079                           ; Switch size 1, requested type "simple"
  8080                           ; Number of cases is 2, Range of values is 0 to 1
  8081                           ; switch strategies available:
  8082                           ; Name         Instructions Cycles
  8083                           ; simple_byte            7     4 (average)
  8084                           ; direct_byte           10     6 (fixed)
  8085                           ; jumptable            260     6 (fixed)
  8086                           ;	Chosen strategy is simple_byte
  8087  17DB  0870               	movf	??_BUTTON_Enable,w
  8088  17DC  3A00               	xorlw	0	; case 0
  8089  17DD  1903               	skipnz
  8090  17DE  2FE3               	goto	l640
  8091  17DF  3A01               	xorlw	1	; case 1
  8092  17E0  1903               	skipnz
  8093  17E1  2FE3               	goto	l640
  8094  17E2  2FE3               	goto	l640
  8095  17E3                     l640:
  8096  17E3  0008               	return
  8097  17E4                     __end_of_BUTTON_Enable:
  8098                           
  8099                           	psect	text24
  8100  0B27                     __ptext24:	
  8101 ;; *************** function _APP_LEDUpdateUSBStatus *****************
  8102 ;; Defined at:
  8103 ;;		line 50 in file "lib/app_led_usb_status.c"
  8104 ;; Parameters:    Size  Location     Type
  8105 ;;		None
  8106 ;; Auto vars:     Size  Location     Type
  8107 ;;		None
  8108 ;; Return value:  Size  Location     Type
  8109 ;;                  1    wreg      void 
  8110 ;; Registers used:
  8111 ;;		wreg, fsr0l, fsr0h, status,2, status,0, pclath, cstack
  8112 ;; Tracked objects:
  8113 ;;		On entry : 0/0
  8114 ;;		On exit  : 0/0
  8115 ;;		Unchanged: 0/0
  8116 ;; Data sizes:     COMMON   BANK1   BANK2   BANK3   BANK4   BANK5   BANK6   BANK7   BANK8   BANK9  BANK10  BANK11  BANK1
      +2
  8117 ;;      Params:         0       0       0       0       0       0       0       0       0       0       0       0       
      +0
  8118 ;;      Locals:         0       0       0       0       0       0       0       0       0       0       0       0       
      +0
  8119 ;;      Temps:          2       0       0       0       0       0       0       0       0       0       0       0       
      +0
  8120 ;;      Totals:         2       0       0       0       0       0       0       0       0       0       0       0       
      +0
  8121 ;;Total ram usage:        2 bytes
  8122 ;; Hardware stack levels used: 1
  8123 ;; Hardware stack levels required when called: 2
  8124 ;; This function calls:
  8125 ;;		_LED_Off
  8126 ;;		_LED_On
  8127 ;; This function is called by:
  8128 ;;		_USER_USB_CALLBACK_EVENT_HANDLER
  8129 ;; This function uses a non-reentrant model
  8130 ;;
  8131                           
  8132  0B27                     _APP_LEDUpdateUSBStatus:	
  8133                           ;psect for function _APP_LEDUpdateUSBStatus
  8134                           
  8135  0B27                     l3160:	
  8136                           ;incstack = 0
  8137                           ; Regs used in _APP_LEDUpdateUSBStatus: [wreg-fsr0h+status,2+status,0+pclath+cstack]
  8138                           
  8139                           
  8140                           ;lib/app_led_usb_status.c: 52:     static uint16_t ledCount = 0;;lib/app_led_usb_status.
      +                          c: 54:     if(UCONbits.SUSPND == 1)
  8141  0B27  003D               	movlb	29	; select bank29
  8142  0B28  1C8E               	btfss	14,1	;volatile
  8143  0B29  2B2B               	goto	u1941
  8144  0B2A  2B2C               	goto	u1940
  8145  0B2B                     u1941:
  8146  0B2B  2B76               	goto	l3192
  8147  0B2C                     u1940:
  8148  0B2C                     l3162:
  8149                           
  8150                           ;lib/app_led_usb_status.c: 55:     {;lib/app_led_usb_status.c: 56:         LED_Off(LED_D
      +                          1);
  8151  0B2C  3001               	movlw	1
  8152  0B2D  3188  2064  318B   	fcall	_LED_Off
  8153  0B30  2B89               	goto	l608
  8154  0B31                     l3166:
  8155                           
  8156                           ;lib/app_led_usb_status.c: 65:             if(ledCount == 1)
  8157  0B31  033D               	decf	APP_LEDUpdateUSBStatus@ledCount^(0+128),w
  8158  0B32  043E               	iorwf	(APP_LEDUpdateUSBStatus@ledCount+1)^(0+128),w
  8159  0B33  1D03               	btfss	3,2
  8160  0B34  2B36               	goto	u1951
  8161  0B35  2B37               	goto	u1950
  8162  0B36                     u1951:
  8163  0B36  2B3C               	goto	l3170
  8164  0B37                     u1950:
  8165  0B37                     l3168:
  8166                           
  8167                           ;lib/app_led_usb_status.c: 66:             {;lib/app_led_usb_status.c: 67:              
      +                             LED_On(LED_D1);
  8168  0B37  3001               	movlw	1
  8169  0B38  3188  2086  318B   	fcall	_LED_On
  8170                           
  8171                           ;lib/app_led_usb_status.c: 68:             }
  8172  0B3B  2B84               	goto	l3194
  8173  0B3C                     l3170:
  8174  0B3C  304B               	movlw	75
  8175  0B3D  063D               	xorwf	APP_LEDUpdateUSBStatus@ledCount^(0+128),w
  8176  0B3E  043E               	iorwf	(APP_LEDUpdateUSBStatus@ledCount+1)^(0+128),w
  8177  0B3F  1D03               	btfss	3,2
  8178  0B40  2B42               	goto	u1961
  8179  0B41  2B43               	goto	u1960
  8180  0B42                     u1961:
  8181  0B42  2B48               	goto	l3174
  8182  0B43                     u1960:
  8183  0B43                     l3172:
  8184                           
  8185                           ;lib/app_led_usb_status.c: 70:             {;lib/app_led_usb_status.c: 71:              
      +                             LED_Off(LED_D1);
  8186  0B43  3001               	movlw	1
  8187  0B44  3188  2064  318B   	fcall	_LED_Off
  8188                           
  8189                           ;lib/app_led_usb_status.c: 72:             }
  8190  0B47  2B84               	goto	l3194
  8191  0B48                     l3174:
  8192  0B48  3000               	movlw	0
  8193  0B49  023E               	subwf	(APP_LEDUpdateUSBStatus@ledCount+1)^(0+128),w
  8194  0B4A  3097               	movlw	151
  8195  0B4B  1903               	skipnz
  8196  0B4C  023D               	subwf	APP_LEDUpdateUSBStatus@ledCount^(0+128),w
  8197  0B4D  1C03               	skipc
  8198  0B4E  2B50               	goto	u1971
  8199  0B4F  2B51               	goto	u1970
  8200  0B50                     u1971:
  8201  0B50  2B54               	goto	l612
  8202  0B51                     u1970:
  8203  0B51                     l3176:
  8204                           
  8205                           ;lib/app_led_usb_status.c: 74:             {;lib/app_led_usb_status.c: 75:              
      +                             ledCount = 0;
  8206  0B51  01BD               	clrf	APP_LEDUpdateUSBStatus@ledCount^(0+128)
  8207  0B52  01BE               	clrf	(APP_LEDUpdateUSBStatus@ledCount+1)^(0+128)
  8208  0B53  2B84               	goto	l3194
  8209  0B54                     l612:
  8210                           
  8211                           ;lib/app_led_usb_status.c: 77:             break;
  8212  0B54  2B84               	goto	l3194
  8213  0B55                     l3178:
  8214                           
  8215                           ;lib/app_led_usb_status.c: 82:             if(ledCount == 1)
  8216  0B55  033D               	decf	APP_LEDUpdateUSBStatus@ledCount^(0+128),w
  8217  0B56  043E               	iorwf	(APP_LEDUpdateUSBStatus@ledCount+1)^(0+128),w
  8218  0B57  1D03               	btfss	3,2
  8219  0B58  2B5A               	goto	u1981
  8220  0B59  2B5B               	goto	u1980
  8221  0B5A                     u1981:
  8222  0B5A  2B60               	goto	l3182
  8223  0B5B                     u1980:
  8224  0B5B                     l3180:
  8225                           
  8226                           ;lib/app_led_usb_status.c: 83:             {;lib/app_led_usb_status.c: 84:              
      +                             LED_On(LED_D1);
  8227  0B5B  3001               	movlw	1
  8228  0B5C  3188  2086  318B   	fcall	_LED_On
  8229                           
  8230                           ;lib/app_led_usb_status.c: 85:             }
  8231  0B5F  2B84               	goto	l3194
  8232  0B60                     l3182:
  8233  0B60  3032               	movlw	50
  8234  0B61  063D               	xorwf	APP_LEDUpdateUSBStatus@ledCount^(0+128),w
  8235  0B62  043E               	iorwf	(APP_LEDUpdateUSBStatus@ledCount+1)^(0+128),w
  8236  0B63  1D03               	btfss	3,2
  8237  0B64  2B66               	goto	u1991
  8238  0B65  2B67               	goto	u1990
  8239  0B66                     u1991:
  8240  0B66  2B6C               	goto	l3186
  8241  0B67                     u1990:
  8242  0B67                     l3184:
  8243                           
  8244                           ;lib/app_led_usb_status.c: 87:             {;lib/app_led_usb_status.c: 88:              
      +                             LED_Off(LED_D1);
  8245  0B67  3001               	movlw	1
  8246  0B68  3188  2064  318B   	fcall	_LED_Off
  8247                           
  8248                           ;lib/app_led_usb_status.c: 89:             }
  8249  0B6B  2B84               	goto	l3194
  8250  0B6C                     l3186:
  8251  0B6C  3003               	movlw	3
  8252  0B6D  023E               	subwf	(APP_LEDUpdateUSBStatus@ledCount+1)^(0+128),w
  8253  0B6E  30B7               	movlw	183
  8254  0B6F  1903               	skipnz
  8255  0B70  023D               	subwf	APP_LEDUpdateUSBStatus@ledCount^(0+128),w
  8256  0B71  1C03               	skipc
  8257  0B72  2B74               	goto	u2001
  8258  0B73  2B75               	goto	u2000
  8259  0B74                     u2001:
  8260  0B74  2B84               	goto	l3194
  8261  0B75                     u2000:
  8262  0B75  2B51               	goto	l3176
  8263  0B76                     l3192:
  8264  0B76  0021               	movlb	1	; select bank1
  8265  0B77  0854               	movf	_USBDeviceState^(0+128),w
  8266  0B78  00F3               	movwf	??_APP_LEDUpdateUSBStatus
  8267  0B79  01F4               	clrf	??_APP_LEDUpdateUSBStatus+1
  8268                           
  8269                           ; Switch on 2 bytes has been partitioned into a top level switch of size 1, and 1 sub-sw
      +                          itches
  8270                           ; Switch size 1, requested type "simple"
  8271                           ; Number of cases is 1, Range of values is 0 to 0
  8272                           ; switch strategies available:
  8273                           ; Name         Instructions Cycles
  8274                           ; simple_byte            4     3 (average)
  8275                           ; direct_byte            8     6 (fixed)
  8276                           ; jumptable            260     6 (fixed)
  8277                           ;	Chosen strategy is simple_byte
  8278  0B7A  0874               	movf	??_APP_LEDUpdateUSBStatus+1,w
  8279  0B7B  3A00               	xorlw	0	; case 0
  8280  0B7C  1903               	skipnz
  8281  0B7D  2B7F               	goto	l5250
  8282  0B7E  2B55               	goto	l3178
  8283  0B7F                     l5250:
  8284                           
  8285                           ; Switch size 1, requested type "simple"
  8286                           ; Number of cases is 1, Range of values is 32 to 32
  8287                           ; switch strategies available:
  8288                           ; Name         Instructions Cycles
  8289                           ; simple_byte            4     3 (average)
  8290                           ; direct_byte           11     9 (fixed)
  8291                           ; jumptable            263     9 (fixed)
  8292                           ;	Chosen strategy is simple_byte
  8293  0B7F  0873               	movf	??_APP_LEDUpdateUSBStatus,w
  8294  0B80  3A20               	xorlw	32	; case 32
  8295  0B81  1903               	skipnz
  8296  0B82  2B31               	goto	l3166
  8297  0B83  2B55               	goto	l3178
  8298  0B84                     l3194:
  8299                           
  8300                           ;lib/app_led_usb_status.c: 98:     ledCount++;
  8301  0B84  3001               	movlw	1
  8302  0B85  0021               	movlb	1	; select bank1
  8303  0B86  07BD               	addwf	APP_LEDUpdateUSBStatus@ledCount^(0+128),f
  8304  0B87  3000               	movlw	0
  8305  0B88  3DBE               	addwfc	(APP_LEDUpdateUSBStatus@ledCount+1)^(0+128),f
  8306  0B89                     l608:
  8307  0B89  0008               	return
  8308  0B8A                     __end_of_APP_LEDUpdateUSBStatus:
  8309                           
  8310                           	psect	text25
  8311  0886                     __ptext25:	
  8312 ;; *************** function _LED_On *****************
  8313 ;; Defined at:
  8314 ;;		line 59 in file "lib/leds.c"
  8315 ;; Parameters:    Size  Location     Type
  8316 ;;  led             1    wreg     enum E2
  8317 ;; Auto vars:     Size  Location     Type
  8318 ;;  led             1    2[COMMON] enum E2
  8319 ;; Return value:  Size  Location     Type
  8320 ;;                  1    wreg      void 
  8321 ;; Registers used:
  8322 ;;		wreg, fsr0l, fsr0h, status,2, status,0
  8323 ;; Tracked objects:
  8324 ;;		On entry : 0/0
  8325 ;;		On exit  : 0/0
  8326 ;;		Unchanged: 0/0
  8327 ;; Data sizes:     COMMON   BANK1   BANK2   BANK3   BANK4   BANK5   BANK6   BANK7   BANK8   BANK9  BANK10  BANK11  BANK1
      +2
  8328 ;;      Params:         0       0       0       0       0       0       0       0       0       0       0       0       
      +0
  8329 ;;      Locals:         1       0       0       0       0       0       0       0       0       0       0       0       
      +0
  8330 ;;      Temps:          2       0       0       0       0       0       0       0       0       0       0       0       
      +0
  8331 ;;      Totals:         3       0       0       0       0       0       0       0       0       0       0       0       
      +0
  8332 ;;Total ram usage:        3 bytes
  8333 ;; Hardware stack levels used: 1
  8334 ;; Hardware stack levels required when called: 1
  8335 ;; This function calls:
  8336 ;;		Nothing
  8337 ;; This function is called by:
  8338 ;;		_APP_LEDUpdateUSBStatus
  8339 ;; This function uses a non-reentrant model
  8340 ;;
  8341                           
  8342  0886                     _LED_On:	
  8343                           ;psect for function _LED_On
  8344                           
  8345                           
  8346                           ;incstack = 0
  8347                           ; Regs used in _LED_On: [wreg-fsr0h+status,2+status,0]
  8348                           ;LED_On@led stored from wreg
  8349  0886  00F2               	movwf	LED_On@led
  8350  0887                     l3050:
  8351                           
  8352                           ;lib/leds.c: 59: void LED_On(LED led);lib/leds.c: 60: {;lib/leds.c: 61:     switch(led)
  8353  0887  2891               	goto	l3054
  8354  0888                     l648:	
  8355                           ;lib/leds.c: 62:     {;lib/leds.c: 63:         case LED_D1:
  8356                           
  8357                           
  8358                           ;lib/leds.c: 64:             LATCbits.LATC4 = 1;
  8359  0888  0022               	movlb	2	; select bank2
  8360  0889  160E               	bsf	14,4	;volatile
  8361                           
  8362                           ;lib/leds.c: 65:             break;
  8363  088A  28A7               	goto	l653
  8364  088B                     l650:	
  8365                           ;lib/leds.c: 67:         case LED_D2:
  8366                           
  8367                           
  8368                           ;lib/leds.c: 68:             LATCbits.LATC1 = 1;
  8369  088B  0022               	movlb	2	; select bank2
  8370  088C  148E               	bsf	14,1	;volatile
  8371                           
  8372                           ;lib/leds.c: 69:             break;
  8373  088D  28A7               	goto	l653
  8374  088E                     l651:	
  8375                           ;lib/leds.c: 71:         case LED_D3:
  8376                           
  8377                           
  8378                           ;lib/leds.c: 72:             LATCbits.LATC2 = 1;
  8379  088E  0022               	movlb	2	; select bank2
  8380  088F  150E               	bsf	14,2	;volatile
  8381                           
  8382                           ;lib/leds.c: 73:             break;
  8383  0890  28A7               	goto	l653
  8384  0891                     l3054:
  8385  0891  0872               	movf	LED_On@led,w
  8386  0892  00F0               	movwf	??_LED_On
  8387  0893  01F1               	clrf	??_LED_On+1
  8388                           
  8389                           ; Switch on 2 bytes has been partitioned into a top level switch of size 1, and 1 sub-sw
      +                          itches
  8390                           ; Switch size 1, requested type "simple"
  8391                           ; Number of cases is 1, Range of values is 0 to 0
  8392                           ; switch strategies available:
  8393                           ; Name         Instructions Cycles
  8394                           ; simple_byte            4     3 (average)
  8395                           ; direct_byte            8     6 (fixed)
  8396                           ; jumptable            260     6 (fixed)
  8397                           ;	Chosen strategy is simple_byte
  8398  0894  0871               	movf	??_LED_On+1,w
  8399  0895  3A00               	xorlw	0	; case 0
  8400  0896  1903               	skipnz
  8401  0897  2899               	goto	l5252
  8402  0898  28A7               	goto	l653
  8403  0899                     l5252:
  8404                           
  8405                           ; Switch size 1, requested type "simple"
  8406                           ; Number of cases is 4, Range of values is 0 to 3
  8407                           ; switch strategies available:
  8408                           ; Name         Instructions Cycles
  8409                           ; simple_byte           13     7 (average)
  8410                           ; direct_byte           14     6 (fixed)
  8411                           ; jumptable            260     6 (fixed)
  8412                           ;	Chosen strategy is simple_byte
  8413  0899  0870               	movf	??_LED_On,w
  8414  089A  3A00               	xorlw	0	; case 0
  8415  089B  1903               	skipnz
  8416  089C  28A7               	goto	l653
  8417  089D  3A01               	xorlw	1	; case 1
  8418  089E  1903               	skipnz
  8419  089F  2888               	goto	l648
  8420  08A0  3A03               	xorlw	3	; case 2
  8421  08A1  1903               	skipnz
  8422  08A2  288B               	goto	l650
  8423  08A3  3A01               	xorlw	1	; case 3
  8424  08A4  1903               	skipnz
  8425  08A5  288E               	goto	l651
  8426  08A6  28A7               	goto	l653
  8427  08A7                     l653:
  8428  08A7  0008               	return
  8429  08A8                     __end_of_LED_On:
  8430                           
  8431                           	psect	text26
  8432  0864                     __ptext26:	
  8433 ;; *************** function _LED_Off *****************
  8434 ;; Defined at:
  8435 ;;		line 100 in file "lib/leds.c"
  8436 ;; Parameters:    Size  Location     Type
  8437 ;;  led             1    wreg     enum E2
  8438 ;; Auto vars:     Size  Location     Type
  8439 ;;  led             1    2[COMMON] enum E2
  8440 ;; Return value:  Size  Location     Type
  8441 ;;                  1    wreg      void 
  8442 ;; Registers used:
  8443 ;;		wreg, fsr0l, fsr0h, status,2, status,0
  8444 ;; Tracked objects:
  8445 ;;		On entry : 0/0
  8446 ;;		On exit  : 0/0
  8447 ;;		Unchanged: 0/0
  8448 ;; Data sizes:     COMMON   BANK1   BANK2   BANK3   BANK4   BANK5   BANK6   BANK7   BANK8   BANK9  BANK10  BANK11  BANK1
      +2
  8449 ;;      Params:         0       0       0       0       0       0       0       0       0       0       0       0       
      +0
  8450 ;;      Locals:         1       0       0       0       0       0       0       0       0       0       0       0       
      +0
  8451 ;;      Temps:          2       0       0       0       0       0       0       0       0       0       0       0       
      +0
  8452 ;;      Totals:         3       0       0       0       0       0       0       0       0       0       0       0       
      +0
  8453 ;;Total ram usage:        3 bytes
  8454 ;; Hardware stack levels used: 1
  8455 ;; Hardware stack levels required when called: 1
  8456 ;; This function calls:
  8457 ;;		Nothing
  8458 ;; This function is called by:
  8459 ;;		_APP_LEDUpdateUSBStatus
  8460 ;; This function uses a non-reentrant model
  8461 ;;
  8462                           
  8463  0864                     _LED_Off:	
  8464                           ;psect for function _LED_Off
  8465                           
  8466                           
  8467                           ;incstack = 0
  8468                           ; Regs used in _LED_Off: [wreg-fsr0h+status,2+status,0]
  8469                           ;LED_Off@led stored from wreg
  8470  0864  00F2               	movwf	LED_Off@led
  8471  0865                     l3040:
  8472                           
  8473                           ;lib/leds.c: 100: void LED_Off(LED led);lib/leds.c: 101: {;lib/leds.c: 102:     switch(l
      +                          ed)
  8474  0865  286F               	goto	l3044
  8475  0866                     l657:	
  8476                           ;lib/leds.c: 103:     {;lib/leds.c: 104:         case LED_D1:
  8477                           
  8478                           
  8479                           ;lib/leds.c: 105:             LATCbits.LATC4 = 0;
  8480  0866  0022               	movlb	2	; select bank2
  8481  0867  120E               	bcf	14,4	;volatile
  8482                           
  8483                           ;lib/leds.c: 106:             break;
  8484  0868  2885               	goto	l662
  8485  0869                     l659:	
  8486                           ;lib/leds.c: 108:         case LED_D2:
  8487                           
  8488                           
  8489                           ;lib/leds.c: 109:             LATCbits.LATC1 = 0;
  8490  0869  0022               	movlb	2	; select bank2
  8491  086A  108E               	bcf	14,1	;volatile
  8492                           
  8493                           ;lib/leds.c: 110:             break;
  8494  086B  2885               	goto	l662
  8495  086C                     l660:	
  8496                           ;lib/leds.c: 112:         case LED_D3:
  8497                           
  8498                           
  8499                           ;lib/leds.c: 113:             LATCbits.LATC2 = 0;
  8500  086C  0022               	movlb	2	; select bank2
  8501  086D  110E               	bcf	14,2	;volatile
  8502                           
  8503                           ;lib/leds.c: 114:             break;
  8504  086E  2885               	goto	l662
  8505  086F                     l3044:
  8506  086F  0872               	movf	LED_Off@led,w
  8507  0870  00F0               	movwf	??_LED_Off
  8508  0871  01F1               	clrf	??_LED_Off+1
  8509                           
  8510                           ; Switch on 2 bytes has been partitioned into a top level switch of size 1, and 1 sub-sw
      +                          itches
  8511                           ; Switch size 1, requested type "simple"
  8512                           ; Number of cases is 1, Range of values is 0 to 0
  8513                           ; switch strategies available:
  8514                           ; Name         Instructions Cycles
  8515                           ; simple_byte            4     3 (average)
  8516                           ; direct_byte            8     6 (fixed)
  8517                           ; jumptable            260     6 (fixed)
  8518                           ;	Chosen strategy is simple_byte
  8519  0872  0871               	movf	??_LED_Off+1,w
  8520  0873  3A00               	xorlw	0	; case 0
  8521  0874  1903               	skipnz
  8522  0875  2877               	goto	l5254
  8523  0876  2885               	goto	l662
  8524  0877                     l5254:
  8525                           
  8526                           ; Switch size 1, requested type "simple"
  8527                           ; Number of cases is 4, Range of values is 0 to 3
  8528                           ; switch strategies available:
  8529                           ; Name         Instructions Cycles
  8530                           ; simple_byte           13     7 (average)
  8531                           ; direct_byte           14     6 (fixed)
  8532                           ; jumptable            260     6 (fixed)
  8533                           ;	Chosen strategy is simple_byte
  8534  0877  0870               	movf	??_LED_Off,w
  8535  0878  3A00               	xorlw	0	; case 0
  8536  0879  1903               	skipnz
  8537  087A  2885               	goto	l662
  8538  087B  3A01               	xorlw	1	; case 1
  8539  087C  1903               	skipnz
  8540  087D  2866               	goto	l657
  8541  087E  3A03               	xorlw	3	; case 2
  8542  087F  1903               	skipnz
  8543  0880  2869               	goto	l659
  8544  0881  3A01               	xorlw	1	; case 3
  8545  0882  1903               	skipnz
  8546  0883  286C               	goto	l660
  8547  0884  2885               	goto	l662
  8548  0885                     l662:
  8549  0885  0008               	return
  8550  0886                     __end_of_LED_Off:
  8551                           
  8552                           	psect	text27
  8553  08EF                     __ptext27:	
  8554 ;; *************** function _APP_DeviceJoystickInitialize *****************
  8555 ;; Defined at:
  8556 ;;		line 56 in file "lib/app_device_joystick.c"
  8557 ;; Parameters:    Size  Location     Type
  8558 ;;		None
  8559 ;; Auto vars:     Size  Location     Type
  8560 ;;		None
  8561 ;; Return value:  Size  Location     Type
  8562 ;;                  1    wreg      void 
  8563 ;; Registers used:
  8564 ;;		wreg, fsr1l, fsr1h, status,2, status,0, pclath, cstack
  8565 ;; Tracked objects:
  8566 ;;		On entry : 0/0
  8567 ;;		On exit  : 0/0
  8568 ;;		Unchanged: 0/0
  8569 ;; Data sizes:     COMMON   BANK1   BANK2   BANK3   BANK4   BANK5   BANK6   BANK7   BANK8   BANK9  BANK10  BANK11  BANK1
      +2
  8570 ;;      Params:         0       0       0       0       0       0       0       0       0       0       0       0       
      +0
  8571 ;;      Locals:         0       0       0       0       0       0       0       0       0       0       0       0       
      +0
  8572 ;;      Temps:          1       0       0       0       0       0       0       0       0       0       0       0       
      +0
  8573 ;;      Totals:         1       0       0       0       0       0       0       0       0       0       0       0       
      +0
  8574 ;;Total ram usage:        1 bytes
  8575 ;; Hardware stack levels used: 1
  8576 ;; Hardware stack levels required when called: 3
  8577 ;; This function calls:
  8578 ;;		_USBEnableEndpoint
  8579 ;; This function is called by:
  8580 ;;		_USER_USB_CALLBACK_EVENT_HANDLER
  8581 ;; This function uses a non-reentrant model
  8582 ;;
  8583                           
  8584  08EF                     _APP_DeviceJoystickInitialize:	
  8585                           ;psect for function _APP_DeviceJoystickInitialize
  8586                           
  8587  08EF                     l3214:	
  8588                           ;incstack = 0
  8589                           ; Regs used in _APP_DeviceJoystickInitialize: [wreg+fsr1l+fsr1h+status,2+status,0+pclath
      +                          +cstack]
  8590                           
  8591                           
  8592                           ;lib/app_device_joystick.c: 60:     last_HAP_IN = 0;
  8593  08EF  0021               	movlb	1	; select bank1
  8594  08F0  01BF               	clrf	_last_HAP_IN^(0+128)
  8595  08F1  01C0               	clrf	(_last_HAP_IN+1)^(0+128)
  8596                           
  8597                           ;lib/app_device_joystick.c: 61:     last_HAP_OUT = 0;
  8598  08F2  0023               	movlb	3	; select bank3
  8599  08F3  01BA               	clrf	_last_HAP_OUT^(0+384)
  8600  08F4  01BB               	clrf	(_last_HAP_OUT+1)^(0+384)
  8601                           
  8602                           ;lib/app_device_joystick.c: 62:     last_LED_OUT = 0;
  8603  08F5  01B8               	clrf	_last_LED_OUT^(0+384)
  8604  08F6  01B9               	clrf	(_last_LED_OUT+1)^(0+384)
  8605                           
  8606                           ;lib/app_device_joystick.c: 63:     last_DSP_OUT = 0;
  8607  08F7  01B6               	clrf	_last_DSP_OUT^(0+384)
  8608  08F8  01B7               	clrf	(_last_DSP_OUT+1)^(0+384)
  8609                           
  8610                           ;lib/app_device_joystick.c: 66:     display_pkt_ready=0;
  8611  08F9  0021               	movlb	1	; select bank1
  8612  08FA  01C4               	clrf	_display_pkt_ready^(0+128)
  8613                           
  8614                           ;lib/app_device_joystick.c: 67:     LED_pkt_ready=0;
  8615  08FB  0022               	movlb	2	; select bank2
  8616  08FC  01AD               	clrf	_LED_pkt_ready^(0+256)
  8617  08FD                     l3216:
  8618                           
  8619                           ;lib/app_device_joystick.c: 68:     hap_IN_pkt_sent=1;
  8620  08FD  01AC               	clrf	_hap_IN_pkt_sent^(0+256)
  8621  08FE  0AAC               	incf	_hap_IN_pkt_sent^(0+256),f
  8622                           
  8623                           ;lib/app_device_joystick.c: 69:     hap_OUT_pkt_ready=0;
  8624  08FF  01AB               	clrf	_hap_OUT_pkt_ready^(0+256)
  8625  0900                     l3218:
  8626                           
  8627                           ;lib/app_device_joystick.c: 72:     USBEnableEndpoint(1,0x04|0x02|0x10|0x08);
  8628  0900  301E               	movlw	30
  8629  0901  00FD               	movwf	??_APP_DeviceJoystickInitialize
  8630  0902  087D               	movf	??_APP_DeviceJoystickInitialize,w
  8631  0903  00F7               	movwf	USBEnableEndpoint@options
  8632  0904  3001               	movlw	1
  8633  0905  3188  20CA  3188   	fcall	_USBEnableEndpoint
  8634  0908                     l3220:
  8635                           
  8636                           ;lib/app_device_joystick.c: 73:     USBEnableEndpoint(2 ,0x04|0x02|0x10|0x08);
  8637  0908  301E               	movlw	30
  8638  0909  00FD               	movwf	??_APP_DeviceJoystickInitialize
  8639  090A  087D               	movf	??_APP_DeviceJoystickInitialize,w
  8640  090B  00F7               	movwf	USBEnableEndpoint@options
  8641  090C  3002               	movlw	2
  8642  090D  3188  20CA  3188   	fcall	_USBEnableEndpoint
  8643  0910                     l3222:
  8644                           
  8645                           ;lib/app_device_joystick.c: 74:     USBEnableEndpoint(3 ,0x04|0x02|0x10|0x08);
  8646  0910  301E               	movlw	30
  8647  0911  00FD               	movwf	??_APP_DeviceJoystickInitialize
  8648  0912  087D               	movf	??_APP_DeviceJoystickInitialize,w
  8649  0913  00F7               	movwf	USBEnableEndpoint@options
  8650  0914  3003               	movlw	3
  8651  0915  3188  20CA  3188   	fcall	_USBEnableEndpoint
  8652  0918                     l575:
  8653  0918  0008               	return
  8654  0919                     __end_of_APP_DeviceJoystickInitialize:
  8655                           
  8656                           	psect	text28
  8657  08CA                     __ptext28:	
  8658 ;; *************** function _USBEnableEndpoint *****************
  8659 ;; Defined at:
  8660 ;;		line 882 in file "lib/usb/usb_device.c"
  8661 ;; Parameters:    Size  Location     Type
  8662 ;;  ep              1    wreg     unsigned char 
  8663 ;;  options         1    7[COMMON] unsigned char 
  8664 ;; Auto vars:     Size  Location     Type
  8665 ;;  ep              1   12[COMMON] unsigned char 
  8666 ;;  p               2   10[COMMON] PTR unsigned char 
  8667 ;;		 -> UEP0(1), 
  8668 ;; Return value:  Size  Location     Type
  8669 ;;                  1    wreg      void 
  8670 ;; Registers used:
  8671 ;;		wreg, fsr1l, fsr1h, status,2, status,0, pclath, cstack
  8672 ;; Tracked objects:
  8673 ;;		On entry : 0/0
  8674 ;;		On exit  : 0/0
  8675 ;;		Unchanged: 0/0
  8676 ;; Data sizes:     COMMON   BANK1   BANK2   BANK3   BANK4   BANK5   BANK6   BANK7   BANK8   BANK9  BANK10  BANK11  BANK1
      +2
  8677 ;;      Params:         1       0       0       0       0       0       0       0       0       0       0       0       
      +0
  8678 ;;      Locals:         3       0       0       0       0       0       0       0       0       0       0       0       
      +0
  8679 ;;      Temps:          2       0       0       0       0       0       0       0       0       0       0       0       
      +0
  8680 ;;      Totals:         6       0       0       0       0       0       0       0       0       0       0       0       
      +0
  8681 ;;Total ram usage:        6 bytes
  8682 ;; Hardware stack levels used: 1
  8683 ;; Hardware stack levels required when called: 2
  8684 ;; This function calls:
  8685 ;;		_USBConfigureEndpoint
  8686 ;; This function is called by:
  8687 ;;		_APP_DeviceJoystickInitialize
  8688 ;; This function uses a non-reentrant model
  8689 ;;
  8690                           
  8691  08CA                     _USBEnableEndpoint:	
  8692                           ;psect for function _USBEnableEndpoint
  8693                           
  8694                           
  8695                           ;incstack = 0
  8696                           ; Regs used in _USBEnableEndpoint: [wreg+fsr1l+fsr1h+status,2+status,0+pclath+cstack]
  8697                           ;USBEnableEndpoint@ep stored from wreg
  8698  08CA  00FC               	movwf	USBEnableEndpoint@ep
  8699  08CB                     l3028:
  8700                           
  8701                           ;lib/usb/usb_device.c: 882: void USBEnableEndpoint(uint8_t ep, uint8_t options);lib/usb/
      +                          usb_device.c: 883: {;lib/usb/usb_device.c: 884:     unsigned char* p;;lib/usb/usb_device
      +                          .c: 888:     if(options & 0x04)
  8702  08CB  1D77               	btfss	USBEnableEndpoint@options,2
  8703  08CC  28CE               	goto	u1781
  8704  08CD  28CF               	goto	u1780
  8705  08CE                     u1781:
  8706  08CE  28D4               	goto	l3032
  8707  08CF                     u1780:
  8708  08CF                     l3030:
  8709                           
  8710                           ;lib/usb/usb_device.c: 889:     {;lib/usb/usb_device.c: 890:         USBConfigureEndpoin
      +                          t(ep, 0);
  8711  08CF  01F0               	clrf	USBConfigureEndpoint@direction
  8712  08D0  087C               	movf	USBEnableEndpoint@ep,w
  8713  08D1  3189  21EB  3188   	fcall	_USBConfigureEndpoint
  8714  08D4                     l3032:
  8715                           
  8716                           ;lib/usb/usb_device.c: 892:     if(options & 0x02)
  8717  08D4  1CF7               	btfss	USBEnableEndpoint@options,1
  8718  08D5  28D7               	goto	u1791
  8719  08D6  28D8               	goto	u1790
  8720  08D7                     u1791:
  8721  08D7  28DE               	goto	l3036
  8722  08D8                     u1790:
  8723  08D8                     l3034:
  8724                           
  8725                           ;lib/usb/usb_device.c: 893:     {;lib/usb/usb_device.c: 894:         USBConfigureEndpoin
      +                          t(ep, 1);
  8726  08D8  01F0               	clrf	USBConfigureEndpoint@direction
  8727  08D9  0AF0               	incf	USBConfigureEndpoint@direction,f
  8728  08DA  087C               	movf	USBEnableEndpoint@ep,w
  8729  08DB  3189  21EB  3188   	fcall	_USBConfigureEndpoint
  8730  08DE                     l3036:
  8731                           
  8732                           ;lib/usb/usb_device.c: 903:         p = (unsigned char*)(&UEP0+ep);
  8733  08DE  087C               	movf	USBEnableEndpoint@ep,w
  8734  08DF  3E98               	addlw	152
  8735  08E0  00F8               	movwf	??_USBEnableEndpoint
  8736  08E1  01F9               	clrf	??_USBEnableEndpoint+1
  8737  08E2  300E               	movlw	14
  8738  08E3  3DF9               	addwfc	??_USBEnableEndpoint+1,f
  8739  08E4  0878               	movf	??_USBEnableEndpoint,w
  8740  08E5  00FA               	movwf	USBEnableEndpoint@p
  8741  08E6  0879               	movf	??_USBEnableEndpoint+1,w
  8742  08E7  00FB               	movwf	USBEnableEndpoint@p+1
  8743  08E8                     l3038:
  8744                           
  8745                           ;lib/usb/usb_device.c: 905:     *p = options;
  8746  08E8  087A               	movf	USBEnableEndpoint@p,w
  8747  08E9  0086               	movwf	6
  8748  08EA  087B               	movf	USBEnableEndpoint@p+1,w
  8749  08EB  0087               	movwf	7
  8750  08EC  0877               	movf	USBEnableEndpoint@options,w
  8751  08ED  0081               	movwf	1
  8752  08EE                     l196:
  8753  08EE  0008               	return
  8754  08EF                     __end_of_USBEnableEndpoint:
  8755                           
  8756                           	psect	text29
  8757  09EB                     __ptext29:	
  8758 ;; *************** function _USBConfigureEndpoint *****************
  8759 ;; Defined at:
  8760 ;;		line 1547 in file "lib/usb/usb_device.c"
  8761 ;; Parameters:    Size  Location     Type
  8762 ;;  EPNum           1    wreg     unsigned char 
  8763 ;;  direction       1    0[COMMON] unsigned char 
  8764 ;; Auto vars:     Size  Location     Type
  8765 ;;  EPNum           1    5[COMMON] unsigned char 
  8766 ;;  handle          1    6[COMMON] PTR volatile struct __BD
  8767 ;;		 -> BDT(64), 
  8768 ;; Return value:  Size  Location     Type
  8769 ;;                  1    wreg      void 
  8770 ;; Registers used:
  8771 ;;		wreg, fsr1l, fsr1h, status,2, status,0
  8772 ;; Tracked objects:
  8773 ;;		On entry : 0/0
  8774 ;;		On exit  : 0/0
  8775 ;;		Unchanged: 0/0
  8776 ;; Data sizes:     COMMON   BANK1   BANK2   BANK3   BANK4   BANK5   BANK6   BANK7   BANK8   BANK9  BANK10  BANK11  BANK1
      +2
  8777 ;;      Params:         1       0       0       0       0       0       0       0       0       0       0       0       
      +0
  8778 ;;      Locals:         2       0       0       0       0       0       0       0       0       0       0       0       
      +0
  8779 ;;      Temps:          4       0       0       0       0       0       0       0       0       0       0       0       
      +0
  8780 ;;      Totals:         7       0       0       0       0       0       0       0       0       0       0       0       
      +0
  8781 ;;Total ram usage:        7 bytes
  8782 ;; Hardware stack levels used: 1
  8783 ;; Hardware stack levels required when called: 1
  8784 ;; This function calls:
  8785 ;;		Nothing
  8786 ;; This function is called by:
  8787 ;;		_USBEnableEndpoint
  8788 ;; This function uses a non-reentrant model
  8789 ;;
  8790                           
  8791  09EB                     _USBConfigureEndpoint:	
  8792                           ;psect for function _USBConfigureEndpoint
  8793                           
  8794                           
  8795                           ;incstack = 0
  8796                           ; Regs used in _USBConfigureEndpoint: [wreg+fsr1l+fsr1h+status,2+status,0]
  8797                           ;USBConfigureEndpoint@EPNum stored from wreg
  8798  09EB  00F5               	movwf	USBConfigureEndpoint@EPNum
  8799  09EC                     l3012:
  8800                           
  8801                           ;lib/usb/usb_device.c: 1547: static void USBConfigureEndpoint(uint8_t EPNum, uint8_t dir
      +                          ection);lib/usb/usb_device.c: 1548: {;lib/usb/usb_device.c: 1549:     volatile BDT_ENTRY
      +                          * handle;;lib/usb/usb_device.c: 1553:     handle = (volatile BDT_ENTRY*)&BDT[0];
  8802  09EC  3020               	movlw	32
  8803  09ED  00F1               	movwf	??_USBConfigureEndpoint
  8804  09EE  0871               	movf	??_USBConfigureEndpoint,w
  8805  09EF  00F6               	movwf	USBConfigureEndpoint@handle
  8806  09F0                     l3014:
  8807                           
  8808                           ;lib/usb/usb_device.c: 1554:     handle += (4*EPNum+2*direction+0u);
  8809  09F0  0870               	movf	USBConfigureEndpoint@direction,w
  8810  09F1  00F1               	movwf	??_USBConfigureEndpoint
  8811  09F2  3001               	movlw	1
  8812  09F3                     u1745:
  8813  09F3  35F1               	lslf	??_USBConfigureEndpoint,f
  8814  09F4  0B89               	decfsz	9,f
  8815  09F5  29F3               	goto	u1745
  8816  09F6  0875               	movf	USBConfigureEndpoint@EPNum,w
  8817  09F7  00F2               	movwf	??_USBConfigureEndpoint+1
  8818  09F8  3001               	movlw	1
  8819  09F9                     u1755:
  8820  09F9  35F2               	lslf	??_USBConfigureEndpoint+1,f
  8821  09FA  3EFF               	addlw	-1
  8822  09FB  1D03               	skipz
  8823  09FC  29F9               	goto	u1755
  8824  09FD  3572               	lslf	??_USBConfigureEndpoint+1,w
  8825  09FE  0771               	addwf	??_USBConfigureEndpoint,w
  8826  09FF  00F3               	movwf	??_USBConfigureEndpoint+2
  8827  0A00  3001               	movlw	1
  8828  0A01                     u1765:
  8829  0A01  35F3               	lslf	??_USBConfigureEndpoint+2,f
  8830  0A02  3EFF               	addlw	-1
  8831  0A03  1D03               	skipz
  8832  0A04  2A01               	goto	u1765
  8833  0A05  3573               	lslf	??_USBConfigureEndpoint+2,w
  8834  0A06  00F4               	movwf	??_USBConfigureEndpoint+3
  8835  0A07  0874               	movf	??_USBConfigureEndpoint+3,w
  8836  0A08  07F6               	addwf	USBConfigureEndpoint@handle,f
  8837  0A09                     l3016:
  8838                           
  8839                           ;lib/usb/usb_device.c: 1556:     handle->STAT.UOWN = 0;
  8840  0A09  0876               	movf	USBConfigureEndpoint@handle,w
  8841  0A0A  0086               	movwf	6
  8842  0A0B  0187               	clrf	7
  8843  0A0C  1381               	bcf	1,7
  8844  0A0D                     l3018:
  8845                           
  8846                           ;lib/usb/usb_device.c: 1561:     if(direction == 0)
  8847  0A0D  0870               	movf	USBConfigureEndpoint@direction,w
  8848  0A0E  1D03               	btfss	3,2
  8849  0A0F  2A11               	goto	u1771
  8850  0A10  2A12               	goto	u1770
  8851  0A11                     u1771:
  8852  0A11  2A1C               	goto	l3022
  8853  0A12                     u1770:
  8854  0A12                     l3020:
  8855                           
  8856                           ;lib/usb/usb_device.c: 1562:     {;lib/usb/usb_device.c: 1563:         pBDTEntryOut[EPNu
      +                          m] = handle;
  8857  0A12  3575               	lslf	USBConfigureEndpoint@EPNum,w
  8858  0A13  3EA0               	addlw	(low (_pBDTEntryOut| (0+256)))& (0+255)
  8859  0A14  0086               	movwf	6
  8860  0A15  3001               	movlw	1	; select bank3/4
  8861  0A16  0087               	movwf	7
  8862  0A17  0876               	movf	USBConfigureEndpoint@handle,w
  8863  0A18  3FC0               	movwi [0]fsr1
  8864  0A19  3000               	movlw	0
  8865  0A1A  3FC1               	movwi [1]fsr1
  8866                           
  8867                           ;lib/usb/usb_device.c: 1564:     }
  8868  0A1B  2A24               	goto	l3024
  8869  0A1C                     l3022:
  8870                           
  8871                           ;lib/usb/usb_device.c: 1566:     {;lib/usb/usb_device.c: 1567:         pBDTEntryIn[EPNum
      +                          ] = handle;
  8872  0A1C  3575               	lslf	USBConfigureEndpoint@EPNum,w
  8873  0A1D  3EB0               	addlw	(low (_pBDTEntryIn| 0))& (0+255)
  8874  0A1E  0086               	movwf	6
  8875  0A1F  0187               	clrf	7
  8876  0A20  0876               	movf	USBConfigureEndpoint@handle,w
  8877  0A21  3FC0               	movwi [0]fsr1
  8878  0A22  3000               	movlw	0
  8879  0A23  3FC1               	movwi [1]fsr1
  8880  0A24                     l3024:
  8881                           
  8882                           ;lib/usb/usb_device.c: 1571:         handle->STAT.DTS = 0;
  8883  0A24  0876               	movf	USBConfigureEndpoint@handle,w
  8884  0A25  0086               	movwf	6
  8885  0A26  0187               	clrf	7
  8886  0A27  1301               	bcf	1,6
  8887  0A28                     l3026:
  8888                           
  8889                           ;lib/usb/usb_device.c: 1572:         (handle+1)->STAT.DTS = 1;
  8890  0A28  0876               	movf	USBConfigureEndpoint@handle,w
  8891  0A29  3E04               	addlw	4
  8892  0A2A  0086               	movwf	6
  8893  0A2B  0187               	clrf	7
  8894  0A2C  1701               	bsf	1,6
  8895  0A2D                     l232:
  8896  0A2D  0008               	return
  8897  0A2E                     __end_of_USBConfigureEndpoint:
  8898                           
  8899                           	psect	text30
  8900  0972                     __ptext30:	
  8901 ;; *************** function _USBCtrlTrfOutHandler *****************
  8902 ;; Defined at:
  8903 ;;		line 2545 in file "lib/usb/usb_device.c"
  8904 ;; Parameters:    Size  Location     Type
  8905 ;;		None
  8906 ;; Auto vars:     Size  Location     Type
  8907 ;;		None
  8908 ;; Return value:  Size  Location     Type
  8909 ;;                  1    wreg      void 
  8910 ;; Registers used:
  8911 ;;		wreg, fsr1l, fsr1h, status,2, status,0, pclath, cstack
  8912 ;; Tracked objects:
  8913 ;;		On entry : 0/0
  8914 ;;		On exit  : 0/0
  8915 ;;		Unchanged: 0/0
  8916 ;; Data sizes:     COMMON   BANK1   BANK2   BANK3   BANK4   BANK5   BANK6   BANK7   BANK8   BANK9  BANK10  BANK11  BANK1
      +2
  8917 ;;      Params:         0       0       0       0       0       0       0       0       0       0       0       0       
      +0
  8918 ;;      Locals:         0       0       0       0       0       0       0       0       0       0       0       0       
      +0
  8919 ;;      Temps:          2       0       0       0       0       0       0       0       0       0       0       0       
      +0
  8920 ;;      Totals:         2       0       0       0       0       0       0       0       0       0       0       0       
      +0
  8921 ;;Total ram usage:        2 bytes
  8922 ;; Hardware stack levels used: 1
  8923 ;; Hardware stack levels required when called: 3
  8924 ;; This function calls:
  8925 ;;		_USBCtrlTrfRxService
  8926 ;; This function is called by:
  8927 ;;		_USBCtrlEPService
  8928 ;; This function uses a non-reentrant model
  8929 ;;
  8930                           
  8931  0972                     _USBCtrlTrfOutHandler:	
  8932                           ;psect for function _USBCtrlTrfOutHandler
  8933                           
  8934  0972                     l3780:	
  8935                           ;incstack = 0
  8936                           ; Regs used in _USBCtrlTrfOutHandler: [wreg+fsr1l+fsr1h+status,2+status,0+pclath+cstack]
  8937                           
  8938                           
  8939                           ;lib/usb/usb_device.c: 2547:     if(controlTransferState == 2)
  8940  0972  3002               	movlw	2
  8941  0973  0021               	movlb	1	; select bank1
  8942  0974  0651               	xorwf	_controlTransferState^(0+128),w
  8943  0975  1D03               	btfss	3,2
  8944  0976  2978               	goto	u2621
  8945  0977  2979               	goto	u2620
  8946  0978                     u2621:
  8947  0978  297D               	goto	l3784
  8948  0979                     u2620:
  8949  0979                     l3782:
  8950                           
  8951                           ;lib/usb/usb_device.c: 2548:     {;lib/usb/usb_device.c: 2549:         USBCtrlTrfRxServi
      +                          ce();
  8952  0979  3187  2704  3189   	fcall	_USBCtrlTrfRxService
  8953                           
  8954                           ;lib/usb/usb_device.c: 2550:     }
  8955  097C  29A9               	goto	l343
  8956  097D                     l3784:
  8957                           
  8958                           ;lib/usb/usb_device.c: 2552:     {;lib/usb/usb_device.c: 2555:         controlTransferSt
      +                          ate = 0;
  8959  097D  01D1               	clrf	_controlTransferState^(0+128)
  8960  097E                     l3786:
  8961                           
  8962                           ;lib/usb/usb_device.c: 2562:         if(BothEP0OutUOWNsSet == 0)
  8963  097E  084C               	movf	_BothEP0OutUOWNsSet^(0+128),w
  8964  097F  1D03               	btfss	3,2
  8965  0980  2982               	goto	u2631
  8966  0981  2983               	goto	u2630
  8967  0982                     u2631:
  8968  0982  29A8               	goto	l3796
  8969  0983                     u2630:
  8970  0983                     l3788:
  8971                           
  8972                           ;lib/usb/usb_device.c: 2563:         {;lib/usb/usb_device.c: 2564:             pBDTEntry
      +                          EP0OutNext->CNT = 8;
  8973  0983  0841               	movf	_pBDTEntryEP0OutNext^(0+128),w
  8974  0984  3E01               	addlw	1
  8975  0985  00F6               	movwf	??_USBCtrlTrfOutHandler
  8976  0986  3000               	movlw	0
  8977  0987  3D42               	addwfc	(_pBDTEntryEP0OutNext+1)^(0+128),w
  8978  0988  00F7               	movwf	??_USBCtrlTrfOutHandler+1
  8979  0989  0876               	movf	??_USBCtrlTrfOutHandler,w
  8980  098A  0086               	movwf	6
  8981  098B  0877               	movf	??_USBCtrlTrfOutHandler+1,w
  8982  098C  0087               	movwf	7
  8983  098D  3008               	movlw	8
  8984  098E  0081               	movwf	1
  8985  098F                     l3790:
  8986                           
  8987                           ;lib/usb/usb_device.c: 2565:             pBDTEntryEP0OutNext->ADR = (((uint16_t)(&SetupP
      +                          kt)) & 0x7FFF);
  8988  098F  3060               	movlw	96
  8989  0990  00F6               	movwf	??_USBCtrlTrfOutHandler
  8990  0991  3000               	movlw	0
  8991  0992  00F7               	movwf	??_USBCtrlTrfOutHandler+1
  8992  0993  0841               	movf	_pBDTEntryEP0OutNext^(0+128),w
  8993  0994  0086               	movwf	6
  8994  0995  0842               	movf	(_pBDTEntryEP0OutNext+1)^(0+128),w
  8995  0996  0087               	movwf	7
  8996  0997  3142               	addfsr 1,2
  8997  0998  0876               	movf	??_USBCtrlTrfOutHandler,w
  8998  0999  3FC0               	movwi [0]fsr1
  8999  099A  0877               	movf	??_USBCtrlTrfOutHandler+1,w
  9000  099B  3FC1               	movwi [1]fsr1
  9001  099C                     l3792:
  9002                           
  9003                           ;lib/usb/usb_device.c: 2566:             pBDTEntryEP0OutNext->STAT.Val = 0x00|(0x08 & 0x
      +                          08)|0x04;
  9004  099C  0841               	movf	_pBDTEntryEP0OutNext^(0+128),w
  9005  099D  0086               	movwf	6
  9006  099E  0842               	movf	(_pBDTEntryEP0OutNext+1)^(0+128),w
  9007  099F  0087               	movwf	7
  9008  09A0  300C               	movlw	12
  9009  09A1  0081               	movwf	1
  9010  09A2                     l3794:
  9011                           
  9012                           ;lib/usb/usb_device.c: 2567:             pBDTEntryEP0OutNext->STAT.Val |= 0x80;
  9013  09A2  0841               	movf	_pBDTEntryEP0OutNext^(0+128),w
  9014  09A3  0086               	movwf	6
  9015  09A4  0842               	movf	(_pBDTEntryEP0OutNext+1)^(0+128),w
  9016  09A5  0087               	movwf	7
  9017  09A6  1781               	bsf	1,7
  9018                           
  9019                           ;lib/usb/usb_device.c: 2568:         }
  9020  09A7  29A9               	goto	l343
  9021  09A8                     l3796:
  9022                           
  9023                           ;lib/usb/usb_device.c: 2570:         {;lib/usb/usb_device.c: 2571:             BothEP0Ou
      +                          tUOWNsSet = 0;
  9024  09A8  01CC               	clrf	_BothEP0OutUOWNsSet^(0+128)
  9025  09A9                     l343:
  9026  09A9  0008               	return
  9027  09AA                     __end_of_USBCtrlTrfOutHandler:
  9028                           
  9029                           	psect	text31
  9030  0704                     __ptext31:	
  9031 ;; *************** function _USBCtrlTrfRxService *****************
  9032 ;; Defined at:
  9033 ;;		line 1856 in file "lib/usb/usb_device.c"
  9034 ;; Parameters:    Size  Location     Type
  9035 ;;		None
  9036 ;; Auto vars:     Size  Location     Type
  9037 ;;  byteToRead      1    5[COMMON] unsigned char 
  9038 ;;  i               1    4[COMMON] unsigned char 
  9039 ;; Return value:  Size  Location     Type
  9040 ;;                  1    wreg      void 
  9041 ;; Registers used:
  9042 ;;		wreg, fsr1l, fsr1h, status,2, status,0, pclath, cstack
  9043 ;; Tracked objects:
  9044 ;;		On entry : 0/0
  9045 ;;		On exit  : 0/0
  9046 ;;		Unchanged: 0/0
  9047 ;; Data sizes:     COMMON   BANK1   BANK2   BANK3   BANK4   BANK5   BANK6   BANK7   BANK8   BANK9  BANK10  BANK11  BANK1
      +2
  9048 ;;      Params:         0       0       0       0       0       0       0       0       0       0       0       0       
      +0
  9049 ;;      Locals:         2       0       0       0       0       0       0       0       0       0       0       0       
      +0
  9050 ;;      Temps:          2       0       0       0       0       0       0       0       0       0       0       0       
      +0
  9051 ;;      Totals:         4       0       0       0       0       0       0       0       0       0       0       0       
      +0
  9052 ;;Total ram usage:        4 bytes
  9053 ;; Hardware stack levels used: 1
  9054 ;; Hardware stack levels required when called: 2
  9055 ;; This function calls:
  9056 ;;		_USBCtrlEPAllowStatusStage
  9057 ;; This function is called by:
  9058 ;;		_USBCtrlTrfOutHandler
  9059 ;; This function uses a non-reentrant model
  9060 ;;
  9061                           
  9062  0704                     _USBCtrlTrfRxService:	
  9063                           ;psect for function _USBCtrlTrfRxService
  9064                           
  9065  0704                     l3656:	
  9066                           ;incstack = 0
  9067                           ; Regs used in _USBCtrlTrfRxService: [wreg+fsr1l+fsr1h+status,2+status,0+pclath+cstack]
  9068                           
  9069                           
  9070                           ;lib/usb/usb_device.c: 1858:     uint8_t byteToRead;;lib/usb/usb_device.c: 1859:     uin
      +                          t8_t i;;lib/usb/usb_device.c: 1863:     byteToRead = pBDTEntryEP0OutCurrent->CNT;
  9071  0704  0021               	movlb	1	; select bank1
  9072  0705  0853               	movf	_pBDTEntryEP0OutCurrent^(0+128),w
  9073  0706  0086               	movwf	6
  9074  0707  0187               	clrf	7
  9075  0708  3F41               	moviw [1]fsr1
  9076  0709  00F5               	movwf	USBCtrlTrfRxService@byteToRead
  9077  070A                     l3658:
  9078                           
  9079                           ;lib/usb/usb_device.c: 1869:     if(byteToRead > outPipes[0].wCount.Val)
  9080  070A  0875               	movf	USBCtrlTrfRxService@byteToRead,w
  9081  070B  00F2               	movwf	??_USBCtrlTrfRxService
  9082  070C  01F3               	clrf	??_USBCtrlTrfRxService+1
  9083  070D  0873               	movf	??_USBCtrlTrfRxService+1,w
  9084  070E  0022               	movlb	2	; select bank2
  9085  070F  0224               	subwf	((_outPipes+1)^(0+256)+3),w
  9086  0710  1D03               	skipz
  9087  0711  2F14               	goto	u2555
  9088  0712  0872               	movf	??_USBCtrlTrfRxService,w
  9089  0713  0223               	subwf	(_outPipes^(0+256)+3),w
  9090  0714                     u2555:
  9091  0714  1803               	skipnc
  9092  0715  2F17               	goto	u2551
  9093  0716  2F18               	goto	u2550
  9094  0717                     u2551:
  9095  0717  2F1C               	goto	l263
  9096  0718                     u2550:
  9097  0718                     l3660:
  9098                           
  9099                           ;lib/usb/usb_device.c: 1870:     {;lib/usb/usb_device.c: 1871:         byteToRead = (uin
      +                          t8_t)(outPipes[0].wCount.Val);
  9100  0718  0823               	movf	(_outPipes^(0+256)+3),w
  9101  0719  00F2               	movwf	??_USBCtrlTrfRxService
  9102  071A  0872               	movf	??_USBCtrlTrfRxService,w
  9103  071B  00F5               	movwf	USBCtrlTrfRxService@byteToRead
  9104  071C                     l263:	
  9105                           ;lib/usb/usb_device.c: 1872:     }
  9106                           
  9107                           
  9108                           ;lib/usb/usb_device.c: 1874:     outPipes[0].wCount.Val -= byteToRead;
  9109  071C  0875               	movf	USBCtrlTrfRxService@byteToRead,w
  9110  071D  00F2               	movwf	??_USBCtrlTrfRxService
  9111  071E  01F3               	clrf	??_USBCtrlTrfRxService+1
  9112  071F  0872               	movf	??_USBCtrlTrfRxService,w
  9113  0720  02A3               	subwf	(_outPipes^(0+256)+3),f
  9114  0721  0873               	movf	??_USBCtrlTrfRxService+1,w
  9115  0722  3BA4               	subwfb	((_outPipes+1)^(0+256)+3),f
  9116  0723                     l3662:
  9117                           
  9118                           ;lib/usb/usb_device.c: 1878:     for(i=0;i<byteToRead;i++)
  9119  0723  01F4               	clrf	USBCtrlTrfRxService@i
  9120  0724  2F38               	goto	l3670
  9121  0725                     l3664:
  9122                           
  9123                           ;lib/usb/usb_device.c: 1879:     {;lib/usb/usb_device.c: 1880:         *outPipes[0].pDst
      +                          .bRam++ = CtrlTrfData[i];
  9124  0725  0874               	movf	USBCtrlTrfRxService@i,w
  9125  0726  3E68               	addlw	104
  9126  0727  0086               	movwf	6
  9127  0728  0187               	clrf	7
  9128  0729  0801               	movf	1,w
  9129  072A  00F2               	movwf	??_USBCtrlTrfRxService
  9130  072B  0820               	movf	_outPipes^(0+256),w
  9131  072C  0086               	movwf	6
  9132  072D  0187               	clrf	7
  9133  072E  0872               	movf	??_USBCtrlTrfRxService,w
  9134  072F  0081               	movwf	1
  9135  0730                     l3666:
  9136  0730  3001               	movlw	1
  9137  0731  00F2               	movwf	??_USBCtrlTrfRxService
  9138  0732  0872               	movf	??_USBCtrlTrfRxService,w
  9139  0733  07A0               	addwf	_outPipes^(0+256),f
  9140  0734                     l3668:
  9141                           
  9142                           ;lib/usb/usb_device.c: 1881:     }
  9143  0734  3001               	movlw	1
  9144  0735  00F2               	movwf	??_USBCtrlTrfRxService
  9145  0736  0872               	movf	??_USBCtrlTrfRxService,w
  9146  0737  07F4               	addwf	USBCtrlTrfRxService@i,f
  9147  0738                     l3670:
  9148  0738  0875               	movf	USBCtrlTrfRxService@byteToRead,w
  9149  0739  0274               	subwf	USBCtrlTrfRxService@i,w
  9150  073A  1C03               	skipc
  9151  073B  2F3D               	goto	u2561
  9152  073C  2F3E               	goto	u2560
  9153  073D                     u2561:
  9154  073D  2F25               	goto	l3664
  9155  073E                     u2560:
  9156  073E                     l3672:
  9157                           
  9158                           ;lib/usb/usb_device.c: 1885:     if(outPipes[0].wCount.Val > 0)
  9159  073E  0823               	movf	(_outPipes^(0+256)+3),w
  9160  073F  0424               	iorwf	((_outPipes+1)^(0+256)+3),w
  9161  0740  1903               	btfsc	3,2
  9162  0741  2F43               	goto	u2571
  9163  0742  2F44               	goto	u2570
  9164  0743                     u2571:
  9165  0743  2F7D               	goto	l3684
  9166  0744                     u2570:
  9167  0744                     l3674:
  9168                           
  9169                           ;lib/usb/usb_device.c: 1886:     {;lib/usb/usb_device.c: 1887:         pBDTEntryEP0OutNe
      +                          xt->CNT = 8;
  9170  0744  0021               	movlb	1	; select bank1
  9171  0745  0841               	movf	_pBDTEntryEP0OutNext^(0+128),w
  9172  0746  3E01               	addlw	1
  9173  0747  00F2               	movwf	??_USBCtrlTrfRxService
  9174  0748  3000               	movlw	0
  9175  0749  3D42               	addwfc	(_pBDTEntryEP0OutNext+1)^(0+128),w
  9176  074A  00F3               	movwf	??_USBCtrlTrfRxService+1
  9177  074B  0872               	movf	??_USBCtrlTrfRxService,w
  9178  074C  0086               	movwf	6
  9179  074D  0873               	movf	??_USBCtrlTrfRxService+1,w
  9180  074E  0087               	movwf	7
  9181  074F  3008               	movlw	8
  9182  0750  0081               	movwf	1
  9183  0751                     l3676:
  9184                           
  9185                           ;lib/usb/usb_device.c: 1888:         pBDTEntryEP0OutNext->ADR = (((uint16_t)(&CtrlTrfDat
      +                          a)) & 0x7FFF);
  9186  0751  3068               	movlw	104
  9187  0752  00F2               	movwf	??_USBCtrlTrfRxService
  9188  0753  3000               	movlw	0
  9189  0754  00F3               	movwf	??_USBCtrlTrfRxService+1
  9190  0755  0841               	movf	_pBDTEntryEP0OutNext^(0+128),w
  9191  0756  0086               	movwf	6
  9192  0757  0842               	movf	(_pBDTEntryEP0OutNext+1)^(0+128),w
  9193  0758  0087               	movwf	7
  9194  0759  3142               	addfsr 1,2
  9195  075A  0872               	movf	??_USBCtrlTrfRxService,w
  9196  075B  3FC0               	movwi [0]fsr1
  9197  075C  0873               	movf	??_USBCtrlTrfRxService+1,w
  9198  075D  3FC1               	movwi [1]fsr1
  9199  075E                     l3678:
  9200                           
  9201                           ;lib/usb/usb_device.c: 1889:         if(pBDTEntryEP0OutCurrent->STAT.DTS == 0)
  9202  075E  0853               	movf	_pBDTEntryEP0OutCurrent^(0+128),w
  9203  075F  0086               	movwf	6
  9204  0760  0187               	clrf	7
  9205  0761  1B01               	btfsc	1,6
  9206  0762  2F64               	goto	u2581
  9207  0763  2F65               	goto	u2580
  9208  0764                     u2581:
  9209  0764  2F71               	goto	l3682
  9210  0765                     u2580:
  9211  0765                     l3680:
  9212                           
  9213                           ;lib/usb/usb_device.c: 1890:         {;lib/usb/usb_device.c: 1891:             pBDTEntry
      +                          EP0OutNext->STAT.Val = 0x40|(0x08 & 0x08);
  9214  0765  0841               	movf	_pBDTEntryEP0OutNext^(0+128),w
  9215  0766  0086               	movwf	6
  9216  0767  0842               	movf	(_pBDTEntryEP0OutNext+1)^(0+128),w
  9217  0768  0087               	movwf	7
  9218  0769  3048               	movlw	72
  9219  076A  0081               	movwf	1
  9220                           
  9221                           ;lib/usb/usb_device.c: 1892:             pBDTEntryEP0OutNext->STAT.Val |= 0x80;
  9222  076B  0841               	movf	_pBDTEntryEP0OutNext^(0+128),w
  9223  076C  0086               	movwf	6
  9224  076D  0842               	movf	(_pBDTEntryEP0OutNext+1)^(0+128),w
  9225  076E  0087               	movwf	7
  9226  076F  1781               	bsf	1,7
  9227                           
  9228                           ;lib/usb/usb_device.c: 1893:         }
  9229  0770  2FAD               	goto	l273
  9230  0771                     l3682:
  9231                           
  9232                           ;lib/usb/usb_device.c: 1895:         {;lib/usb/usb_device.c: 1896:             pBDTEntry
      +                          EP0OutNext->STAT.Val = 0x00|(0x08 & 0x08);
  9233  0771  0841               	movf	_pBDTEntryEP0OutNext^(0+128),w
  9234  0772  0086               	movwf	6
  9235  0773  0842               	movf	(_pBDTEntryEP0OutNext+1)^(0+128),w
  9236  0774  0087               	movwf	7
  9237  0775  3008               	movlw	8
  9238  0776  0081               	movwf	1
  9239                           
  9240                           ;lib/usb/usb_device.c: 1897:             pBDTEntryEP0OutNext->STAT.Val |= 0x80;
  9241  0777  0841               	movf	_pBDTEntryEP0OutNext^(0+128),w
  9242  0778  0086               	movwf	6
  9243  0779  0842               	movf	(_pBDTEntryEP0OutNext+1)^(0+128),w
  9244  077A  0087               	movwf	7
  9245  077B  1781               	bsf	1,7
  9246  077C  2FAD               	goto	l273
  9247  077D                     l3684:
  9248                           
  9249                           ;lib/usb/usb_device.c: 1901:     {;lib/usb/usb_device.c: 1905:         pBDTEntryEP0OutNe
      +                          xt->CNT = 8;
  9250  077D  0021               	movlb	1	; select bank1
  9251  077E  0841               	movf	_pBDTEntryEP0OutNext^(0+128),w
  9252  077F  3E01               	addlw	1
  9253  0780  00F2               	movwf	??_USBCtrlTrfRxService
  9254  0781  3000               	movlw	0
  9255  0782  3D42               	addwfc	(_pBDTEntryEP0OutNext+1)^(0+128),w
  9256  0783  00F3               	movwf	??_USBCtrlTrfRxService+1
  9257  0784  0872               	movf	??_USBCtrlTrfRxService,w
  9258  0785  0086               	movwf	6
  9259  0786  0873               	movf	??_USBCtrlTrfRxService+1,w
  9260  0787  0087               	movwf	7
  9261  0788  3008               	movlw	8
  9262  0789  0081               	movwf	1
  9263  078A                     l3686:
  9264                           
  9265                           ;lib/usb/usb_device.c: 1906:         pBDTEntryEP0OutNext->ADR = (((uint16_t)(&SetupPkt))
      +                           & 0x7FFF);
  9266  078A  3060               	movlw	96
  9267  078B  00F2               	movwf	??_USBCtrlTrfRxService
  9268  078C  3000               	movlw	0
  9269  078D  00F3               	movwf	??_USBCtrlTrfRxService+1
  9270  078E  0841               	movf	_pBDTEntryEP0OutNext^(0+128),w
  9271  078F  0086               	movwf	6
  9272  0790  0842               	movf	(_pBDTEntryEP0OutNext+1)^(0+128),w
  9273  0791  0087               	movwf	7
  9274  0792  3142               	addfsr 1,2
  9275  0793  0872               	movf	??_USBCtrlTrfRxService,w
  9276  0794  3FC0               	movwi [0]fsr1
  9277  0795  0873               	movf	??_USBCtrlTrfRxService+1,w
  9278  0796  3FC1               	movwi [1]fsr1
  9279  0797                     l3688:
  9280                           
  9281                           ;lib/usb/usb_device.c: 1910:         pBDTEntryEP0OutNext->STAT.Val = 0x04;
  9282  0797  0841               	movf	_pBDTEntryEP0OutNext^(0+128),w
  9283  0798  0086               	movwf	6
  9284  0799  0842               	movf	(_pBDTEntryEP0OutNext+1)^(0+128),w
  9285  079A  0087               	movwf	7
  9286  079B  3004               	movlw	4
  9287  079C  0081               	movwf	1
  9288  079D                     l3690:
  9289                           
  9290                           ;lib/usb/usb_device.c: 1911:         pBDTEntryEP0OutNext->STAT.Val |= 0x80;
  9291  079D  0841               	movf	_pBDTEntryEP0OutNext^(0+128),w
  9292  079E  0086               	movwf	6
  9293  079F  0842               	movf	(_pBDTEntryEP0OutNext+1)^(0+128),w
  9294  07A0  0087               	movwf	7
  9295  07A1  1781               	bsf	1,7
  9296  07A2                     l271:
  9297  07A2  0022               	movlb	2	; select bank2
  9298  07A3  13A2               	bcf	(_outPipes^(0+256)+2),7
  9299  07A4                     l3694:
  9300                           
  9301                           ;lib/usb/usb_device.c: 1945:         if(USBDeferStatusStagePacket == 0)
  9302  07A4  0021               	movlb	1	; select bank1
  9303  07A5  084A               	movf	_USBDeferStatusStagePacket^(0+128),w	;volatile
  9304  07A6  1D03               	btfss	3,2
  9305  07A7  2FA9               	goto	u2591
  9306  07A8  2FAA               	goto	u2590
  9307  07A9                     u2591:
  9308  07A9  2FAD               	goto	l273
  9309  07AA                     u2590:
  9310  07AA                     l3696:
  9311                           
  9312                           ;lib/usb/usb_device.c: 1946:         {;lib/usb/usb_device.c: 1947:             USBCtrlEP
      +                          AllowStatusStage();
  9313  07AA  318B  23F7  3187   	fcall	_USBCtrlEPAllowStatusStage
  9314  07AD                     l273:
  9315  07AD  0008               	return
  9316  07AE                     __end_of_USBCtrlTrfRxService:
  9317                           
  9318                           	psect	text32
  9319  0BF7                     __ptext32:	
  9320 ;; *************** function _USBCtrlEPAllowStatusStage *****************
  9321 ;; Defined at:
  9322 ;;		line 1420 in file "lib/usb/usb_device.c"
  9323 ;; Parameters:    Size  Location     Type
  9324 ;;		None
  9325 ;; Auto vars:     Size  Location     Type
  9326 ;;		None
  9327 ;; Return value:  Size  Location     Type
  9328 ;;                  1    wreg      void 
  9329 ;; Registers used:
  9330 ;;		wreg, fsr1l, fsr1h, status,2, status,0
  9331 ;; Tracked objects:
  9332 ;;		On entry : 0/0
  9333 ;;		On exit  : 0/0
  9334 ;;		Unchanged: 0/0
  9335 ;; Data sizes:     COMMON   BANK1   BANK2   BANK3   BANK4   BANK5   BANK6   BANK7   BANK8   BANK9  BANK10  BANK11  BANK1
      +2
  9336 ;;      Params:         0       0       0       0       0       0       0       0       0       0       0       0       
      +0
  9337 ;;      Locals:         0       0       0       0       0       0       0       0       0       0       0       0       
      +0
  9338 ;;      Temps:          2       0       0       0       0       0       0       0       0       0       0       0       
      +0
  9339 ;;      Totals:         2       0       0       0       0       0       0       0       0       0       0       0       
      +0
  9340 ;;Total ram usage:        2 bytes
  9341 ;; Hardware stack levels used: 1
  9342 ;; Hardware stack levels required when called: 1
  9343 ;; This function calls:
  9344 ;;		Nothing
  9345 ;; This function is called by:
  9346 ;;		_USBDeviceTasks
  9347 ;;		_USBCtrlEPServiceComplete
  9348 ;;		_USBCtrlTrfRxService
  9349 ;; This function uses a non-reentrant model
  9350 ;;
  9351                           
  9352  0BF7                     _USBCtrlEPAllowStatusStage:	
  9353                           ;psect for function _USBCtrlEPAllowStatusStage
  9354                           
  9355  0BF7                     l3334:	
  9356                           ;incstack = 0
  9357                           ; Regs used in _USBCtrlEPAllowStatusStage: [wreg+fsr1l+fsr1h+status,2+status,0]
  9358                           
  9359                           
  9360                           ;lib/usb/usb_device.c: 1427:     if(USBStatusStageEnabledFlag1 == 0)
  9361  0BF7  0021               	movlb	1	; select bank1
  9362  0BF8  0849               	movf	_USBStatusStageEnabledFlag1^(0+128),w	;volatile
  9363  0BF9  1D03               	btfss	3,2
  9364  0BFA  2BFC               	goto	u2121
  9365  0BFB  2BFD               	goto	u2120
  9366  0BFC                     u2121:
  9367  0BFC  2C68               	goto	l221
  9368  0BFD                     u2120:
  9369  0BFD                     l3336:
  9370                           
  9371                           ;lib/usb/usb_device.c: 1428:     {;lib/usb/usb_device.c: 1429:         USBStatusStageEna
      +                          bledFlag1 = 1;
  9372  0BFD  3001               	movlw	1
  9373  0BFE  00F0               	movwf	??_USBCtrlEPAllowStatusStage
  9374  0BFF  0870               	movf	??_USBCtrlEPAllowStatusStage,w
  9375  0C00  00C9               	movwf	_USBStatusStageEnabledFlag1^(0+128)	;volatile
  9376  0C01                     l3338:
  9377                           
  9378                           ;lib/usb/usb_device.c: 1430:         if(USBStatusStageEnabledFlag2 == 0)
  9379  0C01  0848               	movf	_USBStatusStageEnabledFlag2^(0+128),w	;volatile
  9380  0C02  1D03               	btfss	3,2
  9381  0C03  2C05               	goto	u2131
  9382  0C04  2C06               	goto	u2130
  9383  0C05                     u2131:
  9384  0C05  2C68               	goto	l221
  9385  0C06                     u2130:
  9386  0C06                     l3340:
  9387                           
  9388                           ;lib/usb/usb_device.c: 1431:         {;lib/usb/usb_device.c: 1432:             USBStatus
      +                          StageEnabledFlag2 = 1;
  9389  0C06  3001               	movlw	1
  9390  0C07  00F0               	movwf	??_USBCtrlEPAllowStatusStage
  9391  0C08  0870               	movf	??_USBCtrlEPAllowStatusStage,w
  9392  0C09  00C8               	movwf	_USBStatusStageEnabledFlag2^(0+128)	;volatile
  9393  0C0A                     l3342:
  9394                           
  9395                           ;lib/usb/usb_device.c: 1436:             if(controlTransferState == 2)
  9396  0C0A  3002               	movlw	2
  9397  0C0B  0651               	xorwf	_controlTransferState^(0+128),w
  9398  0C0C  1D03               	btfss	3,2
  9399  0C0D  2C0F               	goto	u2141
  9400  0C0E  2C10               	goto	u2140
  9401  0C0F                     u2141:
  9402  0C0F  2C22               	goto	l3350
  9403  0C10                     u2140:
  9404  0C10                     l3344:
  9405                           
  9406                           ;lib/usb/usb_device.c: 1437:             {;lib/usb/usb_device.c: 1438:                 p
      +                          BDTEntryIn[0]->CNT = 0;
  9407  0C10  0830               	movf	_pBDTEntryIn^(0+128),w
  9408  0C11  0086               	movwf	6
  9409  0C12  0831               	movf	(_pBDTEntryIn+1)^(0+128),w
  9410  0C13  0087               	movwf	7
  9411  0C14  3141               	addfsr 1,1
  9412  0C15  0181               	clrf	1
  9413  0C16                     l3346:
  9414                           
  9415                           ;lib/usb/usb_device.c: 1439:                 pBDTEntryIn[0]->STAT.Val = 0x40|(0x08 & 0x0
      +                          8);
  9416  0C16  0830               	movf	_pBDTEntryIn^(0+128),w
  9417  0C17  0086               	movwf	6
  9418  0C18  0831               	movf	(_pBDTEntryIn+1)^(0+128),w
  9419  0C19  0087               	movwf	7
  9420  0C1A  3048               	movlw	72
  9421  0C1B  0081               	movwf	1
  9422  0C1C                     l3348:
  9423                           
  9424                           ;lib/usb/usb_device.c: 1440:                 pBDTEntryIn[0]->STAT.Val |= 0x80;
  9425  0C1C  0830               	movf	_pBDTEntryIn^(0+128),w
  9426  0C1D  0086               	movwf	6
  9427  0C1E  0831               	movf	(_pBDTEntryIn+1)^(0+128),w
  9428  0C1F  0087               	movwf	7
  9429  0C20  1781               	bsf	1,7
  9430                           
  9431                           ;lib/usb/usb_device.c: 1441:             }
  9432  0C21  2C68               	goto	l221
  9433  0C22                     l3350:
  9434  0C22  0351               	decf	_controlTransferState^(0+128),w
  9435  0C23  1D03               	btfss	3,2
  9436  0C24  2C26               	goto	u2151
  9437  0C25  2C27               	goto	u2150
  9438  0C26                     u2151:
  9439  0C26  2C68               	goto	l217
  9440  0C27                     u2150:
  9441  0C27                     l3352:
  9442                           
  9443                           ;lib/usb/usb_device.c: 1443:             {;lib/usb/usb_device.c: 1444:                 B
      +                          othEP0OutUOWNsSet = 0;
  9444  0C27  01CC               	clrf	_BothEP0OutUOWNsSet^(0+128)
  9445  0C28                     l3354:
  9446                           
  9447                           ;lib/usb/usb_device.c: 1449:                     pBDTEntryEP0OutCurrent->CNT = 8;
  9448  0C28  3008               	movlw	8
  9449  0C29  00F0               	movwf	??_USBCtrlEPAllowStatusStage
  9450  0C2A  0A53               	incf	_pBDTEntryEP0OutCurrent^(0+128),w
  9451  0C2B  0086               	movwf	6
  9452  0C2C  0187               	clrf	7
  9453  0C2D  0870               	movf	??_USBCtrlEPAllowStatusStage,w
  9454  0C2E  0081               	movwf	1
  9455  0C2F                     l3356:
  9456                           
  9457                           ;lib/usb/usb_device.c: 1450:                     pBDTEntryEP0OutCurrent->ADR = (((uint16
      +                          _t)(&SetupPkt)) & 0x7FFF);
  9458  0C2F  3060               	movlw	96
  9459  0C30  00F0               	movwf	??_USBCtrlEPAllowStatusStage
  9460  0C31  3000               	movlw	0
  9461  0C32  00F1               	movwf	??_USBCtrlEPAllowStatusStage+1
  9462  0C33  0853               	movf	_pBDTEntryEP0OutCurrent^(0+128),w
  9463  0C34  3E02               	addlw	2
  9464  0C35  0086               	movwf	6
  9465  0C36  0187               	clrf	7
  9466  0C37  0870               	movf	??_USBCtrlEPAllowStatusStage,w
  9467  0C38  3FC0               	movwi [0]fsr1
  9468  0C39  0871               	movf	??_USBCtrlEPAllowStatusStage+1,w
  9469  0C3A  3FC1               	movwi [1]fsr1
  9470  0C3B                     l3358:
  9471                           
  9472                           ;lib/usb/usb_device.c: 1451:                     pBDTEntryEP0OutCurrent->STAT.Val = 0x04
      +                          ;
  9473  0C3B  3004               	movlw	4
  9474  0C3C  00F0               	movwf	??_USBCtrlEPAllowStatusStage
  9475  0C3D  0853               	movf	_pBDTEntryEP0OutCurrent^(0+128),w
  9476  0C3E  0086               	movwf	6
  9477  0C3F  0187               	clrf	7
  9478  0C40  0870               	movf	??_USBCtrlEPAllowStatusStage,w
  9479  0C41  0081               	movwf	1
  9480  0C42                     l3360:
  9481                           
  9482                           ;lib/usb/usb_device.c: 1452:                     pBDTEntryEP0OutCurrent->STAT.Val |= 0x8
      +                          0;
  9483  0C42  0853               	movf	_pBDTEntryEP0OutCurrent^(0+128),w
  9484  0C43  0086               	movwf	6
  9485  0C44  0187               	clrf	7
  9486  0C45  1781               	bsf	1,7
  9487  0C46                     l3362:
  9488                           
  9489                           ;lib/usb/usb_device.c: 1453:                     BothEP0OutUOWNsSet = 1;
  9490  0C46  01CC               	clrf	_BothEP0OutUOWNsSet^(0+128)
  9491  0C47  0ACC               	incf	_BothEP0OutUOWNsSet^(0+128),f
  9492  0C48                     l3364:
  9493                           
  9494                           ;lib/usb/usb_device.c: 1457:                 pBDTEntryEP0OutNext->CNT = 8;
  9495  0C48  0841               	movf	_pBDTEntryEP0OutNext^(0+128),w
  9496  0C49  3E01               	addlw	1
  9497  0C4A  00F0               	movwf	??_USBCtrlEPAllowStatusStage
  9498  0C4B  3000               	movlw	0
  9499  0C4C  3D42               	addwfc	(_pBDTEntryEP0OutNext+1)^(0+128),w
  9500  0C4D  00F1               	movwf	??_USBCtrlEPAllowStatusStage+1
  9501  0C4E  0870               	movf	??_USBCtrlEPAllowStatusStage,w
  9502  0C4F  0086               	movwf	6
  9503  0C50  0871               	movf	??_USBCtrlEPAllowStatusStage+1,w
  9504  0C51  0087               	movwf	7
  9505  0C52  3008               	movlw	8
  9506  0C53  0081               	movwf	1
  9507  0C54                     l3366:
  9508                           
  9509                           ;lib/usb/usb_device.c: 1458:                 pBDTEntryEP0OutNext->ADR = (((uint16_t)(&Se
      +                          tupPkt)) & 0x7FFF);
  9510  0C54  3060               	movlw	96
  9511  0C55  00F0               	movwf	??_USBCtrlEPAllowStatusStage
  9512  0C56  3000               	movlw	0
  9513  0C57  00F1               	movwf	??_USBCtrlEPAllowStatusStage+1
  9514  0C58  0841               	movf	_pBDTEntryEP0OutNext^(0+128),w
  9515  0C59  0086               	movwf	6
  9516  0C5A  0842               	movf	(_pBDTEntryEP0OutNext+1)^(0+128),w
  9517  0C5B  0087               	movwf	7
  9518  0C5C  3142               	addfsr 1,2
  9519  0C5D  0870               	movf	??_USBCtrlEPAllowStatusStage,w
  9520  0C5E  3FC0               	movwi [0]fsr1
  9521  0C5F  0871               	movf	??_USBCtrlEPAllowStatusStage+1,w
  9522  0C60  3FC1               	movwi [1]fsr1
  9523  0C61                     l3368:
  9524                           
  9525                           ;lib/usb/usb_device.c: 1459:                 pBDTEntryEP0OutNext->STAT.Val = 0x80;
  9526  0C61  0841               	movf	_pBDTEntryEP0OutNext^(0+128),w
  9527  0C62  0086               	movwf	6
  9528  0C63  0842               	movf	(_pBDTEntryEP0OutNext+1)^(0+128),w
  9529  0C64  0087               	movwf	7
  9530  0C65  3080               	movlw	128
  9531  0C66  0081               	movwf	1
  9532  0C67  2C68               	goto	l221
  9533  0C68                     l217:	
  9534                           ;lib/usb/usb_device.c: 1461:         }
  9535                           
  9536  0C68                     l221:
  9537  0C68  0008               	return
  9538  0C69                     __end_of_USBCtrlEPAllowStatusStage:
  9539                           
  9540                           	psect	text33
  9541  0CDE                     __ptext33:	
  9542 ;; *************** function _USBCtrlTrfInHandler *****************
  9543 ;; Defined at:
  9544 ;;		line 2599 in file "lib/usb/usb_device.c"
  9545 ;; Parameters:    Size  Location     Type
  9546 ;;		None
  9547 ;; Auto vars:     Size  Location     Type
  9548 ;;  lastDTS         1    5[COMMON] unsigned char 
  9549 ;; Return value:  Size  Location     Type
  9550 ;;                  1    wreg      void 
  9551 ;; Registers used:
  9552 ;;		wreg, fsr0l, fsr0h, fsr1l, fsr1h, status,2, status,0, pclath, cstack
  9553 ;; Tracked objects:
  9554 ;;		On entry : 0/0
  9555 ;;		On exit  : 0/0
  9556 ;;		Unchanged: 0/0
  9557 ;; Data sizes:     COMMON   BANK1   BANK2   BANK3   BANK4   BANK5   BANK6   BANK7   BANK8   BANK9  BANK10  BANK11  BANK1
      +2
  9558 ;;      Params:         0       0       0       0       0       0       0       0       0       0       0       0       
      +0
  9559 ;;      Locals:         1       0       0       0       0       0       0       0       0       0       0       0       
      +0
  9560 ;;      Temps:          2       0       0       0       0       0       0       0       0       0       0       0       
      +0
  9561 ;;      Totals:         3       0       0       0       0       0       0       0       0       0       0       0       
      +0
  9562 ;;Total ram usage:        3 bytes
  9563 ;; Hardware stack levels used: 1
  9564 ;; Hardware stack levels required when called: 2
  9565 ;; This function calls:
  9566 ;;		_USBCtrlTrfTxService
  9567 ;; This function is called by:
  9568 ;;		_USBCtrlEPService
  9569 ;; This function uses a non-reentrant model
  9570 ;;
  9571                           
  9572  0CDE                     _USBCtrlTrfInHandler:	
  9573                           ;psect for function _USBCtrlTrfInHandler
  9574                           
  9575  0CDE                     l3798:	
  9576                           ;incstack = 0
  9577                           ; Regs used in _USBCtrlTrfInHandler: [wreg-fsr1h+status,2+status,0+pclath+cstack]
  9578                           
  9579                           
  9580                           ;lib/usb/usb_device.c: 2601:     uint8_t lastDTS;;lib/usb/usb_device.c: 2603:     lastDT
      +                          S = pBDTEntryIn[0]->STAT.DTS;
  9581  0CDE  0021               	movlb	1	; select bank1
  9582  0CDF  0830               	movf	_pBDTEntryIn^(0+128),w
  9583  0CE0  0086               	movwf	6
  9584  0CE1  0831               	movf	(_pBDTEntryIn+1)^(0+128),w
  9585  0CE2  0087               	movwf	7
  9586  0CE3  3000               	movlw	0
  9587  0CE4  1B01               	btfsc	1,6
  9588  0CE5  3001               	movlw	1
  9589  0CE6  00F5               	movwf	USBCtrlTrfInHandler@lastDTS
  9590  0CE7                     l3800:
  9591                           
  9592                           ;lib/usb/usb_device.c: 2606:     pBDTEntryIn[0] = (volatile BDT_ENTRY*)(((uint16_t)pBDTE
      +                          ntryIn[0]) ^ 0x0004);
  9593  0CE7  3004               	movlw	4
  9594  0CE8  0630               	xorwf	_pBDTEntryIn^(0+128),w
  9595  0CE9  00B0               	movwf	_pBDTEntryIn^(0+128)
  9596  0CEA  3000               	movlw	0
  9597  0CEB  0631               	xorwf	(_pBDTEntryIn+1)^(0+128),w
  9598  0CEC  00B1               	movwf	(_pBDTEntryIn+1)^(0+128)
  9599  0CED                     l3802:
  9600                           
  9601                           ;lib/usb/usb_device.c: 2611:     if(USBDeviceState == ADR_PENDING_STATE)
  9602  0CED  3008               	movlw	8
  9603  0CEE  0654               	xorwf	_USBDeviceState^(0+128),w
  9604  0CEF  1D03               	btfss	3,2
  9605  0CF0  2CF2               	goto	u2641
  9606  0CF1  2CF3               	goto	u2640
  9607  0CF2                     u2641:
  9608  0CF2  2D08               	goto	l3812
  9609  0CF3                     u2640:
  9610  0CF3                     l3804:
  9611                           
  9612                           ;lib/usb/usb_device.c: 2612:     {;lib/usb/usb_device.c: 2613:         UADDR = (SetupPkt
      +                          .bDevADR & 0x7F);
  9613  0CF3  0020               	movlb	0	; select bank0
  9614  0CF4  0862               	movf	98,w	;volatile
  9615  0CF5  397F               	andlw	127
  9616  0CF6  003D               	movlb	29	; select bank29
  9617  0CF7  0096               	movwf	22	;volatile
  9618  0CF8                     l3806:
  9619                           
  9620                           ;lib/usb/usb_device.c: 2614:         if(UADDR != 0u)
  9621  0CF8  0816               	movf	22,w	;volatile
  9622  0CF9  1903               	btfsc	3,2
  9623  0CFA  2CFC               	goto	u2651
  9624  0CFB  2CFD               	goto	u2650
  9625  0CFC                     u2651:
  9626  0CFC  2D03               	goto	l3810
  9627  0CFD                     u2650:
  9628  0CFD                     l3808:
  9629                           
  9630                           ;lib/usb/usb_device.c: 2615:         {;lib/usb/usb_device.c: 2616:             USBDevice
      +                          State=ADDRESS_STATE;
  9631  0CFD  3010               	movlw	16
  9632  0CFE  00F3               	movwf	??_USBCtrlTrfInHandler
  9633  0CFF  0873               	movf	??_USBCtrlTrfInHandler,w
  9634  0D00  0021               	movlb	1	; select bank1
  9635  0D01  00D4               	movwf	_USBDeviceState^(0+128)
  9636                           
  9637                           ;lib/usb/usb_device.c: 2617:         }
  9638  0D02  2D08               	goto	l3812
  9639  0D03                     l3810:
  9640                           
  9641                           ;lib/usb/usb_device.c: 2619:         {;lib/usb/usb_device.c: 2620:             USBDevice
      +                          State=DEFAULT_STATE;
  9642  0D03  3004               	movlw	4
  9643  0D04  00F3               	movwf	??_USBCtrlTrfInHandler
  9644  0D05  0873               	movf	??_USBCtrlTrfInHandler,w
  9645  0D06  0021               	movlb	1	; select bank1
  9646  0D07  00D4               	movwf	_USBDeviceState^(0+128)
  9647  0D08                     l3812:
  9648                           
  9649                           ;lib/usb/usb_device.c: 2625:     if(controlTransferState == 1)
  9650  0D08  0351               	decf	_controlTransferState^(0+128),w
  9651  0D09  1D03               	btfss	3,2
  9652  0D0A  2D0C               	goto	u2661
  9653  0D0B  2D0D               	goto	u2660
  9654  0D0C                     u2661:
  9655  0D0C  2D4D               	goto	l349
  9656  0D0D                     u2660:
  9657  0D0D                     l3814:
  9658                           
  9659                           ;lib/usb/usb_device.c: 2626:     {;lib/usb/usb_device.c: 2627:         pBDTEntryIn[0]->A
      +                          DR = (((uint16_t)(CtrlTrfData)) & 0x7FFF);
  9660  0D0D  3068               	movlw	104
  9661  0D0E  00F3               	movwf	??_USBCtrlTrfInHandler
  9662  0D0F  3000               	movlw	0
  9663  0D10  00F4               	movwf	??_USBCtrlTrfInHandler+1
  9664  0D11  0830               	movf	_pBDTEntryIn^(0+128),w
  9665  0D12  0086               	movwf	6
  9666  0D13  0831               	movf	(_pBDTEntryIn+1)^(0+128),w
  9667  0D14  0087               	movwf	7
  9668  0D15  3142               	addfsr 1,2
  9669  0D16  0873               	movf	??_USBCtrlTrfInHandler,w
  9670  0D17  3FC0               	movwi [0]fsr1
  9671  0D18  0874               	movf	??_USBCtrlTrfInHandler+1,w
  9672  0D19  3FC1               	movwi [1]fsr1
  9673  0D1A                     l3816:
  9674                           
  9675                           ;lib/usb/usb_device.c: 2628:         USBCtrlTrfTxService();
  9676  0D1A  318C  2469  318C   	fcall	_USBCtrlTrfTxService
  9677  0D1D                     l3818:
  9678                           
  9679                           ;lib/usb/usb_device.c: 2634:         if(shortPacketStatus == 2)
  9680  0D1D  3002               	movlw	2
  9681  0D1E  0021               	movlb	1	; select bank1
  9682  0D1F  0652               	xorwf	_shortPacketStatus^(0+128),w
  9683  0D20  1D03               	btfss	3,2
  9684  0D21  2D23               	goto	u2671
  9685  0D22  2D24               	goto	u2670
  9686  0D23                     u2671:
  9687  0D23  2D30               	goto	l3822
  9688  0D24                     u2670:
  9689  0D24                     l3820:
  9690                           
  9691                           ;lib/usb/usb_device.c: 2635:         {;lib/usb/usb_device.c: 2638:             pBDTEntry
      +                          In[0]->STAT.Val = 0x04;
  9692  0D24  0830               	movf	_pBDTEntryIn^(0+128),w
  9693  0D25  0086               	movwf	6
  9694  0D26  0831               	movf	(_pBDTEntryIn+1)^(0+128),w
  9695  0D27  0087               	movwf	7
  9696  0D28  3004               	movlw	4
  9697  0D29  0081               	movwf	1
  9698                           
  9699                           ;lib/usb/usb_device.c: 2639:             pBDTEntryIn[0]->STAT.Val |= 0x80;
  9700  0D2A  0830               	movf	_pBDTEntryIn^(0+128),w
  9701  0D2B  0086               	movwf	6
  9702  0D2C  0831               	movf	(_pBDTEntryIn+1)^(0+128),w
  9703  0D2D  0087               	movwf	7
  9704  0D2E  1781               	bsf	1,7
  9705                           
  9706                           ;lib/usb/usb_device.c: 2640:         }
  9707  0D2F  2D55               	goto	l357
  9708  0D30                     l3822:
  9709                           
  9710                           ;lib/usb/usb_device.c: 2642:         {;lib/usb/usb_device.c: 2643:             if(lastDT
      +                          S == 0)
  9711  0D30  0875               	movf	USBCtrlTrfInHandler@lastDTS,w
  9712  0D31  1D03               	btfss	3,2
  9713  0D32  2D34               	goto	u2681
  9714  0D33  2D35               	goto	u2680
  9715  0D34                     u2681:
  9716  0D34  2D41               	goto	l3826
  9717  0D35                     u2680:
  9718  0D35                     l3824:
  9719                           
  9720                           ;lib/usb/usb_device.c: 2644:             {;lib/usb/usb_device.c: 2645:                 p
      +                          BDTEntryIn[0]->STAT.Val = 0x40|(0x08 & 0x08);
  9721  0D35  0830               	movf	_pBDTEntryIn^(0+128),w
  9722  0D36  0086               	movwf	6
  9723  0D37  0831               	movf	(_pBDTEntryIn+1)^(0+128),w
  9724  0D38  0087               	movwf	7
  9725  0D39  3048               	movlw	72
  9726  0D3A  0081               	movwf	1
  9727                           
  9728                           ;lib/usb/usb_device.c: 2646:                 pBDTEntryIn[0]->STAT.Val |= 0x80;
  9729  0D3B  0830               	movf	_pBDTEntryIn^(0+128),w
  9730  0D3C  0086               	movwf	6
  9731  0D3D  0831               	movf	(_pBDTEntryIn+1)^(0+128),w
  9732  0D3E  0087               	movwf	7
  9733  0D3F  1781               	bsf	1,7
  9734                           
  9735                           ;lib/usb/usb_device.c: 2647:             }
  9736  0D40  2D55               	goto	l357
  9737  0D41                     l3826:
  9738                           
  9739                           ;lib/usb/usb_device.c: 2649:             {;lib/usb/usb_device.c: 2650:                 p
      +                          BDTEntryIn[0]->STAT.Val = 0x00|(0x08 & 0x08);
  9740  0D41  0830               	movf	_pBDTEntryIn^(0+128),w
  9741  0D42  0086               	movwf	6
  9742  0D43  0831               	movf	(_pBDTEntryIn+1)^(0+128),w
  9743  0D44  0087               	movwf	7
  9744  0D45  3008               	movlw	8
  9745  0D46  0081               	movwf	1
  9746                           
  9747                           ;lib/usb/usb_device.c: 2651:                 pBDTEntryIn[0]->STAT.Val |= 0x80;
  9748  0D47  0830               	movf	_pBDTEntryIn^(0+128),w
  9749  0D48  0086               	movwf	6
  9750  0D49  0831               	movf	(_pBDTEntryIn+1)^(0+128),w
  9751  0D4A  0087               	movwf	7
  9752  0D4B  1781               	bsf	1,7
  9753  0D4C  2D55               	goto	l357
  9754  0D4D                     l349:	
  9755                           ;lib/usb/usb_device.c: 2655:  else
  9756                           
  9757                           
  9758                           ;lib/usb/usb_device.c: 2656:  {;lib/usb/usb_device.c: 2660:         if(outPipes[0].info.
      +                          bits.busy == 1)
  9759  0D4D  0022               	movlb	2	; select bank2
  9760  0D4E  1FA2               	btfss	(_outPipes^(0+256)+2),7
  9761  0D4F  2D51               	goto	u2691
  9762  0D50  2D52               	goto	u2690
  9763  0D51                     u2691:
  9764  0D51  2D53               	goto	l3830
  9765  0D52                     u2690:
  9766  0D52                     l356:	
  9767                           ;lib/usb/usb_device.c: 2665:             }
  9768                           
  9769                           
  9770                           ;lib/usb/usb_device.c: 2666:             outPipes[0].info.bits.busy = 0;
  9771  0D52  13A2               	bcf	(_outPipes^(0+256)+2),7
  9772  0D53                     l3830:
  9773                           
  9774                           ;lib/usb/usb_device.c: 2669:         controlTransferState = 0;
  9775  0D53  0021               	movlb	1	; select bank1
  9776  0D54  01D1               	clrf	_controlTransferState^(0+128)
  9777  0D55                     l357:
  9778  0D55  0008               	return
  9779  0D56                     __end_of_USBCtrlTrfInHandler:
  9780                           
  9781                           	psect	text34
  9782  0C69                     __ptext34:	
  9783 ;; *************** function _USBCtrlTrfTxService *****************
  9784 ;; Defined at:
  9785 ;;		line 1775 in file "lib/usb/usb_device.c"
  9786 ;; Parameters:    Size  Location     Type
  9787 ;;		None
  9788 ;; Auto vars:     Size  Location     Type
  9789 ;;  byteToSend      1    2[COMMON] unsigned char 
  9790 ;; Return value:  Size  Location     Type
  9791 ;;                  1    wreg      void 
  9792 ;; Registers used:
  9793 ;;		wreg, fsr0l, fsr0h, fsr1l, fsr1h, status,2, status,0, pclath
  9794 ;; Tracked objects:
  9795 ;;		On entry : 0/0
  9796 ;;		On exit  : 0/0
  9797 ;;		Unchanged: 0/0
  9798 ;; Data sizes:     COMMON   BANK1   BANK2   BANK3   BANK4   BANK5   BANK6   BANK7   BANK8   BANK9  BANK10  BANK11  BANK1
      +2
  9799 ;;      Params:         0       0       0       0       0       0       0       0       0       0       0       0       
      +0
  9800 ;;      Locals:         1       0       0       0       0       0       0       0       0       0       0       0       
      +0
  9801 ;;      Temps:          2       0       0       0       0       0       0       0       0       0       0       0       
      +0
  9802 ;;      Totals:         3       0       0       0       0       0       0       0       0       0       0       0       
      +0
  9803 ;;Total ram usage:        3 bytes
  9804 ;; Hardware stack levels used: 1
  9805 ;; Hardware stack levels required when called: 1
  9806 ;; This function calls:
  9807 ;;		Nothing
  9808 ;; This function is called by:
  9809 ;;		_USBCtrlEPAllowDataStage
  9810 ;;		_USBCtrlTrfInHandler
  9811 ;; This function uses a non-reentrant model
  9812 ;;
  9813                           
  9814  0C69                     _USBCtrlTrfTxService:	
  9815                           ;psect for function _USBCtrlTrfTxService
  9816                           
  9817  0C69                     l3252:	
  9818                           ;incstack = 0
  9819                           ; Regs used in _USBCtrlTrfTxService: [wreg-fsr1h+status,2+status,0+pclath]
  9820                           
  9821                           
  9822                           ;lib/usb/usb_device.c: 1777:     uint8_t byteToSend;;lib/usb/usb_device.c: 1781:     byt
      +                          eToSend = 8;
  9823  0C69  3008               	movlw	8
  9824  0C6A  00F0               	movwf	??_USBCtrlTrfTxService
  9825  0C6B  0870               	movf	??_USBCtrlTrfTxService,w
  9826  0C6C  00F2               	movwf	USBCtrlTrfTxService@byteToSend
  9827                           
  9828                           ;lib/usb/usb_device.c: 1782:     if(inPipes[0].wCount.Val < (uint8_t)8)
  9829  0C6D  3000               	movlw	0
  9830  0C6E  0021               	movlb	1	; select bank1
  9831  0C6F  023C               	subwf	((_inPipes+1)^(0+128)+3),w
  9832  0C70  3008               	movlw	8
  9833  0C71  1903               	skipnz
  9834  0C72  023B               	subwf	(_inPipes^(0+128)+3),w
  9835  0C73  1803               	skipnc
  9836  0C74  2C76               	goto	u2011
  9837  0C75  2C77               	goto	u2010
  9838  0C76                     u2011:
  9839  0C76  2C8C               	goto	l248
  9840  0C77                     u2010:
  9841  0C77                     l3254:
  9842                           
  9843                           ;lib/usb/usb_device.c: 1783:     {;lib/usb/usb_device.c: 1784:         byteToSend = (uin
      +                          t8_t)(inPipes[0].wCount.Val);
  9844  0C77  083B               	movf	(_inPipes^(0+128)+3),w
  9845  0C78  00F0               	movwf	??_USBCtrlTrfTxService
  9846  0C79  0870               	movf	??_USBCtrlTrfTxService,w
  9847  0C7A  00F2               	movwf	USBCtrlTrfTxService@byteToSend
  9848  0C7B                     l3256:
  9849                           
  9850                           ;lib/usb/usb_device.c: 1791:         if(shortPacketStatus == 0)
  9851  0C7B  0852               	movf	_shortPacketStatus^(0+128),w
  9852  0C7C  1D03               	btfss	3,2
  9853  0C7D  2C7F               	goto	u2021
  9854  0C7E  2C80               	goto	u2020
  9855  0C7F                     u2021:
  9856  0C7F  2C83               	goto	l3260
  9857  0C80                     u2020:
  9858  0C80                     l3258:
  9859                           
  9860                           ;lib/usb/usb_device.c: 1792:         {;lib/usb/usb_device.c: 1793:             shortPack
      +                          etStatus = 1;
  9861  0C80  01D2               	clrf	_shortPacketStatus^(0+128)
  9862  0C81  0AD2               	incf	_shortPacketStatus^(0+128),f
  9863                           
  9864                           ;lib/usb/usb_device.c: 1794:         }
  9865  0C82  2C8C               	goto	l248
  9866  0C83                     l3260:
  9867  0C83  0352               	decf	_shortPacketStatus^(0+128),w
  9868  0C84  1D03               	btfss	3,2
  9869  0C85  2C87               	goto	u2031
  9870  0C86  2C88               	goto	u2030
  9871  0C87                     u2031:
  9872  0C87  2C8C               	goto	l248
  9873  0C88                     u2030:
  9874  0C88                     l3262:
  9875                           
  9876                           ;lib/usb/usb_device.c: 1796:         {;lib/usb/usb_device.c: 1797:             shortPack
      +                          etStatus = 2;
  9877  0C88  3002               	movlw	2
  9878  0C89  00F0               	movwf	??_USBCtrlTrfTxService
  9879  0C8A  0870               	movf	??_USBCtrlTrfTxService,w
  9880  0C8B  00D2               	movwf	_shortPacketStatus^(0+128)
  9881  0C8C                     l248:	
  9882                           ;lib/usb/usb_device.c: 1799:     }
  9883                           
  9884                           
  9885                           ;lib/usb/usb_device.c: 1803:     inPipes[0].wCount.Val -= byteToSend;
  9886  0C8C  0872               	movf	USBCtrlTrfTxService@byteToSend,w
  9887  0C8D  00F0               	movwf	??_USBCtrlTrfTxService
  9888  0C8E  01F1               	clrf	??_USBCtrlTrfTxService+1
  9889  0C8F  0870               	movf	??_USBCtrlTrfTxService,w
  9890  0C90  02BB               	subwf	(_inPipes^(0+128)+3),f
  9891  0C91  0871               	movf	??_USBCtrlTrfTxService+1,w
  9892  0C92  3BBC               	subwfb	((_inPipes+1)^(0+128)+3),f
  9893  0C93                     l3264:
  9894                           
  9895                           ;lib/usb/usb_device.c: 1808:     pBDTEntryIn[0]->CNT = byteToSend;
  9896  0C93  0830               	movf	_pBDTEntryIn^(0+128),w
  9897  0C94  3E01               	addlw	1
  9898  0C95  00F0               	movwf	??_USBCtrlTrfTxService
  9899  0C96  3000               	movlw	0
  9900  0C97  3D31               	addwfc	(_pBDTEntryIn+1)^(0+128),w
  9901  0C98  00F1               	movwf	??_USBCtrlTrfTxService+1
  9902  0C99  0870               	movf	??_USBCtrlTrfTxService,w
  9903  0C9A  0086               	movwf	6
  9904  0C9B  0871               	movf	??_USBCtrlTrfTxService+1,w
  9905  0C9C  0087               	movwf	7
  9906  0C9D  0872               	movf	USBCtrlTrfTxService@byteToSend,w
  9907  0C9E  0081               	movwf	1
  9908  0C9F                     l3266:
  9909                           
  9910                           ;lib/usb/usb_device.c: 1812:     pDst = ( uint8_t*)CtrlTrfData;
  9911  0C9F  3068               	movlw	104
  9912  0CA0  00F0               	movwf	??_USBCtrlTrfTxService
  9913  0CA1  0870               	movf	??_USBCtrlTrfTxService,w
  9914  0CA2  00D0               	movwf	_pDst^(0+128)
  9915  0CA3                     l3268:
  9916                           
  9917                           ;lib/usb/usb_device.c: 1813:     if(inPipes[0].info.bits.ctrl_trf_mem == 0x00)
  9918  0CA3  183A               	btfsc	(_inPipes^(0+128)+2),0
  9919  0CA4  2CA6               	goto	u2041
  9920  0CA5  2CA7               	goto	u2040
  9921  0CA6                     u2041:
  9922  0CA6  2CD8               	goto	l3290
  9923  0CA7                     u2040:
  9924  0CA7  2CBD               	goto	l3280
  9925  0CA8                     l3272:
  9926                           
  9927                           ;lib/usb/usb_device.c: 1816:         {;lib/usb/usb_device.c: 1817:             *pDst++ =
      +                           *inPipes[0].pSrc.bRom++;
  9928  0CA8  0838               	movf	_inPipes^(0+128),w
  9929  0CA9  0084               	movwf	4
  9930  0CAA  0839               	movf	(_inPipes+1)^(0+128),w
  9931  0CAB  0085               	movwf	5
  9932  0CAC  0800               	movf	0,w	;code access
  9933  0CAD  00F0               	movwf	??_USBCtrlTrfTxService
  9934  0CAE  0850               	movf	_pDst^(0+128),w
  9935  0CAF  0086               	movwf	6
  9936  0CB0  0187               	clrf	7
  9937  0CB1  0870               	movf	??_USBCtrlTrfTxService,w
  9938  0CB2  0081               	movwf	1
  9939  0CB3                     l3274:
  9940  0CB3  3001               	movlw	1
  9941  0CB4  07B8               	addwf	_inPipes^(0+128),f
  9942  0CB5  3000               	movlw	0
  9943  0CB6  3DB9               	addwfc	(_inPipes+1)^(0+128),f
  9944  0CB7                     l3276:
  9945  0CB7  3001               	movlw	1
  9946  0CB8  00F0               	movwf	??_USBCtrlTrfTxService
  9947  0CB9  0870               	movf	??_USBCtrlTrfTxService,w
  9948  0CBA  07D0               	addwf	_pDst^(0+128),f
  9949  0CBB                     l3278:
  9950                           
  9951                           ;lib/usb/usb_device.c: 1818:             byteToSend--;
  9952  0CBB  3001               	movlw	1
  9953  0CBC  02F2               	subwf	USBCtrlTrfTxService@byteToSend,f
  9954  0CBD                     l3280:
  9955                           
  9956                           ;lib/usb/usb_device.c: 1815:         while(byteToSend)
  9957  0CBD  0872               	movf	USBCtrlTrfTxService@byteToSend,w
  9958  0CBE  1D03               	btfss	3,2
  9959  0CBF  2CC1               	goto	u2051
  9960  0CC0  2CC2               	goto	u2050
  9961  0CC1                     u2051:
  9962  0CC1  2CA8               	goto	l3272
  9963  0CC2                     u2050:
  9964  0CC2  2CDD               	goto	l260
  9965  0CC3                     l3282:
  9966                           
  9967                           ;lib/usb/usb_device.c: 1824:         {;lib/usb/usb_device.c: 1825:             *pDst++ =
      +                           *inPipes[0].pSrc.bRam++;
  9968  0CC3  0838               	movf	_inPipes^(0+128),w
  9969  0CC4  0084               	movwf	4
  9970  0CC5  0839               	movf	(_inPipes+1)^(0+128),w
  9971  0CC6  0085               	movwf	5
  9972  0CC7  0800               	movf	0,w	;code access
  9973  0CC8  00F0               	movwf	??_USBCtrlTrfTxService
  9974  0CC9  0850               	movf	_pDst^(0+128),w
  9975  0CCA  0086               	movwf	6
  9976  0CCB  0187               	clrf	7
  9977  0CCC  0870               	movf	??_USBCtrlTrfTxService,w
  9978  0CCD  0081               	movwf	1
  9979  0CCE                     l3284:
  9980  0CCE  3001               	movlw	1
  9981  0CCF  07B8               	addwf	_inPipes^(0+128),f
  9982  0CD0  3000               	movlw	0
  9983  0CD1  3DB9               	addwfc	(_inPipes+1)^(0+128),f
  9984  0CD2                     l3286:
  9985  0CD2  3001               	movlw	1
  9986  0CD3  00F0               	movwf	??_USBCtrlTrfTxService
  9987  0CD4  0870               	movf	??_USBCtrlTrfTxService,w
  9988  0CD5  07D0               	addwf	_pDst^(0+128),f
  9989  0CD6                     l3288:
  9990                           
  9991                           ;lib/usb/usb_device.c: 1826:             byteToSend--;
  9992  0CD6  3001               	movlw	1
  9993  0CD7  02F2               	subwf	USBCtrlTrfTxService@byteToSend,f
  9994  0CD8                     l3290:
  9995                           
  9996                           ;lib/usb/usb_device.c: 1823:         while(byteToSend)
  9997  0CD8  0872               	movf	USBCtrlTrfTxService@byteToSend,w
  9998  0CD9  1D03               	btfss	3,2
  9999  0CDA  2CDC               	goto	u2061
 10000  0CDB  2CDD               	goto	u2060
 10001  0CDC                     u2061:
 10002  0CDC  2CC3               	goto	l3282
 10003  0CDD                     u2060:
 10004  0CDD                     l260:
 10005  0CDD  0008               	return
 10006  0CDE                     __end_of_USBCtrlTrfTxService:
 10007                           
 10008                           	psect	text35
 10009  07F6                     __ptext35:	
 10010 ;; *************** function _SlaveinitSPI *****************
 10011 ;; Defined at:
 10012 ;;		line 237 in file "lib/spi.c"
 10013 ;; Parameters:    Size  Location     Type
 10014 ;;		None
 10015 ;; Auto vars:     Size  Location     Type
 10016 ;;		None
 10017 ;; Return value:  Size  Location     Type
 10018 ;;                  1    wreg      void 
 10019 ;; Registers used:
 10020 ;;		wreg
 10021 ;; Tracked objects:
 10022 ;;		On entry : 0/0
 10023 ;;		On exit  : 0/0
 10024 ;;		Unchanged: 0/0
 10025 ;; Data sizes:     COMMON   BANK1   BANK2   BANK3   BANK4   BANK5   BANK6   BANK7   BANK8   BANK9  BANK10  BANK11  BANK1
      +2
 10026 ;;      Params:         0       0       0       0       0       0       0       0       0       0       0       0       
      +0
 10027 ;;      Locals:         0       0       0       0       0       0       0       0       0       0       0       0       
      +0
 10028 ;;      Temps:          0       0       0       0       0       0       0       0       0       0       0       0       
      +0
 10029 ;;      Totals:         0       0       0       0       0       0       0       0       0       0       0       0       
      +0
 10030 ;;Total ram usage:        0 bytes
 10031 ;; Hardware stack levels used: 1
 10032 ;; Hardware stack levels required when called: 1
 10033 ;; This function calls:
 10034 ;;		Nothing
 10035 ;; This function is called by:
 10036 ;;		_main
 10037 ;; This function uses a non-reentrant model
 10038 ;;
 10039                           
 10040  07F6                     _SlaveinitSPI:	
 10041                           ;psect for function _SlaveinitSPI
 10042                           
 10043  07F6                     l4132:	
 10044                           ;incstack = 0
 10045                           ; Regs used in _SlaveinitSPI: [wreg]
 10046                           
 10047                           
 10048                           ;lib/spi.c: 238:     TRISC3 = 1;TRISC0 = 1;
 10049  07F6  0021               	movlb	1	; select bank1
 10050  07F7  158E               	bsf	14,3	;volatile
 10051  07F8  140E               	bsf	14,0	;volatile
 10052  07F9                     l4134:
 10053                           
 10054                           ;lib/spi.c: 242:     SSPSTAT = SAMPLE_MIDDLE | ACTIVE_TO_IDLE;
 10055  07F9  3040               	movlw	64
 10056  07FA  0024               	movlb	4	; select bank4
 10057  07FB  0094               	movwf	20	;volatile
 10058                           
 10059                           ;lib/spi.c: 243:     SSPCON = SLAVE_SS_EN | IDLE_LOW;
 10060  07FC  3024               	movlw	36
 10061  07FD  0095               	movwf	21	;volatile
 10062  07FE                     l790:
 10063  07FE  0008               	return
 10064  07FF                     __end_of_SlaveinitSPI:
 10065                           
 10066                           	psect	text36
 10067  03F1                     __ptext36:	
 10068 ;; *************** function _APP_DeviceJoystickTasks *****************
 10069 ;; Defined at:
 10070 ;;		line 94 in file "lib/app_device_joystick.c"
 10071 ;; Parameters:    Size  Location     Type
 10072 ;;		None
 10073 ;; Auto vars:     Size  Location     Type
 10074 ;;		None
 10075 ;; Return value:  Size  Location     Type
 10076 ;;                  1    wreg      void 
 10077 ;; Registers used:
 10078 ;;		wreg, fsr1l, fsr1h, status,2, status,0, pclath, cstack
 10079 ;; Tracked objects:
 10080 ;;		On entry : 0/0
 10081 ;;		On exit  : 0/0
 10082 ;;		Unchanged: 0/0
 10083 ;; Data sizes:     COMMON   BANK1   BANK2   BANK3   BANK4   BANK5   BANK6   BANK7   BANK8   BANK9  BANK10  BANK11  BANK1
      +2
 10084 ;;      Params:         0       0       0       0       0       0       0       0       0       0       0       0       
      +0
 10085 ;;      Locals:         0       0       0       0       0       0       0       0       0       0       0       0       
      +0
 10086 ;;      Temps:          1       0       0       0       0       0       0       0       0       0       0       0       
      +0
 10087 ;;      Totals:         1       0       0       0       0       0       0       0       0       0       0       0       
      +0
 10088 ;;Total ram usage:        1 bytes
 10089 ;; Hardware stack levels used: 1
 10090 ;; Hardware stack levels required when called: 2
 10091 ;; This function calls:
 10092 ;;		_USBTransferOnePacket
 10093 ;; This function is called by:
 10094 ;;		_main
 10095 ;; This function uses a non-reentrant model
 10096 ;;
 10097                           
 10098  03F1                     _APP_DeviceJoystickTasks:	
 10099                           ;psect for function _APP_DeviceJoystickTasks
 10100                           
 10101  03F1                     l4174:	
 10102                           ;incstack = 0
 10103                           ; Regs used in _APP_DeviceJoystickTasks: [wreg+fsr1l+fsr1h+status,2+status,0+pclath+csta
      +                          ck]
 10104                           
 10105                           
 10106                           ;lib/app_device_joystick.c: 99:     if( USBDeviceState < CONFIGURED_STATE )
 10107  03F1  3020               	movlw	32
 10108  03F2  0021               	movlb	1	; select bank1
 10109  03F3  0254               	subwf	_USBDeviceState^(0+128),w
 10110  03F4  1803               	skipnc
 10111  03F5  2BF7               	goto	u3211
 10112  03F6  2BF8               	goto	u3210
 10113  03F7                     u3211:
 10114  03F7  2BF9               	goto	l580
 10115  03F8                     u3210:
 10116  03F8  2CC9               	goto	l581
 10117  03F9                     l580:	
 10118                           ;lib/app_device_joystick.c: 103:     }
 10119                           
 10120                           
 10121                           ;lib/app_device_joystick.c: 109:     if( UCONbits.SUSPND == 1 )
 10122  03F9  003D               	movlb	29	; select bank29
 10123  03FA  1C8E               	btfss	14,1	;volatile
 10124  03FB  2BFD               	goto	u3221
 10125  03FC  2BFE               	goto	u3220
 10126  03FD                     u3221:
 10127  03FD  2BFF               	goto	l4180
 10128  03FE                     u3220:
 10129  03FE  2CC9               	goto	l581
 10130  03FF                     l4180:
 10131                           
 10132                           ;lib/app_device_joystick.c: 116:     if(!((last_HAP_IN != 0x0000) && ((*(volatile uint8_
      +                          t*)last_HAP_IN & 0x80) != 0x00)) && (hap_IN_pkt_sent == 0))
 10133  03FF  0021               	movlb	1	; select bank1
 10134  0400  083F               	movf	_last_HAP_IN^(0+128),w
 10135  0401  0440               	iorwf	(_last_HAP_IN+1)^(0+128),w
 10136  0402  1903               	btfsc	3,2
 10137  0403  2C05               	goto	u3231
 10138  0404  2C06               	goto	u3230
 10139  0405                     u3231:
 10140  0405  2C0E               	goto	l4184
 10141  0406                     u3230:
 10142  0406                     l4182:
 10143  0406  083F               	movf	_last_HAP_IN^(0+128),w
 10144  0407  0086               	movwf	6
 10145  0408  0840               	movf	(_last_HAP_IN+1)^(0+128),w
 10146  0409  0087               	movwf	7
 10147  040A  1B81               	btfsc	1,7
 10148  040B  2C0D               	goto	u3241
 10149  040C  2C0E               	goto	u3240
 10150  040D                     u3241:
 10151  040D  2C51               	goto	l4200
 10152  040E                     u3240:
 10153  040E                     l4184:
 10154  040E  0022               	movlb	2	; select bank2
 10155  040F  082C               	movf	_hap_IN_pkt_sent^(0+256),w
 10156  0410  1D03               	btfss	3,2
 10157  0411  2C13               	goto	u3251
 10158  0412  2C14               	goto	u3250
 10159  0413                     u3251:
 10160  0413  2C51               	goto	l4200
 10161  0414                     u3250:
 10162  0414                     l4186:
 10163                           
 10164                           ;lib/app_device_joystick.c: 117:     {;lib/app_device_joystick.c: 120:         haptic_in
      +                          [0] = display_output[0];
 10165  0414  30B0               	movlw	176
 10166  0415  0086               	movwf	6
 10167  0416  3021               	movlw	33
 10168  0417  0087               	movwf	7
 10169  0418  0801               	movf	1,w
 10170  0419  00FB               	movwf	??_APP_DeviceJoystickTasks
 10171  041A  087B               	movf	??_APP_DeviceJoystickTasks,w
 10172  041B  0021               	movlb	1	; select bank1
 10173  041C  00A0               	movwf	32
 10174                           
 10175                           ;lib/app_device_joystick.c: 121:         haptic_in[1] = display_output[1];
 10176  041D  30B0               	movlw	176
 10177  041E  0086               	movwf	6
 10178  041F  3021               	movlw	33
 10179  0420  0087               	movwf	7
 10180  0421  3141               	addfsr 1,1
 10181  0422  0801               	movf	1,w
 10182  0423  00FB               	movwf	??_APP_DeviceJoystickTasks
 10183  0424  087B               	movf	??_APP_DeviceJoystickTasks,w
 10184  0425  00A1               	movwf	33
 10185  0426                     l4188:
 10186                           
 10187                           ;lib/app_device_joystick.c: 122:         haptic_in[2] = TESTB;
 10188  0426  01A2               	clrf	34
 10189  0427                     l4190:
 10190                           
 10191                           ;lib/app_device_joystick.c: 123:         haptic_in[3] = SSPCON1;
 10192  0427  0024               	movlb	4	; select bank4
 10193  0428  0815               	movf	21,w	;volatile
 10194  0429  00FB               	movwf	??_APP_DeviceJoystickTasks
 10195  042A  087B               	movf	??_APP_DeviceJoystickTasks,w
 10196  042B  0021               	movlb	1	; select bank1
 10197  042C  00A3               	movwf	35
 10198  042D                     l4192:
 10199                           
 10200                           ;lib/app_device_joystick.c: 124:         haptic_in[4] = SSPSTAT;
 10201  042D  0024               	movlb	4	; select bank4
 10202  042E  0814               	movf	20,w	;volatile
 10203  042F  00FB               	movwf	??_APP_DeviceJoystickTasks
 10204  0430  087B               	movf	??_APP_DeviceJoystickTasks,w
 10205  0431  0021               	movlb	1	; select bank1
 10206  0432  00A4               	movwf	36
 10207  0433                     l4194:
 10208                           
 10209                           ;lib/app_device_joystick.c: 125:         haptic_in[5] = display_output[63];
 10210  0433  30EF               	movlw	239
 10211  0434  0086               	movwf	6
 10212  0435  3021               	movlw	33
 10213  0436  0087               	movwf	7
 10214  0437  0801               	movf	1,w
 10215  0438  00FB               	movwf	??_APP_DeviceJoystickTasks
 10216  0439  087B               	movf	??_APP_DeviceJoystickTasks,w
 10217  043A  00A5               	movwf	37
 10218  043B                     l4196:
 10219                           
 10220                           ;lib/app_device_joystick.c: 126:         hap_IN_pkt_sent = 1;
 10221  043B  0022               	movlb	2	; select bank2
 10222  043C  01AC               	clrf	_hap_IN_pkt_sent^(0+256)
 10223  043D  0AAC               	incf	_hap_IN_pkt_sent^(0+256),f
 10224  043E                     l4198:
 10225                           
 10226                           ;lib/app_device_joystick.c: 128:         last_HAP_IN = USBTransferOnePacket(1,1,(uint8_t
      +                          *)&haptic_in,sizeof(haptic_in));
 10227  043E  01F0               	clrf	USBTransferOnePacket@dir
 10228  043F  0AF0               	incf	USBTransferOnePacket@dir,f
 10229  0440  30A0               	movlw	160
 10230  0441  00F1               	movwf	USBTransferOnePacket@data
 10231  0442  3000               	movlw	0
 10232  0443  00F2               	movwf	USBTransferOnePacket@data+1
 10233  0444  3010               	movlw	16
 10234  0445  00FB               	movwf	??_APP_DeviceJoystickTasks
 10235  0446  087B               	movf	??_APP_DeviceJoystickTasks,w
 10236  0447  00F3               	movwf	USBTransferOnePacket@len
 10237  0448  3001               	movlw	1
 10238  0449  318E  26DD  3183   	fcall	_USBTransferOnePacket
 10239  044C  0871               	movf	?_USBTransferOnePacket+1,w
 10240  044D  0021               	movlb	1	; select bank1
 10241  044E  00C0               	movwf	(_last_HAP_IN+1)^(0+128)
 10242  044F  0870               	movf	?_USBTransferOnePacket,w
 10243  0450  00BF               	movwf	_last_HAP_IN^(0+128)
 10244  0451                     l4200:
 10245                           
 10246                           ;lib/app_device_joystick.c: 132:     if(!((last_HAP_OUT != 0x0000) && ((*(volatile uint8
      +                          _t*)last_HAP_OUT & 0x80) != 0x00)) && hap_OUT_pkt_ready){
 10247  0451  0023               	movlb	3	; select bank3
 10248  0452  083A               	movf	_last_HAP_OUT^(0+384),w
 10249  0453  043B               	iorwf	(_last_HAP_OUT+1)^(0+384),w
 10250  0454  1903               	btfsc	3,2
 10251  0455  2C57               	goto	u3261
 10252  0456  2C58               	goto	u3260
 10253  0457                     u3261:
 10254  0457  2C60               	goto	l4204
 10255  0458                     u3260:
 10256  0458                     l4202:
 10257  0458  083A               	movf	_last_HAP_OUT^(0+384),w
 10258  0459  0086               	movwf	6
 10259  045A  083B               	movf	(_last_HAP_OUT+1)^(0+384),w
 10260  045B  0087               	movwf	7
 10261  045C  1B81               	btfsc	1,7
 10262  045D  2C5F               	goto	u3271
 10263  045E  2C60               	goto	u3270
 10264  045F                     u3271:
 10265  045F  2C79               	goto	l4210
 10266  0460                     u3270:
 10267  0460                     l4204:
 10268  0460  0022               	movlb	2	; select bank2
 10269  0461  082B               	movf	_hap_OUT_pkt_ready^(0+256),w
 10270  0462  1903               	btfsc	3,2
 10271  0463  2C65               	goto	u3281
 10272  0464  2C66               	goto	u3280
 10273  0465                     u3281:
 10274  0465  2C79               	goto	l4210
 10275  0466                     u3280:
 10276  0466                     l4206:
 10277                           
 10278                           ;lib/app_device_joystick.c: 133:         hap_OUT_pkt_ready = 0;
 10279  0466  01AB               	clrf	_hap_OUT_pkt_ready^(0+256)
 10280  0467                     l4208:
 10281                           
 10282                           ;lib/app_device_joystick.c: 134:         last_HAP_OUT = USBTransferOnePacket(1,0,(uint8_
      +                          t*)&haptic_out,sizeof(haptic_out));
 10283  0467  01F0               	clrf	USBTransferOnePacket@dir
 10284  0468  3030               	movlw	48
 10285  0469  00F1               	movwf	USBTransferOnePacket@data
 10286  046A  3001               	movlw	1
 10287  046B  00F2               	movwf	USBTransferOnePacket@data+1
 10288  046C  3040               	movlw	64
 10289  046D  00FB               	movwf	??_APP_DeviceJoystickTasks
 10290  046E  087B               	movf	??_APP_DeviceJoystickTasks,w
 10291  046F  00F3               	movwf	USBTransferOnePacket@len
 10292  0470  3001               	movlw	1
 10293  0471  318E  26DD  3183   	fcall	_USBTransferOnePacket
 10294  0474  0871               	movf	?_USBTransferOnePacket+1,w
 10295  0475  0023               	movlb	3	; select bank3
 10296  0476  00BB               	movwf	(_last_HAP_OUT+1)^(0+384)
 10297  0477  0870               	movf	?_USBTransferOnePacket,w
 10298  0478  00BA               	movwf	_last_HAP_OUT^(0+384)
 10299  0479                     l4210:
 10300                           
 10301                           ;lib/app_device_joystick.c: 136:     if(!((last_DSP_OUT != 0x0000) && ((*(volatile uint8
      +                          _t*)last_DSP_OUT & 0x80) != 0x00)) && display_pkt_ready){
 10302  0479  0023               	movlb	3	; select bank3
 10303  047A  0836               	movf	_last_DSP_OUT^(0+384),w
 10304  047B  0437               	iorwf	(_last_DSP_OUT+1)^(0+384),w
 10305  047C  1903               	btfsc	3,2
 10306  047D  2C7F               	goto	u3291
 10307  047E  2C80               	goto	u3290
 10308  047F                     u3291:
 10309  047F  2C88               	goto	l4214
 10310  0480                     u3290:
 10311  0480                     l4212:
 10312  0480  0836               	movf	_last_DSP_OUT^(0+384),w
 10313  0481  0086               	movwf	6
 10314  0482  0837               	movf	(_last_DSP_OUT+1)^(0+384),w
 10315  0483  0087               	movwf	7
 10316  0484  1B81               	btfsc	1,7
 10317  0485  2C87               	goto	u3301
 10318  0486  2C88               	goto	u3300
 10319  0487                     u3301:
 10320  0487  2CA1               	goto	l4220
 10321  0488                     u3300:
 10322  0488                     l4214:
 10323  0488  0021               	movlb	1	; select bank1
 10324  0489  0844               	movf	_display_pkt_ready^(0+128),w
 10325  048A  1903               	btfsc	3,2
 10326  048B  2C8D               	goto	u3311
 10327  048C  2C8E               	goto	u3310
 10328  048D                     u3311:
 10329  048D  2CA1               	goto	l4220
 10330  048E                     u3310:
 10331  048E                     l4216:
 10332                           
 10333                           ;lib/app_device_joystick.c: 137:         display_pkt_ready = 0;
 10334  048E  01C4               	clrf	_display_pkt_ready^(0+128)
 10335  048F                     l4218:
 10336                           
 10337                           ;lib/app_device_joystick.c: 138:         last_DSP_OUT = USBTransferOnePacket(3,0,(uint8_
      +                          t*)&display_output,sizeof(display_output));
 10338  048F  01F0               	clrf	USBTransferOnePacket@dir
 10339  0490  30B0               	movlw	176
 10340  0491  00F1               	movwf	USBTransferOnePacket@data
 10341  0492  3021               	movlw	33
 10342  0493  00F2               	movwf	USBTransferOnePacket@data+1
 10343  0494  3040               	movlw	64
 10344  0495  00FB               	movwf	??_APP_DeviceJoystickTasks
 10345  0496  087B               	movf	??_APP_DeviceJoystickTasks,w
 10346  0497  00F3               	movwf	USBTransferOnePacket@len
 10347  0498  3003               	movlw	3
 10348  0499  318E  26DD  3183   	fcall	_USBTransferOnePacket
 10349  049C  0871               	movf	?_USBTransferOnePacket+1,w
 10350  049D  0023               	movlb	3	; select bank3
 10351  049E  00B7               	movwf	(_last_DSP_OUT+1)^(0+384)
 10352  049F  0870               	movf	?_USBTransferOnePacket,w
 10353  04A0  00B6               	movwf	_last_DSP_OUT^(0+384)
 10354  04A1                     l4220:
 10355                           
 10356                           ;lib/app_device_joystick.c: 140:     if(!((last_LED_OUT != 0x0000) && ((*(volatile uint8
      +                          _t*)last_LED_OUT & 0x80) != 0x00)) && LED_pkt_ready){
 10357  04A1  0023               	movlb	3	; select bank3
 10358  04A2  0838               	movf	_last_LED_OUT^(0+384),w
 10359  04A3  0439               	iorwf	(_last_LED_OUT+1)^(0+384),w
 10360  04A4  1903               	btfsc	3,2
 10361  04A5  2CA7               	goto	u3321
 10362  04A6  2CA8               	goto	u3320
 10363  04A7                     u3321:
 10364  04A7  2CB0               	goto	l4224
 10365  04A8                     u3320:
 10366  04A8                     l4222:
 10367  04A8  0838               	movf	_last_LED_OUT^(0+384),w
 10368  04A9  0086               	movwf	6
 10369  04AA  0839               	movf	(_last_LED_OUT+1)^(0+384),w
 10370  04AB  0087               	movwf	7
 10371  04AC  1B81               	btfsc	1,7
 10372  04AD  2CAF               	goto	u3331
 10373  04AE  2CB0               	goto	u3330
 10374  04AF                     u3331:
 10375  04AF  2CC9               	goto	l581
 10376  04B0                     u3330:
 10377  04B0                     l4224:
 10378  04B0  0022               	movlb	2	; select bank2
 10379  04B1  082D               	movf	_LED_pkt_ready^(0+256),w
 10380  04B2  1903               	btfsc	3,2
 10381  04B3  2CB5               	goto	u3341
 10382  04B4  2CB6               	goto	u3340
 10383  04B5                     u3341:
 10384  04B5  2CC9               	goto	l581
 10385  04B6                     u3340:
 10386  04B6                     l4226:
 10387                           
 10388                           ;lib/app_device_joystick.c: 141:         LED_pkt_ready = 0;
 10389  04B6  01AD               	clrf	_LED_pkt_ready^(0+256)
 10390  04B7                     l4228:
 10391                           
 10392                           ;lib/app_device_joystick.c: 142:         last_LED_OUT = USBTransferOnePacket(2,0,(uint8_
      +                          t*)&leds_output,sizeof(leds_output));
 10393  04B7  01F0               	clrf	USBTransferOnePacket@dir
 10394  04B8  3030               	movlw	48
 10395  04B9  00F1               	movwf	USBTransferOnePacket@data
 10396  04BA  3021               	movlw	33
 10397  04BB  00F2               	movwf	USBTransferOnePacket@data+1
 10398  04BC  3031               	movlw	49
 10399  04BD  00FB               	movwf	??_APP_DeviceJoystickTasks
 10400  04BE  087B               	movf	??_APP_DeviceJoystickTasks,w
 10401  04BF  00F3               	movwf	USBTransferOnePacket@len
 10402  04C0  3002               	movlw	2
 10403  04C1  318E  26DD  3183   	fcall	_USBTransferOnePacket
 10404  04C4  0871               	movf	?_USBTransferOnePacket+1,w
 10405  04C5  0023               	movlb	3	; select bank3
 10406  04C6  00B9               	movwf	(_last_LED_OUT+1)^(0+384)
 10407  04C7  0870               	movf	?_USBTransferOnePacket,w
 10408  04C8  00B8               	movwf	_last_LED_OUT^(0+384)
 10409  04C9                     l581:
 10410  04C9  0008               	return
 10411  04CA                     __end_of_APP_DeviceJoystickTasks:
 10412                           
 10413                           	psect	text37
 10414  0EDD                     __ptext37:	
 10415 ;; *************** function _USBTransferOnePacket *****************
 10416 ;; Defined at:
 10417 ;;		line 999 in file "lib/usb/usb_device.c"
 10418 ;; Parameters:    Size  Location     Type
 10419 ;;  ep              1    wreg     unsigned char 
 10420 ;;  dir             1    0[COMMON] unsigned char 
 10421 ;;  data            2    1[COMMON] PTR unsigned char 
 10422 ;;		 -> leds_output(49), haptic_out(64), display_output(64), haptic_in(16), 
 10423 ;;  len             1    3[COMMON] unsigned char 
 10424 ;; Auto vars:     Size  Location     Type
 10425 ;;  ep              1    8[COMMON] unsigned char 
 10426 ;;  handle          2    9[COMMON] PTR volatile struct __BD
 10427 ;;		 -> RAM(4096), NULL(0), BDT(64), 
 10428 ;; Return value:  Size  Location     Type
 10429 ;;                  2    0[COMMON] PTR void 
 10430 ;; Registers used:
 10431 ;;		wreg, fsr1l, fsr1h, status,2, status,0
 10432 ;; Tracked objects:
 10433 ;;		On entry : 0/0
 10434 ;;		On exit  : 0/0
 10435 ;;		Unchanged: 0/0
 10436 ;; Data sizes:     COMMON   BANK1   BANK2   BANK3   BANK4   BANK5   BANK6   BANK7   BANK8   BANK9  BANK10  BANK11  BANK1
      +2
 10437 ;;      Params:         4       0       0       0       0       0       0       0       0       0       0       0       
      +0
 10438 ;;      Locals:         3       0       0       0       0       0       0       0       0       0       0       0       
      +0
 10439 ;;      Temps:          4       0       0       0       0       0       0       0       0       0       0       0       
      +0
 10440 ;;      Totals:        11       0       0       0       0       0       0       0       0       0       0       0       
      +0
 10441 ;;Total ram usage:       11 bytes
 10442 ;; Hardware stack levels used: 1
 10443 ;; Hardware stack levels required when called: 1
 10444 ;; This function calls:
 10445 ;;		Nothing
 10446 ;; This function is called by:
 10447 ;;		_APP_DeviceJoystickTasks
 10448 ;; This function uses a non-reentrant model
 10449 ;;
 10450                           
 10451  0EDD                     _USBTransferOnePacket:	
 10452                           ;psect for function _USBTransferOnePacket
 10453                           
 10454                           
 10455                           ;incstack = 0
 10456                           ; Regs used in _USBTransferOnePacket: [wreg+fsr1l+fsr1h+status,2+status,0]
 10457                           ;USBTransferOnePacket@ep stored from wreg
 10458  0EDD  00F8               	movwf	USBTransferOnePacket@ep
 10459  0EDE                     l3986:
 10460                           
 10461                           ;lib/usb/usb_device.c: 999: void* USBTransferOnePacket(uint8_t ep,uint8_t dir,uint8_t* d
      +                          ata,uint8_t len);lib/usb/usb_device.c: 1000: {;lib/usb/usb_device.c: 1001:     volatile 
      +                          BDT_ENTRY* handle;;lib/usb/usb_device.c: 1004:     if(dir != 0)
 10462  0EDE  0870               	movf	USBTransferOnePacket@dir,w
 10463  0EDF  1903               	btfsc	3,2
 10464  0EE0  2EE2               	goto	u2851
 10465  0EE1  2EE3               	goto	u2850
 10466  0EE2                     u2851:
 10467  0EE2  2EEC               	goto	l3990
 10468  0EE3                     u2850:
 10469  0EE3                     l3988:
 10470                           
 10471                           ;lib/usb/usb_device.c: 1005:     {;lib/usb/usb_device.c: 1007:         handle = pBDTEntr
      +                          yIn[ep];
 10472  0EE3  3578               	lslf	USBTransferOnePacket@ep,w
 10473  0EE4  3EB0               	addlw	(low (_pBDTEntryIn| 0))& (0+255)
 10474  0EE5  0086               	movwf	6
 10475  0EE6  0187               	clrf	7
 10476  0EE7  3F40               	moviw [0]fsr1
 10477  0EE8  00F9               	movwf	USBTransferOnePacket@handle
 10478  0EE9  3F41               	moviw [1]fsr1
 10479  0EEA  00FA               	movwf	USBTransferOnePacket@handle+1
 10480                           
 10481                           ;lib/usb/usb_device.c: 1008:     }
 10482  0EEB  2EF5               	goto	l3992
 10483  0EEC                     l3990:
 10484                           
 10485                           ;lib/usb/usb_device.c: 1010:     {;lib/usb/usb_device.c: 1012:         handle = pBDTEntr
      +                          yOut[ep];
 10486  0EEC  3578               	lslf	USBTransferOnePacket@ep,w
 10487  0EED  3EA0               	addlw	(low (_pBDTEntryOut| (0+256)))& (0+255)
 10488  0EEE  0086               	movwf	6
 10489  0EEF  3001               	movlw	1	; select bank3/4
 10490  0EF0  0087               	movwf	7
 10491  0EF1  3F40               	moviw [0]fsr1
 10492  0EF2  00F9               	movwf	USBTransferOnePacket@handle
 10493  0EF3  3F41               	moviw [1]fsr1
 10494  0EF4  00FA               	movwf	USBTransferOnePacket@handle+1
 10495  0EF5                     l3992:
 10496                           
 10497                           ;lib/usb/usb_device.c: 1017:     if(handle == 0)
 10498  0EF5  0879               	movf	USBTransferOnePacket@handle,w
 10499  0EF6  047A               	iorwf	USBTransferOnePacket@handle+1,w
 10500  0EF7  1D03               	btfss	3,2
 10501  0EF8  2EFA               	goto	u2861
 10502  0EF9  2EFB               	goto	u2860
 10503  0EFA                     u2861:
 10504  0EFA  2EFE               	goto	l3998
 10505  0EFB                     u2860:
 10506  0EFB                     l3994:
 10507                           
 10508                           ;lib/usb/usb_device.c: 1018:     {;lib/usb/usb_device.c: 1019:         return 0;
 10509  0EFB  01F0               	clrf	?_USBTransferOnePacket
 10510  0EFC  01F1               	clrf	?_USBTransferOnePacket+1
 10511  0EFD  2F63               	goto	l202
 10512  0EFE                     l3998:
 10513                           
 10514                           ;lib/usb/usb_device.c: 1033:     handle->ADR = (((uint16_t)(data)) & 0x7FFF);
 10515  0EFE  30FF               	movlw	255
 10516  0EFF  0571               	andwf	USBTransferOnePacket@data,w
 10517  0F00  00F4               	movwf	??_USBTransferOnePacket
 10518  0F01  307F               	movlw	127
 10519  0F02  0572               	andwf	USBTransferOnePacket@data+1,w
 10520  0F03  00F5               	movwf	??_USBTransferOnePacket+1
 10521  0F04  0879               	movf	USBTransferOnePacket@handle,w
 10522  0F05  0086               	movwf	6
 10523  0F06  087A               	movf	USBTransferOnePacket@handle+1,w
 10524  0F07  0087               	movwf	7
 10525  0F08  3142               	addfsr 1,2
 10526  0F09  0874               	movf	??_USBTransferOnePacket,w
 10527  0F0A  3FC0               	movwi [0]fsr1
 10528  0F0B  0875               	movf	??_USBTransferOnePacket+1,w
 10529  0F0C  3FC1               	movwi [1]fsr1
 10530  0F0D                     l4000:
 10531                           
 10532                           ;lib/usb/usb_device.c: 1034:     handle->CNT = len;
 10533  0F0D  0879               	movf	USBTransferOnePacket@handle,w
 10534  0F0E  3E01               	addlw	1
 10535  0F0F  00F4               	movwf	??_USBTransferOnePacket
 10536  0F10  3000               	movlw	0
 10537  0F11  3D7A               	addwfc	USBTransferOnePacket@handle+1,w
 10538  0F12  00F5               	movwf	??_USBTransferOnePacket+1
 10539  0F13  0874               	movf	??_USBTransferOnePacket,w
 10540  0F14  0086               	movwf	6
 10541  0F15  0875               	movf	??_USBTransferOnePacket+1,w
 10542  0F16  0087               	movwf	7
 10543  0F17  0873               	movf	USBTransferOnePacket@len,w
 10544  0F18  0081               	movwf	1
 10545  0F19                     l4002:
 10546                           
 10547                           ;lib/usb/usb_device.c: 1035:     handle->STAT.Val &= 0x40;
 10548  0F19  3040               	movlw	64
 10549  0F1A  00F4               	movwf	??_USBTransferOnePacket
 10550  0F1B  0879               	movf	USBTransferOnePacket@handle,w
 10551  0F1C  0086               	movwf	6
 10552  0F1D  087A               	movf	USBTransferOnePacket@handle+1,w
 10553  0F1E  0087               	movwf	7
 10554  0F1F  0874               	movf	??_USBTransferOnePacket,w
 10555  0F20  0581               	andwf	1,f
 10556                           
 10557                           ;lib/usb/usb_device.c: 1036:     handle->STAT.Val |= (0x08 & 0x08);
 10558  0F21  0879               	movf	USBTransferOnePacket@handle,w
 10559  0F22  0086               	movwf	6
 10560  0F23  087A               	movf	USBTransferOnePacket@handle+1,w
 10561  0F24  0087               	movwf	7
 10562  0F25  1581               	bsf	1,3
 10563                           
 10564                           ;lib/usb/usb_device.c: 1037:     handle->STAT.Val |= 0x80;
 10565  0F26  0879               	movf	USBTransferOnePacket@handle,w
 10566  0F27  0086               	movwf	6
 10567  0F28  087A               	movf	USBTransferOnePacket@handle+1,w
 10568  0F29  0087               	movwf	7
 10569  0F2A  1781               	bsf	1,7
 10570  0F2B                     l4004:
 10571                           
 10572                           ;lib/usb/usb_device.c: 1040:     if(dir != 0)
 10573  0F2B  0870               	movf	USBTransferOnePacket@dir,w
 10574  0F2C  1903               	btfsc	3,2
 10575  0F2D  2F2F               	goto	u2871
 10576  0F2E  2F30               	goto	u2870
 10577  0F2F                     u2871:
 10578  0F2F  2F47               	goto	l4008
 10579  0F30                     u2870:
 10580  0F30                     l4006:
 10581                           
 10582                           ;lib/usb/usb_device.c: 1041:     {;lib/usb/usb_device.c: 1043:         pBDTEntryIn[ep] =
      +                           (BDT_ENTRY*)(((uint16_t)pBDTEntryIn[ep]) ^ 0x0004u);
 10583  0F30  3578               	lslf	USBTransferOnePacket@ep,w
 10584  0F31  3EB0               	addlw	(low (_pBDTEntryIn| 0))& (0+255)
 10585  0F32  0086               	movwf	6
 10586  0F33  0187               	clrf	7
 10587  0F34  3F40               	moviw [0]fsr1
 10588  0F35  00F4               	movwf	??_USBTransferOnePacket
 10589  0F36  3F41               	moviw [1]fsr1
 10590  0F37  00F5               	movwf	??_USBTransferOnePacket+1
 10591  0F38  3004               	movlw	4
 10592  0F39  0674               	xorwf	??_USBTransferOnePacket,w
 10593  0F3A  00F6               	movwf	??_USBTransferOnePacket+2
 10594  0F3B  3000               	movlw	0
 10595  0F3C  0675               	xorwf	??_USBTransferOnePacket+1,w
 10596  0F3D  00F7               	movwf	??_USBTransferOnePacket+3
 10597  0F3E  3578               	lslf	USBTransferOnePacket@ep,w
 10598  0F3F  3EB0               	addlw	(low (_pBDTEntryIn| 0))& (0+255)
 10599  0F40  0086               	movwf	6
 10600  0F41  0187               	clrf	7
 10601  0F42  0876               	movf	??_USBTransferOnePacket+2,w
 10602  0F43  3FC0               	movwi [0]fsr1
 10603  0F44  0877               	movf	??_USBTransferOnePacket+3,w
 10604  0F45  3FC1               	movwi [1]fsr1
 10605                           
 10606                           ;lib/usb/usb_device.c: 1044:     }
 10607  0F46  2F5F               	goto	l4010
 10608  0F47                     l4008:
 10609                           
 10610                           ;lib/usb/usb_device.c: 1046:     {;lib/usb/usb_device.c: 1048:         pBDTEntryOut[ep] 
      +                          = (BDT_ENTRY*)(((uint16_t)pBDTEntryOut[ep]) ^ 0x0004u);
 10611  0F47  3578               	lslf	USBTransferOnePacket@ep,w
 10612  0F48  3EA0               	addlw	(low (_pBDTEntryOut| (0+256)))& (0+255)
 10613  0F49  0086               	movwf	6
 10614  0F4A  3001               	movlw	1	; select bank3/4
 10615  0F4B  0087               	movwf	7
 10616  0F4C  3F40               	moviw [0]fsr1
 10617  0F4D  00F4               	movwf	??_USBTransferOnePacket
 10618  0F4E  3F41               	moviw [1]fsr1
 10619  0F4F  00F5               	movwf	??_USBTransferOnePacket+1
 10620  0F50  3004               	movlw	4
 10621  0F51  0674               	xorwf	??_USBTransferOnePacket,w
 10622  0F52  00F6               	movwf	??_USBTransferOnePacket+2
 10623  0F53  3000               	movlw	0
 10624  0F54  0675               	xorwf	??_USBTransferOnePacket+1,w
 10625  0F55  00F7               	movwf	??_USBTransferOnePacket+3
 10626  0F56  3578               	lslf	USBTransferOnePacket@ep,w
 10627  0F57  3EA0               	addlw	(low (_pBDTEntryOut| (0+256)))& (0+255)
 10628  0F58  0086               	movwf	6
 10629  0F59  3001               	movlw	1	; select bank3/4
 10630  0F5A  0087               	movwf	7
 10631  0F5B  0876               	movf	??_USBTransferOnePacket+2,w
 10632  0F5C  3FC0               	movwi [0]fsr1
 10633  0F5D  0877               	movf	??_USBTransferOnePacket+3,w
 10634  0F5E  3FC1               	movwi [1]fsr1
 10635  0F5F                     l4010:
 10636                           
 10637                           ;lib/usb/usb_device.c: 1050:     return (void*)handle;
 10638  0F5F  087A               	movf	USBTransferOnePacket@handle+1,w
 10639  0F60  00F1               	movwf	?_USBTransferOnePacket+1
 10640  0F61  0879               	movf	USBTransferOnePacket@handle,w
 10641  0F62  00F0               	movwf	?_USBTransferOnePacket
 10642  0F63                     l202:
 10643  0F63  0008               	return
 10644  0F64                     __end_of_USBTransferOnePacket:
 10645                           
 10646                           	psect	intentry
 10647  0004                     __pintentry:	
 10648 ;; *************** function _SYS_InterruptHigh *****************
 10649 ;; Defined at:
 10650 ;;		line 117 in file "lib/system.c"
 10651 ;; Parameters:    Size  Location     Type
 10652 ;;		None
 10653 ;; Auto vars:     Size  Location     Type
 10654 ;;		None
 10655 ;; Return value:  Size  Location     Type
 10656 ;;                  1    wreg      void 
 10657 ;; Registers used:
 10658 ;;		None
 10659 ;; Tracked objects:
 10660 ;;		On entry : 0/0
 10661 ;;		On exit  : 0/0
 10662 ;;		Unchanged: 0/0
 10663 ;; Data sizes:     COMMON   BANK1   BANK2   BANK3   BANK4   BANK5   BANK6   BANK7   BANK8   BANK9  BANK10  BANK11  BANK1
      +2
 10664 ;;      Params:         0       0       0       0       0       0       0       0       0       0       0       0       
      +0
 10665 ;;      Locals:         0       0       0       0       0       0       0       0       0       0       0       0       
      +0
 10666 ;;      Temps:          0       0       0       0       0       0       0       0       0       0       0       0       
      +0
 10667 ;;      Totals:         0       0       0       0       0       0       0       0       0       0       0       0       
      +0
 10668 ;;Total ram usage:        0 bytes
 10669 ;; Hardware stack levels used: 1
 10670 ;; This function calls:
 10671 ;;		Nothing
 10672 ;; This function is called by:
 10673 ;;		Interrupt level 1
 10674 ;; This function uses a non-reentrant model
 10675 ;;
 10676                           
 10677  0004                     _SYS_InterruptHigh:
 10678                           
 10679                           ;incstack = 0
 10680  0004  147E               	bsf	int$flags,0	;set compiler interrupt flag (level 1)
 10681                           
 10682                           ; Regs used in _SYS_InterruptHigh: []
 10683  0005  3180               	pagesel	$
 10684  0006                     i1l708:
 10685  0006  107E               	bcf	int$flags,0	;clear compiler interrupt flag (level 1)
 10686  0007  0009               	retfie
 10687  0008                     __end_of_SYS_InterruptHigh:
 10688  007E                     btemp	set	126	;btemp
 10689  007E                     int$flags	set	126
 10690  007E                     wtemp0	set	126
 10691                           
 10692                           	psect	idloc
 10693                           
 10694                           ;Config register IDLOC0 @ 0x8000
 10695                           ;	unspecified, using default values
 10696  8000                     	org	32768
 10697  8000  3FFF               	dw	16383
 10698                           
 10699                           ;Config register IDLOC1 @ 0x8001
 10700                           ;	unspecified, using default values
 10701  8001                     	org	32769
 10702  8001  3FFF               	dw	16383
 10703                           
 10704                           ;Config register IDLOC2 @ 0x8002
 10705                           ;	unspecified, using default values
 10706  8002                     	org	32770
 10707  8002  3FFF               	dw	16383
 10708                           
 10709                           ;Config register IDLOC3 @ 0x8003
 10710                           ;	unspecified, using default values
 10711  8003                     	org	32771
 10712  8003  3FFF               	dw	16383
 10713                           
 10714                           	psect	config
 10715                           
 10716                           ;Config register CONFIG1 @ 0x8007
 10717                           ;	Oscillator Selection Bits
 10718                           ;	FOSC = HS, HS Oscillator, High-speed crystal/resonator connected between OSC1 and OSC2
      +                           pins
 10719                           ;	Watchdog Timer Enable
 10720                           ;	WDTE = OFF, WDT disabled
 10721                           ;	Power-up Timer Enable
 10722                           ;	PWRTE = ON, PWRT enabled
 10723                           ;	MCLR Pin Function Select
 10724                           ;	MCLRE = ON, MCLR/VPP pin function is MCLR
 10725                           ;	Flash Program Memory Code Protection
 10726                           ;	CP = OFF, Program memory code protection is disabled
 10727                           ;	Brown-out Reset Enable
 10728                           ;	BOREN = ON, Brown-out Reset enabled
 10729                           ;	Clock Out Enable
 10730                           ;	CLKOUTEN = OFF, CLKOUT function is disabled. I/O or oscillator function on the CLKOUT 
      +                          pin
 10731                           ;	Internal/External Switchover Mode
 10732                           ;	IESO = OFF, Internal/External Switchover Mode is disabled
 10733                           ;	Fail-Safe Clock Monitor Enable
 10734                           ;	FCMEN = OFF, Fail-Safe Clock Monitor is disabled
 10735  8007                     	org	32775
 10736  8007  0FC2               	dw	4034
 10737                           
 10738                           ;Config register CONFIG2 @ 0x8008
 10739                           ;	Flash Memory Self-Write Protection
 10740                           ;	WRT = OFF, Write protection off
 10741                           ;	CPU System Clock Selection Bit
 10742                           ;	CPUDIV = NOCLKDIV, NO CPU system divide
 10743                           ;	USB Low SPeed Clock Selection bit
 10744                           ;	USBLSCLK = 48MHz, System clock expects 48 MHz, FS/LS USB CLKENs divide-by is set to 8.
 10745                           ;	PLL Multipler Selection Bit
 10746                           ;	PLLMULT = 4x, 4x Output Frequency Selected
 10747                           ;	PLL Enable Bit
 10748                           ;	PLLEN = ENABLED, 3x or 4x PLL Enabled
 10749                           ;	Stack Overflow/Underflow Reset Enable
 10750                           ;	STVREN = ON, Stack Overflow or Underflow will cause a Reset
 10751                           ;	Brown-out Reset Voltage Selection
 10752                           ;	BORV = LO, Brown-out Reset Voltage (Vbor), low trip point selected.
 10753                           ;	Low-Power Brown Out Reset
 10754                           ;	LPBOR = OFF, Low-Power BOR is disabled
 10755                           ;	Low-Voltage Programming Enable
 10756                           ;	LVP = ON, Low-voltage programmi 10757  8008                     	org	32776
 10758  8008  3F4F               	dw	16207

Data Sizes:
    Strings     0
    Constant    352
    Data        8
    BSS         89
    Persistent  32
    Stack       0

Auto Spaces:
    Space          Size  Autos    Used
    COMMON           14     14      14
    BANK1            64     23      64
    BANK2            16      0      16
    BANK3            64      0      40
    BANK4            47      0       0
    BANK5            32      0       0
    BANK6            64      0       0
    BANK7            80      0       0
    BANK8            80      0       0
    BANK9            80      0       0
    BANK10           80      0       0
    BANK11           80      0       0
    BANK12           48      0       0

Pointer List with Targets:

    USER_USB_CALLBACK_EVENT_HANDLER@pdata	PTR void  size(2) Largest target is 4096
		 -> RAM(DATA[4096]), USTATcopy(BANK1[1]), USBActiveConfiguration(BANK1[1]), NULL(NULL[0]), 
		 -> BDT(ABS[64]), 

    memset@dest	PTR void  size(2) Largest target is 64
		 -> USBAlternateInterface(BANK3[3]), BDT(ABS[64]), 

    memset@s	PTR unsigned char  size(2) Largest target is 64
		 -> USBAlternateInterface(BANK3[3]), BDT(ABS[64]), 

    memcpy@d1	PTR void  size(1) Largest target is 8
		 -> SetupPkt(ABS[8]), 

    memcpy@d	PTR unsigned char  size(1) Largest target is 8
		 -> SetupPkt(ABS[8]), 

    memcpy@s1	PTR const void  size(2) Largest target is 4096
		 -> CtrlTrfData(ABS[8]), RAM(DATA[4096]), SetupPkt(ABS[8]), 

    memcpy@s	PTR const unsigned char  size(2) Largest target is 4096
		 -> CtrlTrfData(ABS[8]), RAM(DATA[4096]), SetupPkt(ABS[8]), 

    last_DSP_OUT	PTR void  size(2) Largest target is 4096
		 -> RAM(DATA[4096]), NULL(NULL[0]), BDT(ABS[64]), 

    last_LED_OUT	PTR void  size(2) Largest target is 4096
		 -> RAM(DATA[4096]), NULL(NULL[0]), BDT(ABS[64]), 

    last_HAP_OUT	PTR void  size(2) Largest target is 4096
		 -> RAM(DATA[4096]), NULL(NULL[0]), BDT(ABS[64]), 

    last_HAP_IN	PTR void  size(2) Largest target is 4096
		 -> RAM(DATA[4096]), NULL(NULL[0]), BDT(ABS[64]), 

    USBStdFeatureReqHandler@pUEP	PTR unsigned char  size(2) Largest target is 1
		 -> UEP0(SFR29[1]), 

    USBStdFeatureReqHandler@p	PTR struct __BDT size(2) Largest target is 4096
		 -> RAM(DATA[4096]), NULL(NULL[0]), BDT(ABS[64]), 

    sp__memcpy	PTR void  size(1) Largest target is 8
		 -> SetupPkt(ABS[8]), 

    USBStdGetStatusHandler@p	PTR struct __BDT size(2) Largest target is 4096
		 -> RAM(DATA[4096]), NULL(NULL[0]), BDT(ABS[64]), 

    sp__memset	PTR void  size(2) Largest target is 64
		 -> USBAlternateInterface(BANK3[3]), BDT(ABS[64]), 

    USBStdSetCfgHandler@p	PTR unsigned char  size(2) Largest target is 1
		 -> UEP1(SFR29[1]), 

    pDst	PTR unsigned char  size(1) Largest target is 8
		 -> CtrlTrfData(ABS[8]), NULL(NULL[0]), 

    USBConfigureEndpoint@handle	PTR volatile struct __BDT size(1) Largest target is 64
		 -> BDT(ABS[64]), 

    pBDTEntryEP0OutCurrent	PTR volatile struct __BDT size(1) Largest target is 64
		 -> NULL(NULL[0]), BDT(ABS[64]), 

    pBDTEntryEP0OutNext	PTR volatile struct __BDT size(2) Largest target is 4096
		 -> RAM(DATA[4096]), NULL(NULL[0]), BDT(ABS[64]), 

    USBTransferOnePacket@data	PTR unsigned char  size(2) Largest target is 64
		 -> leds_output(BIGRAM[49]), haptic_out(BANK2[64]), display_output(BIGRAM[64]), haptic_in(BANK1[16]), 

    sp__USBTransferOnePacket	PTR void  size(2) Largest target is 4096
		 -> RAM(DATA[4096]), NULL(NULL[0]), BDT(ABS[64]), 

    USBTransferOnePacket@handle	PTR volatile struct __BDT size(2) Largest target is 4096
		 -> RAM(DATA[4096]), NULL(NULL[0]), BDT(ABS[64]), 

    USBEnableEndpoint@p	PTR unsigned char  size(2) Largest target is 1
		 -> UEP0(SFR29[1]), 

    pBDTEntryOut	PTR volatile struct __BDT[4] size(2) Largest target is 4096
		 -> RAM(DATA[4096]), NULL(NULL[0]), BDT(ABS[64]), 

    pBDTEntryIn	PTR volatile struct __BDT[4] size(2) Largest target is 4096
		 -> RAM(DATA[4096]), NULL(NULL[0]), BDT(ABS[64]), 

    S174$pFunc	PTR FTN()void  size(2) Largest target is 0

    outPipes.pFunc	PTR FTN()void  size(2) Largest target is 0

    S164$wRam	PTR unsigned short  size(1) Largest target is 0

    outPipes.pDst.wRam	PTR unsigned short  size(1) Largest target is 0

    S164$bRam	PTR unsigned char  size(1) Largest target is 0

    outPipes.pDst.bRam	PTR unsigned char  size(1) Largest target is 0

    S140$wRom	PTR const unsigned short  size(1) Largest target is 0

    inPipes.pSrc.wRom	PTR const unsigned short  size(1) Largest target is 0

    S140$wRam	PTR unsigned short  size(1) Largest target is 0

    inPipes.pSrc.wRam	PTR unsigned short  size(1) Largest target is 0

    S140$bRom	PTR const unsigned char  size(1) Largest target is 0

    inPipes.pSrc.bRom	PTR const unsigned char  size(1) Largest target is 0

    S140$bRam	PTR unsigned char  size(1) Largest target is 0

    inPipes.pSrc.bRam	PTR unsigned char  size(1) Largest target is 0

    USBDeviceInit@p	PTR unsigned char  size(2) Largest target is 1
		 -> UEP1(SFR29[1]), 

    USB_SD_Ptr	const PTR const unsigned char [3] size(2) Largest target is 52
		 -> sd002(CODE[28]), sd001(CODE[52]), sd000(CODE[4]), 

    USB_CD_Ptr	const PTR const unsigned char [1] size(2) Largest target is 105
		 -> configDescriptor1(CODE[105]), 


Critical Paths under _main in COMMON

    _USBCtrlEPServiceComplete->_USBCtrlEPAllowDataStage
    _USBCtrlEPAllowDataStage->_USBCtrlTrfTxService
    _USBStdSetCfgHandler->_memset
    _USER_USB_CALLBACK_EVENT_HANDLER->_APP_DeviceJoystickInitialize
    _SYSTEM_Initialize->_BUTTON_Enable
    _SYSTEM_Initialize->_LED_Enable
    _APP_LEDUpdateUSBStatus->_LED_Off
    _APP_LEDUpdateUSBStatus->_LED_On
    _APP_DeviceJoystickInitialize->_USBEnableEndpoint
    _USBEnableEndpoint->_USBConfigureEndpoint
    _USBCtrlTrfOutHandler->_USBCtrlTrfRxService
    _USBCtrlTrfRxService->_USBCtrlEPAllowStatusStage
    _USBCtrlTrfInHandler->_USBCtrlTrfTxService
    _APP_DeviceJoystickTasks->_USBTransferOnePacket

Critical Paths under _SYS_InterruptHigh in COMMON

    None.

Critical Paths under _main in BANK1

    _main->_USBDeviceTasks
    _USBDeviceTasks->_USBCtrlEPService
    _USBWakeFromSuspend->_USER_USB_CALLBACK_EVENT_HANDLER
    _USBSuspend->_USER_USB_CALLBACK_EVENT_HANDLER
    _USBCtrlEPService->_USBCtrlTrfSetupHandler
    _USBCtrlTrfSetupHandler->_USBCheckStdRequest
    _USBCheckStdRequest->_USBStdFeatureReqHandler
    _USBStdSetCfgHandler->_USER_USB_CALLBACK_EVENT_HANDLER
    _USBStdFeatureReqHandler->_USER_USB_CALLBACK_EVENT_HANDLER

Critical Paths under _SYS_InterruptHigh in BANK1

    None.

Critical Paths under _main in BANK2

    None.

Critical Paths under _SYS_InterruptHigh in BANK2

    None.

Critical Paths under _main in BANK3

    None.

Critical Paths under _SYS_InterruptHigh in BANK3

    None.

Critical Paths under _main in BANK4

    None.

Critical Paths under _SYS_InterruptHigh in BANK4

    None.

Critical Paths under _main in BANK5

    None.

Critical Paths under _SYS_InterruptHigh in BANK5

    None.

Critical Paths under _main in BANK6

    None.

Critical Paths under _SYS_InterruptHigh in BANK6

    None.

Critical Paths under _main in BANK7

    None.

Critical Paths under _SYS_InterruptHigh in BANK7

    None.

Critical Paths under _main in BANK8

    None.

Critical Paths under _SYS_InterruptHigh in BANK8

    None.

Critical Paths under _main in BANK9

    None.

Critical Paths under _SYS_InterruptHigh in BANK9

    None.

Critical Paths under _main in BANK10

    None.

Critical Paths under _SYS_InterruptHigh in BANK10

    None.

Critical Paths under _main in BANK11

    None.

Critical Paths under _SYS_InterruptHigh in BANK11

    None.

Critical Paths under _main in BANK12

    None.

Critical Paths under _SYS_InterruptHigh in BANK12

    None.

Call Graph Tables:

 ---------------------------------------------------------------------------------
 (Depth) Function   	        Calls       Base Space   Used Autos Params    Refs
 ---------------------------------------------------------------------------------
 (0) _main                                                 2     2      0   30379
                                             21 BANK1      2     2      0
            _APP_DeviceJoystickTasks
                       _SlaveinitSPI
                      _USBDeviceInit
                     _USBDeviceTasks
                            _spiTask
 ---------------------------------------------------------------------------------
 (1) _spiTask                                              1     1      0       0
                                              0 COMMON     1     1      0
 ---------------------------------------------------------------------------------
 (1) _USBDeviceTasks                                       3     3      0   28663
                                             18 BANK1      3     3      0
          _USBCtrlEPAllowStatusStage
                   _USBCtrlEPService
                      _USBDeviceInit
      _USBIncrement1msInternalTimers
                    _USBStallHandler
                         _USBSuspend
                 _USBWakeFromSuspend
    _USER_USB_CALLBACK_EVENT_HANDLER
 ---------------------------------------------------------------------------------
 (2) _USBWakeFromSuspend                                   1     1      0    3624
                                              6 BANK1      1     1      0
    _USER_USB_CALLBACK_EVENT_HANDLER
 ---------------------------------------------------------------------------------
 (2) _USBSuspend                                           1     1      0    3624
                                              6 BANK1      1     1      0
    _USER_USB_CALLBACK_EVENT_HANDLER
 ---------------------------------------------------------------------------------
 (2) _USBStallHandler                                      1     1      0       0
                                              0 COMMON     1     1      0
 ---------------------------------------------------------------------------------
 (2) _USBIncrement1msInternalTimers                        1     1      0       0
                                              0 COMMON     1     1      0
 ---------------------------------------------------------------------------------
 (2) _USBDeviceInit                                        5     5      0     272
                                              0 COMMON     5     5      0
 ---------------------------------------------------------------------------------
 (2) _USBCtrlEPService                                     2     2      0   17451
                                             16 BANK1      2     2      0
                _USBCtrlTrfInHandler
               _USBCtrlTrfOutHandler
             _USBCtrlTrfSetupHandler
                             _memcpy
 ---------------------------------------------------------------------------------
 (3) _memcpy                                              10     6      4     363
                                              0 COMMON    10     6      4
 ---------------------------------------------------------------------------------
 (3) _USBCtrlTrfSetupHandler                               1     1      0   16859
                                             15 BANK1      1     1      0
                 _USBCheckStdRequest
           _USBCtrlEPServiceComplete
    _USER_USB_CALLBACK_EVENT_HANDLER
 ---------------------------------------------------------------------------------
 (4) _USBCtrlEPServiceComplete                             2     2      0      92
                                              5 COMMON     2     2      0
            _USBCtrlEPAllowDataStage
          _USBCtrlEPAllowStatusStage
 ---------------------------------------------------------------------------------
 (5) _USBCtrlEPAllowDataStage                              2     2      0      92
                                              3 COMMON     2     2      0
                _USBCtrlTrfTxService
 ---------------------------------------------------------------------------------
 (4) _USBCheckStdRequest                                   2     2      0   13143
                                             13 BANK1      2     2      0
            _USBStdFeatureReqHandler
                _USBStdGetDscHandler
             _USBStdGetStatusHandler
                _USBStdSetCfgHandler
    _USER_USB_CALLBACK_EVENT_HANDLER
 ---------------------------------------------------------------------------------
 (5) _USBStdSetCfgHandler                                  5     5      0    5378
                                              6 BANK1      5     5      0
    _USER_USB_CALLBACK_EVENT_HANDLER
                             _memset
 ---------------------------------------------------------------------------------
 (6) _memset                                              14     8      6    1519
                                              0 COMMON    14     8      6
 ---------------------------------------------------------------------------------
 (5) _USBStdGetStatusHandler                               4     4      0      46
                                              0 COMMON     4     4      0
 ---------------------------------------------------------------------------------
 (5) _USBStdGetDscHandler                                  3     3      0       0
                                              0 COMMON     3     3      0
 ---------------------------------------------------------------------------------
 (5) _USBStdFeatureReqHandler                              7     7      0    4095
                                              6 BANK1      7     7      0
    _USER_USB_CALLBACK_EVENT_HANDLER
 ---------------------------------------------------------------------------------
 (2) _USER_USB_CALLBACK_EVENT_HANDLER                      6     0      6    3624
                                              0 BANK1      6     0      6
       _APP_DeviceJoystickInitialize
             _APP_LEDUpdateUSBStatus
                  _SYSTEM_Initialize
                 _USBCheckHIDRequest
 ---------------------------------------------------------------------------------
 (3) _USBCheckHIDRequest                                   2     2      0       0
                                              0 COMMON     2     2      0
 ---------------------------------------------------------------------------------
 (3) _SYSTEM_Initialize                                    3     3      0      66
                                              3 COMMON     3     3      0
                      _BUTTON_Enable
                         _LED_Enable
 ---------------------------------------------------------------------------------
 (4) _LED_Enable                                           3     3      0      22
                                              0 COMMON     3     3      0
 ---------------------------------------------------------------------------------
 (4) _BUTTON_Enable                                        3     3      0      22
                                              0 COMMON     3     3      0
 ---------------------------------------------------------------------------------
 (3) _APP_LEDUpdateUSBStatus                               2     2      0      44
                                              3 COMMON     2     2      0
                            _LED_Off
                             _LED_On
 ---------------------------------------------------------------------------------
 (4) _LED_On                                               3     3      0      22
                                              0 COMMON     3     3      0
 ---------------------------------------------------------------------------------
 (4) _LED_Off                                              3     3      0      22
                                              0 COMMON     3     3      0
 ---------------------------------------------------------------------------------
 (3) _APP_DeviceJoystickInitialize                         1     1      0     822
                                             13 COMMON     1     1      0
                  _USBEnableEndpoint
 ---------------------------------------------------------------------------------
 (4) _USBEnableEndpoint                                    6     5      1     822
                                              7 COMMON     6     5      1
               _USBConfigureEndpoint
 ---------------------------------------------------------------------------------
 (5) _USBConfigureEndpoint                                 7     6      1     400
                                              0 COMMON     7     6      1
 ---------------------------------------------------------------------------------
 (3) _USBCtrlTrfOutHandler                                 2     2      0     114
                                              6 COMMON     2     2      0
                _USBCtrlTrfRxService
 ---------------------------------------------------------------------------------
 (4) _USBCtrlTrfRxService                                  4     4      0     114
                                              2 COMMON     4     4      0
          _USBCtrlEPAllowStatusStage
 ---------------------------------------------------------------------------------
 (5) _USBCtrlEPAllowStatusStage                            2     2      0       0
                                              0 COMMON     2     2      0
 ---------------------------------------------------------------------------------
 (3) _USBCtrlTrfInHandler                                  3     3      0     115
                                              3 COMMON     3     3      0
                _USBCtrlTrfTxService
 ---------------------------------------------------------------------------------
 (6) _USBCtrlTrfTxService                                  3     3      0      92
                                              0 COMMON     3     3      0
 ---------------------------------------------------------------------------------
 (1) _SlaveinitSPI                                         0     0      0       0
 ---------------------------------------------------------------------------------
 (1) _APP_DeviceJoystickTasks                              1     1      0    1444
                                             11 COMMON     1     1      0
               _USBTransferOnePacket
 ---------------------------------------------------------------------------------
 (2) _USBTransferOnePacket                                11     7      4    1444
                                              0 COMMON    11     7      4
 ---------------------------------------------------------------------------------
 Estimated maximum stack depth 6
 ---------------------------------------------------------------------------------
 (Depth) Function   	        Calls       Base Space   Used Autos Params    Refs
 ---------------------------------------------------------------------------------
 (10) _SYS_InterruptHigh                                   0     0      0       0
 ---------------------------------------------------------------------------------
 Estimated maximum stack depth 10
 ---------------------------------------------------------------------------------

 Call Graph Graphs:

 _main (ROOT)
   _APP_DeviceJoystickTasks
     _USBTransferOnePacket
   _SlaveinitSPI
   _USBDeviceInit
   _USBDeviceTasks
     _USBCtrlEPAllowStatusStage
     _USBCtrlEPService
       _USBCtrlTrfInHandler
         _USBCtrlTrfTxService
       _USBCtrlTrfOutHandler
         _USBCtrlTrfRxService
           _USBCtrlEPAllowStatusStage
       _USBCtrlTrfSetupHandler
         _USBCheckStdRequest
           _USBStdFeatureReqHandler
             _USER_USB_CALLBACK_EVENT_HANDLER
               _APP_DeviceJoystickInitialize
                 _USBEnableEndpoint
                   _USBConfigureEndpoint
               _APP_LEDUpdateUSBStatus
                 _LED_Off
                 _LED_On
               _SYSTEM_Initialize
                 _BUTTON_Enable
                 _LED_Enable
               _USBCheckHIDRequest
           _USBStdGetDscHandler
           _USBStdGetStatusHandler
           _USBStdSetCfgHandler
             _USER_USB_CALLBACK_EVENT_HANDLER
             _memset
           _USER_USB_CALLBACK_EVENT_HANDLER
         _USBCtrlEPServiceComplete
           _USBCtrlEPAllowDataStage
             _USBCtrlTrfTxService
           _USBCtrlEPAllowStatusStage
         _USER_USB_CALLBACK_EVENT_HANDLER
       _memcpy
     _USBDeviceInit
     _USBIncrement1msInternalTimers
     _USBStallHandler
     _USBSuspend
       _USER_USB_CALLBACK_EVENT_HANDLER
     _USBWakeFromSuspend
       _USER_USB_CALLBACK_EVENT_HANDLER
     _USER_USB_CALLBACK_EVENT_HANDLER
   _spiTask

 _SYS_InterruptHigh (ROOT)

 Address spaces:
Name               Size   Autos  Total    Cost      Usage
BIGRAM             3F0      0       0       0        0.0%
NULL                 0      0       0       0        0.0%
CODE                 0      0       0       0        0.0%
BITCOMMON            E      0       0       1        0.0%
BITSFR0              0      0       0       1        0.0%
SFR0                 0      0       0       1        0.0%
COMMON               E      E       E       2      100.0%
BITSFR1              0      0       0       2        0.0%
SFR1                 0      0       0       2        0.0%
BITSFR2              0      0       0       3        0.0%
SFR2                 0      0       0       3        0.0%
STACK                0      0       0       3        0.0%
BITBANK1            40      0       0       4        0.0%
BITSFR3              0      0       0       4        0.0%
SFR3                 0      0       0       4        0.0%
BANK1               40     17      40       5      100.0%
BITSFR4              0      0       0       5        0.0%
SFR4                 0      0       0       5        0.0%
BITBANK2            10      0       0       6        0.0%
BITSFR5              0      0       0       6        0.0%
SFR5                 0      0       0       6        0.0%
BANK2               10      0      10       7      100.0%
BITSFR6              0      0       0       7        0.0%
SFR6                 0      0       0       7        0.0%
BITBANK3            50      0       0       8        0.0%
BITSFR7              0      0       0       8        0.0%
SFR7                 0      0       0       8        0.0%
BANK3               40      0      28       9       62.5%
BITSFR8              0      0       0       9        0.0%
SFR8                 0      0       0       9        0.0%
BITBANK4            50      0       0      10        0.0%
BITSFR9              0      0       0      10        0.0%
SFR9                 0      0       0      10        0.0%
BANK4               2F      0       0      11        0.0%
BITSFR10             0      0       0      11        0.0%
SFR10                0      0       0      11        0.0%
BITBANK5            50      0       0      12        0.0%
BITSFR11             0      0       0      12        0.0%
SFR11                0      0       0      12        0.0%
BANK5               20      0       0      13        0.0%
BITSFR12             0      0       0      13        0.0%
SFR12                0      0       0      13        0.0%
BITBANK6            50      0       0      14        0.0%
BITSFR13             0      0       0      14        0.0%
SFR13                0      0       0      14        0.0%
BANK6               40      0       0      15        0.0%
BITSFR14             0      0       0      15        0.0%
SFR14                0      0       0      15        0.0%
BITBANK7            50      0       0      16        0.0%
BITSFR15             0      0       0      16        0.0%
SFR15                0      0       0      16        0.0%
BANK7               50      0       0      17        0.0%
BITSFR16             0      0       0      17        0.0%
SFR16                0      0       0      17        0.0%
BITSFR17             0      0       0      18        0.0%
SFR17                0      0       0      18        0.0%
ABS                  0      0      86      18        0.0%
BITBANK8            50      0       0      19        0.0%
BITSFR18             0      0       0      19        0.0%
SFR18                0      0       0      19        0.0%
BANK8               50      0       0      20        0.0%
BITSFR19             0      0       0      20        0.0%
SFR19                0      0       0      20        0.0%
BITBANK9            50      0       0      21        0.0%
BITSFR20             0      0       0      21        0.0%
SFR20                0      0       0      21        0.0%
BANK9               50      0       0      22        0.0%
BITSFR21             0      0       0      22        0.0%
SFR21                0      0       0      22        0.0%
BITBANK10           50      0       0      23        0.0%
BITSFR22             0      0       0      23        0.0%
SFR22                0      0       0      23        0.0%
BANK10              50      0       0      24        0.0%
BITSFR23             0      0       0      24        0.0%
SFR23                0      0       0      24        0.0%
BITBANK11           50      0       0      25        0.0%
BITSFR24             0      0       0      25        0.0%
SFR24                0      0       0      25        0.0%
BANK11              50      0       0      26        0.0%
BITSFR25             0      0       0      26        0.0%
SFR25                0      0       0      26        0.0%
BITBANK12           30      0       0      27        0.0%
BITSFR26             0      0       0      27        0.0%
SFR26                0      0       0      27        0.0%
BANK12              30      0       0      28        0.0%
BITSFR27             0      0       0      28        0.0%
SFR27                0      0       0      28        0.0%
BITSFR28             0      0       0      29        0.0%
SFR28                0      0       0      29        0.0%
DATA                 0      0      86      29        0.0%
BITSFR29             0      0       0      30        0.0%
SFR29                0      0       0      30        0.0%
BITSFR30             0      0       0      31        0.0%
SFR30                0      0       0      31        0.0%
BITSFR31             0      0       0      32        0.0%
SFR31                0      0       0      32        0.0%


Microchip Technology PIC Macro Assembler V2.36 build 20220127204148 
Symbol Table                                                                                   Sat Oct 29 01:12:35 2022

                             _USB_SD_Ptr 1828                                        _v 01C0  
                                     _BF 10A0                              ?_LED_Enable 0070  
                          _USBDeviceInit 065A                       _USBCheckHIDRequest 02DA  
   USER_USB_CALLBACK_EVENT_HANDLER@event 00D9     USER_USB_CALLBACK_EVENT_HANDLER@pdata 00DB  
                                    l202 0F63                                      l300 0B8E  
                                    l221 0C68                                      l311 0BF6  
                                    l303 0BE8                                      l232 0A2D  
                                    l304 0B98                                      l217 0C68  
                                    l401 01AA                                      l305 0B9B  
                                    l161 0703                                      l227 0B26  
                                    l235 0FB2                                      l260 0CDD  
                                    l156 069B                                      l316 0943  
                                    l245 0FFF                                      l333 0AC7  
                                    l325 0863                                      l165 02D9  
                                    l173 01F0              __end_of_USBStdGetDscHandler 0E57  
                                    l406 0821                                      l182 0273  
                                    l271 07A2                                      l263 071C  
                                    l343 09A9                                      l431 03F0  
                                    l319 17FF                                      l183 02D7  
                                    l167 01BC                                      l248 0C8C  
                                    l440 0396                                      l336 07F5  
                                    l184 027A                                      l168 01BB  
                                    l273 07AD                                      l361 0DD1  
                                    l169 01C0                                      l282 0EDC  
                                    l178 023A                                      l363 0D60  
                                    l356 0D52                                      l196 08EE  
                                    l612 0B54                                      l372 0D87  
                                    l357 0D55                                      l349 0D4D  
                                    l703 0842                                      l608 0B89  
                                    l640 17E3                                      l296 0E56  
                                    l528 09DF                                      l650 088B  
                                    l651 088E                                      l580 03F9  
                                    l660 086C                                      l581 04C9  
                                    l653 08A7                                      l397 0160  
                                    l662 0885                                      l486 0A73  
                                    l575 0918                                      l399 0174  
                                    l648 0888                                      l657 0866  
                                    l770 0659                                      l762 05DE  
                                    l659 0869                                      l684 08AA  
                                    l764 05E4                                      _BDT 0020  
                                    l790 07FE                                      l686 08AD  
                                    l687 08B0                                      l759 05A4  
                                    l689 08C9                                      _UIE 0E92  
                                    _UIR 0E90                   _APP_LEDUpdateUSBStatus 0B27  
                             _USBSuspend 17E4                     USBStdSetCfgHandler@i 00E3  
                   USBStdSetCfgHandler@p 00E0                                      wreg 0009  
                         _USBDeviceTasks 01AB                      ?_USBCheckHIDRequest 0070  
                         _USBDeviceState 00D4                            _BUTTON_Enable 17D2  
                  ??_USBCtrlTrfRxService 0072                 USBEnableEndpoint@options 0077  
                                   FSR0H 0005                                     FSR0L 0004  
                        __end_of_LED_Off 0886                                     l1320 0971  
                                   l3020 0A12                                     l3012 09EC  
                                   l3100 0308                                     l1324 0593  
                                   l3022 0A1C                                     l3014 09F0  
                                   l3030 08CF                                     l3110 033F  
                                   l3102 0315                                     l4000 0F0D  
                                   l3024 0A24                                     l3016 0A09  
                                   l3032 08D4                                     l3040 0865  
                                   l3200 0823                                     l3120 036D  
                                   l3112 0345                                     l3104 031C  
                                   l4010 0F5F                                     l4002 0F19  
                                   l3026 0A28                                     l3018 0A0D  
                                   l3034 08D8                                     l3050 0887  
                                   l3202 0826                                     l3122 0375  
                                   l3114 034C                                     l3106 0329  
                                   l4004 0F2B                                     l3036 08DE  
                                   l3028 08CB                                     l3220 0908  
                                   l3044 086F                                     l3060 17D3  
                                   l3140 03BA                                     l3132 03A0  
                                   l3116 0359                                     l3108 0331  
                                   l4006 0F30                                     l3038 08E8  
                                   l3222 0910                                     l3214 08EF  
                                   l3054 0891                                     l3070 08A9  
                                   l3206 082F                                     l3142 03BF  
                                   l3134 03A5                                     l3150 03D4  
                                   l3118 0360                                     l3126 0383  
                                   l3230 0A3B                                     l4008 0F47  
                                   l4200 0451                                     l3216 08FD  
                                   l3160 0B27                                     l3064 17D3  
                                   l3144 03C3                                     l3136 03A9  
                                   l3128 0396                                     l3080 02DA  
                                   l3232 0A43                                     l3224 0A2E  
                                   l4210 0479                                     l4202 0458  
                                   l3218 0900                                     l3170 0B3C  
                                   l3162 0B2C                                     l3074 08B3  
                                   l3146 03C8                                     l3138 03AE  
                                   l3234 0A47                                     l3226 0A2F  
                                   l4220 04A1                                     l4212 0480  
                                   l4204 0460                                     l4132 07F6  
                                   l3260 0C83                                     l3252 0C69  
                                   l3340 0C06                                     l3180 0B5B  
                                   l3172 0B43                                     l3092 02F4  
                                   l3084 02E3                                     l3228 0A33  
                                   l3500 0BCF                                     l4140 059C  
             USBConfigureEndpoint@handle 0076                                     l4222 04A8  
                                   l4214 0488                                     l4206 0466  
                                   l4134 07F9                                     l3262 0C88  
                                   l3254 0C77                                     l3350 0C22  
                                   l3342 0C0A                                     l3334 0BF7  
                                   l3182 0B60                                     l3174 0B48  
                                   l3166 0B31                                     l3086 02E8  
                                   l3238 0A4B                                     l3510 0BF2  
                                   l4150 05DB                                     l4142 05A6  
                                   l4224 04B0                                     l4216 048E  
                                   l4208 0467                                     l3272 0CA8  
                                   l3280 0CBD                                     l3264 0C93  
                                   l3256 0C7B                                     l3360 0C42  
                                   l3352 0C27                                     l3344 0C10  
                                   l3336 0BFD                                     l3184 0B67  
                                   l3176 0B51                                     l3168 0B37  
                                   l3192 0B76                                     l3096 02FB  
                                   l3088 02ED                                     l3520 0051  
                                   l3504 0BD4                                     l3600 0F64  
                                   l4160 05FA                                     l4144 05AC  
                                   l4136 0594                                     l4226 04B6  
                                   l4218 048F                                     l3282 0CC3  
                                   l3274 0CB3                                     l3290 0CD8  
                                   l3266 0C9F                                     l3258 0C80  
                                   l3362 0C46                                     l3354 0C28  
                                   l3346 0C16                                     l3338 0C01  
                                   l3186 0B6C                                     l3178 0B55  
                                   l3194 0B84                                     l3098 0301  
                                   l3530 0066                                     l3522 0053  
                                   l3450 0DDF                                     l3506 0BED  
                                   l3370 0AC8                                     l3610 0F7D  
                                   l3602 0F6B                                     l4170 0657  
                                   l4162 05FE                                     l4154 05E0  
                                   l4146 05D0                                     l4138 0596  
                                   l4228 04B7                                     l4180 03FF  
                                   l3284 0CCE                                     l3276 0CB7  
                                   l3268 0CA3                                     l3364 0C48  
                                   l3356 0C2F                                     l3348 0C1C  
                                   l3540 008A                                     l3532 006D  
                                   l3524 005A                                     l3516 0044  
                                   l3460 0E1D                                     l3452 0DE9  
                                   l3508 0BF1                                     l3380 0AF0  
                                   l3372 0ACB                                     l3620 0FA1  
                                   l3612 0F7F                                     l3604 0F70  
                                   l4172 0658                                     l4164 0604  
                                   l4156 05E8                                     l4148 05D5  
                                   l4190 0427                                     l4182 0406  
                                   l4174 03F1                                     l3286 0CD2  
                                   l3278 0CBB                                     l3366 0C54  
                                   l3358 0C3B                                     l3550 00CF  
                                   l3542 00A3                                     l3534 0074  
                                   l3526 005E                                     l3518 004A  
                                   l3462 0E20                                     l3454 0DEE  
                                   l3446 0DD2                                     l5230 0DAE  
                                   l3390 0B1B                                     l3374 0AD1  
                                   l3382 0AF6                                     l3630 0FBF  
                                   l3622 0FA6                                     l3606 0F75  
                                   l3614 0F81                                     l4166 0609  
                                   l4158 05EE                                     l4192 042D  
                                   l4184 040E                                     l3288 0CD6  
                                   l3800 0CE7                                     l3368 0C61  
                                   l5240 038B                                     l3560 00FC  
                                   l3552 00D4                                     l3544 00BA  
                                   l3536 007E                                     l3528 0060  
                                   l3464 0E26                                     l3456 0DFE  
                                   l3448 0DD9                                     l5232 0BDD  
                                   l3480 0B8A                                     l4600 04CA  
                                   l3392 0B21                                     l3384 0B03  
                                   l3376 0ADD                                     l3632 0FC2  
                                   l3640 0FCE                                     l3624 0FAC  
                                   l3616 0F8E                                     l3608 0F7A  
                                   l4168 0655                                     l4194 0433  
                                   l4186 0414                                     l3810 0D03  
                                   l3802 0CED                                     l5250 0B7F  
                                   l5242 03DC                                     l3562 0101  
                                   l3570 011C                                     l3554 00E1  
                                   l3546 00BE                                     l3538 0084  
                                   l5234 0E4B                                     l3466 0E36  
                                   l3458 0E0D                                     l3474 0E42  
                                   l3490 0BA5                                     l4610 04ED  
                                   l4602 04CE                                     l3386 0B0A  
                                   l3378 0AEA                                     l3650 0FF7  
                                   l3642 0FD3                                     l3634 0FC4  
                                   l3626 0FB7                                     l3618 0F9B  
                                   l4196 043B                                     l4188 0426  
                                   l3820 0D24                                     l3804 0CF3  
                                   l3812 0D08                                     l3660 0718  
                                   l5252 0899                                     l5244 0837  
                                   l5236 0A54                                     l3580 0148  
                                   l3572 0123                                     l3564 0109  
                                   l3556 00EC                                     l3548 00C9  
                                   l3492 0BA9                                     l3484 0B90  
                                   l4620 053D                                     l4700 0D66  
                                   l3388 0B0D                                     l3652 0FF8  
                                   l3644 0FDF                                     l3636 0FC5  
                                   l3628 0FBA                                     l3900 06E6  
                                   l4198 043E                                     l3830 0D53  
                                   l3822 0D30                                     l3814 0D0D  
                                   l3806 0CF8                                     l3670 0738  
                                   l3662 0723                                     l5254 0877  
                                   l5246 08BB                                     l5238 0A6E  
                                   l3590 016D                                     l3582 014D  
                                   l3574 012B                                     l3566 0110  
                                   l3558 00F3                                     l3494 0BB5  
                                   l3486 0B95                                     l4630 0576  
                                   l4622 055B                                     l4614 04F7  
                                   l4606 04D5                                     l4710 0D75  
                                   l4702 0D6A                                     l3646 0FEC  
                                   l3638 0FCA                                     l3750 0961  
                                   l3742 0945                                     l3910 06F5  
                                   l3902 06E9                                     l3824 0D35  
                                   l3816 0D1A                                     l3808 0CFD  
                                   l3680 0765                                     l3672 073E  
                                   l3664 0725                                     l3656 0704  
                                   l5248 17DB                                     l3592 017D  
                                   l3584 0154                                     l3576 0133  
                                   l3568 0116                                     l3496 0BBF  
                                   l3488 0B9D                                     l4640 058D  
                                   l4632 057A                                     l4616 0533  
                                   l4608 04DB                                     l4712 0D77  
                                   l4704 0D6E                                     l3648 0FF2  
                                   l3744 094E                                     l3752 0965  
                                   l3912 06F7                                     l3904 06EE  
                                   l3832 065A                                     l3920 0845  
                                   l4800 01B6                                     l3826 0D41  
                                   l3818 0D1D                                     l3690 079D  
                                   l3682 0771                                     l3674 0744  
                                   l3666 0730                                     l3658 070A  
                                   l3594 018D                                     l3586 0158  
                                   l3578 0138                                     l3498 0BC7  
                                   l4634 057F                                     l4626 0565  
                                   l4650 0E5E                                     l4642 0E57  
                                   l4714 0D7B                                     l4706 0D72  
                                   l4730 0DA5                                     l3746 0956  
                                   l3914 0700                                     l3906 06F0  
                                   l3850 0678                                     l3842 0665  
                                   l3834 065C                                     l3930 0861  
                                   l3922 0853                                     l4810 01CF  
                                   l4802 01B8                                     l3676 0751  
                                   l3684 077D                                     l3668 0734  
                                   l3780 0972                                     l3596 0195  
                                   l3588 0165                                     l4636 0585  
                                   l4628 0572                                     l4660 0E7F  
                                   l4652 0E63                                     l4644 0E5D  
                                   l4724 0D88                                     l4716 0D7F  
                                   l4708 0D73                                     l4740 07B5  
                                   l3748 095A                                     l3916 0702  
                                   l3908 06F4                                     l3860 0691  
                                   l3852 067F                                     l3844 066A  
                                   l3836 0660                                     l3940 17F0  
                                   l3932 17E4                                     l3924 0855  
                                   l4900 02CC                                     l4820 01DF  
                                   l4812 01D0                                     l4804 01C3  
                                   l3694 07A4                                     l3686 078A  
                                   l3678 075E                                     l3790 098F  
                                   l3782 0979                                     l3598 01A2  
                                   l4638 0589                                     l4670 0E8F  
                                   l4662 0E81                                     l4654 0E67  
                                   l4726 0D96                                     l4750 07D9  
                                   l4742 07BD                                     l3870 06A0  
                                   l3862 0695                                     l3846 066E  
                                   l3950 081D                                     l3942 17F1  
                                   l3934 17E6                                     l3926 0857  
                                   l3918 0843                                     l4902 02D1  
                                   l4830 01F8                                     l4822 01E5  
                                   l4814 01D1                                     l4806 01C8  
                                   l4910 09BD                                     l3696 07AA  
                                   l3688 0797                                     l3792 099C  
                                   l3784 097D                                     l4680 0EAE  
                                   l4672 0E93                                     l4656 0E6B  
                                   l4760 07E3                                     l4752 07DA  
                                   l4744 07C3                                     l3880 06AF  
                                   l3872 06A4                                     l3864 069D  
                                   l3848 0672                                     l3944 0805  
                                   l3960 093D                                     l3952 0919  
                                   l3936 17EC                                     l3928 085D  
                                   l4840 020D                                     l4832 01FB  
                                   l4824 01E8                                     l4808 01CD  
                                   l4816 01D6                                     l4920 09D4  
                                   l4912 09C0                                     l4904 09AA  
                                   l3794 09A2                                     l3786 097E  
                                   l4690 0EC8                                     l4682 0EB2  
                                   l4674 0E99                                     l4658 0E71  
                                   l4762 07F2                                     l4754 07DC  
                                   l4746 07CB                                     l4738 07AE  
                                   l4770 0A8C                                     l3882 06B8  
                                   l3874 06A6                                     l3866 069E  
                                   l3858 0680                                     l3946 080E  
                                   l3954 091E                                     l3962 093F  
                                   l3938 17ED                                     l4850 022F  
                                   l4842 0210                                     l4834 0200  
                                   l4826 01ED                                     l4818 01DB  
                                   l4922 09D7                                     l4914 09C2  
                                   l4906 09AD                                     l3788 0983  
                                   l3796 09A8                                     l4692 0ED7  
                                   l4684 0EB8                                     l4676 0EA7  
                                   l4668 0E83                                     l4756 07DE  
                                   l4748 07D1                                     l4780 0AB7  
                                   l4772 0A92                                     l4764 0A74  
                                   l3892 06BC                                     l3884 06B9  
                                   l3876 06A8                                     l3868 069F  
                                   l3948 0814                                     l3956 0928  
                                   l4860 0247                                     l4852 0232  
                                   l4844 0215                                     l4828 01F4  
                                   l4836 0205                                     l4916 09C5  
                                   l4908 09BA                                     l3990 0EEC  
                                   l3798 0CDE                                     l4686 0EBE  
                                   l4678 0EA9                                     l4694 0D56  
                                   l4758 07E0                                     l4774 0A98  
                                   l4782 0ABB                                     l4766 0A79  
                                   l3894 06D7                                     l3886 06BA  
                                   l3878 06AA                                     l3958 0932  
                                   l4870 0267                                     l4862 024B  
                                   l4854 0238                                     l4846 0219  
                                   l4838 0209                                     l4918 09D1  
                        __end_of_LED_rpt 1110                                     l3992 0EF5  
                                   l4688 0EC3                                     l4784 0AC4  
                                   l4776 0AA3                                     l4768 0A7F  
                                   l3896 06DB                                     l3888 06BB  
                                   l4872 0269                                     l4864 024E  
                                   l4856 023F                                     l4848 0229  
                                   l4928 09E5                                     l3994 0EFB  
                                   l3986 0EDE                                     l4698 0D61  
                                   l4778 0AB3                                     l3898 06E1  
                                   l4890 0296                                     l4882 027F  
                                   l4874 0270                                     l4866 0253  
                                   l4858 0242                                     l4794 01AB  
                                   l4786 01AB                                     l3988 0EE3  
                                   l4892 02A6                                     l4884 0284  
                                   l4876 0278                                     l4868 0257  
                                   l4796 01B1                                     l3998 0EFE  
                                   l4894 02B5                                     l4886 028C  
                                   l4798 01B4                                     l4896 02BA  
                                   l4888 0291                                     l4898 02BE  
                                   u2000 0B75                                     u2001 0B74  
                                   u2010 0C77                                     u2011 0C76  
                                   u2020 0C80                                     u2021 0C7F  
                                   u2030 0C88                                     u2031 0C87  
                                   u2040 0CA7                                     u2120 0BFD  
                                   u2041 0CA6                                     u2121 0BFC  
                                   u2050 0CC2                                     u2130 0C06  
                                   u2210 0DD9                                     u2051 0CC1  
                                   u2131 0C05                                     u2211 0DD8  
                                   u2060 0CDD                                     u2140 0C10  
                                   u2300 004A                                     u2220 0DEE  
                                   u2061 0CDC                                     u2141 0C0F  
                                   u2301 0049                                     u2221 0DED  
                                   u2150 0C27                                     u2310 0051  
                                   u2230 0E26                                     u2151 0C26  
                                   u2311 0050                                     u2231 0E25  
                                   u2400 00D4                                     u2320 005A  
                                   u2240 0B95                                     u2160 0AD1  
                                   u3200 0609                                     u2401 00D3  
                                   u2321 0059                                     u2241 0B94  
                                   u2161 0AD0                                     u3201 0608  
                                   u3210 03F8                                     u2410 00F3  
                                   u2330 0066                                     u2250 0BA5  
                                   u2170 0B03                                     u3130 059C  
                                   u3211 03F7                                     u2411 00F2  
                                   u2331 0065                                     u2251 0BA4  
                                   u2171 0B02                                     u3131 059B  
                                   u3300 0488                                     u3220 03FE  
                                   u2420 00FC                                     u2340 006D  
                                   u2260 0BA9                                     u2500 0F7A  
                                   u3140 05A4                                     u3301 0487  
                                   u3221 03FD                                     u2421 00FB  
                                   u2341 006C                                     u2261 0BA8  
                                   u2501 0F79                                     u3141 05A3  
                                   u3310 048E                                     u3230 0406  
                                   u2430 0101                                     u2350 0074  
                                   u2270 0BC7                                     u2510 0FB7  
                                   u3150 05D5                                     u3311 048D  
                                   u3231 0405                                     u2431 0100  
                                   u2351 0073                                     u2271 0BC6  
                                   u2175 0AFF                                     u2511 0FB6  
                                   u3151 05D4                                     u3320 04A8  
                                   u3240 040E                                     u1800 02E2  
                                   u2440 012B                                     u2360 007E  
                                   u2280 0BCF                                     u2520 0FBF  
                                   u3160 05DB                                     u3321 04A7  
                                   u3241 040D                                     u1801 02E1  
                                   u2441 012A                                     u2361 007D  
                                   u2281 0BCE                                     u2521 0FBE  
                                   u3161 05DA                                     u3330 04B0  
                                   u3250 0414                                     u1810 02E8  
                                   u2450 0158                                     u2370 0084  
                                   u2290 0BED                                     u2530 0FCA  
                                   u2610 0971                                     u3170 05E4  
                                   u3331 04AF                                     u3251 0413  
                                   u1811 02E7                                     u2451 0157  
                                   u2371 0083                                     u2291 0BEC  
                                   u2531 0FC9                                     u2611 0970  
                                   u3171 05E3                                     u3340 04B6  
                                   u3260 0458                                     u2620 0979  
                                   u1900 034C                                     u1820 02ED  
                                   u2460 0160                                     u2380 008A  
                                   u3500 0564                                     u2540 0FFE  
                                   u2700 0678                                     u3180 05E8  
                                   u3341 04B5                                     u3261 0457  
                                   u2621 0978                                     u1901 034B  
                                   u1821 02EC                                     u2461 015F  
                                   u2381 0089                                     u3501 0563  
                                   u2541 0FFD                                     u2701 0677  
                                   u3181 05E7                                     u3270 0460  
                                   u2550 0718                                     u2630 0983  
                                   u1910 0360                                     u1830 02F3  
                                   u2470 0165                                     u2390 00BE  
                                   u3510 0593                                     u3190 05EE  
                                   u3271 045F                                     u2551 0717  
                                   u2631 0982                                     u1911 035F  
                                   u1831 02F2                                     u2471 0164  
                                   u2391 00BD                                     u3511 0592  
                                   u3191 05ED                                     u3280 0466  
                                   u2640 0CF3                                     u2560 073E  
                                   u1920 0375                                     u1840 02FA  
                                   u3520 0E71                                     u2480 0F6B  
                                   u2720 069B                                     u2800 0932  
                                   u3600 01B1                                     u3281 0465  
                                   u2641 0CF2                                     u2561 073D  
                                   u1745 09F3                                     u1921 0374  
                                   u1841 02F9                                     u3521 0E70  
                                   u2481 0F6A                                     u2721 069A  
                                   u2801 0931                                     u3601 01B0  
                                   u3290 0480                                     u2650 0CFD  
                                   u2570 0744                                     u1770 0A12  
                                   u1930 039F                                     u1850 0301  
                                   u3530 0E99                                     u2490 0F70  
                                   u2730 06AF                                     u3610 01C0  
                                   u3291 047F                                     u2651 0CFC  
                                   u2571 0743                                     u2555 0714  
                                   u1771 0A11                                     u1755 09F9  
                                   u1931 039E                                     u1851 0300  
                                   u3531 0E98                                     u2491 0F6F  
                                   u2731 06AE                                     u2715 0683  
                                   u3611 01BF                                     u2660 0D0D  
                                   u2580 0765                                     u1780 08CF  
                                   u1940 0B2C                                     u1860 0308  
                                   u3540 0EC3                                     u2740 06E1  
                                   u3700 020D                                     u3620 01C8  
                                   u2661 0D0C                                     u2581 0764  
                                   u1765 0A01                                     u1781 08CE  
                                   u1941 0B2B                                     u1861 0307  
                                   u3541 0EC2                                     u2741 06E0  
                                   u3701 020C                                     u3621 01C7  
                                   u2670 0D24                                     u2590 07AA  
                                   u1790 08D8                                     u1950 0B37  
                                   u1870 031C                                     u3470 04D4  
                                   u3550 0D5F                                     u2750 0861  
                                   u3710 0215                                     u3630 01CD  
                                   u2671 0D23                                     u2591 07A9  
                                   u1791 08D7                                     u1951 0B36  
                                   u1871 031B                                     u3471 04D3  
                                   u3551 0D5E                                     u2751 0860  
                                   u3711 0214                                     u3631 01CC  
                                   u2680 0D35                                     u1960 0B43  
                                   u1880 0331                                     u3480 04F6  
                                   u3560 0A7F                                     u2760 0814  
                                   u3800 0278                                     u3720 0219  
                                   u3640 01DB                                     u2681 0D34  
                                   u1961 0B42                                     u1881 0330  
                                   u3481 04F5                                     u3561 0A7E  
                                   u2761 0813                                     u3801 0277  
                                   u3721 0218                                     u3641 01DA  
                                   u2850 0EE3                                     u2690 0D52  
                                   u1970 0B51                                     u1890 0345  
                                   u3490 053C                                     u2770 081D  
                                   u3810 027F                                     u3730 0238  
                                   u3650 01DF                                     u2851 0EE2  
                                   u2691 0D51                                     u1971 0B50  
                                   u1891 0344                                     u3491 053B  
                                   u2771 081C                                     u3811 027E  
                                   u3731 0237                                     u3651 01DE  
                                   u2860 0EFB                                     u1980 0B5B  
                                   u3580 0AA3                                     u2780 091E  
                                   u3820 0296                                     u3740 023F  
                                   u3660 01ED                                     u2861 0EFA  
                                   u1981 0B5A                                     u3581 0AA2  
                                   u2781 091D                                     u3821 0295  
                                   u3741 023E                                     u3661 01EC  
                                   u2870 0F30                                     u1990 0B67  
                                   u3590 0AC4                                     u2790 0928  
                                   u3830 02BA                                     u3750 0247  
                                   u3670 01F4                                     u2871 0F2F  
                                   u1991 0B66                                     u3591 0AC3  
                                   u3575 0A83                                     u2791 0927  
                                   u3831 02B9                                     u3751 0246  
                                   u3671 01F3                                     u3840 02D7  
                                   u3760 024B                                     u3680 01F8  
                                   u3841 02D6                                     u3761 024A  
                                   u3681 01F7                                     u3770 0253  
                                   u3690 0209                                     u3850 09CF  
                                   u3771 0252                                     u3691 0208  
                                   u3851 09CC                                     u3780 0257  
                                   u3781 0256                                     u3790 0270  
                                   u3870 09DE                                     u3791 026F  
                                   u3871 09DD                                     u3880 09E4  
                                   u3864 09D1                                     u3881 09E3  
                  ??_USBCtrlTrfTxService 0070                                     u3897 09B3  
                                   _REGT 012E                                     _UCFG 0E91  
                                   _UEP0 0E98                                     _UEP1 0E99  
                                   _UEIE 0E97                                     _UEIR 0E93  
                                   _UCON 0E8E                                     _WCOL 10AF  
 USBStdFeatureReqHandler@current_ep_data 00E3                                     _pDst 00D0  
                                   _cntr 012A                                     _main 09AA  
                                   fsr0h 0005                                     fsr1h 0007  
                                   indf0 0000                                     fsr0l 0004  
                                   indf1 0001                                     fsr1l 0006  
                                   btemp 007E                                     start 0008  
        __end_of_APP_DeviceJoystickTasks 04CA                     ??_USBCheckHIDRequest 0070  
             __end_of_USBCheckStdRequest 0DD2                   ??_USBCtrlTrfOutHandler 0076  
              ??_USBStdFeatureReqHandler 00DF                 ??_USBStdGetStatusHandler 0070  
                         ?_USBDeviceInit 0070                                    ?_main 0070  
                 __end_of_USBDeviceTasks 02DA                ?_USBCtrlEPServiceComplete 0070  
                                  i1l708 0006                                    _UADDR 0E96  
                                  _TESTB 012F                                    _SSPOV 10AE  
                                  _USTAT 0E8F                           ?_BUTTON_Enable 0070  
        __end_of_USBCtrlEPAllowDataStage 0B27                                    _sd000 182E  
                                  _sd001 10C0                                    _sd002 1110  
         ?_USBIncrement1msInternalTimers 0070                          __end_of_spiTask 065A  
                                  status 0003                                    wtemp0 007E  
                        __initialization 000A                             __end_of_main 09EB  
                                 ??_main 00EE                          ?_USBDeviceTasks 0070  
                            ?_USBSuspend 0070                                ??_LED_Off 0070  
                                 SSP1BUF 0211                                   _ANSELC 018E  
                 SYSTEM_Initialize@state 0075                                   _LED_On 0886  
                                 _SSPADD 0212                                   _TRISC0 0470  
                                 _TRISC1 0471                                   _TRISC2 0472  
                                 _TRISC3 0473                                   _SSPBUF 0211  
                                 _SSPCON 0215                        _shortPacketStatus 00D2  
                        USBDeviceTasks@i 00ED              USBStdFeatureReqHandler@pUEP 00E1  
               USBTransferOnePacket@data 0071               USBCtrlTrfInHandler@lastDTS 0075  
                        ??_USBDeviceInit 0070                        _USBEnableEndpoint 08CA  
                                 _cnt_tr 01B4                                   _memcpy 0944  
                                 _memset 04CA                       ?_USBEnableEndpoint 0077  
                        ??_BUTTON_Enable 0070                            _LED_pkt_ready 012D  
                              ??_spiTask 0070                      ??_USBEnableEndpoint 0078  
                            _CtrlTrfData 0068                     _controlTransferState 00D1  
                      _SYSTEM_Initialize 0822                  __end_of__initialization 0040  
                     ?_SYSTEM_Initialize 0070                           __pcstackCOMMON 0070  
              __end_of_USBEnableEndpoint 08EF                            __end_of_sd000 1832  
                          __end_of_sd001 10F4                            __end_of_sd002 112C  
                           __pidataBANK3 17BE                      ??_SYSTEM_Initialize 0073  
                              LED_On@led 0072                       __end_of_HAPTIC_rpt 10C0  
                        _active_protocol 00D5                             ??_LED_Enable 0070  
            __end_of_USBCtrlTrfInHandler 0D56                  ?_APP_LEDUpdateUSBStatus 0070  
               ??_USBCtrlTrfSetupHandler 00E8                  _USBTicksSinceSuspendEnd 00C5  
              __end_of_SYSTEM_Initialize 0843                   _USBStdGetStatusHandler 0B8A  
                             __pbssBANK1 00B0                               __pbssBANK2 0120  
                             __pbssBANK3 01A0                                  ?_LED_On 0070  
                     __end_of_LED_Enable 08CA                          _hap_IN_pkt_sent 012C  
                            _pBDTEntryIn 00B0         __end_of_USBCtrlEPServiceComplete 1000  
                             __pmaintext 09AA                     USBCtrlTrfRxService@i 0074  
                          LED_Enable@led 0072                                  SSP1STAT 0214  
         __end_of_APP_LEDUpdateUSBStatus 0B8A                               __pintentry 0004  
                                ?_memcpy 0070                                  ?_memset 0070  
                             _device_dsc 1816                         _USBCtrlEPService 0A74  
                             _ep_data_in 01B0              __end_of_USBCtrlTrfRxService 07AE  
                     _USBCheckStdRequest 0D56                        _configDescriptor1 1000  
                          ?_SlaveinitSPI 0070                                  _LED_Off 0864  
                                _LED_rpt 10F4              __end_of_USBCtrlTrfTxService 0CDE  
                    _USBStdSetCfgHandler 0E57                               _haptic_out 0130  
                                _SSPCON1 0215                      ?_USBCheckStdRequest 0070  
                                _UIEbits 0E92                                  _SSPSTAT 0214  
                                _UIRbits 0E90           APP_LEDUpdateUSBStatus@ledCount 00BD  
        ??_USBIncrement1msInternalTimers 0070                     ?_USBStdSetCfgHandler 0070  
                   ??_USBCheckStdRequest 00E6                         ??_USBDeviceTasks 00EB  
                      ??_USBStallHandler 0070                __end_of_configDescriptor1 1069  
                                _garbage 0129                                  __ptext1 0594  
                                __ptext2 01AB                                  __ptext3 0843  
                                __ptext4 17E4                                  __ptext5 0919  
                                __ptext6 0805                                  __ptext7 065A  
                                __ptext8 0A74                                  __ptext9 0944  
                                _inPipes 00B8              _USBDeferOUTDataStagePackets 00C6  
                         ??_SlaveinitSPI 0070                             ??_USBSuspend 00DF  
                _APP_DeviceJoystickTasks 03F1                                  _spiTask 0594  
                     __end_of_USB_CD_Ptr 1834                                  clrloop0 17C7  
                   end_of_initialization 0040                       __end_of_USB_SD_Ptr 182E  
                                memcpy@d 0079                                  memcpy@n 0072  
                                memcpy@s 0075                      _pBDTEntryEP0OutNext 00C1  
                                memset@c 0072                                  memset@k 007A  
                                memset@n 0074                                  memset@s 007C  
                        _USB1msTickCount 01A8                 ?_USBStdFeatureReqHandler 0070  
                  ??_USBStdSetCfgHandler 00DF                       __end_of_USBSuspend 1800  
                _USBCtrlEPAllowDataStage 0AC8                              OUTOFWAITSPI 05CF  
                             _luminosity 0128                 _USBCtrlEPServiceComplete 0F64  
             _USBStatusStageEnabledFlag1 00C9               _USBStatusStageEnabledFlag2 00C8  
                     USBEnableEndpoint@p 007A                                _PORTCbits 000E  
                              _TRISCbits 008E                       _BothEP0OutUOWNsSet 00CC  
              USBStdSetCfgHandler@i_1457 00E2                USBConfigureEndpoint@EPNum 0075  
             ?_USBCtrlEPAllowStatusStage 0070      USER_USB_CALLBACK_EVENT_HANDLER@size 00DD  
                              _USTATcopy 00D7             __end_of_USBTransferOnePacket 0F64  
                         __end_of_LED_On 08A8                       USBDeviceInit@i_722 0073  
                 _USBCtrlTrfSetupHandler 07AE                    __end_of_USBDeviceInit 0704  
  __end_of_USBIncrement1msInternalTimers 0822            _USBIncrement1msInternalTimers 0805  
                             LED_Off@led 0072                             _last_HAP_OUT 01BA  
              ??_APP_DeviceJoystickTasks 007B                           __end_of_memcpy 0972  
                    __end_of_DISPLAY_rpt 1816                           __end_of_memset 0594  
                           _last_LED_OUT 01B8                             _last_DSP_OUT 01B6  
                      _USBBusIsSuspended 00CE                      start_initialization 000A  
                ?_USBStdGetStatusHandler 0070                    __end_of_BUTTON_Enable 17E4  
          USBCtrlTrfRxService@byteToRead 0075             __end_of_USBConfigureEndpoint 0A2E  
        __end_of_USBStdFeatureReqHandler 01AB                                 ??_LED_On 0070  
      __end_of_USBCtrlEPAllowStatusStage 0C69                 __end_of_USBCtrlEPService 0AC8  
              ??_USBCtrlEPAllowDataStage 0073                     __end_of_SlaveinitSPI 07FF  
                         USBDeviceInit@i 0074                           USBDeviceInit@p 0071  
                 _pBDTEntryEP0OutCurrent 00D3                  USBTransferOnePacket@dir 0070  
                USBTransferOnePacket@len 0073     __end_of_APP_DeviceJoystickInitialize 0919  
           _APP_DeviceJoystickInitialize 08EF                      _USBStdGetDscHandler 0DD2  
                            __pdataBANK3 01C0                                 ??_memcpy 0074  
                               ??_memset 0076                               memset@dest 0070  
                 _USBActiveConfiguration 00D8           __end_of_USBStdGetStatusHandler 0BF7  
                               ?_LED_Off 0070                                ___latbits 0002  
                          __pcstackBANK1 00D9                        _hap_OUT_pkt_ready 012B  
                   ?_USBStdGetDscHandler 0070               __end_of_USBWakeFromSuspend 0864  
                        _USBStallHandler 0919                             _pBDTEntryOut 01A0  
                            _DISPLAY_rpt 1800            ?_APP_DeviceJoystickInitialize 0070  
                              _idle_rate 00D6                                _haptic_in 00A0  
                   _USBTransferOnePacket 0EDD                                 ?_spiTask 0070  
           __end_of_USBCtrlTrfOutHandler 09AA                    ??_USBStdGetDscHandler 0070  
                            _ep_data_out 01AC            USBConfigureEndpoint@direction 0070  
                               _LATCbits 010E               __end_of_USBCheckHIDRequest 03F1  
             ??_USBCtrlEPServiceComplete 0075                                clear_ram0 17C6  
                               _PIE2bits 0092                                 _PIR2bits 0012  
                               _UEP0bits 0E98                       _errors_ctr2_to_PIC 0127  
             _USBDeferINDataStagePackets 00C7                                 _UCONbits 0E8E  
                   _USBConfigureEndpoint 09EB                        _display_pkt_ready 00C4  
                  ?_USBTransferOnePacket 0070                        _SYS_InterruptHigh 0004  
                           _RemoteWakeup 00CF                       ?_SYS_InterruptHigh 0070  
                __end_of_USBStallHandler 0944                              _last_HAP_IN 00BF  
            ??_USBCtrlEPAllowStatusStage 0070              __end_of_USBStdSetCfgHandler 0EDD  
                    ??_SYS_InterruptHigh 0070                              _leds_output 2130  
                     __end_of_device_dsc 1828                 ??_APP_LEDUpdateUSBStatus 0073  
                ?_USBCtrlTrfSetupHandler 0070                  USBStdGetStatusHandler@p 0072  
                              memcpy@tmp 0077                   USBTransferOnePacket@ep 0078  
                               _SetupPkt 0060                    ?_USBConfigureEndpoint 0070  
              __end_of_SYS_InterruptHigh 0008           ??_APP_DeviceJoystickInitialize 007D  
                           _SlaveinitSPI 07F6                               _HAPTIC_rpt 1069  
                               __ptext10 07AE                                 __ptext11 0F64  
                               __ptext20 02DA                                 __ptext12 0AC8  
                               __ptext21 0822                                 __ptext13 0D56  
                               __ptext30 0972                                 __ptext22 08A8  
                               __ptext14 0E57                                 __ptext31 0704  
                               __ptext23 17D2                                 __ptext15 04CA  
                               __ptext32 0BF7                                 __ptext24 0B27  
                               __ptext16 0B8A                                 __ptext33 0CDE  
                               __ptext25 0886                                 __ptext17 0DD2  
                               __ptext34 0C69                                 __ptext26 0864  
                               __ptext18 0044                                 __ptext35 07F6  
                               __ptext27 08EF                                 __ptext19 0A2E  
                               __ptext36 03F1                                 __ptext28 08CA  
                               __ptext37 0EDD                                 __ptext29 09EB  
         __end_of_USBCtrlTrfSetupHandler 07F6                        ?_USBCtrlEPService 0070  
                     ??_USBCtrlEPService 00E9                      _USBCtrlTrfInHandler 0CDE  
                    BUTTON_Enable@button 0072                                 _outPipes 0120  
                   _USBCtrlTrfOutHandler 0972                                 int$flags 007E  
              _USBCtrlEPAllowStatusStage 0BF7                               _LED_Enable 08A8  
                 ??_USBTransferOnePacket 0074                             _pkt_requests 00C3  
              _USBDeferStatusStagePacket 00CA                     ?_USBCtrlTrfInHandler 0070  
                               memcpy@d1 0078                                 memcpy@s1 0070  
          USBCtrlTrfTxService@byteToSend 0072                           __pstringtext10 182E  
                       ?_USBStallHandler 0070                 USBStdFeatureReqHandler@p 00E4  
                               intlevel1 0000  __end_of_USER_USB_CALLBACK_EVENT_HANDLER 0A74  
      ??_USER_USB_CALLBACK_EVENT_HANDLER 007E         ?_USER_USB_CALLBACK_EVENT_HANDLER 00D9  
        _USER_USB_CALLBACK_EVENT_HANDLER 0A2E                   ??_USBConfigureEndpoint 0071  
                  ?_USBCtrlTrfOutHandler 0070                 ?_APP_DeviceJoystickTasks 0070  
                    _USBCtrlTrfRxService 0704                       _USBWakeFromSuspend 0843  
                _USBStdFeatureReqHandler 0044                      _USBCtrlTrfTxService 0C69  
                         _ctrl2_from_PIC 01BC                            __pstringtext1 1828  
                          __pstringtext2 1832                            __pstringtext3 1000  
                          __pstringtext4 1069                            __pstringtext5 10C0  
                          __pstringtext6 10F4                            __pstringtext7 1110  
                          __pstringtext8 1800                            __pstringtext9 1816  
                    ?_USBWakeFromSuspend 0070                    ??_USBCtrlTrfInHandler 0073  
                  _USBAlternateInterface 01BD                      USBEnableEndpoint@ep 007C  
                        _endpoint_number 00CD                           _display_output 21B0  
                   ?_USBCtrlTrfRxService 0070                 ?_USBCtrlEPAllowDataStage 0070  
                   ?_USBCtrlTrfTxService 0070             _USBStatusStageTimeoutCounter 00CB  
                   ??_USBWakeFromSuspend 00DF               USBTransferOnePacket@handle 0079  
                             _USB_CD_Ptr 1832  
